ARM GAS  C:\Users\fish\AppData\Local\Temp\ccbIzxZK.s 			page 1


   1              		.cpu cortex-m4
   2              		.arch armv7e-m
   3              		.fpu fpv4-sp-d16
   4              		.eabi_attribute 27, 1
   5              		.eabi_attribute 28, 1
   6              		.eabi_attribute 20, 1
   7              		.eabi_attribute 21, 1
   8              		.eabi_attribute 23, 3
   9              		.eabi_attribute 24, 1
  10              		.eabi_attribute 25, 1
  11              		.eabi_attribute 26, 1
  12              		.eabi_attribute 30, 1
  13              		.eabi_attribute 34, 1
  14              		.eabi_attribute 18, 4
  15              		.file	"gpio.c"
  16              		.text
  17              	.Ltext0:
  18              		.cfi_sections	.debug_frame
  19              		.file 1 "Core/Src/gpio.c"
  20              		.section	.text.MX_GPIO_Init,"ax",%progbits
  21              		.align	1
  22              		.global	MX_GPIO_Init
  23              		.syntax unified
  24              		.thumb
  25              		.thumb_func
  27              	MX_GPIO_Init:
  28              	.LFB239:
   1:Core/Src/gpio.c **** /* USER CODE BEGIN Header */
   2:Core/Src/gpio.c **** /**
   3:Core/Src/gpio.c ****   ******************************************************************************
   4:Core/Src/gpio.c ****   * @file    gpio.c
   5:Core/Src/gpio.c ****   * @brief   This file provides code for the configuration
   6:Core/Src/gpio.c ****   *          of all used GPIO pins.
   7:Core/Src/gpio.c ****   ******************************************************************************
   8:Core/Src/gpio.c ****   * @attention
   9:Core/Src/gpio.c ****   *
  10:Core/Src/gpio.c ****   * Copyright (c) 2026 STMicroelectronics.
  11:Core/Src/gpio.c ****   * All rights reserved.
  12:Core/Src/gpio.c ****   *
  13:Core/Src/gpio.c ****   * This software is licensed under terms that can be found in the LICENSE file
  14:Core/Src/gpio.c ****   * in the root directory of this software component.
  15:Core/Src/gpio.c ****   * If no LICENSE file comes with this software, it is provided AS-IS.
  16:Core/Src/gpio.c ****   *
  17:Core/Src/gpio.c ****   ******************************************************************************
  18:Core/Src/gpio.c ****   */
  19:Core/Src/gpio.c **** /* USER CODE END Header */
  20:Core/Src/gpio.c **** 
  21:Core/Src/gpio.c **** /* Includes ------------------------------------------------------------------*/
  22:Core/Src/gpio.c **** #include "gpio.h"
  23:Core/Src/gpio.c **** 
  24:Core/Src/gpio.c **** /* USER CODE BEGIN 0 */
  25:Core/Src/gpio.c **** 
  26:Core/Src/gpio.c **** /* USER CODE END 0 */
  27:Core/Src/gpio.c **** 
  28:Core/Src/gpio.c **** /*----------------------------------------------------------------------------*/
  29:Core/Src/gpio.c **** /* Configure GPIO                                                             */
  30:Core/Src/gpio.c **** /*----------------------------------------------------------------------------*/
ARM GAS  C:\Users\fish\AppData\Local\Temp\ccbIzxZK.s 			page 2


  31:Core/Src/gpio.c **** /* USER CODE BEGIN 1 */
  32:Core/Src/gpio.c **** 
  33:Core/Src/gpio.c **** /* USER CODE END 1 */
  34:Core/Src/gpio.c **** 
  35:Core/Src/gpio.c **** /** Configure pins as
  36:Core/Src/gpio.c ****         * Analog
  37:Core/Src/gpio.c ****         * Input
  38:Core/Src/gpio.c ****         * Output
  39:Core/Src/gpio.c ****         * EVENT_OUT
  40:Core/Src/gpio.c ****         * EXTI
  41:Core/Src/gpio.c **** */
  42:Core/Src/gpio.c **** void MX_GPIO_Init(void)
  43:Core/Src/gpio.c **** {
  29              		.loc 1 43 1 view -0
  30              		.cfi_startproc
  31              		@ args = 0, pretend = 0, frame = 48
  32              		@ frame_needed = 0, uses_anonymous_args = 0
  33 0000 2DE9F04F 		push	{r4, r5, r6, r7, r8, r9, r10, fp, lr}
  34              	.LCFI0:
  35              		.cfi_def_cfa_offset 36
  36              		.cfi_offset 4, -36
  37              		.cfi_offset 5, -32
  38              		.cfi_offset 6, -28
  39              		.cfi_offset 7, -24
  40              		.cfi_offset 8, -20
  41              		.cfi_offset 9, -16
  42              		.cfi_offset 10, -12
  43              		.cfi_offset 11, -8
  44              		.cfi_offset 14, -4
  45 0004 8DB0     		sub	sp, sp, #52
  46              	.LCFI1:
  47              		.cfi_def_cfa_offset 88
  44:Core/Src/gpio.c **** 
  45:Core/Src/gpio.c ****   GPIO_InitTypeDef GPIO_InitStruct = {0};
  48              		.loc 1 45 3 view .LVU1
  49              		.loc 1 45 20 is_stmt 0 view .LVU2
  50 0006 07AD     		add	r5, sp, #28
  51 0008 0024     		movs	r4, #0
  52 000a 0794     		str	r4, [sp, #28]
  53 000c 0894     		str	r4, [sp, #32]
  54 000e 0994     		str	r4, [sp, #36]
  55 0010 0A94     		str	r4, [sp, #40]
  56 0012 0B94     		str	r4, [sp, #44]
  46:Core/Src/gpio.c **** 
  47:Core/Src/gpio.c ****   /* GPIO Ports Clock Enable */
  48:Core/Src/gpio.c ****   __HAL_RCC_GPIOE_CLK_ENABLE();
  57              		.loc 1 48 3 is_stmt 1 view .LVU3
  58              	.LBB2:
  59              		.loc 1 48 3 view .LVU4
  60 0014 0194     		str	r4, [sp, #4]
  61              		.loc 1 48 3 view .LVU5
  62 0016 5A4B     		ldr	r3, .L3
  63 0018 1A6B     		ldr	r2, [r3, #48]
  64 001a 42F01002 		orr	r2, r2, #16
  65 001e 1A63     		str	r2, [r3, #48]
  66              		.loc 1 48 3 view .LVU6
  67 0020 1A6B     		ldr	r2, [r3, #48]
ARM GAS  C:\Users\fish\AppData\Local\Temp\ccbIzxZK.s 			page 3


  68 0022 02F01002 		and	r2, r2, #16
  69 0026 0192     		str	r2, [sp, #4]
  70              		.loc 1 48 3 view .LVU7
  71 0028 019A     		ldr	r2, [sp, #4]
  72              	.LBE2:
  73              		.loc 1 48 3 view .LVU8
  49:Core/Src/gpio.c ****   __HAL_RCC_GPIOC_CLK_ENABLE();
  74              		.loc 1 49 3 view .LVU9
  75              	.LBB3:
  76              		.loc 1 49 3 view .LVU10
  77 002a 0294     		str	r4, [sp, #8]
  78              		.loc 1 49 3 view .LVU11
  79 002c 1A6B     		ldr	r2, [r3, #48]
  80 002e 42F00402 		orr	r2, r2, #4
  81 0032 1A63     		str	r2, [r3, #48]
  82              		.loc 1 49 3 view .LVU12
  83 0034 1A6B     		ldr	r2, [r3, #48]
  84 0036 02F00402 		and	r2, r2, #4
  85 003a 0292     		str	r2, [sp, #8]
  86              		.loc 1 49 3 view .LVU13
  87 003c 029A     		ldr	r2, [sp, #8]
  88              	.LBE3:
  89              		.loc 1 49 3 view .LVU14
  50:Core/Src/gpio.c ****   __HAL_RCC_GPIOH_CLK_ENABLE();
  90              		.loc 1 50 3 view .LVU15
  91              	.LBB4:
  92              		.loc 1 50 3 view .LVU16
  93 003e 0394     		str	r4, [sp, #12]
  94              		.loc 1 50 3 view .LVU17
  95 0040 1A6B     		ldr	r2, [r3, #48]
  96 0042 42F08002 		orr	r2, r2, #128
  97 0046 1A63     		str	r2, [r3, #48]
  98              		.loc 1 50 3 view .LVU18
  99 0048 1A6B     		ldr	r2, [r3, #48]
 100 004a 02F08002 		and	r2, r2, #128
 101 004e 0392     		str	r2, [sp, #12]
 102              		.loc 1 50 3 view .LVU19
 103 0050 039A     		ldr	r2, [sp, #12]
 104              	.LBE4:
 105              		.loc 1 50 3 view .LVU20
  51:Core/Src/gpio.c ****   __HAL_RCC_GPIOA_CLK_ENABLE();
 106              		.loc 1 51 3 view .LVU21
 107              	.LBB5:
 108              		.loc 1 51 3 view .LVU22
 109 0052 0494     		str	r4, [sp, #16]
 110              		.loc 1 51 3 view .LVU23
 111 0054 1A6B     		ldr	r2, [r3, #48]
 112 0056 42F00102 		orr	r2, r2, #1
 113 005a 1A63     		str	r2, [r3, #48]
 114              		.loc 1 51 3 view .LVU24
 115 005c 1A6B     		ldr	r2, [r3, #48]
 116 005e 02F00102 		and	r2, r2, #1
 117 0062 0492     		str	r2, [sp, #16]
 118              		.loc 1 51 3 view .LVU25
 119 0064 049A     		ldr	r2, [sp, #16]
 120              	.LBE5:
 121              		.loc 1 51 3 view .LVU26
ARM GAS  C:\Users\fish\AppData\Local\Temp\ccbIzxZK.s 			page 4


  52:Core/Src/gpio.c ****   __HAL_RCC_GPIOB_CLK_ENABLE();
 122              		.loc 1 52 3 view .LVU27
 123              	.LBB6:
 124              		.loc 1 52 3 view .LVU28
 125 0066 0594     		str	r4, [sp, #20]
 126              		.loc 1 52 3 view .LVU29
 127 0068 1A6B     		ldr	r2, [r3, #48]
 128 006a 42F00202 		orr	r2, r2, #2
 129 006e 1A63     		str	r2, [r3, #48]
 130              		.loc 1 52 3 view .LVU30
 131 0070 1A6B     		ldr	r2, [r3, #48]
 132 0072 02F00202 		and	r2, r2, #2
 133 0076 0592     		str	r2, [sp, #20]
 134              		.loc 1 52 3 view .LVU31
 135 0078 059A     		ldr	r2, [sp, #20]
 136              	.LBE6:
 137              		.loc 1 52 3 view .LVU32
  53:Core/Src/gpio.c ****   __HAL_RCC_GPIOD_CLK_ENABLE();
 138              		.loc 1 53 3 view .LVU33
 139              	.LBB7:
 140              		.loc 1 53 3 view .LVU34
 141 007a 0694     		str	r4, [sp, #24]
 142              		.loc 1 53 3 view .LVU35
 143 007c 1A6B     		ldr	r2, [r3, #48]
 144 007e 42F00802 		orr	r2, r2, #8
 145 0082 1A63     		str	r2, [r3, #48]
 146              		.loc 1 53 3 view .LVU36
 147 0084 1B6B     		ldr	r3, [r3, #48]
 148 0086 03F00803 		and	r3, r3, #8
 149 008a 0693     		str	r3, [sp, #24]
 150              		.loc 1 53 3 view .LVU37
 151 008c 069B     		ldr	r3, [sp, #24]
 152              	.LBE7:
 153              		.loc 1 53 3 view .LVU38
  54:Core/Src/gpio.c **** 
  55:Core/Src/gpio.c ****   /*Configure GPIO pin Output Level */
  56:Core/Src/gpio.c ****   HAL_GPIO_WritePin(NFC_MOSI_GPIO_Port, NFC_MOSI_Pin, GPIO_PIN_RESET);
 154              		.loc 1 56 3 view .LVU39
 155 008e DFF8F8B0 		ldr	fp, .L3+8
 156 0092 2246     		mov	r2, r4
 157 0094 0121     		movs	r1, #1
 158 0096 5846     		mov	r0, fp
 159 0098 FFF7FEFF 		bl	HAL_GPIO_WritePin
 160              	.LVL0:
  57:Core/Src/gpio.c **** 
  58:Core/Src/gpio.c ****   /*Configure GPIO pin Output Level */
  59:Core/Src/gpio.c ****   HAL_GPIO_WritePin(SPI1_CS_GPIO_Port, SPI1_CS_Pin, GPIO_PIN_RESET);
 161              		.loc 1 59 3 view .LVU40
 162 009c DFF8ECA0 		ldr	r10, .L3+12
 163 00a0 2246     		mov	r2, r4
 164 00a2 1021     		movs	r1, #16
 165 00a4 5046     		mov	r0, r10
 166 00a6 FFF7FEFF 		bl	HAL_GPIO_WritePin
 167              	.LVL1:
  60:Core/Src/gpio.c **** 
  61:Core/Src/gpio.c ****   /*Configure GPIO pin Output Level */
  62:Core/Src/gpio.c ****   HAL_GPIO_WritePin(GPIOE, L1_Pin|L2_Pin|L3_Pin|L4_Pin
ARM GAS  C:\Users\fish\AppData\Local\Temp\ccbIzxZK.s 			page 5


 168              		.loc 1 62 3 view .LVU41
 169 00aa 364F     		ldr	r7, .L3+4
 170 00ac 0122     		movs	r2, #1
 171 00ae 4FF4FE41 		mov	r1, #32512
 172 00b2 3846     		mov	r0, r7
 173 00b4 FFF7FEFF 		bl	HAL_GPIO_WritePin
 174              	.LVL2:
  63:Core/Src/gpio.c ****                           |L5_Pin|L6_Pin|L7_Pin, GPIO_PIN_SET);
  64:Core/Src/gpio.c **** 
  65:Core/Src/gpio.c ****   /*Configure GPIO pin Output Level */
  66:Core/Src/gpio.c ****   HAL_GPIO_WritePin(GPIOE, NFC_NSS_Pin|TEMP_Pin, GPIO_PIN_RESET);
 175              		.loc 1 66 3 view .LVU42
 176 00b8 2246     		mov	r2, r4
 177 00ba 48F20101 		movw	r1, #32769
 178 00be 3846     		mov	r0, r7
 179 00c0 FFF7FEFF 		bl	HAL_GPIO_WritePin
 180              	.LVL3:
  67:Core/Src/gpio.c **** 
  68:Core/Src/gpio.c ****   /*Configure GPIO pin Output Level */
  69:Core/Src/gpio.c ****   HAL_GPIO_WritePin(GPIOB, NFC_GND_Pin|NFC_RST_Pin, GPIO_PIN_RESET);
 181              		.loc 1 69 3 view .LVU43
 182 00c4 DFF8C880 		ldr	r8, .L3+16
 183 00c8 2246     		mov	r2, r4
 184 00ca 4FF40441 		mov	r1, #33792
 185 00ce 4046     		mov	r0, r8
 186 00d0 FFF7FEFF 		bl	HAL_GPIO_WritePin
 187              	.LVL4:
  70:Core/Src/gpio.c **** 
  71:Core/Src/gpio.c ****   /*Configure GPIO pin Output Level */
  72:Core/Src/gpio.c ****   HAL_GPIO_WritePin(GPIOD, NFC_SCK_Pin|MAX9814_GAIN_Pin, GPIO_PIN_RESET);
 188              		.loc 1 72 3 view .LVU44
 189 00d4 DFF8BC90 		ldr	r9, .L3+20
 190 00d8 2246     		mov	r2, r4
 191 00da 4FF41071 		mov	r1, #576
 192 00de 4846     		mov	r0, r9
 193 00e0 FFF7FEFF 		bl	HAL_GPIO_WritePin
 194              	.LVL5:
  73:Core/Src/gpio.c **** 
  74:Core/Src/gpio.c ****   /*Configure GPIO pins : K2_Pin K3_Pin K4_Pin K1_Pin */
  75:Core/Src/gpio.c ****   GPIO_InitStruct.Pin = K2_Pin|K3_Pin|K4_Pin|K1_Pin;
 195              		.loc 1 75 3 view .LVU45
 196              		.loc 1 75 23 is_stmt 0 view .LVU46
 197 00e4 1E23     		movs	r3, #30
 198 00e6 0793     		str	r3, [sp, #28]
  76:Core/Src/gpio.c ****   GPIO_InitStruct.Mode = GPIO_MODE_INPUT;
 199              		.loc 1 76 3 is_stmt 1 view .LVU47
 200              		.loc 1 76 24 is_stmt 0 view .LVU48
 201 00e8 0894     		str	r4, [sp, #32]
  77:Core/Src/gpio.c ****   GPIO_InitStruct.Pull = GPIO_PULLUP;
 202              		.loc 1 77 3 is_stmt 1 view .LVU49
 203              		.loc 1 77 24 is_stmt 0 view .LVU50
 204 00ea 0126     		movs	r6, #1
 205 00ec 0996     		str	r6, [sp, #36]
  78:Core/Src/gpio.c ****   HAL_GPIO_Init(GPIOE, &GPIO_InitStruct);
 206              		.loc 1 78 3 is_stmt 1 view .LVU51
 207 00ee 2946     		mov	r1, r5
 208 00f0 3846     		mov	r0, r7
ARM GAS  C:\Users\fish\AppData\Local\Temp\ccbIzxZK.s 			page 6


 209 00f2 FFF7FEFF 		bl	HAL_GPIO_Init
 210              	.LVL6:
  79:Core/Src/gpio.c **** 
  80:Core/Src/gpio.c ****   /*Configure GPIO pins : K5_Pin K6_Pin */
  81:Core/Src/gpio.c ****   GPIO_InitStruct.Pin = K5_Pin|K6_Pin;
 211              		.loc 1 81 3 view .LVU52
 212              		.loc 1 81 23 is_stmt 0 view .LVU53
 213 00f6 6023     		movs	r3, #96
 214 00f8 0793     		str	r3, [sp, #28]
  82:Core/Src/gpio.c ****   GPIO_InitStruct.Mode = GPIO_MODE_INPUT;
 215              		.loc 1 82 3 is_stmt 1 view .LVU54
 216              		.loc 1 82 24 is_stmt 0 view .LVU55
 217 00fa 0894     		str	r4, [sp, #32]
  83:Core/Src/gpio.c ****   GPIO_InitStruct.Pull = GPIO_PULLDOWN;
 218              		.loc 1 83 3 is_stmt 1 view .LVU56
 219              		.loc 1 83 24 is_stmt 0 view .LVU57
 220 00fc 0223     		movs	r3, #2
 221 00fe 0993     		str	r3, [sp, #36]
  84:Core/Src/gpio.c ****   HAL_GPIO_Init(GPIOE, &GPIO_InitStruct);
 222              		.loc 1 84 3 is_stmt 1 view .LVU58
 223 0100 2946     		mov	r1, r5
 224 0102 3846     		mov	r0, r7
 225 0104 FFF7FEFF 		bl	HAL_GPIO_Init
 226              	.LVL7:
  85:Core/Src/gpio.c **** 
  86:Core/Src/gpio.c ****   /*Configure GPIO pin : NFC_MOSI_Pin */
  87:Core/Src/gpio.c ****   GPIO_InitStruct.Pin = NFC_MOSI_Pin;
 227              		.loc 1 87 3 view .LVU59
 228              		.loc 1 87 23 is_stmt 0 view .LVU60
 229 0108 0796     		str	r6, [sp, #28]
  88:Core/Src/gpio.c ****   GPIO_InitStruct.Mode = GPIO_MODE_OUTPUT_PP;
 230              		.loc 1 88 3 is_stmt 1 view .LVU61
 231              		.loc 1 88 24 is_stmt 0 view .LVU62
 232 010a 0896     		str	r6, [sp, #32]
  89:Core/Src/gpio.c ****   GPIO_InitStruct.Pull = GPIO_NOPULL;
 233              		.loc 1 89 3 is_stmt 1 view .LVU63
 234              		.loc 1 89 24 is_stmt 0 view .LVU64
 235 010c 0994     		str	r4, [sp, #36]
  90:Core/Src/gpio.c ****   GPIO_InitStruct.Speed = GPIO_SPEED_FREQ_LOW;
 236              		.loc 1 90 3 is_stmt 1 view .LVU65
 237              		.loc 1 90 25 is_stmt 0 view .LVU66
 238 010e 0A94     		str	r4, [sp, #40]
  91:Core/Src/gpio.c ****   HAL_GPIO_Init(NFC_MOSI_GPIO_Port, &GPIO_InitStruct);
 239              		.loc 1 91 3 is_stmt 1 view .LVU67
 240 0110 2946     		mov	r1, r5
 241 0112 5846     		mov	r0, fp
 242 0114 FFF7FEFF 		bl	HAL_GPIO_Init
 243              	.LVL8:
  92:Core/Src/gpio.c **** 
  93:Core/Src/gpio.c ****   /*Configure GPIO pin : SPI1_CS_Pin */
  94:Core/Src/gpio.c ****   GPIO_InitStruct.Pin = SPI1_CS_Pin;
 244              		.loc 1 94 3 view .LVU68
 245              		.loc 1 94 23 is_stmt 0 view .LVU69
 246 0118 1023     		movs	r3, #16
 247 011a 0793     		str	r3, [sp, #28]
  95:Core/Src/gpio.c ****   GPIO_InitStruct.Mode = GPIO_MODE_OUTPUT_PP;
 248              		.loc 1 95 3 is_stmt 1 view .LVU70
ARM GAS  C:\Users\fish\AppData\Local\Temp\ccbIzxZK.s 			page 7


 249              		.loc 1 95 24 is_stmt 0 view .LVU71
 250 011c 0896     		str	r6, [sp, #32]
  96:Core/Src/gpio.c ****   GPIO_InitStruct.Pull = GPIO_NOPULL;
 251              		.loc 1 96 3 is_stmt 1 view .LVU72
 252              		.loc 1 96 24 is_stmt 0 view .LVU73
 253 011e 0994     		str	r4, [sp, #36]
  97:Core/Src/gpio.c ****   GPIO_InitStruct.Speed = GPIO_SPEED_FREQ_LOW;
 254              		.loc 1 97 3 is_stmt 1 view .LVU74
 255              		.loc 1 97 25 is_stmt 0 view .LVU75
 256 0120 0A94     		str	r4, [sp, #40]
  98:Core/Src/gpio.c ****   HAL_GPIO_Init(SPI1_CS_GPIO_Port, &GPIO_InitStruct);
 257              		.loc 1 98 3 is_stmt 1 view .LVU76
 258 0122 2946     		mov	r1, r5
 259 0124 5046     		mov	r0, r10
 260 0126 FFF7FEFF 		bl	HAL_GPIO_Init
 261              	.LVL9:
  99:Core/Src/gpio.c **** 
 100:Core/Src/gpio.c ****   /*Configure GPIO pins : L1_Pin L2_Pin L3_Pin L4_Pin
 101:Core/Src/gpio.c ****                            L5_Pin L6_Pin L7_Pin NFC_NSS_Pin
 102:Core/Src/gpio.c ****                            TEMP_Pin */
 103:Core/Src/gpio.c ****   GPIO_InitStruct.Pin = L1_Pin|L2_Pin|L3_Pin|L4_Pin
 262              		.loc 1 103 3 view .LVU77
 263              		.loc 1 103 23 is_stmt 0 view .LVU78
 264 012a 4FF60173 		movw	r3, #65281
 265 012e 0793     		str	r3, [sp, #28]
 104:Core/Src/gpio.c ****                           |L5_Pin|L6_Pin|L7_Pin|NFC_NSS_Pin
 105:Core/Src/gpio.c ****                           |TEMP_Pin;
 106:Core/Src/gpio.c ****   GPIO_InitStruct.Mode = GPIO_MODE_OUTPUT_PP;
 266              		.loc 1 106 3 is_stmt 1 view .LVU79
 267              		.loc 1 106 24 is_stmt 0 view .LVU80
 268 0130 0896     		str	r6, [sp, #32]
 107:Core/Src/gpio.c ****   GPIO_InitStruct.Pull = GPIO_NOPULL;
 269              		.loc 1 107 3 is_stmt 1 view .LVU81
 270              		.loc 1 107 24 is_stmt 0 view .LVU82
 271 0132 0994     		str	r4, [sp, #36]
 108:Core/Src/gpio.c ****   GPIO_InitStruct.Speed = GPIO_SPEED_FREQ_LOW;
 272              		.loc 1 108 3 is_stmt 1 view .LVU83
 273              		.loc 1 108 25 is_stmt 0 view .LVU84
 274 0134 0A94     		str	r4, [sp, #40]
 109:Core/Src/gpio.c ****   HAL_GPIO_Init(GPIOE, &GPIO_InitStruct);
 275              		.loc 1 109 3 is_stmt 1 view .LVU85
 276 0136 2946     		mov	r1, r5
 277 0138 3846     		mov	r0, r7
 278 013a FFF7FEFF 		bl	HAL_GPIO_Init
 279              	.LVL10:
 110:Core/Src/gpio.c **** 
 111:Core/Src/gpio.c ****   /*Configure GPIO pins : NFC_GND_Pin NFC_RST_Pin */
 112:Core/Src/gpio.c ****   GPIO_InitStruct.Pin = NFC_GND_Pin|NFC_RST_Pin;
 280              		.loc 1 112 3 view .LVU86
 281              		.loc 1 112 23 is_stmt 0 view .LVU87
 282 013e 4FF40443 		mov	r3, #33792
 283 0142 0793     		str	r3, [sp, #28]
 113:Core/Src/gpio.c ****   GPIO_InitStruct.Mode = GPIO_MODE_OUTPUT_PP;
 284              		.loc 1 113 3 is_stmt 1 view .LVU88
 285              		.loc 1 113 24 is_stmt 0 view .LVU89
 286 0144 0896     		str	r6, [sp, #32]
 114:Core/Src/gpio.c ****   GPIO_InitStruct.Pull = GPIO_NOPULL;
ARM GAS  C:\Users\fish\AppData\Local\Temp\ccbIzxZK.s 			page 8


 287              		.loc 1 114 3 is_stmt 1 view .LVU90
 288              		.loc 1 114 24 is_stmt 0 view .LVU91
 289 0146 0994     		str	r4, [sp, #36]
 115:Core/Src/gpio.c ****   GPIO_InitStruct.Speed = GPIO_SPEED_FREQ_LOW;
 290              		.loc 1 115 3 is_stmt 1 view .LVU92
 291              		.loc 1 115 25 is_stmt 0 view .LVU93
 292 0148 0A94     		str	r4, [sp, #40]
 116:Core/Src/gpio.c ****   HAL_GPIO_Init(GPIOB, &GPIO_InitStruct);
 293              		.loc 1 116 3 is_stmt 1 view .LVU94
 294 014a 2946     		mov	r1, r5
 295 014c 4046     		mov	r0, r8
 296 014e FFF7FEFF 		bl	HAL_GPIO_Init
 297              	.LVL11:
 117:Core/Src/gpio.c **** 
 118:Core/Src/gpio.c ****   /*Configure GPIO pin : NFC_MISO_Pin */
 119:Core/Src/gpio.c ****   GPIO_InitStruct.Pin = NFC_MISO_Pin;
 298              		.loc 1 119 3 view .LVU95
 299              		.loc 1 119 23 is_stmt 0 view .LVU96
 300 0152 4FF40053 		mov	r3, #8192
 301 0156 0793     		str	r3, [sp, #28]
 120:Core/Src/gpio.c ****   GPIO_InitStruct.Mode = GPIO_MODE_INPUT;
 302              		.loc 1 120 3 is_stmt 1 view .LVU97
 303              		.loc 1 120 24 is_stmt 0 view .LVU98
 304 0158 0894     		str	r4, [sp, #32]
 121:Core/Src/gpio.c ****   GPIO_InitStruct.Pull = GPIO_NOPULL;
 305              		.loc 1 121 3 is_stmt 1 view .LVU99
 306              		.loc 1 121 24 is_stmt 0 view .LVU100
 307 015a 0994     		str	r4, [sp, #36]
 122:Core/Src/gpio.c ****   HAL_GPIO_Init(NFC_MISO_GPIO_Port, &GPIO_InitStruct);
 308              		.loc 1 122 3 is_stmt 1 view .LVU101
 309 015c 2946     		mov	r1, r5
 310 015e 4046     		mov	r0, r8
 311 0160 FFF7FEFF 		bl	HAL_GPIO_Init
 312              	.LVL12:
 123:Core/Src/gpio.c **** 
 124:Core/Src/gpio.c ****   /*Configure GPIO pins : NFC_SCK_Pin MAX9814_GAIN_Pin */
 125:Core/Src/gpio.c ****   GPIO_InitStruct.Pin = NFC_SCK_Pin|MAX9814_GAIN_Pin;
 313              		.loc 1 125 3 view .LVU102
 314              		.loc 1 125 23 is_stmt 0 view .LVU103
 315 0164 4FF41073 		mov	r3, #576
 316 0168 0793     		str	r3, [sp, #28]
 126:Core/Src/gpio.c ****   GPIO_InitStruct.Mode = GPIO_MODE_OUTPUT_PP;
 317              		.loc 1 126 3 is_stmt 1 view .LVU104
 318              		.loc 1 126 24 is_stmt 0 view .LVU105
 319 016a 0896     		str	r6, [sp, #32]
 127:Core/Src/gpio.c ****   GPIO_InitStruct.Pull = GPIO_NOPULL;
 320              		.loc 1 127 3 is_stmt 1 view .LVU106
 321              		.loc 1 127 24 is_stmt 0 view .LVU107
 322 016c 0994     		str	r4, [sp, #36]
 128:Core/Src/gpio.c ****   GPIO_InitStruct.Speed = GPIO_SPEED_FREQ_LOW;
 323              		.loc 1 128 3 is_stmt 1 view .LVU108
 324              		.loc 1 128 25 is_stmt 0 view .LVU109
 325 016e 0A94     		str	r4, [sp, #40]
 129:Core/Src/gpio.c ****   HAL_GPIO_Init(GPIOD, &GPIO_InitStruct);
 326              		.loc 1 129 3 is_stmt 1 view .LVU110
 327 0170 2946     		mov	r1, r5
 328 0172 4846     		mov	r0, r9
ARM GAS  C:\Users\fish\AppData\Local\Temp\ccbIzxZK.s 			page 9


 329 0174 FFF7FEFF 		bl	HAL_GPIO_Init
 330              	.LVL13:
 130:Core/Src/gpio.c **** 
 131:Core/Src/gpio.c **** }
 331              		.loc 1 131 1 is_stmt 0 view .LVU111
 332 0178 0DB0     		add	sp, sp, #52
 333              	.LCFI2:
 334              		.cfi_def_cfa_offset 36
 335              		@ sp needed
 336 017a BDE8F08F 		pop	{r4, r5, r6, r7, r8, r9, r10, fp, pc}
 337              	.L4:
 338 017e 00BF     		.align	2
 339              	.L3:
 340 0180 00380240 		.word	1073887232
 341 0184 00100240 		.word	1073876992
 342 0188 00000240 		.word	1073872896
 343 018c 00080240 		.word	1073874944
 344 0190 00040240 		.word	1073873920
 345 0194 000C0240 		.word	1073875968
 346              		.cfi_endproc
 347              	.LFE239:
 349              		.text
 350              	.Letext0:
 351              		.file 2 "C:/STM32/arm-none-eabi-gcc/14.2.1-1.1.1/.content/arm-none-eabi/include/machine/_default_t
 352              		.file 3 "C:/STM32/arm-none-eabi-gcc/14.2.1-1.1.1/.content/arm-none-eabi/include/sys/_stdint.h"
 353              		.file 4 "Drivers/CMSIS/Device/ST/STM32F4xx/Include/stm32f407xx.h"
 354              		.file 5 "Drivers/STM32F4xx_HAL_Driver/Inc/stm32f4xx_hal_gpio.h"
ARM GAS  C:\Users\fish\AppData\Local\Temp\ccbIzxZK.s 			page 10

