ARM GAS  C:\Users\fish\AppData\Local\Temp\cc1GxmHF.s 			page 1


   1              		.cpu cortex-m4
   2              		.arch armv7e-m
   3              		.fpu fpv4-sp-d16
   4              		.eabi_attribute 27, 1
   5              		.eabi_attribute 28, 1
   6              		.eabi_attribute 20, 1
   7              		.eabi_attribute 21, 1
   8              		.eabi_attribute 23, 3
   9              		.eabi_attribute 24, 1
  10              		.eabi_attribute 25, 1
  11              		.eabi_attribute 26, 1
  12              		.eabi_attribute 30, 1
  13              		.eabi_attribute 34, 1
  14              		.eabi_attribute 18, 4
  15              		.file	"key.c"
  16              		.text
  17              	.Ltext0:
  18              		.cfi_sections	.debug_frame
  19              		.file 1 "../Bsp/Key/key.c"
  20              		.section	.text.Key_Init,"ax",%progbits
  21              		.align	1
  22              		.global	Key_Init
  23              		.syntax unified
  24              		.thumb
  25              		.thumb_func
  27              	Key_Init:
  28              	.LVL0:
  29              	.LFB239:
   1:../Bsp/Key/key.c **** /**
   2:../Bsp/Key/key.c ****  * @file    key.c
   3:../Bsp/Key/key.c ****  * @brief   通用按键驱动实现 - 计数消抖 + 短按/长按/连按检测
   4:../Bsp/Key/key.c ****  */
   5:../Bsp/Key/key.c **** 
   6:../Bsp/Key/key.c **** #include "key.h"
   7:../Bsp/Key/key.c **** #include <string.h>
   8:../Bsp/Key/key.c **** 
   9:../Bsp/Key/key.c **** /* ====== 私有变量 ====== */
  10:../Bsp/Key/key.c **** 
  11:../Bsp/Key/key.c **** static Key_Config_t s_configs[KEY_MAX_COUNT];
  12:../Bsp/Key/key.c **** static Key_State_t  s_states[KEY_MAX_COUNT];
  13:../Bsp/Key/key.c **** static uint8_t      s_keyCount = 0;
  14:../Bsp/Key/key.c **** 
  15:../Bsp/Key/key.c **** /* ====== 导出函数实现 ====== */
  16:../Bsp/Key/key.c **** 
  17:../Bsp/Key/key.c **** void Key_Init(const Key_Config_t *configs, uint8_t count)
  18:../Bsp/Key/key.c **** {
  30              		.loc 1 18 1 view -0
  31              		.cfi_startproc
  32              		@ args = 0, pretend = 0, frame = 0
  33              		@ frame_needed = 0, uses_anonymous_args = 0
  34              		.loc 1 18 1 is_stmt 0 view .LVU1
  35 0000 10B5     		push	{r4, lr}
  36              	.LCFI0:
  37              		.cfi_def_cfa_offset 8
  38              		.cfi_offset 4, -8
  39              		.cfi_offset 14, -4
  19:../Bsp/Key/key.c ****     if (count > KEY_MAX_COUNT)
ARM GAS  C:\Users\fish\AppData\Local\Temp\cc1GxmHF.s 			page 2


  40              		.loc 1 19 5 is_stmt 1 view .LVU2
  41              		.loc 1 19 8 is_stmt 0 view .LVU3
  42 0002 0629     		cmp	r1, #6
  43 0004 00D9     		bls	.L2
  20:../Bsp/Key/key.c ****         count = KEY_MAX_COUNT;
  44              		.loc 1 20 15 view .LVU4
  45 0006 0621     		movs	r1, #6
  46              	.LVL1:
  47              	.L2:
  21:../Bsp/Key/key.c **** 
  22:../Bsp/Key/key.c ****     s_keyCount = count;
  48              		.loc 1 22 5 is_stmt 1 view .LVU5
  49              		.loc 1 22 16 is_stmt 0 view .LVU6
  50 0008 064B     		ldr	r3, .L5
  51 000a 1970     		strb	r1, [r3]
  23:../Bsp/Key/key.c ****     memcpy(s_configs, configs, count * sizeof(Key_Config_t));
  52              		.loc 1 23 5 is_stmt 1 view .LVU7
  53 000c CC00     		lsls	r4, r1, #3
  54 000e 2246     		mov	r2, r4
  55 0010 0146     		mov	r1, r0
  56              	.LVL2:
  57              		.loc 1 23 5 is_stmt 0 view .LVU8
  58 0012 0548     		ldr	r0, .L5+4
  59              	.LVL3:
  60              		.loc 1 23 5 view .LVU9
  61 0014 FFF7FEFF 		bl	memcpy
  62              	.LVL4:
  24:../Bsp/Key/key.c ****     memset(s_states, 0, count * sizeof(Key_State_t));
  63              		.loc 1 24 5 is_stmt 1 view .LVU10
  64 0018 2246     		mov	r2, r4
  65 001a 0021     		movs	r1, #0
  66 001c 0348     		ldr	r0, .L5+8
  67 001e FFF7FEFF 		bl	memset
  68              	.LVL5:
  25:../Bsp/Key/key.c **** }
  69              		.loc 1 25 1 is_stmt 0 view .LVU11
  70 0022 10BD     		pop	{r4, pc}
  71              	.L6:
  72              		.align	2
  73              	.L5:
  74 0024 00000000 		.word	s_keyCount
  75 0028 00000000 		.word	s_configs
  76 002c 00000000 		.word	s_states
  77              		.cfi_endproc
  78              	.LFE239:
  80              		.section	.text.Key_Scan,"ax",%progbits
  81              		.align	1
  82              		.global	Key_Scan
  83              		.syntax unified
  84              		.thumb
  85              		.thumb_func
  87              	Key_Scan:
  88              	.LFB240:
  26:../Bsp/Key/key.c **** 
  27:../Bsp/Key/key.c **** void Key_Scan(void)
  28:../Bsp/Key/key.c **** {
  89              		.loc 1 28 1 is_stmt 1 view -0
ARM GAS  C:\Users\fish\AppData\Local\Temp\cc1GxmHF.s 			page 3


  90              		.cfi_startproc
  91              		@ args = 0, pretend = 0, frame = 0
  92              		@ frame_needed = 0, uses_anonymous_args = 0
  93 0000 70B5     		push	{r4, r5, r6, lr}
  94              	.LCFI1:
  95              		.cfi_def_cfa_offset 16
  96              		.cfi_offset 4, -16
  97              		.cfi_offset 5, -12
  98              		.cfi_offset 6, -8
  99              		.cfi_offset 14, -4
  29:../Bsp/Key/key.c ****     uint8_t i;
 100              		.loc 1 29 5 view .LVU13
  30:../Bsp/Key/key.c **** 
  31:../Bsp/Key/key.c ****     for (i = 0; i < s_keyCount; i++)
 101              		.loc 1 31 5 view .LVU14
 102              	.LVL6:
 103              		.loc 1 31 12 is_stmt 0 view .LVU15
 104 0002 0024     		movs	r4, #0
 105              		.loc 1 31 5 view .LVU16
 106 0004 1BE0     		b	.L8
 107              	.LVL7:
 108              	.L9:
 109              	.LBB2:
  32:../Bsp/Key/key.c ****     {
  33:../Bsp/Key/key.c ****         Key_State_t *st = &s_states[i];
  34:../Bsp/Key/key.c ****         const Key_Config_t *cfg = &s_configs[i];
  35:../Bsp/Key/key.c **** 
  36:../Bsp/Key/key.c ****         /* 读取原始电平并转换为逻辑状态 (1=按下, 0=释放) */
  37:../Bsp/Key/key.c ****         GPIO_PinState raw = HAL_GPIO_ReadPin(cfg->port, cfg->pin);
  38:../Bsp/Key/key.c ****         uint8_t logicState;
  39:../Bsp/Key/key.c ****         if (cfg->activeLevel == KEY_ACTIVE_LOW)
  40:../Bsp/Key/key.c ****             logicState = (raw == GPIO_PIN_RESET) ? 1 : 0;
  41:../Bsp/Key/key.c ****         else
  42:../Bsp/Key/key.c ****             logicState = (raw == GPIO_PIN_SET) ? 1 : 0;
 110              		.loc 1 42 13 is_stmt 1 view .LVU17
 111              		.loc 1 42 52 is_stmt 0 view .LVU18
 112 0006 0128     		cmp	r0, #1
 113 0008 14BF     		ite	ne
 114 000a 0020     		movne	r0, #0
 115              	.LVL8:
 116              		.loc 1 42 52 view .LVU19
 117 000c 0120     		moveq	r0, #1
 118 000e 29E0     		b	.L10
 119              	.LVL9:
 120              	.L23:
  43:../Bsp/Key/key.c **** 
  44:../Bsp/Key/key.c ****         /* ---- 计数消抖 ---- */
  45:../Bsp/Key/key.c ****         if (logicState == st->stableState)
  46:../Bsp/Key/key.c ****         {
  47:../Bsp/Key/key.c ****             /* 状态一致, 计数器可保持 (不超出阈值) */
  48:../Bsp/Key/key.c ****             if (st->debounceCnt < 255)
 121              		.loc 1 48 13 is_stmt 1 view .LVU20
 122              		.loc 1 48 19 is_stmt 0 view .LVU21
 123 0010 484B     		ldr	r3, .L24
 124 0012 13F83530 		ldrb	r3, [r3, r5, lsl #3]	@ zero_extendqisi2
 125              		.loc 1 48 16 view .LVU22
 126 0016 FF2B     		cmp	r3, #255
ARM GAS  C:\Users\fish\AppData\Local\Temp\cc1GxmHF.s 			page 4


 127 0018 03D0     		beq	.L12
  49:../Bsp/Key/key.c ****                 st->debounceCnt++;
 128              		.loc 1 49 17 is_stmt 1 view .LVU23
 129              		.loc 1 49 32 is_stmt 0 view .LVU24
 130 001a 0133     		adds	r3, r3, #1
 131 001c 454A     		ldr	r2, .L24
 132 001e 02F83530 		strb	r3, [r2, r5, lsl #3]
 133              	.L12:
  50:../Bsp/Key/key.c ****         }
  51:../Bsp/Key/key.c ****         else
  52:../Bsp/Key/key.c ****         {
  53:../Bsp/Key/key.c ****             /* 状态变化, 开始计数 */
  54:../Bsp/Key/key.c ****             st->debounceCnt++;
  55:../Bsp/Key/key.c ****             if (st->debounceCnt >= KEY_DEBOUNCE_COUNT)
  56:../Bsp/Key/key.c ****             {
  57:../Bsp/Key/key.c ****                 /* 确认状态翻转 */
  58:../Bsp/Key/key.c ****                 st->stableState = logicState;
  59:../Bsp/Key/key.c ****                 st->debounceCnt = 0;
  60:../Bsp/Key/key.c ****             }
  61:../Bsp/Key/key.c ****         }
  62:../Bsp/Key/key.c **** 
  63:../Bsp/Key/key.c ****         /* ---- 事件判定 ---- */
  64:../Bsp/Key/key.c ****         if (st->stableState == 1)
 134              		.loc 1 64 9 is_stmt 1 view .LVU25
 135              		.loc 1 64 15 is_stmt 0 view .LVU26
 136 0022 444B     		ldr	r3, .L24
 137 0024 03EBC503 		add	r3, r3, r5, lsl #3
 138 0028 5B78     		ldrb	r3, [r3, #1]	@ zero_extendqisi2
 139              		.loc 1 64 12 view .LVU27
 140 002a 012B     		cmp	r3, #1
 141 002c 31D0     		beq	.L20
  65:../Bsp/Key/key.c ****         {
  66:../Bsp/Key/key.c ****             /* 按下中 */
  67:../Bsp/Key/key.c ****             if (st->prevState == 0)
  68:../Bsp/Key/key.c ****             {
  69:../Bsp/Key/key.c ****                 /* 刚按下 (下降沿/上升沿) */
  70:../Bsp/Key/key.c ****                 st->prevState = 1;
  71:../Bsp/Key/key.c ****                 st->pressDuration = 0;
  72:../Bsp/Key/key.c ****                 st->longPressed = 0;
  73:../Bsp/Key/key.c ****                 st->events |= KEY_EVENT_PRESSED;
  74:../Bsp/Key/key.c ****             }
  75:../Bsp/Key/key.c ****             else
  76:../Bsp/Key/key.c ****             {
  77:../Bsp/Key/key.c ****                 /* 持续按下 */
  78:../Bsp/Key/key.c ****                 st->pressDuration += KEY_SCAN_INTERVAL_MS;
  79:../Bsp/Key/key.c **** 
  80:../Bsp/Key/key.c ****                 /* 长按检测 */
  81:../Bsp/Key/key.c ****                 if (!st->longPressed && st->pressDuration >= KEY_LONG_PRESS_MS)
  82:../Bsp/Key/key.c ****                 {
  83:../Bsp/Key/key.c ****                     st->longPressed = 1;
  84:../Bsp/Key/key.c ****                     st->events |= KEY_EVENT_LONG_PRESS;
  85:../Bsp/Key/key.c ****                 }
  86:../Bsp/Key/key.c **** 
  87:../Bsp/Key/key.c ****                 /* 长按连发 */
  88:../Bsp/Key/key.c ****                 if (st->longPressed && st->pressDuration >= KEY_LONG_PRESS_MS + KEY_REPEAT_INTERVAL
  89:../Bsp/Key/key.c ****                 {
  90:../Bsp/Key/key.c ****                     st->events |= KEY_EVENT_REPEAT;
ARM GAS  C:\Users\fish\AppData\Local\Temp\cc1GxmHF.s 			page 5


  91:../Bsp/Key/key.c ****                     /* 重置持续时间以连发, 保留长按标志 */
  92:../Bsp/Key/key.c ****                     st->pressDuration = KEY_LONG_PRESS_MS;
  93:../Bsp/Key/key.c ****                 }
  94:../Bsp/Key/key.c ****             }
  95:../Bsp/Key/key.c ****         }
  96:../Bsp/Key/key.c ****         else
  97:../Bsp/Key/key.c ****         {
  98:../Bsp/Key/key.c ****             /* 释放中 */
  99:../Bsp/Key/key.c ****             if (st->prevState == 1)
 142              		.loc 1 99 13 is_stmt 1 view .LVU28
 143              		.loc 1 99 19 is_stmt 0 view .LVU29
 144 002e 414B     		ldr	r3, .L24
 145 0030 03EBC503 		add	r3, r3, r5, lsl #3
 146 0034 9B78     		ldrb	r3, [r3, #2]	@ zero_extendqisi2
 147              		.loc 1 99 16 view .LVU30
 148 0036 012B     		cmp	r3, #1
 149 0038 66D0     		beq	.L21
 150              	.L15:
 151              	.LBE2:
  31:../Bsp/Key/key.c ****     {
 152              		.loc 1 31 34 is_stmt 1 discriminator 2 view .LVU31
 153 003a 0134     		adds	r4, r4, #1
 154              	.LVL10:
  31:../Bsp/Key/key.c ****     {
 155              		.loc 1 31 34 is_stmt 0 discriminator 2 view .LVU32
 156 003c E4B2     		uxtb	r4, r4
 157              	.LVL11:
 158              	.L8:
  31:../Bsp/Key/key.c ****     {
 159              		.loc 1 31 19 is_stmt 1 discriminator 1 view .LVU33
 160 003e 3E4B     		ldr	r3, .L24+4
 161 0040 1B78     		ldrb	r3, [r3]	@ zero_extendqisi2
 162 0042 A342     		cmp	r3, r4
 163 0044 75D9     		bls	.L22
 164              	.LBB3:
  33:../Bsp/Key/key.c ****         const Key_Config_t *cfg = &s_configs[i];
 165              		.loc 1 33 9 view .LVU34
  33:../Bsp/Key/key.c ****         const Key_Config_t *cfg = &s_configs[i];
 166              		.loc 1 33 36 is_stmt 0 view .LVU35
 167 0046 2546     		mov	r5, r4
 168              	.LVL12:
  34:../Bsp/Key/key.c **** 
 169              		.loc 1 34 9 is_stmt 1 view .LVU36
  37:../Bsp/Key/key.c ****         uint8_t logicState;
 170              		.loc 1 37 9 view .LVU37
  37:../Bsp/Key/key.c ****         uint8_t logicState;
 171              		.loc 1 37 49 is_stmt 0 view .LVU38
 172 0048 3C4B     		ldr	r3, .L24+8
  37:../Bsp/Key/key.c ****         uint8_t logicState;
 173              		.loc 1 37 60 view .LVU39
 174 004a 03EBC406 		add	r6, r3, r4, lsl #3
 175              	.LVL13:
  37:../Bsp/Key/key.c ****         uint8_t logicState;
 176              		.loc 1 37 29 view .LVU40
 177 004e B188     		ldrh	r1, [r6, #4]
 178 0050 53F83400 		ldr	r0, [r3, r4, lsl #3]
 179 0054 FFF7FEFF 		bl	HAL_GPIO_ReadPin
ARM GAS  C:\Users\fish\AppData\Local\Temp\cc1GxmHF.s 			page 6


 180              	.LVL14:
  38:../Bsp/Key/key.c ****         if (cfg->activeLevel == KEY_ACTIVE_LOW)
 181              		.loc 1 38 9 is_stmt 1 view .LVU41
  39:../Bsp/Key/key.c ****             logicState = (raw == GPIO_PIN_RESET) ? 1 : 0;
 182              		.loc 1 39 9 view .LVU42
  39:../Bsp/Key/key.c ****             logicState = (raw == GPIO_PIN_RESET) ? 1 : 0;
 183              		.loc 1 39 16 is_stmt 0 view .LVU43
 184 0058 B379     		ldrb	r3, [r6, #6]	@ zero_extendqisi2
  39:../Bsp/Key/key.c ****             logicState = (raw == GPIO_PIN_RESET) ? 1 : 0;
 185              		.loc 1 39 12 view .LVU44
 186 005a 002B     		cmp	r3, #0
 187 005c D3D1     		bne	.L9
  40:../Bsp/Key/key.c ****         else
 188              		.loc 1 40 13 is_stmt 1 view .LVU45
  40:../Bsp/Key/key.c ****         else
 189              		.loc 1 40 54 is_stmt 0 view .LVU46
 190 005e B0FA80F0 		clz	r0, r0
 191              	.LVL15:
  40:../Bsp/Key/key.c ****         else
 192              		.loc 1 40 54 view .LVU47
 193 0062 4009     		lsrs	r0, r0, #5
 194              	.LVL16:
 195              	.L10:
  45:../Bsp/Key/key.c ****         {
 196              		.loc 1 45 9 is_stmt 1 view .LVU48
  45:../Bsp/Key/key.c ****         {
 197              		.loc 1 45 29 is_stmt 0 view .LVU49
 198 0064 334B     		ldr	r3, .L24
 199 0066 03EBC503 		add	r3, r3, r5, lsl #3
 200 006a 5B78     		ldrb	r3, [r3, #1]	@ zero_extendqisi2
  45:../Bsp/Key/key.c ****         {
 201              		.loc 1 45 12 view .LVU50
 202 006c 8342     		cmp	r3, r0
 203 006e CFD0     		beq	.L23
  54:../Bsp/Key/key.c ****             if (st->debounceCnt >= KEY_DEBOUNCE_COUNT)
 204              		.loc 1 54 13 is_stmt 1 view .LVU51
  54:../Bsp/Key/key.c ****             if (st->debounceCnt >= KEY_DEBOUNCE_COUNT)
 205              		.loc 1 54 15 is_stmt 0 view .LVU52
 206 0070 304A     		ldr	r2, .L24
 207 0072 12F83530 		ldrb	r3, [r2, r5, lsl #3]	@ zero_extendqisi2
  54:../Bsp/Key/key.c ****             if (st->debounceCnt >= KEY_DEBOUNCE_COUNT)
 208              		.loc 1 54 28 view .LVU53
 209 0076 0133     		adds	r3, r3, #1
 210 0078 DBB2     		uxtb	r3, r3
 211 007a 02F83530 		strb	r3, [r2, r5, lsl #3]
  55:../Bsp/Key/key.c ****             {
 212              		.loc 1 55 13 is_stmt 1 view .LVU54
  55:../Bsp/Key/key.c ****             {
 213              		.loc 1 55 16 is_stmt 0 view .LVU55
 214 007e 012B     		cmp	r3, #1
 215 0080 CFD9     		bls	.L12
  58:../Bsp/Key/key.c ****                 st->debounceCnt = 0;
 216              		.loc 1 58 17 is_stmt 1 view .LVU56
  58:../Bsp/Key/key.c ****                 st->debounceCnt = 0;
 217              		.loc 1 58 33 is_stmt 0 view .LVU57
 218 0082 1346     		mov	r3, r2
 219 0084 02EBC502 		add	r2, r2, r5, lsl #3
ARM GAS  C:\Users\fish\AppData\Local\Temp\cc1GxmHF.s 			page 7


 220 0088 5070     		strb	r0, [r2, #1]
  59:../Bsp/Key/key.c ****             }
 221              		.loc 1 59 17 is_stmt 1 view .LVU58
  59:../Bsp/Key/key.c ****             }
 222              		.loc 1 59 33 is_stmt 0 view .LVU59
 223 008a 0022     		movs	r2, #0
 224 008c 03F83520 		strb	r2, [r3, r5, lsl #3]
 225 0090 C7E7     		b	.L12
 226              	.L20:
  67:../Bsp/Key/key.c ****             {
 227              		.loc 1 67 13 is_stmt 1 view .LVU60
  67:../Bsp/Key/key.c ****             {
 228              		.loc 1 67 19 is_stmt 0 view .LVU61
 229 0092 284B     		ldr	r3, .L24
 230 0094 03EBC503 		add	r3, r3, r5, lsl #3
 231 0098 9B78     		ldrb	r3, [r3, #2]	@ zero_extendqisi2
  67:../Bsp/Key/key.c ****             {
 232              		.loc 1 67 16 view .LVU62
 233 009a 63B9     		cbnz	r3, .L14
  70:../Bsp/Key/key.c ****                 st->pressDuration = 0;
 234              		.loc 1 70 17 is_stmt 1 view .LVU63
  70:../Bsp/Key/key.c ****                 st->pressDuration = 0;
 235              		.loc 1 70 31 is_stmt 0 view .LVU64
 236 009c 254B     		ldr	r3, .L24
 237 009e 03EBC503 		add	r3, r3, r5, lsl #3
 238 00a2 0122     		movs	r2, #1
 239 00a4 9A70     		strb	r2, [r3, #2]
  71:../Bsp/Key/key.c ****                 st->longPressed = 0;
 240              		.loc 1 71 17 is_stmt 1 view .LVU65
  71:../Bsp/Key/key.c ****                 st->longPressed = 0;
 241              		.loc 1 71 35 is_stmt 0 view .LVU66
 242 00a6 0022     		movs	r2, #0
 243 00a8 9A80     		strh	r2, [r3, #4]	@ movhi
  72:../Bsp/Key/key.c ****                 st->events |= KEY_EVENT_PRESSED;
 244              		.loc 1 72 17 is_stmt 1 view .LVU67
  72:../Bsp/Key/key.c ****                 st->events |= KEY_EVENT_PRESSED;
 245              		.loc 1 72 33 is_stmt 0 view .LVU68
 246 00aa 9A71     		strb	r2, [r3, #6]
  73:../Bsp/Key/key.c ****             }
 247              		.loc 1 73 17 is_stmt 1 view .LVU69
  73:../Bsp/Key/key.c ****             }
 248              		.loc 1 73 19 is_stmt 0 view .LVU70
 249 00ac DA79     		ldrb	r2, [r3, #7]	@ zero_extendqisi2
  73:../Bsp/Key/key.c ****             }
 250              		.loc 1 73 28 view .LVU71
 251 00ae 42F00102 		orr	r2, r2, #1
 252 00b2 DA71     		strb	r2, [r3, #7]
 253 00b4 C1E7     		b	.L15
 254              	.L14:
  78:../Bsp/Key/key.c **** 
 255              		.loc 1 78 17 is_stmt 1 view .LVU72
  78:../Bsp/Key/key.c **** 
 256              		.loc 1 78 19 is_stmt 0 view .LVU73
 257 00b6 1F4A     		ldr	r2, .L24
 258 00b8 02EBC502 		add	r2, r2, r5, lsl #3
 259 00bc 9388     		ldrh	r3, [r2, #4]
  78:../Bsp/Key/key.c **** 
ARM GAS  C:\Users\fish\AppData\Local\Temp\cc1GxmHF.s 			page 8


 260              		.loc 1 78 35 view .LVU74
 261 00be 0A33     		adds	r3, r3, #10
 262 00c0 9BB2     		uxth	r3, r3
 263 00c2 9380     		strh	r3, [r2, #4]	@ movhi
  81:../Bsp/Key/key.c ****                 {
 264              		.loc 1 81 17 is_stmt 1 view .LVU75
  81:../Bsp/Key/key.c ****                 {
 265              		.loc 1 81 24 is_stmt 0 view .LVU76
 266 00c4 9279     		ldrb	r2, [r2, #6]	@ zero_extendqisi2
  81:../Bsp/Key/key.c ****                 {
 267              		.loc 1 81 20 view .LVU77
 268 00c6 5AB9     		cbnz	r2, .L16
  81:../Bsp/Key/key.c ****                 {
 269              		.loc 1 81 38 discriminator 1 view .LVU78
 270 00c8 B3F5487F 		cmp	r3, #800
 271 00cc 08D3     		bcc	.L16
  83:../Bsp/Key/key.c ****                     st->events |= KEY_EVENT_LONG_PRESS;
 272              		.loc 1 83 21 is_stmt 1 view .LVU79
  83:../Bsp/Key/key.c ****                     st->events |= KEY_EVENT_LONG_PRESS;
 273              		.loc 1 83 37 is_stmt 0 view .LVU80
 274 00ce 194A     		ldr	r2, .L24
 275 00d0 02EBC502 		add	r2, r2, r5, lsl #3
 276 00d4 0121     		movs	r1, #1
 277 00d6 9171     		strb	r1, [r2, #6]
  84:../Bsp/Key/key.c ****                 }
 278              		.loc 1 84 21 is_stmt 1 view .LVU81
  84:../Bsp/Key/key.c ****                 }
 279              		.loc 1 84 23 is_stmt 0 view .LVU82
 280 00d8 D179     		ldrb	r1, [r2, #7]	@ zero_extendqisi2
  84:../Bsp/Key/key.c ****                 }
 281              		.loc 1 84 32 view .LVU83
 282 00da 41F00401 		orr	r1, r1, #4
 283 00de D171     		strb	r1, [r2, #7]
 284              	.L16:
  88:../Bsp/Key/key.c ****                 {
 285              		.loc 1 88 17 is_stmt 1 view .LVU84
  88:../Bsp/Key/key.c ****                 {
 286              		.loc 1 88 23 is_stmt 0 view .LVU85
 287 00e0 144A     		ldr	r2, .L24
 288 00e2 02EBC502 		add	r2, r2, r5, lsl #3
 289 00e6 9279     		ldrb	r2, [r2, #6]	@ zero_extendqisi2
  88:../Bsp/Key/key.c ****                 {
 290              		.loc 1 88 20 view .LVU86
 291 00e8 002A     		cmp	r2, #0
 292 00ea A6D0     		beq	.L15
  88:../Bsp/Key/key.c ****                 {
 293              		.loc 1 88 37 discriminator 1 view .LVU87
 294 00ec B3F57A7F 		cmp	r3, #1000
 295 00f0 A3D3     		bcc	.L15
  90:../Bsp/Key/key.c ****                     /* 重置持续时间以连发, 保留长按标志 */
 296              		.loc 1 90 21 is_stmt 1 view .LVU88
  90:../Bsp/Key/key.c ****                     /* 重置持续时间以连发, 保留长按标志 */
 297              		.loc 1 90 23 is_stmt 0 view .LVU89
 298 00f2 104B     		ldr	r3, .L24
 299 00f4 03EBC503 		add	r3, r3, r5, lsl #3
 300 00f8 DA79     		ldrb	r2, [r3, #7]	@ zero_extendqisi2
  90:../Bsp/Key/key.c ****                     /* 重置持续时间以连发, 保留长按标志 */
ARM GAS  C:\Users\fish\AppData\Local\Temp\cc1GxmHF.s 			page 9


 301              		.loc 1 90 32 view .LVU90
 302 00fa 42F00802 		orr	r2, r2, #8
 303 00fe DA71     		strb	r2, [r3, #7]
  92:../Bsp/Key/key.c ****                 }
 304              		.loc 1 92 21 is_stmt 1 view .LVU91
  92:../Bsp/Key/key.c ****                 }
 305              		.loc 1 92 39 is_stmt 0 view .LVU92
 306 0100 4FF44872 		mov	r2, #800
 307 0104 9A80     		strh	r2, [r3, #4]	@ movhi
 308 0106 98E7     		b	.L15
 309              	.L21:
 100:../Bsp/Key/key.c ****             {
 101:../Bsp/Key/key.c ****                 /* 刚释放 (上升沿/下降沿) */
 102:../Bsp/Key/key.c ****                 st->prevState = 0;
 310              		.loc 1 102 17 is_stmt 1 view .LVU93
 311              		.loc 1 102 31 is_stmt 0 view .LVU94
 312 0108 0A4B     		ldr	r3, .L24
 313 010a 03EBC503 		add	r3, r3, r5, lsl #3
 314 010e 0022     		movs	r2, #0
 315 0110 9A70     		strb	r2, [r3, #2]
 103:../Bsp/Key/key.c **** 
 104:../Bsp/Key/key.c ****                 /* 如果未触发长按, 则为短按 */
 105:../Bsp/Key/key.c ****                 if (!st->longPressed)
 316              		.loc 1 105 17 is_stmt 1 view .LVU95
 317              		.loc 1 105 24 is_stmt 0 view .LVU96
 318 0112 9B79     		ldrb	r3, [r3, #6]	@ zero_extendqisi2
 319              		.loc 1 105 20 view .LVU97
 320 0114 33B9     		cbnz	r3, .L17
 106:../Bsp/Key/key.c ****                 {
 107:../Bsp/Key/key.c ****                     st->events |= KEY_EVENT_SHORT_PRESS;
 321              		.loc 1 107 21 is_stmt 1 view .LVU98
 322              		.loc 1 107 23 is_stmt 0 view .LVU99
 323 0116 074B     		ldr	r3, .L24
 324 0118 03EBC503 		add	r3, r3, r5, lsl #3
 325 011c DA79     		ldrb	r2, [r3, #7]	@ zero_extendqisi2
 326              		.loc 1 107 32 view .LVU100
 327 011e 42F00202 		orr	r2, r2, #2
 328 0122 DA71     		strb	r2, [r3, #7]
 329              	.L17:
 108:../Bsp/Key/key.c ****                 }
 109:../Bsp/Key/key.c ****                 st->pressDuration = 0;
 330              		.loc 1 109 17 is_stmt 1 view .LVU101
 331              		.loc 1 109 35 is_stmt 0 view .LVU102
 332 0124 034B     		ldr	r3, .L24
 333 0126 03EBC503 		add	r3, r3, r5, lsl #3
 334 012a 0022     		movs	r2, #0
 335 012c 9A80     		strh	r2, [r3, #4]	@ movhi
 110:../Bsp/Key/key.c ****                 st->longPressed = 0;
 336              		.loc 1 110 17 is_stmt 1 view .LVU103
 337              		.loc 1 110 33 is_stmt 0 view .LVU104
 338 012e 9A71     		strb	r2, [r3, #6]
 339 0130 83E7     		b	.L15
 340              	.LVL17:
 341              	.L22:
 342              		.loc 1 110 33 view .LVU105
 343              	.LBE3:
 111:../Bsp/Key/key.c ****             }
ARM GAS  C:\Users\fish\AppData\Local\Temp\cc1GxmHF.s 			page 10


 112:../Bsp/Key/key.c ****         }
 113:../Bsp/Key/key.c ****     }
 114:../Bsp/Key/key.c **** }
 344              		.loc 1 114 1 view .LVU106
 345 0132 70BD     		pop	{r4, r5, r6, pc}
 346              	.LVL18:
 347              	.L25:
 348              		.loc 1 114 1 view .LVU107
 349              		.align	2
 350              	.L24:
 351 0134 00000000 		.word	s_states
 352 0138 00000000 		.word	s_keyCount
 353 013c 00000000 		.word	s_configs
 354              		.cfi_endproc
 355              	.LFE240:
 357              		.section	.text.Key_IsPressed,"ax",%progbits
 358              		.align	1
 359              		.global	Key_IsPressed
 360              		.syntax unified
 361              		.thumb
 362              		.thumb_func
 364              	Key_IsPressed:
 365              	.LVL19:
 366              	.LFB241:
 115:../Bsp/Key/key.c **** 
 116:../Bsp/Key/key.c **** uint8_t Key_IsPressed(uint8_t index)
 117:../Bsp/Key/key.c **** {
 367              		.loc 1 117 1 is_stmt 1 view -0
 368              		.cfi_startproc
 369              		@ args = 0, pretend = 0, frame = 0
 370              		@ frame_needed = 0, uses_anonymous_args = 0
 371              		@ link register save eliminated.
 118:../Bsp/Key/key.c ****     if (index >= s_keyCount)
 372              		.loc 1 118 5 view .LVU109
 373              		.loc 1 118 15 is_stmt 0 view .LVU110
 374 0000 054B     		ldr	r3, .L29
 375 0002 1B78     		ldrb	r3, [r3]	@ zero_extendqisi2
 376              		.loc 1 118 8 view .LVU111
 377 0004 8342     		cmp	r3, r0
 378 0006 04D9     		bls	.L28
 119:../Bsp/Key/key.c ****         return 0;
 120:../Bsp/Key/key.c ****     return s_states[index].stableState;
 379              		.loc 1 120 5 is_stmt 1 view .LVU112
 380              		.loc 1 120 27 is_stmt 0 view .LVU113
 381 0008 044B     		ldr	r3, .L29+4
 382 000a 03EBC003 		add	r3, r3, r0, lsl #3
 383 000e 5878     		ldrb	r0, [r3, #1]	@ zero_extendqisi2
 384              	.LVL20:
 385              		.loc 1 120 27 view .LVU114
 386 0010 7047     		bx	lr
 387              	.LVL21:
 388              	.L28:
 119:../Bsp/Key/key.c ****         return 0;
 389              		.loc 1 119 16 view .LVU115
 390 0012 0020     		movs	r0, #0
 391              	.LVL22:
 121:../Bsp/Key/key.c **** }
ARM GAS  C:\Users\fish\AppData\Local\Temp\cc1GxmHF.s 			page 11


 392              		.loc 1 121 1 view .LVU116
 393 0014 7047     		bx	lr
 394              	.L30:
 395 0016 00BF     		.align	2
 396              	.L29:
 397 0018 00000000 		.word	s_keyCount
 398 001c 00000000 		.word	s_states
 399              		.cfi_endproc
 400              	.LFE241:
 402              		.section	.text.Key_IsShortPressed,"ax",%progbits
 403              		.align	1
 404              		.global	Key_IsShortPressed
 405              		.syntax unified
 406              		.thumb
 407              		.thumb_func
 409              	Key_IsShortPressed:
 410              	.LVL23:
 411              	.LFB242:
 122:../Bsp/Key/key.c **** 
 123:../Bsp/Key/key.c **** uint8_t Key_IsShortPressed(uint8_t index)
 124:../Bsp/Key/key.c **** {
 412              		.loc 1 124 1 is_stmt 1 view -0
 413              		.cfi_startproc
 414              		@ args = 0, pretend = 0, frame = 0
 415              		@ frame_needed = 0, uses_anonymous_args = 0
 416              		@ link register save eliminated.
 417              		.loc 1 124 1 is_stmt 0 view .LVU118
 418 0000 0346     		mov	r3, r0
 125:../Bsp/Key/key.c ****     if (index >= s_keyCount)
 419              		.loc 1 125 5 is_stmt 1 view .LVU119
 420              		.loc 1 125 15 is_stmt 0 view .LVU120
 421 0002 0B4A     		ldr	r2, .L35
 422 0004 1278     		ldrb	r2, [r2]	@ zero_extendqisi2
 423              		.loc 1 125 8 view .LVU121
 424 0006 8242     		cmp	r2, r0
 425 0008 0FD9     		bls	.L33
 126:../Bsp/Key/key.c ****         return 0;
 127:../Bsp/Key/key.c ****     if (s_states[index].events & KEY_EVENT_SHORT_PRESS)
 426              		.loc 1 127 5 is_stmt 1 view .LVU122
 427              		.loc 1 127 24 is_stmt 0 view .LVU123
 428 000a 0A4A     		ldr	r2, .L35+4
 429 000c 02EBC002 		add	r2, r2, r0, lsl #3
 430 0010 D279     		ldrb	r2, [r2, #7]	@ zero_extendqisi2
 431              		.loc 1 127 8 view .LVU124
 432 0012 12F00200 		ands	r0, r2, #2
 433              	.LVL24:
 434              		.loc 1 127 8 view .LVU125
 435 0016 00D1     		bne	.L34
 436              	.L32:
 128:../Bsp/Key/key.c ****     {
 129:../Bsp/Key/key.c ****         s_states[index].events &= ~KEY_EVENT_SHORT_PRESS;
 130:../Bsp/Key/key.c ****         return 1;
 131:../Bsp/Key/key.c ****     }
 132:../Bsp/Key/key.c ****     return 0;
 133:../Bsp/Key/key.c **** }
 437              		.loc 1 133 1 view .LVU126
 438 0018 7047     		bx	lr
ARM GAS  C:\Users\fish\AppData\Local\Temp\cc1GxmHF.s 			page 12


 439              	.L34:
 129:../Bsp/Key/key.c ****         return 1;
 440              		.loc 1 129 9 is_stmt 1 view .LVU127
 129:../Bsp/Key/key.c ****         return 1;
 441              		.loc 1 129 32 is_stmt 0 view .LVU128
 442 001a 0649     		ldr	r1, .L35+4
 443 001c 01EBC303 		add	r3, r1, r3, lsl #3
 444              	.LVL25:
 129:../Bsp/Key/key.c ****         return 1;
 445              		.loc 1 129 32 view .LVU129
 446 0020 22F00202 		bic	r2, r2, #2
 447 0024 DA71     		strb	r2, [r3, #7]
 130:../Bsp/Key/key.c ****     }
 448              		.loc 1 130 9 is_stmt 1 view .LVU130
 130:../Bsp/Key/key.c ****     }
 449              		.loc 1 130 16 is_stmt 0 view .LVU131
 450 0026 0120     		movs	r0, #1
 451 0028 7047     		bx	lr
 452              	.LVL26:
 453              	.L33:
 126:../Bsp/Key/key.c ****     if (s_states[index].events & KEY_EVENT_SHORT_PRESS)
 454              		.loc 1 126 16 view .LVU132
 455 002a 0020     		movs	r0, #0
 456              	.LVL27:
 126:../Bsp/Key/key.c ****     if (s_states[index].events & KEY_EVENT_SHORT_PRESS)
 457              		.loc 1 126 16 view .LVU133
 458 002c F4E7     		b	.L32
 459              	.L36:
 460 002e 00BF     		.align	2
 461              	.L35:
 462 0030 00000000 		.word	s_keyCount
 463 0034 00000000 		.word	s_states
 464              		.cfi_endproc
 465              	.LFE242:
 467              		.section	.text.Key_IsLongPressed,"ax",%progbits
 468              		.align	1
 469              		.global	Key_IsLongPressed
 470              		.syntax unified
 471              		.thumb
 472              		.thumb_func
 474              	Key_IsLongPressed:
 475              	.LVL28:
 476              	.LFB243:
 134:../Bsp/Key/key.c **** 
 135:../Bsp/Key/key.c **** uint8_t Key_IsLongPressed(uint8_t index)
 136:../Bsp/Key/key.c **** {
 477              		.loc 1 136 1 is_stmt 1 view -0
 478              		.cfi_startproc
 479              		@ args = 0, pretend = 0, frame = 0
 480              		@ frame_needed = 0, uses_anonymous_args = 0
 481              		@ link register save eliminated.
 482              		.loc 1 136 1 is_stmt 0 view .LVU135
 483 0000 0346     		mov	r3, r0
 137:../Bsp/Key/key.c ****     if (index >= s_keyCount)
 484              		.loc 1 137 5 is_stmt 1 view .LVU136
 485              		.loc 1 137 15 is_stmt 0 view .LVU137
 486 0002 0B4A     		ldr	r2, .L41
ARM GAS  C:\Users\fish\AppData\Local\Temp\cc1GxmHF.s 			page 13


 487 0004 1278     		ldrb	r2, [r2]	@ zero_extendqisi2
 488              		.loc 1 137 8 view .LVU138
 489 0006 8242     		cmp	r2, r0
 490 0008 0FD9     		bls	.L39
 138:../Bsp/Key/key.c ****         return 0;
 139:../Bsp/Key/key.c ****     if (s_states[index].events & KEY_EVENT_LONG_PRESS)
 491              		.loc 1 139 5 is_stmt 1 view .LVU139
 492              		.loc 1 139 24 is_stmt 0 view .LVU140
 493 000a 0A4A     		ldr	r2, .L41+4
 494 000c 02EBC002 		add	r2, r2, r0, lsl #3
 495 0010 D279     		ldrb	r2, [r2, #7]	@ zero_extendqisi2
 496              		.loc 1 139 8 view .LVU141
 497 0012 12F00400 		ands	r0, r2, #4
 498              	.LVL29:
 499              		.loc 1 139 8 view .LVU142
 500 0016 00D1     		bne	.L40
 501              	.L38:
 140:../Bsp/Key/key.c ****     {
 141:../Bsp/Key/key.c ****         s_states[index].events &= ~KEY_EVENT_LONG_PRESS;
 142:../Bsp/Key/key.c ****         return 1;
 143:../Bsp/Key/key.c ****     }
 144:../Bsp/Key/key.c ****     return 0;
 145:../Bsp/Key/key.c **** }
 502              		.loc 1 145 1 view .LVU143
 503 0018 7047     		bx	lr
 504              	.L40:
 141:../Bsp/Key/key.c ****         return 1;
 505              		.loc 1 141 9 is_stmt 1 view .LVU144
 141:../Bsp/Key/key.c ****         return 1;
 506              		.loc 1 141 32 is_stmt 0 view .LVU145
 507 001a 0649     		ldr	r1, .L41+4
 508 001c 01EBC303 		add	r3, r1, r3, lsl #3
 509              	.LVL30:
 141:../Bsp/Key/key.c ****         return 1;
 510              		.loc 1 141 32 view .LVU146
 511 0020 22F00402 		bic	r2, r2, #4
 512 0024 DA71     		strb	r2, [r3, #7]
 142:../Bsp/Key/key.c ****     }
 513              		.loc 1 142 9 is_stmt 1 view .LVU147
 142:../Bsp/Key/key.c ****     }
 514              		.loc 1 142 16 is_stmt 0 view .LVU148
 515 0026 0120     		movs	r0, #1
 516 0028 7047     		bx	lr
 517              	.LVL31:
 518              	.L39:
 138:../Bsp/Key/key.c ****     if (s_states[index].events & KEY_EVENT_LONG_PRESS)
 519              		.loc 1 138 16 view .LVU149
 520 002a 0020     		movs	r0, #0
 521              	.LVL32:
 138:../Bsp/Key/key.c ****     if (s_states[index].events & KEY_EVENT_LONG_PRESS)
 522              		.loc 1 138 16 view .LVU150
 523 002c F4E7     		b	.L38
 524              	.L42:
 525 002e 00BF     		.align	2
 526              	.L41:
 527 0030 00000000 		.word	s_keyCount
 528 0034 00000000 		.word	s_states
ARM GAS  C:\Users\fish\AppData\Local\Temp\cc1GxmHF.s 			page 14


 529              		.cfi_endproc
 530              	.LFE243:
 532              		.section	.text.Key_IsRepeat,"ax",%progbits
 533              		.align	1
 534              		.global	Key_IsRepeat
 535              		.syntax unified
 536              		.thumb
 537              		.thumb_func
 539              	Key_IsRepeat:
 540              	.LVL33:
 541              	.LFB244:
 146:../Bsp/Key/key.c **** 
 147:../Bsp/Key/key.c **** uint8_t Key_IsRepeat(uint8_t index)
 148:../Bsp/Key/key.c **** {
 542              		.loc 1 148 1 is_stmt 1 view -0
 543              		.cfi_startproc
 544              		@ args = 0, pretend = 0, frame = 0
 545              		@ frame_needed = 0, uses_anonymous_args = 0
 546              		@ link register save eliminated.
 547              		.loc 1 148 1 is_stmt 0 view .LVU152
 548 0000 0346     		mov	r3, r0
 149:../Bsp/Key/key.c ****     if (index >= s_keyCount)
 549              		.loc 1 149 5 is_stmt 1 view .LVU153
 550              		.loc 1 149 15 is_stmt 0 view .LVU154
 551 0002 0B4A     		ldr	r2, .L47
 552 0004 1278     		ldrb	r2, [r2]	@ zero_extendqisi2
 553              		.loc 1 149 8 view .LVU155
 554 0006 8242     		cmp	r2, r0
 555 0008 0FD9     		bls	.L45
 150:../Bsp/Key/key.c ****         return 0;
 151:../Bsp/Key/key.c ****     if (s_states[index].events & KEY_EVENT_REPEAT)
 556              		.loc 1 151 5 is_stmt 1 view .LVU156
 557              		.loc 1 151 24 is_stmt 0 view .LVU157
 558 000a 0A4A     		ldr	r2, .L47+4
 559 000c 02EBC002 		add	r2, r2, r0, lsl #3
 560 0010 D279     		ldrb	r2, [r2, #7]	@ zero_extendqisi2
 561              		.loc 1 151 8 view .LVU158
 562 0012 12F00800 		ands	r0, r2, #8
 563              	.LVL34:
 564              		.loc 1 151 8 view .LVU159
 565 0016 00D1     		bne	.L46
 566              	.L44:
 152:../Bsp/Key/key.c ****     {
 153:../Bsp/Key/key.c ****         s_states[index].events &= ~KEY_EVENT_REPEAT;
 154:../Bsp/Key/key.c ****         return 1;
 155:../Bsp/Key/key.c ****     }
 156:../Bsp/Key/key.c ****     return 0;
 157:../Bsp/Key/key.c **** }
 567              		.loc 1 157 1 view .LVU160
 568 0018 7047     		bx	lr
 569              	.L46:
 153:../Bsp/Key/key.c ****         return 1;
 570              		.loc 1 153 9 is_stmt 1 view .LVU161
 153:../Bsp/Key/key.c ****         return 1;
 571              		.loc 1 153 32 is_stmt 0 view .LVU162
 572 001a 0649     		ldr	r1, .L47+4
 573 001c 01EBC303 		add	r3, r1, r3, lsl #3
ARM GAS  C:\Users\fish\AppData\Local\Temp\cc1GxmHF.s 			page 15


 574              	.LVL35:
 153:../Bsp/Key/key.c ****         return 1;
 575              		.loc 1 153 32 view .LVU163
 576 0020 22F00802 		bic	r2, r2, #8
 577 0024 DA71     		strb	r2, [r3, #7]
 154:../Bsp/Key/key.c ****     }
 578              		.loc 1 154 9 is_stmt 1 view .LVU164
 154:../Bsp/Key/key.c ****     }
 579              		.loc 1 154 16 is_stmt 0 view .LVU165
 580 0026 0120     		movs	r0, #1
 581 0028 7047     		bx	lr
 582              	.LVL36:
 583              	.L45:
 150:../Bsp/Key/key.c ****     if (s_states[index].events & KEY_EVENT_REPEAT)
 584              		.loc 1 150 16 view .LVU166
 585 002a 0020     		movs	r0, #0
 586              	.LVL37:
 150:../Bsp/Key/key.c ****     if (s_states[index].events & KEY_EVENT_REPEAT)
 587              		.loc 1 150 16 view .LVU167
 588 002c F4E7     		b	.L44
 589              	.L48:
 590 002e 00BF     		.align	2
 591              	.L47:
 592 0030 00000000 		.word	s_keyCount
 593 0034 00000000 		.word	s_states
 594              		.cfi_endproc
 595              	.LFE244:
 597              		.section	.text.Key_AnyPressed,"ax",%progbits
 598              		.align	1
 599              		.global	Key_AnyPressed
 600              		.syntax unified
 601              		.thumb
 602              		.thumb_func
 604              	Key_AnyPressed:
 605              	.LFB245:
 158:../Bsp/Key/key.c **** 
 159:../Bsp/Key/key.c **** uint16_t Key_AnyPressed(void)
 160:../Bsp/Key/key.c **** {
 606              		.loc 1 160 1 is_stmt 1 view -0
 607              		.cfi_startproc
 608              		@ args = 0, pretend = 0, frame = 0
 609              		@ frame_needed = 0, uses_anonymous_args = 0
 610              		@ link register save eliminated.
 161:../Bsp/Key/key.c ****     uint8_t i;
 611              		.loc 1 161 5 view .LVU169
 162:../Bsp/Key/key.c ****     uint16_t mask = 0;
 612              		.loc 1 162 5 view .LVU170
 613              	.LVL38:
 163:../Bsp/Key/key.c ****     for (i = 0; i < s_keyCount; i++)
 614              		.loc 1 163 5 view .LVU171
 162:../Bsp/Key/key.c ****     uint16_t mask = 0;
 615              		.loc 1 162 14 is_stmt 0 view .LVU172
 616 0000 0020     		movs	r0, #0
 617              		.loc 1 163 12 view .LVU173
 618 0002 0346     		mov	r3, r0
 619              		.loc 1 163 5 view .LVU174
 620 0004 01E0     		b	.L50
ARM GAS  C:\Users\fish\AppData\Local\Temp\cc1GxmHF.s 			page 16


 621              	.LVL39:
 622              	.L51:
 623              		.loc 1 163 34 is_stmt 1 discriminator 2 view .LVU175
 624 0006 0133     		adds	r3, r3, #1
 625              	.LVL40:
 626              		.loc 1 163 34 is_stmt 0 discriminator 2 view .LVU176
 627 0008 DBB2     		uxtb	r3, r3
 628              	.LVL41:
 629              	.L50:
 630              		.loc 1 163 19 is_stmt 1 discriminator 1 view .LVU177
 631 000a 084A     		ldr	r2, .L54
 632 000c 1278     		ldrb	r2, [r2]	@ zero_extendqisi2
 633 000e 9A42     		cmp	r2, r3
 634 0010 0AD9     		bls	.L53
 164:../Bsp/Key/key.c ****     {
 165:../Bsp/Key/key.c ****         if (s_states[i].stableState)
 635              		.loc 1 165 9 view .LVU178
 636              		.loc 1 165 24 is_stmt 0 view .LVU179
 637 0012 074A     		ldr	r2, .L54+4
 638 0014 02EBC302 		add	r2, r2, r3, lsl #3
 639 0018 5278     		ldrb	r2, [r2, #1]	@ zero_extendqisi2
 640              		.loc 1 165 12 view .LVU180
 641 001a 002A     		cmp	r2, #0
 642 001c F3D0     		beq	.L51
 166:../Bsp/Key/key.c ****             mask |= (1 << i);
 643              		.loc 1 166 13 is_stmt 1 view .LVU181
 644              		.loc 1 166 24 is_stmt 0 view .LVU182
 645 001e 0122     		movs	r2, #1
 646 0020 9A40     		lsls	r2, r2, r3
 647              		.loc 1 166 18 view .LVU183
 648 0022 1043     		orrs	r0, r0, r2
 649              	.LVL42:
 650              		.loc 1 166 18 view .LVU184
 651 0024 80B2     		uxth	r0, r0
 652 0026 EEE7     		b	.L51
 653              	.LVL43:
 654              	.L53:
 167:../Bsp/Key/key.c ****     }
 168:../Bsp/Key/key.c ****     return mask;
 655              		.loc 1 168 5 is_stmt 1 view .LVU185
 169:../Bsp/Key/key.c **** }
 656              		.loc 1 169 1 is_stmt 0 view .LVU186
 657 0028 7047     		bx	lr
 658              	.L55:
 659 002a 00BF     		.align	2
 660              	.L54:
 661 002c 00000000 		.word	s_keyCount
 662 0030 00000000 		.word	s_states
 663              		.cfi_endproc
 664              	.LFE245:
 666              		.section	.text.Key_ClearAllEvents,"ax",%progbits
 667              		.align	1
 668              		.global	Key_ClearAllEvents
 669              		.syntax unified
 670              		.thumb
 671              		.thumb_func
 673              	Key_ClearAllEvents:
ARM GAS  C:\Users\fish\AppData\Local\Temp\cc1GxmHF.s 			page 17


 674              	.LFB246:
 170:../Bsp/Key/key.c **** 
 171:../Bsp/Key/key.c **** void Key_ClearAllEvents(void)
 172:../Bsp/Key/key.c **** {
 675              		.loc 1 172 1 is_stmt 1 view -0
 676              		.cfi_startproc
 677              		@ args = 0, pretend = 0, frame = 0
 678              		@ frame_needed = 0, uses_anonymous_args = 0
 679              		@ link register save eliminated.
 173:../Bsp/Key/key.c ****     uint8_t i;
 680              		.loc 1 173 5 view .LVU188
 174:../Bsp/Key/key.c ****     for (i = 0; i < s_keyCount; i++)
 681              		.loc 1 174 5 view .LVU189
 682              	.LVL44:
 683              		.loc 1 174 12 is_stmt 0 view .LVU190
 684 0000 0023     		movs	r3, #0
 685              		.loc 1 174 5 view .LVU191
 686 0002 06E0     		b	.L57
 687              	.LVL45:
 688              	.L58:
 175:../Bsp/Key/key.c ****         s_states[i].events = KEY_EVENT_NONE;
 689              		.loc 1 175 9 is_stmt 1 view .LVU192
 690              		.loc 1 175 28 is_stmt 0 view .LVU193
 691 0004 054A     		ldr	r2, .L59
 692 0006 02EBC302 		add	r2, r2, r3, lsl #3
 693 000a 0021     		movs	r1, #0
 694 000c D171     		strb	r1, [r2, #7]
 174:../Bsp/Key/key.c ****     for (i = 0; i < s_keyCount; i++)
 695              		.loc 1 174 34 is_stmt 1 discriminator 3 view .LVU194
 696 000e 0133     		adds	r3, r3, #1
 697              	.LVL46:
 174:../Bsp/Key/key.c ****     for (i = 0; i < s_keyCount; i++)
 698              		.loc 1 174 34 is_stmt 0 discriminator 3 view .LVU195
 699 0010 DBB2     		uxtb	r3, r3
 700              	.LVL47:
 701              	.L57:
 174:../Bsp/Key/key.c ****     for (i = 0; i < s_keyCount; i++)
 702              		.loc 1 174 19 is_stmt 1 discriminator 1 view .LVU196
 703 0012 034A     		ldr	r2, .L59+4
 704 0014 1278     		ldrb	r2, [r2]	@ zero_extendqisi2
 705 0016 9A42     		cmp	r2, r3
 706 0018 F4D8     		bhi	.L58
 176:../Bsp/Key/key.c **** }
 707              		.loc 1 176 1 is_stmt 0 view .LVU197
 708 001a 7047     		bx	lr
 709              	.L60:
 710              		.align	2
 711              	.L59:
 712 001c 00000000 		.word	s_states
 713 0020 00000000 		.word	s_keyCount
 714              		.cfi_endproc
 715              	.LFE246:
 717              		.section	.bss.s_keyCount,"aw",%nobits
 720              	s_keyCount:
 721 0000 00       		.space	1
 722              		.section	.bss.s_states,"aw",%nobits
 723              		.align	2
ARM GAS  C:\Users\fish\AppData\Local\Temp\cc1GxmHF.s 			page 18


 726              	s_states:
 727 0000 00000000 		.space	48
 727      00000000 
 727      00000000 
 727      00000000 
 727      00000000 
 728              		.section	.bss.s_configs,"aw",%nobits
 729              		.align	2
 732              	s_configs:
 733 0000 00000000 		.space	48
 733      00000000 
 733      00000000 
 733      00000000 
 733      00000000 
 734              		.text
 735              	.Letext0:
 736              		.file 2 "C:/STM32/arm-none-eabi-gcc/14.2.1-1.1.1/.content/arm-none-eabi/include/machine/_default_t
 737              		.file 3 "C:/STM32/arm-none-eabi-gcc/14.2.1-1.1.1/.content/arm-none-eabi/include/sys/_stdint.h"
 738              		.file 4 "Drivers/CMSIS/Device/ST/STM32F4xx/Include/stm32f407xx.h"
 739              		.file 5 "Drivers/STM32F4xx_HAL_Driver/Inc/stm32f4xx_hal_gpio.h"
 740              		.file 6 "../Bsp/Key/key.h"
 741              		.file 7 "C:/STM32/arm-none-eabi-gcc/14.2.1-1.1.1/.content/arm-none-eabi/include/string.h"
 742              		.file 8 "<built-in>"
ARM GAS  C:\Users\fish\AppData\Local\Temp\cc1GxmHF.s 			page 19

