ARM GAS  C:\Users\fish\AppData\Local\Temp\ccV9EfPJ.s 			page 1


   1              		.cpu cortex-m4
   2              		.arch armv7e-m
   3              		.fpu fpv4-sp-d16
   4              		.eabi_attribute 27, 1
   5              		.eabi_attribute 28, 1
   6              		.eabi_attribute 20, 1
   7              		.eabi_attribute 21, 1
   8              		.eabi_attribute 23, 3
   9              		.eabi_attribute 24, 1
  10              		.eabi_attribute 25, 1
  11              		.eabi_attribute 26, 1
  12              		.eabi_attribute 30, 1
  13              		.eabi_attribute 34, 1
  14              		.eabi_attribute 18, 4
  15              		.file	"led.c"
  16              		.text
  17              	.Ltext0:
  18              		.cfi_sections	.debug_frame
  19              		.file 1 "../Bsp/LED/led.c"
  20              		.section	.text.LED_SetLeds,"ax",%progbits
  21              		.align	1
  22              		.global	LED_SetLeds
  23              		.syntax unified
  24              		.thumb
  25              		.thumb_func
  27              	LED_SetLeds:
  28              	.LVL0:
  29              	.LFB240:
   1:../Bsp/LED/led.c **** /**
   2:../Bsp/LED/led.c ****  * @file    led.c
   3:../Bsp/LED/led.c ****  * @brief   通用 LED 驱动实现
   4:../Bsp/LED/led.c ****  */
   5:../Bsp/LED/led.c **** 
   6:../Bsp/LED/led.c **** #include "led.h"
   7:../Bsp/LED/led.c **** #include <string.h>
   8:../Bsp/LED/led.c **** 
   9:../Bsp/LED/led.c **** /* ====== 私有变量 ====== */
  10:../Bsp/LED/led.c **** 
  11:../Bsp/LED/led.c **** static Led_Config_t s_configs[LED_MAX_COUNT];
  12:../Bsp/LED/led.c **** static uint8_t      s_ledCount = 0;
  13:../Bsp/LED/led.c **** static uint8_t      s_currentMask = 0;  /**< 当前 LED 状态位掩码 */
  14:../Bsp/LED/led.c **** 
  15:../Bsp/LED/led.c **** /* ====== 导出函数实现 ====== */
  16:../Bsp/LED/led.c **** 
  17:../Bsp/LED/led.c **** void LED_Init(const Led_Config_t *configs, uint8_t count)
  18:../Bsp/LED/led.c **** {
  19:../Bsp/LED/led.c ****     if (count > LED_MAX_COUNT)
  20:../Bsp/LED/led.c ****         count = LED_MAX_COUNT;
  21:../Bsp/LED/led.c **** 
  22:../Bsp/LED/led.c ****     s_ledCount = count;
  23:../Bsp/LED/led.c ****     memcpy(s_configs, configs, count * sizeof(Led_Config_t));
  24:../Bsp/LED/led.c ****     s_currentMask = 0;
  25:../Bsp/LED/led.c **** 
  26:../Bsp/LED/led.c ****     /* 初始化时全部熄灭 */
  27:../Bsp/LED/led.c ****     LED_SetLeds(0);
  28:../Bsp/LED/led.c **** }
  29:../Bsp/LED/led.c **** 
ARM GAS  C:\Users\fish\AppData\Local\Temp\ccV9EfPJ.s 			page 2


  30:../Bsp/LED/led.c **** void LED_SetLeds(uint8_t mask)
  31:../Bsp/LED/led.c **** {
  30              		.loc 1 31 1 view -0
  31              		.cfi_startproc
  32              		@ args = 0, pretend = 0, frame = 0
  33              		@ frame_needed = 0, uses_anonymous_args = 0
  34              		.loc 1 31 1 is_stmt 0 view .LVU1
  35 0000 38B5     		push	{r3, r4, r5, lr}
  36              	.LCFI0:
  37              		.cfi_def_cfa_offset 16
  38              		.cfi_offset 3, -16
  39              		.cfi_offset 4, -12
  40              		.cfi_offset 5, -8
  41              		.cfi_offset 14, -4
  42 0002 0546     		mov	r5, r0
  32:../Bsp/LED/led.c ****     uint8_t i;
  43              		.loc 1 32 5 is_stmt 1 view .LVU2
  33:../Bsp/LED/led.c ****     s_currentMask = mask;
  44              		.loc 1 33 5 view .LVU3
  45              		.loc 1 33 19 is_stmt 0 view .LVU4
  46 0004 134B     		ldr	r3, .L8
  47 0006 1870     		strb	r0, [r3]
  34:../Bsp/LED/led.c **** 
  35:../Bsp/LED/led.c ****     for (i = 0; i < s_ledCount; i++)
  48              		.loc 1 35 5 is_stmt 1 view .LVU5
  49              	.LVL1:
  50              		.loc 1 35 12 is_stmt 0 view .LVU6
  51 0008 0024     		movs	r4, #0
  52              		.loc 1 35 5 view .LVU7
  53 000a 10E0     		b	.L2
  54              	.LVL2:
  55              	.L3:
  56              	.LBB2:
  36:../Bsp/LED/led.c ****     {
  37:../Bsp/LED/led.c ****         const Led_Config_t *cfg = &s_configs[i];
  38:../Bsp/LED/led.c ****         GPIO_PinState state;
  39:../Bsp/LED/led.c **** 
  40:../Bsp/LED/led.c ****         if (mask & (1 << i))
  41:../Bsp/LED/led.c ****         {
  42:../Bsp/LED/led.c ****             /* 点亮 */
  43:../Bsp/LED/led.c ****             state = (cfg->onLevel == LED_ON_LOW) ? GPIO_PIN_RESET : GPIO_PIN_SET;
  44:../Bsp/LED/led.c ****         }
  45:../Bsp/LED/led.c ****         else
  46:../Bsp/LED/led.c ****         {
  47:../Bsp/LED/led.c ****             /* 熄灭 */
  48:../Bsp/LED/led.c ****             state = (cfg->onLevel == LED_ON_LOW) ? GPIO_PIN_SET : GPIO_PIN_RESET;
  57              		.loc 1 48 13 is_stmt 1 view .LVU8
  58              		.loc 1 48 25 is_stmt 0 view .LVU9
  59 000c 124B     		ldr	r3, .L8+4
  60 000e 03EBC403 		add	r3, r3, r4, lsl #3
  61 0012 9A79     		ldrb	r2, [r3, #6]	@ zero_extendqisi2
  62              		.loc 1 48 65 view .LVU10
  63 0014 B2FA82F2 		clz	r2, r2
  64 0018 5209     		lsrs	r2, r2, #5
  65              	.L4:
  66              	.LVL3:
  49:../Bsp/LED/led.c ****         }
ARM GAS  C:\Users\fish\AppData\Local\Temp\ccV9EfPJ.s 			page 3


  50:../Bsp/LED/led.c **** 
  51:../Bsp/LED/led.c ****         HAL_GPIO_WritePin(cfg->port, cfg->pin, state);
  67              		.loc 1 51 9 is_stmt 1 view .LVU11
  68              		.loc 1 51 30 is_stmt 0 view .LVU12
  69 001a 0F4B     		ldr	r3, .L8+4
  70              		.loc 1 51 41 view .LVU13
  71 001c 03EBCC01 		add	r1, r3, ip, lsl #3
  72              		.loc 1 51 9 view .LVU14
  73 0020 8988     		ldrh	r1, [r1, #4]
  74 0022 53F83C00 		ldr	r0, [r3, ip, lsl #3]
  75 0026 FFF7FEFF 		bl	HAL_GPIO_WritePin
  76              	.LVL4:
  77              		.loc 1 51 9 view .LVU15
  78              	.LBE2:
  35:../Bsp/LED/led.c ****     {
  79              		.loc 1 35 34 is_stmt 1 discriminator 2 view .LVU16
  80 002a 0134     		adds	r4, r4, #1
  81              	.LVL5:
  35:../Bsp/LED/led.c ****     {
  82              		.loc 1 35 34 is_stmt 0 discriminator 2 view .LVU17
  83 002c E4B2     		uxtb	r4, r4
  84              	.LVL6:
  85              	.L2:
  35:../Bsp/LED/led.c ****     {
  86              		.loc 1 35 19 is_stmt 1 discriminator 1 view .LVU18
  87 002e 0B4B     		ldr	r3, .L8+8
  88 0030 1B78     		ldrb	r3, [r3]	@ zero_extendqisi2
  89 0032 A342     		cmp	r3, r4
  90 0034 0DD9     		bls	.L7
  91              	.LBB3:
  37:../Bsp/LED/led.c ****         GPIO_PinState state;
  92              		.loc 1 37 9 view .LVU19
  37:../Bsp/LED/led.c ****         GPIO_PinState state;
  93              		.loc 1 37 45 is_stmt 0 view .LVU20
  94 0036 A446     		mov	ip, r4
  95              	.LVL7:
  38:../Bsp/LED/led.c **** 
  96              		.loc 1 38 9 is_stmt 1 view .LVU21
  40:../Bsp/LED/led.c ****         {
  97              		.loc 1 40 9 view .LVU22
  40:../Bsp/LED/led.c ****         {
  98              		.loc 1 40 13 is_stmt 0 view .LVU23
  99 0038 45FA04F3 		asr	r3, r5, r4
  40:../Bsp/LED/led.c ****         {
 100              		.loc 1 40 12 view .LVU24
 101 003c 13F0010F 		tst	r3, #1
 102 0040 E4D0     		beq	.L3
  43:../Bsp/LED/led.c ****         }
 103              		.loc 1 43 13 is_stmt 1 view .LVU25
  43:../Bsp/LED/led.c ****         }
 104              		.loc 1 43 25 is_stmt 0 view .LVU26
 105 0042 054B     		ldr	r3, .L8+4
 106 0044 03EBC403 		add	r3, r3, r4, lsl #3
 107              	.LVL8:
  43:../Bsp/LED/led.c ****         }
 108              		.loc 1 43 25 view .LVU27
 109 0048 9A79     		ldrb	r2, [r3, #6]	@ zero_extendqisi2
ARM GAS  C:\Users\fish\AppData\Local\Temp\ccV9EfPJ.s 			page 4


  43:../Bsp/LED/led.c ****         }
 110              		.loc 1 43 67 view .LVU28
 111 004a 003A     		subs	r2, r2, #0
 112 004c 18BF     		it	ne
 113 004e 0122     		movne	r2, #1
 114              	.LVL9:
  43:../Bsp/LED/led.c ****         }
 115              		.loc 1 43 67 view .LVU29
 116 0050 E3E7     		b	.L4
 117              	.LVL10:
 118              	.L7:
  43:../Bsp/LED/led.c ****         }
 119              		.loc 1 43 67 view .LVU30
 120              	.LBE3:
  52:../Bsp/LED/led.c ****     }
  53:../Bsp/LED/led.c **** }
 121              		.loc 1 53 1 view .LVU31
 122 0052 38BD     		pop	{r3, r4, r5, pc}
 123              	.LVL11:
 124              	.L9:
 125              		.loc 1 53 1 view .LVU32
 126              		.align	2
 127              	.L8:
 128 0054 00000000 		.word	s_currentMask
 129 0058 00000000 		.word	s_configs
 130 005c 00000000 		.word	s_ledCount
 131              		.cfi_endproc
 132              	.LFE240:
 134              		.section	.text.LED_Init,"ax",%progbits
 135              		.align	1
 136              		.global	LED_Init
 137              		.syntax unified
 138              		.thumb
 139              		.thumb_func
 141              	LED_Init:
 142              	.LVL12:
 143              	.LFB239:
  18:../Bsp/LED/led.c ****     if (count > LED_MAX_COUNT)
 144              		.loc 1 18 1 is_stmt 1 view -0
 145              		.cfi_startproc
 146              		@ args = 0, pretend = 0, frame = 0
 147              		@ frame_needed = 0, uses_anonymous_args = 0
  18:../Bsp/LED/led.c ****     if (count > LED_MAX_COUNT)
 148              		.loc 1 18 1 is_stmt 0 view .LVU34
 149 0000 08B5     		push	{r3, lr}
 150              	.LCFI1:
 151              		.cfi_def_cfa_offset 8
 152              		.cfi_offset 3, -8
 153              		.cfi_offset 14, -4
  19:../Bsp/LED/led.c ****         count = LED_MAX_COUNT;
 154              		.loc 1 19 5 is_stmt 1 view .LVU35
  19:../Bsp/LED/led.c ****         count = LED_MAX_COUNT;
 155              		.loc 1 19 8 is_stmt 0 view .LVU36
 156 0002 0729     		cmp	r1, #7
 157 0004 00D9     		bls	.L11
  20:../Bsp/LED/led.c **** 
 158              		.loc 1 20 15 view .LVU37
ARM GAS  C:\Users\fish\AppData\Local\Temp\ccV9EfPJ.s 			page 5


 159 0006 0721     		movs	r1, #7
 160              	.LVL13:
 161              	.L11:
  22:../Bsp/LED/led.c ****     memcpy(s_configs, configs, count * sizeof(Led_Config_t));
 162              		.loc 1 22 5 is_stmt 1 view .LVU38
  22:../Bsp/LED/led.c ****     memcpy(s_configs, configs, count * sizeof(Led_Config_t));
 163              		.loc 1 22 16 is_stmt 0 view .LVU39
 164 0008 064B     		ldr	r3, .L14
 165 000a 1970     		strb	r1, [r3]
  23:../Bsp/LED/led.c ****     s_currentMask = 0;
 166              		.loc 1 23 5 is_stmt 1 view .LVU40
 167 000c CA00     		lsls	r2, r1, #3
 168 000e 0146     		mov	r1, r0
 169              	.LVL14:
  23:../Bsp/LED/led.c ****     s_currentMask = 0;
 170              		.loc 1 23 5 is_stmt 0 view .LVU41
 171 0010 0548     		ldr	r0, .L14+4
 172              	.LVL15:
  23:../Bsp/LED/led.c ****     s_currentMask = 0;
 173              		.loc 1 23 5 view .LVU42
 174 0012 FFF7FEFF 		bl	memcpy
 175              	.LVL16:
  24:../Bsp/LED/led.c **** 
 176              		.loc 1 24 5 is_stmt 1 view .LVU43
  24:../Bsp/LED/led.c **** 
 177              		.loc 1 24 19 is_stmt 0 view .LVU44
 178 0016 0020     		movs	r0, #0
 179 0018 044B     		ldr	r3, .L14+8
 180 001a 1870     		strb	r0, [r3]
  27:../Bsp/LED/led.c **** }
 181              		.loc 1 27 5 is_stmt 1 view .LVU45
 182 001c FFF7FEFF 		bl	LED_SetLeds
 183              	.LVL17:
  28:../Bsp/LED/led.c **** 
 184              		.loc 1 28 1 is_stmt 0 view .LVU46
 185 0020 08BD     		pop	{r3, pc}
 186              	.L15:
 187 0022 00BF     		.align	2
 188              	.L14:
 189 0024 00000000 		.word	s_ledCount
 190 0028 00000000 		.word	s_configs
 191 002c 00000000 		.word	s_currentMask
 192              		.cfi_endproc
 193              	.LFE239:
 195              		.section	.text.LED_GetLeds,"ax",%progbits
 196              		.align	1
 197              		.global	LED_GetLeds
 198              		.syntax unified
 199              		.thumb
 200              		.thumb_func
 202              	LED_GetLeds:
 203              	.LFB241:
  54:../Bsp/LED/led.c **** 
  55:../Bsp/LED/led.c **** uint8_t LED_GetLeds(void)
  56:../Bsp/LED/led.c **** {
 204              		.loc 1 56 1 is_stmt 1 view -0
 205              		.cfi_startproc
ARM GAS  C:\Users\fish\AppData\Local\Temp\ccV9EfPJ.s 			page 6


 206              		@ args = 0, pretend = 0, frame = 0
 207              		@ frame_needed = 0, uses_anonymous_args = 0
 208              		@ link register save eliminated.
  57:../Bsp/LED/led.c ****     return s_currentMask;
 209              		.loc 1 57 5 view .LVU48
  58:../Bsp/LED/led.c **** }
 210              		.loc 1 58 1 is_stmt 0 view .LVU49
 211 0000 014B     		ldr	r3, .L17
 212 0002 1878     		ldrb	r0, [r3]	@ zero_extendqisi2
 213 0004 7047     		bx	lr
 214              	.L18:
 215 0006 00BF     		.align	2
 216              	.L17:
 217 0008 00000000 		.word	s_currentMask
 218              		.cfi_endproc
 219              	.LFE241:
 221              		.section	.text.LED_On,"ax",%progbits
 222              		.align	1
 223              		.global	LED_On
 224              		.syntax unified
 225              		.thumb
 226              		.thumb_func
 228              	LED_On:
 229              	.LVL18:
 230              	.LFB242:
  59:../Bsp/LED/led.c **** 
  60:../Bsp/LED/led.c **** void LED_On(uint8_t index)
  61:../Bsp/LED/led.c **** {
 231              		.loc 1 61 1 is_stmt 1 view -0
 232              		.cfi_startproc
 233              		@ args = 0, pretend = 0, frame = 0
 234              		@ frame_needed = 0, uses_anonymous_args = 0
 235              		.loc 1 61 1 is_stmt 0 view .LVU51
 236 0000 08B5     		push	{r3, lr}
 237              	.LCFI2:
 238              		.cfi_def_cfa_offset 8
 239              		.cfi_offset 3, -8
 240              		.cfi_offset 14, -4
  62:../Bsp/LED/led.c ****     if (index >= s_ledCount)
 241              		.loc 1 62 5 is_stmt 1 view .LVU52
 242              		.loc 1 62 15 is_stmt 0 view .LVU53
 243 0002 074B     		ldr	r3, .L23
 244 0004 1B78     		ldrb	r3, [r3]	@ zero_extendqisi2
 245              		.loc 1 62 8 view .LVU54
 246 0006 8342     		cmp	r3, r0
 247 0008 00D8     		bhi	.L22
 248              	.LVL19:
 249              	.L19:
  63:../Bsp/LED/led.c ****         return;
  64:../Bsp/LED/led.c ****     s_currentMask |= (1 << index);
  65:../Bsp/LED/led.c ****     LED_SetLeds(s_currentMask);
  66:../Bsp/LED/led.c **** }
 250              		.loc 1 66 1 view .LVU55
 251 000a 08BD     		pop	{r3, pc}
 252              	.LVL20:
 253              	.L22:
  64:../Bsp/LED/led.c ****     LED_SetLeds(s_currentMask);
ARM GAS  C:\Users\fish\AppData\Local\Temp\ccV9EfPJ.s 			page 7


 254              		.loc 1 64 5 is_stmt 1 view .LVU56
  64:../Bsp/LED/led.c ****     LED_SetLeds(s_currentMask);
 255              		.loc 1 64 25 is_stmt 0 view .LVU57
 256 000c 0123     		movs	r3, #1
 257 000e 8340     		lsls	r3, r3, r0
  64:../Bsp/LED/led.c ****     LED_SetLeds(s_currentMask);
 258              		.loc 1 64 19 view .LVU58
 259 0010 044A     		ldr	r2, .L23+4
 260 0012 1078     		ldrb	r0, [r2]	@ zero_extendqisi2
 261              	.LVL21:
  64:../Bsp/LED/led.c ****     LED_SetLeds(s_currentMask);
 262              		.loc 1 64 19 view .LVU59
 263 0014 1843     		orrs	r0, r0, r3
 264 0016 C0B2     		uxtb	r0, r0
 265 0018 1070     		strb	r0, [r2]
  65:../Bsp/LED/led.c **** }
 266              		.loc 1 65 5 is_stmt 1 view .LVU60
 267 001a FFF7FEFF 		bl	LED_SetLeds
 268              	.LVL22:
 269 001e F4E7     		b	.L19
 270              	.L24:
 271              		.align	2
 272              	.L23:
 273 0020 00000000 		.word	s_ledCount
 274 0024 00000000 		.word	s_currentMask
 275              		.cfi_endproc
 276              	.LFE242:
 278              		.section	.text.LED_Off,"ax",%progbits
 279              		.align	1
 280              		.global	LED_Off
 281              		.syntax unified
 282              		.thumb
 283              		.thumb_func
 285              	LED_Off:
 286              	.LVL23:
 287              	.LFB243:
  67:../Bsp/LED/led.c **** 
  68:../Bsp/LED/led.c **** void LED_Off(uint8_t index)
  69:../Bsp/LED/led.c **** {
 288              		.loc 1 69 1 view -0
 289              		.cfi_startproc
 290              		@ args = 0, pretend = 0, frame = 0
 291              		@ frame_needed = 0, uses_anonymous_args = 0
 292              		.loc 1 69 1 is_stmt 0 view .LVU62
 293 0000 08B5     		push	{r3, lr}
 294              	.LCFI3:
 295              		.cfi_def_cfa_offset 8
 296              		.cfi_offset 3, -8
 297              		.cfi_offset 14, -4
  70:../Bsp/LED/led.c ****     if (index >= s_ledCount)
 298              		.loc 1 70 5 is_stmt 1 view .LVU63
 299              		.loc 1 70 15 is_stmt 0 view .LVU64
 300 0002 084B     		ldr	r3, .L29
 301 0004 1B78     		ldrb	r3, [r3]	@ zero_extendqisi2
 302              		.loc 1 70 8 view .LVU65
 303 0006 8342     		cmp	r3, r0
 304 0008 00D8     		bhi	.L28
ARM GAS  C:\Users\fish\AppData\Local\Temp\ccV9EfPJ.s 			page 8


 305              	.LVL24:
 306              	.L25:
  71:../Bsp/LED/led.c ****         return;
  72:../Bsp/LED/led.c ****     s_currentMask &= ~(1 << index);
  73:../Bsp/LED/led.c ****     LED_SetLeds(s_currentMask);
  74:../Bsp/LED/led.c **** }
 307              		.loc 1 74 1 view .LVU66
 308 000a 08BD     		pop	{r3, pc}
 309              	.LVL25:
 310              	.L28:
  72:../Bsp/LED/led.c ****     LED_SetLeds(s_currentMask);
 311              		.loc 1 72 5 is_stmt 1 view .LVU67
  72:../Bsp/LED/led.c ****     LED_SetLeds(s_currentMask);
 312              		.loc 1 72 26 is_stmt 0 view .LVU68
 313 000c 0123     		movs	r3, #1
 314 000e 8340     		lsls	r3, r3, r0
  72:../Bsp/LED/led.c ****     LED_SetLeds(s_currentMask);
 315              		.loc 1 72 19 view .LVU69
 316 0010 DB43     		mvns	r3, r3
 317 0012 5BB2     		sxtb	r3, r3
 318 0014 044A     		ldr	r2, .L29+4
 319 0016 1078     		ldrb	r0, [r2]	@ zero_extendqisi2
 320              	.LVL26:
  72:../Bsp/LED/led.c ****     LED_SetLeds(s_currentMask);
 321              		.loc 1 72 19 view .LVU70
 322 0018 1840     		ands	r0, r0, r3
 323 001a 1070     		strb	r0, [r2]
  73:../Bsp/LED/led.c **** }
 324              		.loc 1 73 5 is_stmt 1 view .LVU71
 325 001c FFF7FEFF 		bl	LED_SetLeds
 326              	.LVL27:
 327 0020 F3E7     		b	.L25
 328              	.L30:
 329 0022 00BF     		.align	2
 330              	.L29:
 331 0024 00000000 		.word	s_ledCount
 332 0028 00000000 		.word	s_currentMask
 333              		.cfi_endproc
 334              	.LFE243:
 336              		.section	.text.LED_Toggle,"ax",%progbits
 337              		.align	1
 338              		.global	LED_Toggle
 339              		.syntax unified
 340              		.thumb
 341              		.thumb_func
 343              	LED_Toggle:
 344              	.LVL28:
 345              	.LFB244:
  75:../Bsp/LED/led.c **** 
  76:../Bsp/LED/led.c **** void LED_Toggle(uint8_t index)
  77:../Bsp/LED/led.c **** {
 346              		.loc 1 77 1 view -0
 347              		.cfi_startproc
 348              		@ args = 0, pretend = 0, frame = 0
 349              		@ frame_needed = 0, uses_anonymous_args = 0
 350              		.loc 1 77 1 is_stmt 0 view .LVU73
 351 0000 08B5     		push	{r3, lr}
ARM GAS  C:\Users\fish\AppData\Local\Temp\ccV9EfPJ.s 			page 9


 352              	.LCFI4:
 353              		.cfi_def_cfa_offset 8
 354              		.cfi_offset 3, -8
 355              		.cfi_offset 14, -4
  78:../Bsp/LED/led.c ****     if (index >= s_ledCount)
 356              		.loc 1 78 5 is_stmt 1 view .LVU74
 357              		.loc 1 78 15 is_stmt 0 view .LVU75
 358 0002 074B     		ldr	r3, .L35
 359 0004 1B78     		ldrb	r3, [r3]	@ zero_extendqisi2
 360              		.loc 1 78 8 view .LVU76
 361 0006 8342     		cmp	r3, r0
 362 0008 00D8     		bhi	.L34
 363              	.LVL29:
 364              	.L31:
  79:../Bsp/LED/led.c ****         return;
  80:../Bsp/LED/led.c ****     s_currentMask ^= (1 << index);
  81:../Bsp/LED/led.c ****     LED_SetLeds(s_currentMask);
  82:../Bsp/LED/led.c **** }
 365              		.loc 1 82 1 view .LVU77
 366 000a 08BD     		pop	{r3, pc}
 367              	.LVL30:
 368              	.L34:
  80:../Bsp/LED/led.c ****     LED_SetLeds(s_currentMask);
 369              		.loc 1 80 5 is_stmt 1 view .LVU78
  80:../Bsp/LED/led.c ****     LED_SetLeds(s_currentMask);
 370              		.loc 1 80 25 is_stmt 0 view .LVU79
 371 000c 0123     		movs	r3, #1
 372 000e 8340     		lsls	r3, r3, r0
  80:../Bsp/LED/led.c ****     LED_SetLeds(s_currentMask);
 373              		.loc 1 80 19 view .LVU80
 374 0010 044A     		ldr	r2, .L35+4
 375 0012 1078     		ldrb	r0, [r2]	@ zero_extendqisi2
 376              	.LVL31:
  80:../Bsp/LED/led.c ****     LED_SetLeds(s_currentMask);
 377              		.loc 1 80 19 view .LVU81
 378 0014 5840     		eors	r0, r0, r3
 379 0016 C0B2     		uxtb	r0, r0
 380 0018 1070     		strb	r0, [r2]
  81:../Bsp/LED/led.c **** }
 381              		.loc 1 81 5 is_stmt 1 view .LVU82
 382 001a FFF7FEFF 		bl	LED_SetLeds
 383              	.LVL32:
 384 001e F4E7     		b	.L31
 385              	.L36:
 386              		.align	2
 387              	.L35:
 388 0020 00000000 		.word	s_ledCount
 389 0024 00000000 		.word	s_currentMask
 390              		.cfi_endproc
 391              	.LFE244:
 393              		.section	.bss.s_currentMask,"aw",%nobits
 396              	s_currentMask:
 397 0000 00       		.space	1
 398              		.section	.bss.s_ledCount,"aw",%nobits
 401              	s_ledCount:
 402 0000 00       		.space	1
 403              		.section	.bss.s_configs,"aw",%nobits
ARM GAS  C:\Users\fish\AppData\Local\Temp\ccV9EfPJ.s 			page 10


 404              		.align	2
 407              	s_configs:
 408 0000 00000000 		.space	56
 408      00000000 
 408      00000000 
 408      00000000 
 408      00000000 
 409              		.text
 410              	.Letext0:
 411              		.file 2 "C:/STM32/arm-none-eabi-gcc/14.2.1-1.1.1/.content/arm-none-eabi/include/machine/_default_t
 412              		.file 3 "C:/STM32/arm-none-eabi-gcc/14.2.1-1.1.1/.content/arm-none-eabi/include/sys/_stdint.h"
 413              		.file 4 "Drivers/CMSIS/Device/ST/STM32F4xx/Include/stm32f407xx.h"
 414              		.file 5 "Drivers/STM32F4xx_HAL_Driver/Inc/stm32f4xx_hal_gpio.h"
 415              		.file 6 "../Bsp/LED/led.h"
 416              		.file 7 "C:/STM32/arm-none-eabi-gcc/14.2.1-1.1.1/.content/arm-none-eabi/include/string.h"
 417              		.file 8 "<built-in>"
ARM GAS  C:\Users\fish\AppData\Local\Temp\ccV9EfPJ.s 			page 11

