ARM GAS  C:\Users\fish\AppData\Local\Temp\ccNgX8mW.s 			page 1


   1              		.cpu cortex-m4
   2              		.arch armv7e-m
   3              		.fpu fpv4-sp-d16
   4              		.eabi_attribute 27, 1
   5              		.eabi_attribute 28, 1
   6              		.eabi_attribute 20, 1
   7              		.eabi_attribute 21, 1
   8              		.eabi_attribute 23, 3
   9              		.eabi_attribute 24, 1
  10              		.eabi_attribute 25, 1
  11              		.eabi_attribute 26, 1
  12              		.eabi_attribute 30, 1
  13              		.eabi_attribute 34, 1
  14              		.eabi_attribute 18, 4
  15              		.file	"stm32f4xx_hal_dac.c"
  16              		.text
  17              	.Ltext0:
  18              		.cfi_sections	.debug_frame
  19              		.file 1 "Drivers/STM32F4xx_HAL_Driver/Src/stm32f4xx_hal_dac.c"
  20              		.section	.text.HAL_DAC_MspInit,"ax",%progbits
  21              		.align	1
  22              		.weak	HAL_DAC_MspInit
  23              		.syntax unified
  24              		.thumb
  25              		.thumb_func
  27              	HAL_DAC_MspInit:
  28              	.LVL0:
  29              	.LFB241:
   1:Drivers/STM32F4xx_HAL_Driver/Src/stm32f4xx_hal_dac.c **** /**
   2:Drivers/STM32F4xx_HAL_Driver/Src/stm32f4xx_hal_dac.c ****   ******************************************************************************
   3:Drivers/STM32F4xx_HAL_Driver/Src/stm32f4xx_hal_dac.c ****   * @file    stm32f4xx_hal_dac.c
   4:Drivers/STM32F4xx_HAL_Driver/Src/stm32f4xx_hal_dac.c ****   * @author  MCD Application Team
   5:Drivers/STM32F4xx_HAL_Driver/Src/stm32f4xx_hal_dac.c ****   * @brief   DAC HAL module driver.
   6:Drivers/STM32F4xx_HAL_Driver/Src/stm32f4xx_hal_dac.c ****   *         This file provides firmware functions to manage the following
   7:Drivers/STM32F4xx_HAL_Driver/Src/stm32f4xx_hal_dac.c ****   *         functionalities of the Digital to Analog Converter (DAC) peripheral:
   8:Drivers/STM32F4xx_HAL_Driver/Src/stm32f4xx_hal_dac.c ****   *           + Initialization and de-initialization functions
   9:Drivers/STM32F4xx_HAL_Driver/Src/stm32f4xx_hal_dac.c ****   *           + IO operation functions
  10:Drivers/STM32F4xx_HAL_Driver/Src/stm32f4xx_hal_dac.c ****   *           + Peripheral Control functions
  11:Drivers/STM32F4xx_HAL_Driver/Src/stm32f4xx_hal_dac.c ****   *           + Peripheral State and Errors functions
  12:Drivers/STM32F4xx_HAL_Driver/Src/stm32f4xx_hal_dac.c ****   *
  13:Drivers/STM32F4xx_HAL_Driver/Src/stm32f4xx_hal_dac.c ****   *
  14:Drivers/STM32F4xx_HAL_Driver/Src/stm32f4xx_hal_dac.c ****   ******************************************************************************
  15:Drivers/STM32F4xx_HAL_Driver/Src/stm32f4xx_hal_dac.c ****   * @attention
  16:Drivers/STM32F4xx_HAL_Driver/Src/stm32f4xx_hal_dac.c ****   *
  17:Drivers/STM32F4xx_HAL_Driver/Src/stm32f4xx_hal_dac.c ****   * Copyright (c) 2016 STMicroelectronics.
  18:Drivers/STM32F4xx_HAL_Driver/Src/stm32f4xx_hal_dac.c ****   * All rights reserved.
  19:Drivers/STM32F4xx_HAL_Driver/Src/stm32f4xx_hal_dac.c ****   *
  20:Drivers/STM32F4xx_HAL_Driver/Src/stm32f4xx_hal_dac.c ****   * This software is licensed under terms that can be found in the LICENSE file
  21:Drivers/STM32F4xx_HAL_Driver/Src/stm32f4xx_hal_dac.c ****   * in the root directory of this software component.
  22:Drivers/STM32F4xx_HAL_Driver/Src/stm32f4xx_hal_dac.c ****   * If no LICENSE file comes with this software, it is provided AS-IS.
  23:Drivers/STM32F4xx_HAL_Driver/Src/stm32f4xx_hal_dac.c ****   *
  24:Drivers/STM32F4xx_HAL_Driver/Src/stm32f4xx_hal_dac.c ****   ******************************************************************************
  25:Drivers/STM32F4xx_HAL_Driver/Src/stm32f4xx_hal_dac.c ****   @verbatim
  26:Drivers/STM32F4xx_HAL_Driver/Src/stm32f4xx_hal_dac.c ****   ==============================================================================
  27:Drivers/STM32F4xx_HAL_Driver/Src/stm32f4xx_hal_dac.c ****                       ##### DAC Peripheral features #####
  28:Drivers/STM32F4xx_HAL_Driver/Src/stm32f4xx_hal_dac.c ****   ==============================================================================
  29:Drivers/STM32F4xx_HAL_Driver/Src/stm32f4xx_hal_dac.c ****     [..]
ARM GAS  C:\Users\fish\AppData\Local\Temp\ccNgX8mW.s 			page 2


  30:Drivers/STM32F4xx_HAL_Driver/Src/stm32f4xx_hal_dac.c ****       *** DAC Channels ***
  31:Drivers/STM32F4xx_HAL_Driver/Src/stm32f4xx_hal_dac.c ****       ====================
  32:Drivers/STM32F4xx_HAL_Driver/Src/stm32f4xx_hal_dac.c ****     [..]
  33:Drivers/STM32F4xx_HAL_Driver/Src/stm32f4xx_hal_dac.c ****     STM32F4 devices integrate two 12-bit Digital Analog Converters
  34:Drivers/STM32F4xx_HAL_Driver/Src/stm32f4xx_hal_dac.c **** 
  35:Drivers/STM32F4xx_HAL_Driver/Src/stm32f4xx_hal_dac.c ****     The 2 converters (i.e. channel1 & channel2)
  36:Drivers/STM32F4xx_HAL_Driver/Src/stm32f4xx_hal_dac.c ****     can be used independently or simultaneously (dual mode):
  37:Drivers/STM32F4xx_HAL_Driver/Src/stm32f4xx_hal_dac.c ****       (#) DAC channel1 with DAC_OUT1 (PA4) as output
  38:Drivers/STM32F4xx_HAL_Driver/Src/stm32f4xx_hal_dac.c ****       (#) DAC channel2 with DAC_OUT2 (PA5) as output
  39:Drivers/STM32F4xx_HAL_Driver/Src/stm32f4xx_hal_dac.c **** 
  40:Drivers/STM32F4xx_HAL_Driver/Src/stm32f4xx_hal_dac.c ****       *** DAC Triggers ***
  41:Drivers/STM32F4xx_HAL_Driver/Src/stm32f4xx_hal_dac.c ****       ====================
  42:Drivers/STM32F4xx_HAL_Driver/Src/stm32f4xx_hal_dac.c ****     [..]
  43:Drivers/STM32F4xx_HAL_Driver/Src/stm32f4xx_hal_dac.c ****     Digital to Analog conversion can be non-triggered using DAC_TRIGGER_NONE
  44:Drivers/STM32F4xx_HAL_Driver/Src/stm32f4xx_hal_dac.c ****     and DAC_OUT1/DAC_OUT2 is available once writing to DHRx register.
  45:Drivers/STM32F4xx_HAL_Driver/Src/stm32f4xx_hal_dac.c ****     [..]
  46:Drivers/STM32F4xx_HAL_Driver/Src/stm32f4xx_hal_dac.c ****     Digital to Analog conversion can be triggered by:
  47:Drivers/STM32F4xx_HAL_Driver/Src/stm32f4xx_hal_dac.c ****       (#) External event: EXTI Line 9 (any GPIOx_PIN_9) using DAC_TRIGGER_EXT_IT9.
  48:Drivers/STM32F4xx_HAL_Driver/Src/stm32f4xx_hal_dac.c ****           The used pin (GPIOx_PIN_9) must be configured in input mode.
  49:Drivers/STM32F4xx_HAL_Driver/Src/stm32f4xx_hal_dac.c **** 
  50:Drivers/STM32F4xx_HAL_Driver/Src/stm32f4xx_hal_dac.c ****       (#) Timers TRGO: TIM2, TIM4, TIM5, TIM6, TIM7 and TIM8
  51:Drivers/STM32F4xx_HAL_Driver/Src/stm32f4xx_hal_dac.c ****           (DAC_TRIGGER_T2_TRGO, DAC_TRIGGER_T4_TRGO...)
  52:Drivers/STM32F4xx_HAL_Driver/Src/stm32f4xx_hal_dac.c **** 
  53:Drivers/STM32F4xx_HAL_Driver/Src/stm32f4xx_hal_dac.c ****       (#) Software using DAC_TRIGGER_SOFTWARE
  54:Drivers/STM32F4xx_HAL_Driver/Src/stm32f4xx_hal_dac.c **** 
  55:Drivers/STM32F4xx_HAL_Driver/Src/stm32f4xx_hal_dac.c ****       *** DAC Buffer mode feature ***
  56:Drivers/STM32F4xx_HAL_Driver/Src/stm32f4xx_hal_dac.c ****       ===============================
  57:Drivers/STM32F4xx_HAL_Driver/Src/stm32f4xx_hal_dac.c ****       [..]
  58:Drivers/STM32F4xx_HAL_Driver/Src/stm32f4xx_hal_dac.c ****       Each DAC channel integrates an output buffer that can be used to
  59:Drivers/STM32F4xx_HAL_Driver/Src/stm32f4xx_hal_dac.c ****       reduce the output impedance, and to drive external loads directly
  60:Drivers/STM32F4xx_HAL_Driver/Src/stm32f4xx_hal_dac.c ****       without having to add an external operational amplifier.
  61:Drivers/STM32F4xx_HAL_Driver/Src/stm32f4xx_hal_dac.c ****       To enable, the output buffer use
  62:Drivers/STM32F4xx_HAL_Driver/Src/stm32f4xx_hal_dac.c ****       sConfig.DAC_OutputBuffer = DAC_OUTPUTBUFFER_ENABLE;
  63:Drivers/STM32F4xx_HAL_Driver/Src/stm32f4xx_hal_dac.c ****       [..]
  64:Drivers/STM32F4xx_HAL_Driver/Src/stm32f4xx_hal_dac.c ****       (@) Refer to the device datasheet for more details about output
  65:Drivers/STM32F4xx_HAL_Driver/Src/stm32f4xx_hal_dac.c ****           impedance value with and without output buffer.
  66:Drivers/STM32F4xx_HAL_Driver/Src/stm32f4xx_hal_dac.c **** 
  67:Drivers/STM32F4xx_HAL_Driver/Src/stm32f4xx_hal_dac.c ****        *** DAC wave generation feature ***
  68:Drivers/STM32F4xx_HAL_Driver/Src/stm32f4xx_hal_dac.c ****        ===================================
  69:Drivers/STM32F4xx_HAL_Driver/Src/stm32f4xx_hal_dac.c ****        [..]
  70:Drivers/STM32F4xx_HAL_Driver/Src/stm32f4xx_hal_dac.c ****        Both DAC channels can be used to generate
  71:Drivers/STM32F4xx_HAL_Driver/Src/stm32f4xx_hal_dac.c ****          (#) Noise wave
  72:Drivers/STM32F4xx_HAL_Driver/Src/stm32f4xx_hal_dac.c ****          (#) Triangle wave
  73:Drivers/STM32F4xx_HAL_Driver/Src/stm32f4xx_hal_dac.c **** 
  74:Drivers/STM32F4xx_HAL_Driver/Src/stm32f4xx_hal_dac.c ****        *** DAC data format ***
  75:Drivers/STM32F4xx_HAL_Driver/Src/stm32f4xx_hal_dac.c ****        =======================
  76:Drivers/STM32F4xx_HAL_Driver/Src/stm32f4xx_hal_dac.c ****        [..]
  77:Drivers/STM32F4xx_HAL_Driver/Src/stm32f4xx_hal_dac.c ****        The DAC data format can be:
  78:Drivers/STM32F4xx_HAL_Driver/Src/stm32f4xx_hal_dac.c ****          (#) 8-bit right alignment using DAC_ALIGN_8B_R
  79:Drivers/STM32F4xx_HAL_Driver/Src/stm32f4xx_hal_dac.c ****          (#) 12-bit left alignment using DAC_ALIGN_12B_L
  80:Drivers/STM32F4xx_HAL_Driver/Src/stm32f4xx_hal_dac.c ****          (#) 12-bit right alignment using DAC_ALIGN_12B_R
  81:Drivers/STM32F4xx_HAL_Driver/Src/stm32f4xx_hal_dac.c **** 
  82:Drivers/STM32F4xx_HAL_Driver/Src/stm32f4xx_hal_dac.c ****        *** DAC data value to voltage correspondence ***
  83:Drivers/STM32F4xx_HAL_Driver/Src/stm32f4xx_hal_dac.c ****        ================================================
  84:Drivers/STM32F4xx_HAL_Driver/Src/stm32f4xx_hal_dac.c ****        [..]
  85:Drivers/STM32F4xx_HAL_Driver/Src/stm32f4xx_hal_dac.c ****        The analog output voltage on each DAC channel pin is determined
  86:Drivers/STM32F4xx_HAL_Driver/Src/stm32f4xx_hal_dac.c ****        by the following equation:
ARM GAS  C:\Users\fish\AppData\Local\Temp\ccNgX8mW.s 			page 3


  87:Drivers/STM32F4xx_HAL_Driver/Src/stm32f4xx_hal_dac.c ****        [..]
  88:Drivers/STM32F4xx_HAL_Driver/Src/stm32f4xx_hal_dac.c ****        DAC_OUTx = VREF+ * DOR / 4095
  89:Drivers/STM32F4xx_HAL_Driver/Src/stm32f4xx_hal_dac.c ****        (+) with  DOR is the Data Output Register
  90:Drivers/STM32F4xx_HAL_Driver/Src/stm32f4xx_hal_dac.c ****        [..]
  91:Drivers/STM32F4xx_HAL_Driver/Src/stm32f4xx_hal_dac.c ****           VREF+ is the input voltage reference (refer to the device datasheet)
  92:Drivers/STM32F4xx_HAL_Driver/Src/stm32f4xx_hal_dac.c ****        [..]
  93:Drivers/STM32F4xx_HAL_Driver/Src/stm32f4xx_hal_dac.c ****         e.g. To set DAC_OUT1 to 0.7V, use
  94:Drivers/STM32F4xx_HAL_Driver/Src/stm32f4xx_hal_dac.c ****        (+) Assuming that VREF+ = 3.3V, DAC_OUT1 = (3.3 * 868) / 4095 = 0.7V
  95:Drivers/STM32F4xx_HAL_Driver/Src/stm32f4xx_hal_dac.c **** 
  96:Drivers/STM32F4xx_HAL_Driver/Src/stm32f4xx_hal_dac.c ****        *** DMA requests ***
  97:Drivers/STM32F4xx_HAL_Driver/Src/stm32f4xx_hal_dac.c ****        =====================
  98:Drivers/STM32F4xx_HAL_Driver/Src/stm32f4xx_hal_dac.c ****        [..]
  99:Drivers/STM32F4xx_HAL_Driver/Src/stm32f4xx_hal_dac.c ****        A DMA request can be generated when an external trigger (but not a software trigger)
 100:Drivers/STM32F4xx_HAL_Driver/Src/stm32f4xx_hal_dac.c ****        occurs if DMA1 requests are enabled using HAL_DAC_Start_DMA().
 101:Drivers/STM32F4xx_HAL_Driver/Src/stm32f4xx_hal_dac.c ****        DMA1 requests are mapped as following:
 102:Drivers/STM32F4xx_HAL_Driver/Src/stm32f4xx_hal_dac.c ****       (#) DAC channel1 mapped on DMA1 Stream5 channel7 which must be
 103:Drivers/STM32F4xx_HAL_Driver/Src/stm32f4xx_hal_dac.c ****           already configured
 104:Drivers/STM32F4xx_HAL_Driver/Src/stm32f4xx_hal_dac.c ****       (#) DAC channel2 mapped on DMA1 Stream6 channel7 which must be
 105:Drivers/STM32F4xx_HAL_Driver/Src/stm32f4xx_hal_dac.c ****           already configured
 106:Drivers/STM32F4xx_HAL_Driver/Src/stm32f4xx_hal_dac.c **** 
 107:Drivers/STM32F4xx_HAL_Driver/Src/stm32f4xx_hal_dac.c ****      [..]
 108:Drivers/STM32F4xx_HAL_Driver/Src/stm32f4xx_hal_dac.c ****     (@) For Dual mode and specific signal (Triangle and noise) generation please
 109:Drivers/STM32F4xx_HAL_Driver/Src/stm32f4xx_hal_dac.c ****         refer to Extended Features Driver description
 110:Drivers/STM32F4xx_HAL_Driver/Src/stm32f4xx_hal_dac.c **** 
 111:Drivers/STM32F4xx_HAL_Driver/Src/stm32f4xx_hal_dac.c ****                       ##### How to use this driver #####
 112:Drivers/STM32F4xx_HAL_Driver/Src/stm32f4xx_hal_dac.c ****   ==============================================================================
 113:Drivers/STM32F4xx_HAL_Driver/Src/stm32f4xx_hal_dac.c ****     [..]
 114:Drivers/STM32F4xx_HAL_Driver/Src/stm32f4xx_hal_dac.c ****       (+) DAC APB clock must be enabled to get write access to DAC
 115:Drivers/STM32F4xx_HAL_Driver/Src/stm32f4xx_hal_dac.c ****           registers using HAL_DAC_Init()
 116:Drivers/STM32F4xx_HAL_Driver/Src/stm32f4xx_hal_dac.c ****       (+) Configure DAC_OUTx (DAC_OUT1: PA4, DAC_OUT2: PA5) in analog mode.
 117:Drivers/STM32F4xx_HAL_Driver/Src/stm32f4xx_hal_dac.c ****       (+) Configure the DAC channel using HAL_DAC_ConfigChannel() function.
 118:Drivers/STM32F4xx_HAL_Driver/Src/stm32f4xx_hal_dac.c ****       (+) Enable the DAC channel using HAL_DAC_Start() or HAL_DAC_Start_DMA() functions.
 119:Drivers/STM32F4xx_HAL_Driver/Src/stm32f4xx_hal_dac.c **** 
 120:Drivers/STM32F4xx_HAL_Driver/Src/stm32f4xx_hal_dac.c **** 
 121:Drivers/STM32F4xx_HAL_Driver/Src/stm32f4xx_hal_dac.c ****      *** Polling mode IO operation ***
 122:Drivers/STM32F4xx_HAL_Driver/Src/stm32f4xx_hal_dac.c ****      =================================
 123:Drivers/STM32F4xx_HAL_Driver/Src/stm32f4xx_hal_dac.c ****      [..]
 124:Drivers/STM32F4xx_HAL_Driver/Src/stm32f4xx_hal_dac.c ****        (+) Start the DAC peripheral using HAL_DAC_Start()
 125:Drivers/STM32F4xx_HAL_Driver/Src/stm32f4xx_hal_dac.c ****        (+) To read the DAC last data output value, use the HAL_DAC_GetValue() function.
 126:Drivers/STM32F4xx_HAL_Driver/Src/stm32f4xx_hal_dac.c ****        (+) Stop the DAC peripheral using HAL_DAC_Stop()
 127:Drivers/STM32F4xx_HAL_Driver/Src/stm32f4xx_hal_dac.c **** 
 128:Drivers/STM32F4xx_HAL_Driver/Src/stm32f4xx_hal_dac.c ****      *** DMA mode IO operation ***
 129:Drivers/STM32F4xx_HAL_Driver/Src/stm32f4xx_hal_dac.c ****      ==============================
 130:Drivers/STM32F4xx_HAL_Driver/Src/stm32f4xx_hal_dac.c ****      [..]
 131:Drivers/STM32F4xx_HAL_Driver/Src/stm32f4xx_hal_dac.c ****        (+) Start the DAC peripheral using HAL_DAC_Start_DMA(), at this stage the user specify the l
 132:Drivers/STM32F4xx_HAL_Driver/Src/stm32f4xx_hal_dac.c ****            of data to be transferred at each end of conversion
 133:Drivers/STM32F4xx_HAL_Driver/Src/stm32f4xx_hal_dac.c ****            First issued trigger will start the conversion of the value previously set by HAL_DAC_Se
 134:Drivers/STM32F4xx_HAL_Driver/Src/stm32f4xx_hal_dac.c ****        (+) At the middle of data transfer HAL_DAC_ConvHalfCpltCallbackCh1() or HAL_DACEx_ConvHalfCp
 135:Drivers/STM32F4xx_HAL_Driver/Src/stm32f4xx_hal_dac.c ****            function is executed and user can add his own code by customization of function pointer
 136:Drivers/STM32F4xx_HAL_Driver/Src/stm32f4xx_hal_dac.c ****            HAL_DAC_ConvHalfCpltCallbackCh1() or HAL_DACEx_ConvHalfCpltCallbackCh2()
 137:Drivers/STM32F4xx_HAL_Driver/Src/stm32f4xx_hal_dac.c ****        (+) At The end of data transfer HAL_DAC_ConvCpltCallbackCh1() or HAL_DACEx_ConvHalfCpltCallb
 138:Drivers/STM32F4xx_HAL_Driver/Src/stm32f4xx_hal_dac.c ****            function is executed and user can add his own code by customization of function pointer
 139:Drivers/STM32F4xx_HAL_Driver/Src/stm32f4xx_hal_dac.c ****            HAL_DAC_ConvCpltCallbackCh1() or HAL_DACEx_ConvHalfCpltCallbackCh2()
 140:Drivers/STM32F4xx_HAL_Driver/Src/stm32f4xx_hal_dac.c ****        (+) In case of transfer Error, HAL_DAC_ErrorCallbackCh1() function is executed and user can
 141:Drivers/STM32F4xx_HAL_Driver/Src/stm32f4xx_hal_dac.c ****             add his own code by customization of function pointer HAL_DAC_ErrorCallbackCh1
 142:Drivers/STM32F4xx_HAL_Driver/Src/stm32f4xx_hal_dac.c ****        (+) In case of DMA underrun, DAC interruption triggers and execute internal function HAL_DAC
 143:Drivers/STM32F4xx_HAL_Driver/Src/stm32f4xx_hal_dac.c ****            HAL_DAC_DMAUnderrunCallbackCh1() or HAL_DACEx_DMAUnderrunCallbackCh2()
ARM GAS  C:\Users\fish\AppData\Local\Temp\ccNgX8mW.s 			page 4


 144:Drivers/STM32F4xx_HAL_Driver/Src/stm32f4xx_hal_dac.c ****            function is executed and user can add his own code by customization of function pointer
 145:Drivers/STM32F4xx_HAL_Driver/Src/stm32f4xx_hal_dac.c ****            HAL_DAC_DMAUnderrunCallbackCh1() or HAL_DACEx_DMAUnderrunCallbackCh2() and
 146:Drivers/STM32F4xx_HAL_Driver/Src/stm32f4xx_hal_dac.c ****            add his own code by customization of function pointer HAL_DAC_ErrorCallbackCh1()
 147:Drivers/STM32F4xx_HAL_Driver/Src/stm32f4xx_hal_dac.c ****        (+) Stop the DAC peripheral using HAL_DAC_Stop_DMA()
 148:Drivers/STM32F4xx_HAL_Driver/Src/stm32f4xx_hal_dac.c **** 
 149:Drivers/STM32F4xx_HAL_Driver/Src/stm32f4xx_hal_dac.c ****     *** Callback registration ***
 150:Drivers/STM32F4xx_HAL_Driver/Src/stm32f4xx_hal_dac.c ****     =============================================
 151:Drivers/STM32F4xx_HAL_Driver/Src/stm32f4xx_hal_dac.c ****     [..]
 152:Drivers/STM32F4xx_HAL_Driver/Src/stm32f4xx_hal_dac.c ****       The compilation define  USE_HAL_DAC_REGISTER_CALLBACKS when set to 1
 153:Drivers/STM32F4xx_HAL_Driver/Src/stm32f4xx_hal_dac.c ****       allows the user to configure dynamically the driver callbacks.
 154:Drivers/STM32F4xx_HAL_Driver/Src/stm32f4xx_hal_dac.c **** 
 155:Drivers/STM32F4xx_HAL_Driver/Src/stm32f4xx_hal_dac.c ****     Use Functions HAL_DAC_RegisterCallback() to register a user callback,
 156:Drivers/STM32F4xx_HAL_Driver/Src/stm32f4xx_hal_dac.c ****       it allows to register following callbacks:
 157:Drivers/STM32F4xx_HAL_Driver/Src/stm32f4xx_hal_dac.c ****       (+) ConvCpltCallbackCh1     : callback when a half transfer is completed on Ch1.
 158:Drivers/STM32F4xx_HAL_Driver/Src/stm32f4xx_hal_dac.c ****       (+) ConvHalfCpltCallbackCh1 : callback when a transfer is completed on Ch1.
 159:Drivers/STM32F4xx_HAL_Driver/Src/stm32f4xx_hal_dac.c ****       (+) ErrorCallbackCh1        : callback when an error occurs on Ch1.
 160:Drivers/STM32F4xx_HAL_Driver/Src/stm32f4xx_hal_dac.c ****       (+) DMAUnderrunCallbackCh1  : callback when an underrun error occurs on Ch1.
 161:Drivers/STM32F4xx_HAL_Driver/Src/stm32f4xx_hal_dac.c ****       (+) ConvCpltCallbackCh2     : callback when a half transfer is completed on Ch2.
 162:Drivers/STM32F4xx_HAL_Driver/Src/stm32f4xx_hal_dac.c ****       (+) ConvHalfCpltCallbackCh2 : callback when a transfer is completed on Ch2.
 163:Drivers/STM32F4xx_HAL_Driver/Src/stm32f4xx_hal_dac.c ****       (+) ErrorCallbackCh2        : callback when an error occurs on Ch2.
 164:Drivers/STM32F4xx_HAL_Driver/Src/stm32f4xx_hal_dac.c ****       (+) DMAUnderrunCallbackCh2  : callback when an underrun error occurs on Ch2.
 165:Drivers/STM32F4xx_HAL_Driver/Src/stm32f4xx_hal_dac.c ****       (+) MspInitCallback         : DAC MspInit.
 166:Drivers/STM32F4xx_HAL_Driver/Src/stm32f4xx_hal_dac.c ****       (+) MspDeInitCallback       : DAC MspdeInit.
 167:Drivers/STM32F4xx_HAL_Driver/Src/stm32f4xx_hal_dac.c ****       This function takes as parameters the HAL peripheral handle, the Callback ID
 168:Drivers/STM32F4xx_HAL_Driver/Src/stm32f4xx_hal_dac.c ****       and a pointer to the user callback function.
 169:Drivers/STM32F4xx_HAL_Driver/Src/stm32f4xx_hal_dac.c **** 
 170:Drivers/STM32F4xx_HAL_Driver/Src/stm32f4xx_hal_dac.c ****     Use function HAL_DAC_UnRegisterCallback() to reset a callback to the default
 171:Drivers/STM32F4xx_HAL_Driver/Src/stm32f4xx_hal_dac.c ****       weak (overridden) function. It allows to reset following callbacks:
 172:Drivers/STM32F4xx_HAL_Driver/Src/stm32f4xx_hal_dac.c ****       (+) ConvCpltCallbackCh1     : callback when a half transfer is completed on Ch1.
 173:Drivers/STM32F4xx_HAL_Driver/Src/stm32f4xx_hal_dac.c ****       (+) ConvHalfCpltCallbackCh1 : callback when a transfer is completed on Ch1.
 174:Drivers/STM32F4xx_HAL_Driver/Src/stm32f4xx_hal_dac.c ****       (+) ErrorCallbackCh1        : callback when an error occurs on Ch1.
 175:Drivers/STM32F4xx_HAL_Driver/Src/stm32f4xx_hal_dac.c ****       (+) DMAUnderrunCallbackCh1  : callback when an underrun error occurs on Ch1.
 176:Drivers/STM32F4xx_HAL_Driver/Src/stm32f4xx_hal_dac.c ****       (+) ConvCpltCallbackCh2     : callback when a half transfer is completed on Ch2.
 177:Drivers/STM32F4xx_HAL_Driver/Src/stm32f4xx_hal_dac.c ****       (+) ConvHalfCpltCallbackCh2 : callback when a transfer is completed on Ch2.
 178:Drivers/STM32F4xx_HAL_Driver/Src/stm32f4xx_hal_dac.c ****       (+) ErrorCallbackCh2        : callback when an error occurs on Ch2.
 179:Drivers/STM32F4xx_HAL_Driver/Src/stm32f4xx_hal_dac.c ****       (+) DMAUnderrunCallbackCh2  : callback when an underrun error occurs on Ch2.
 180:Drivers/STM32F4xx_HAL_Driver/Src/stm32f4xx_hal_dac.c ****       (+) MspInitCallback         : DAC MspInit.
 181:Drivers/STM32F4xx_HAL_Driver/Src/stm32f4xx_hal_dac.c ****       (+) MspDeInitCallback       : DAC MspdeInit.
 182:Drivers/STM32F4xx_HAL_Driver/Src/stm32f4xx_hal_dac.c ****       (+) All Callbacks
 183:Drivers/STM32F4xx_HAL_Driver/Src/stm32f4xx_hal_dac.c ****       This function) takes as parameters the HAL peripheral handle and the Callback ID.
 184:Drivers/STM32F4xx_HAL_Driver/Src/stm32f4xx_hal_dac.c **** 
 185:Drivers/STM32F4xx_HAL_Driver/Src/stm32f4xx_hal_dac.c ****       By default, after the HAL_DAC_Init and if the state is HAL_DAC_STATE_RESET
 186:Drivers/STM32F4xx_HAL_Driver/Src/stm32f4xx_hal_dac.c ****       all callbacks are reset to the corresponding legacy weak (overridden) functions.
 187:Drivers/STM32F4xx_HAL_Driver/Src/stm32f4xx_hal_dac.c ****       Exception done for MspInit and MspDeInit callbacks that are respectively
 188:Drivers/STM32F4xx_HAL_Driver/Src/stm32f4xx_hal_dac.c ****       reset to the legacy weak (overridden) functions in the HAL_DAC_Init
 189:Drivers/STM32F4xx_HAL_Driver/Src/stm32f4xx_hal_dac.c ****       and  HAL_DAC_DeInit only when these callbacks are null (not registered beforehand).
 190:Drivers/STM32F4xx_HAL_Driver/Src/stm32f4xx_hal_dac.c ****       If not, MspInit or MspDeInit are not null, the HAL_DAC_Init and HAL_DAC_DeInit
 191:Drivers/STM32F4xx_HAL_Driver/Src/stm32f4xx_hal_dac.c ****       keep and use the user MspInit/MspDeInit callbacks (registered beforehand)
 192:Drivers/STM32F4xx_HAL_Driver/Src/stm32f4xx_hal_dac.c **** 
 193:Drivers/STM32F4xx_HAL_Driver/Src/stm32f4xx_hal_dac.c ****       Callbacks can be registered/unregistered in READY state only.
 194:Drivers/STM32F4xx_HAL_Driver/Src/stm32f4xx_hal_dac.c ****       Exception done for MspInit/MspDeInit callbacks that can be registered/unregistered
 195:Drivers/STM32F4xx_HAL_Driver/Src/stm32f4xx_hal_dac.c ****       in READY or RESET state, thus registered (user) MspInit/DeInit callbacks can be used
 196:Drivers/STM32F4xx_HAL_Driver/Src/stm32f4xx_hal_dac.c ****       during the Init/DeInit.
 197:Drivers/STM32F4xx_HAL_Driver/Src/stm32f4xx_hal_dac.c ****       In that case first register the MspInit/MspDeInit user callbacks
 198:Drivers/STM32F4xx_HAL_Driver/Src/stm32f4xx_hal_dac.c ****       using HAL_DAC_RegisterCallback before calling HAL_DAC_DeInit
 199:Drivers/STM32F4xx_HAL_Driver/Src/stm32f4xx_hal_dac.c ****       or HAL_DAC_Init function.
 200:Drivers/STM32F4xx_HAL_Driver/Src/stm32f4xx_hal_dac.c **** 
ARM GAS  C:\Users\fish\AppData\Local\Temp\ccNgX8mW.s 			page 5


 201:Drivers/STM32F4xx_HAL_Driver/Src/stm32f4xx_hal_dac.c ****       When The compilation define USE_HAL_DAC_REGISTER_CALLBACKS is set to 0 or
 202:Drivers/STM32F4xx_HAL_Driver/Src/stm32f4xx_hal_dac.c ****       not defined, the callback registering feature is not available
 203:Drivers/STM32F4xx_HAL_Driver/Src/stm32f4xx_hal_dac.c ****       and weak (overridden) callbacks are used.
 204:Drivers/STM32F4xx_HAL_Driver/Src/stm32f4xx_hal_dac.c **** 
 205:Drivers/STM32F4xx_HAL_Driver/Src/stm32f4xx_hal_dac.c ****      *** DAC HAL driver macros list ***
 206:Drivers/STM32F4xx_HAL_Driver/Src/stm32f4xx_hal_dac.c ****      =============================================
 207:Drivers/STM32F4xx_HAL_Driver/Src/stm32f4xx_hal_dac.c ****      [..]
 208:Drivers/STM32F4xx_HAL_Driver/Src/stm32f4xx_hal_dac.c ****        Below the list of most used macros in DAC HAL driver.
 209:Drivers/STM32F4xx_HAL_Driver/Src/stm32f4xx_hal_dac.c **** 
 210:Drivers/STM32F4xx_HAL_Driver/Src/stm32f4xx_hal_dac.c ****       (+) __HAL_DAC_ENABLE : Enable the DAC peripheral
 211:Drivers/STM32F4xx_HAL_Driver/Src/stm32f4xx_hal_dac.c ****       (+) __HAL_DAC_DISABLE : Disable the DAC peripheral
 212:Drivers/STM32F4xx_HAL_Driver/Src/stm32f4xx_hal_dac.c ****       (+) __HAL_DAC_CLEAR_FLAG: Clear the DAC's pending flags
 213:Drivers/STM32F4xx_HAL_Driver/Src/stm32f4xx_hal_dac.c ****       (+) __HAL_DAC_GET_FLAG: Get the selected DAC's flag status
 214:Drivers/STM32F4xx_HAL_Driver/Src/stm32f4xx_hal_dac.c **** 
 215:Drivers/STM32F4xx_HAL_Driver/Src/stm32f4xx_hal_dac.c ****      [..]
 216:Drivers/STM32F4xx_HAL_Driver/Src/stm32f4xx_hal_dac.c ****       (@) You can refer to the DAC HAL driver header file for more useful macros
 217:Drivers/STM32F4xx_HAL_Driver/Src/stm32f4xx_hal_dac.c **** 
 218:Drivers/STM32F4xx_HAL_Driver/Src/stm32f4xx_hal_dac.c **** @endverbatim
 219:Drivers/STM32F4xx_HAL_Driver/Src/stm32f4xx_hal_dac.c ****   ******************************************************************************
 220:Drivers/STM32F4xx_HAL_Driver/Src/stm32f4xx_hal_dac.c ****   */
 221:Drivers/STM32F4xx_HAL_Driver/Src/stm32f4xx_hal_dac.c **** 
 222:Drivers/STM32F4xx_HAL_Driver/Src/stm32f4xx_hal_dac.c **** /* Includes ------------------------------------------------------------------*/
 223:Drivers/STM32F4xx_HAL_Driver/Src/stm32f4xx_hal_dac.c **** #include "stm32f4xx_hal.h"
 224:Drivers/STM32F4xx_HAL_Driver/Src/stm32f4xx_hal_dac.c **** 
 225:Drivers/STM32F4xx_HAL_Driver/Src/stm32f4xx_hal_dac.c **** /** @addtogroup STM32F4xx_HAL_Driver
 226:Drivers/STM32F4xx_HAL_Driver/Src/stm32f4xx_hal_dac.c ****   * @{
 227:Drivers/STM32F4xx_HAL_Driver/Src/stm32f4xx_hal_dac.c ****   */
 228:Drivers/STM32F4xx_HAL_Driver/Src/stm32f4xx_hal_dac.c **** 
 229:Drivers/STM32F4xx_HAL_Driver/Src/stm32f4xx_hal_dac.c **** #ifdef HAL_DAC_MODULE_ENABLED
 230:Drivers/STM32F4xx_HAL_Driver/Src/stm32f4xx_hal_dac.c **** #if defined(DAC)
 231:Drivers/STM32F4xx_HAL_Driver/Src/stm32f4xx_hal_dac.c **** 
 232:Drivers/STM32F4xx_HAL_Driver/Src/stm32f4xx_hal_dac.c **** /** @defgroup DAC DAC
 233:Drivers/STM32F4xx_HAL_Driver/Src/stm32f4xx_hal_dac.c ****   * @brief DAC driver modules
 234:Drivers/STM32F4xx_HAL_Driver/Src/stm32f4xx_hal_dac.c ****   * @{
 235:Drivers/STM32F4xx_HAL_Driver/Src/stm32f4xx_hal_dac.c ****   */
 236:Drivers/STM32F4xx_HAL_Driver/Src/stm32f4xx_hal_dac.c **** 
 237:Drivers/STM32F4xx_HAL_Driver/Src/stm32f4xx_hal_dac.c **** /* Private typedef -----------------------------------------------------------*/
 238:Drivers/STM32F4xx_HAL_Driver/Src/stm32f4xx_hal_dac.c **** /* Private define ------------------------------------------------------------*/
 239:Drivers/STM32F4xx_HAL_Driver/Src/stm32f4xx_hal_dac.c **** /* Private constants ---------------------------------------------------------*/
 240:Drivers/STM32F4xx_HAL_Driver/Src/stm32f4xx_hal_dac.c **** /* Private macro -------------------------------------------------------------*/
 241:Drivers/STM32F4xx_HAL_Driver/Src/stm32f4xx_hal_dac.c **** /* Private variables ---------------------------------------------------------*/
 242:Drivers/STM32F4xx_HAL_Driver/Src/stm32f4xx_hal_dac.c **** /* Private function prototypes -----------------------------------------------*/
 243:Drivers/STM32F4xx_HAL_Driver/Src/stm32f4xx_hal_dac.c **** /* Exported functions -------------------------------------------------------*/
 244:Drivers/STM32F4xx_HAL_Driver/Src/stm32f4xx_hal_dac.c **** 
 245:Drivers/STM32F4xx_HAL_Driver/Src/stm32f4xx_hal_dac.c **** /** @defgroup DAC_Exported_Functions DAC Exported Functions
 246:Drivers/STM32F4xx_HAL_Driver/Src/stm32f4xx_hal_dac.c ****   * @{
 247:Drivers/STM32F4xx_HAL_Driver/Src/stm32f4xx_hal_dac.c ****   */
 248:Drivers/STM32F4xx_HAL_Driver/Src/stm32f4xx_hal_dac.c **** 
 249:Drivers/STM32F4xx_HAL_Driver/Src/stm32f4xx_hal_dac.c **** /** @defgroup DAC_Exported_Functions_Group1 Initialization and de-initialization functions
 250:Drivers/STM32F4xx_HAL_Driver/Src/stm32f4xx_hal_dac.c ****   *  @brief    Initialization and Configuration functions
 251:Drivers/STM32F4xx_HAL_Driver/Src/stm32f4xx_hal_dac.c ****   *
 252:Drivers/STM32F4xx_HAL_Driver/Src/stm32f4xx_hal_dac.c **** @verbatim
 253:Drivers/STM32F4xx_HAL_Driver/Src/stm32f4xx_hal_dac.c ****   ==============================================================================
 254:Drivers/STM32F4xx_HAL_Driver/Src/stm32f4xx_hal_dac.c ****               ##### Initialization and de-initialization functions #####
 255:Drivers/STM32F4xx_HAL_Driver/Src/stm32f4xx_hal_dac.c ****   ==============================================================================
 256:Drivers/STM32F4xx_HAL_Driver/Src/stm32f4xx_hal_dac.c ****     [..]  This section provides functions allowing to:
 257:Drivers/STM32F4xx_HAL_Driver/Src/stm32f4xx_hal_dac.c ****       (+) Initialize and configure the DAC.
ARM GAS  C:\Users\fish\AppData\Local\Temp\ccNgX8mW.s 			page 6


 258:Drivers/STM32F4xx_HAL_Driver/Src/stm32f4xx_hal_dac.c ****       (+) De-initialize the DAC.
 259:Drivers/STM32F4xx_HAL_Driver/Src/stm32f4xx_hal_dac.c **** 
 260:Drivers/STM32F4xx_HAL_Driver/Src/stm32f4xx_hal_dac.c **** @endverbatim
 261:Drivers/STM32F4xx_HAL_Driver/Src/stm32f4xx_hal_dac.c ****   * @{
 262:Drivers/STM32F4xx_HAL_Driver/Src/stm32f4xx_hal_dac.c ****   */
 263:Drivers/STM32F4xx_HAL_Driver/Src/stm32f4xx_hal_dac.c **** 
 264:Drivers/STM32F4xx_HAL_Driver/Src/stm32f4xx_hal_dac.c **** /**
 265:Drivers/STM32F4xx_HAL_Driver/Src/stm32f4xx_hal_dac.c ****   * @brief  Initialize the DAC peripheral according to the specified parameters
 266:Drivers/STM32F4xx_HAL_Driver/Src/stm32f4xx_hal_dac.c ****   *         in the DAC_InitStruct and initialize the associated handle.
 267:Drivers/STM32F4xx_HAL_Driver/Src/stm32f4xx_hal_dac.c ****   * @param  hdac pointer to a DAC_HandleTypeDef structure that contains
 268:Drivers/STM32F4xx_HAL_Driver/Src/stm32f4xx_hal_dac.c ****   *         the configuration information for the specified DAC.
 269:Drivers/STM32F4xx_HAL_Driver/Src/stm32f4xx_hal_dac.c ****   * @retval HAL status
 270:Drivers/STM32F4xx_HAL_Driver/Src/stm32f4xx_hal_dac.c ****   */
 271:Drivers/STM32F4xx_HAL_Driver/Src/stm32f4xx_hal_dac.c **** HAL_StatusTypeDef HAL_DAC_Init(DAC_HandleTypeDef *hdac)
 272:Drivers/STM32F4xx_HAL_Driver/Src/stm32f4xx_hal_dac.c **** {
 273:Drivers/STM32F4xx_HAL_Driver/Src/stm32f4xx_hal_dac.c ****   /* Check the DAC peripheral handle */
 274:Drivers/STM32F4xx_HAL_Driver/Src/stm32f4xx_hal_dac.c ****   if (hdac == NULL)
 275:Drivers/STM32F4xx_HAL_Driver/Src/stm32f4xx_hal_dac.c ****   {
 276:Drivers/STM32F4xx_HAL_Driver/Src/stm32f4xx_hal_dac.c ****     return HAL_ERROR;
 277:Drivers/STM32F4xx_HAL_Driver/Src/stm32f4xx_hal_dac.c ****   }
 278:Drivers/STM32F4xx_HAL_Driver/Src/stm32f4xx_hal_dac.c ****   /* Check the parameters */
 279:Drivers/STM32F4xx_HAL_Driver/Src/stm32f4xx_hal_dac.c ****   assert_param(IS_DAC_ALL_INSTANCE(hdac->Instance));
 280:Drivers/STM32F4xx_HAL_Driver/Src/stm32f4xx_hal_dac.c **** 
 281:Drivers/STM32F4xx_HAL_Driver/Src/stm32f4xx_hal_dac.c ****   if (hdac->State == HAL_DAC_STATE_RESET)
 282:Drivers/STM32F4xx_HAL_Driver/Src/stm32f4xx_hal_dac.c ****   {
 283:Drivers/STM32F4xx_HAL_Driver/Src/stm32f4xx_hal_dac.c **** #if (USE_HAL_DAC_REGISTER_CALLBACKS == 1)
 284:Drivers/STM32F4xx_HAL_Driver/Src/stm32f4xx_hal_dac.c ****     /* Init the DAC Callback settings */
 285:Drivers/STM32F4xx_HAL_Driver/Src/stm32f4xx_hal_dac.c ****     hdac->ConvCpltCallbackCh1           = HAL_DAC_ConvCpltCallbackCh1;
 286:Drivers/STM32F4xx_HAL_Driver/Src/stm32f4xx_hal_dac.c ****     hdac->ConvHalfCpltCallbackCh1       = HAL_DAC_ConvHalfCpltCallbackCh1;
 287:Drivers/STM32F4xx_HAL_Driver/Src/stm32f4xx_hal_dac.c ****     hdac->ErrorCallbackCh1              = HAL_DAC_ErrorCallbackCh1;
 288:Drivers/STM32F4xx_HAL_Driver/Src/stm32f4xx_hal_dac.c ****     hdac->DMAUnderrunCallbackCh1        = HAL_DAC_DMAUnderrunCallbackCh1;
 289:Drivers/STM32F4xx_HAL_Driver/Src/stm32f4xx_hal_dac.c **** #if defined(DAC_CHANNEL2_SUPPORT)
 290:Drivers/STM32F4xx_HAL_Driver/Src/stm32f4xx_hal_dac.c ****     hdac->ConvCpltCallbackCh2           = HAL_DACEx_ConvCpltCallbackCh2;
 291:Drivers/STM32F4xx_HAL_Driver/Src/stm32f4xx_hal_dac.c ****     hdac->ConvHalfCpltCallbackCh2       = HAL_DACEx_ConvHalfCpltCallbackCh2;
 292:Drivers/STM32F4xx_HAL_Driver/Src/stm32f4xx_hal_dac.c ****     hdac->ErrorCallbackCh2              = HAL_DACEx_ErrorCallbackCh2;
 293:Drivers/STM32F4xx_HAL_Driver/Src/stm32f4xx_hal_dac.c ****     hdac->DMAUnderrunCallbackCh2        = HAL_DACEx_DMAUnderrunCallbackCh2;
 294:Drivers/STM32F4xx_HAL_Driver/Src/stm32f4xx_hal_dac.c **** #endif /* DAC_CHANNEL2_SUPPORT */
 295:Drivers/STM32F4xx_HAL_Driver/Src/stm32f4xx_hal_dac.c ****     if (hdac->MspInitCallback == NULL)
 296:Drivers/STM32F4xx_HAL_Driver/Src/stm32f4xx_hal_dac.c ****     {
 297:Drivers/STM32F4xx_HAL_Driver/Src/stm32f4xx_hal_dac.c ****       hdac->MspInitCallback             = HAL_DAC_MspInit;
 298:Drivers/STM32F4xx_HAL_Driver/Src/stm32f4xx_hal_dac.c ****     }
 299:Drivers/STM32F4xx_HAL_Driver/Src/stm32f4xx_hal_dac.c **** #endif /* USE_HAL_DAC_REGISTER_CALLBACKS */
 300:Drivers/STM32F4xx_HAL_Driver/Src/stm32f4xx_hal_dac.c **** 
 301:Drivers/STM32F4xx_HAL_Driver/Src/stm32f4xx_hal_dac.c ****     /* Allocate lock resource and initialize it */
 302:Drivers/STM32F4xx_HAL_Driver/Src/stm32f4xx_hal_dac.c ****     hdac->Lock = HAL_UNLOCKED;
 303:Drivers/STM32F4xx_HAL_Driver/Src/stm32f4xx_hal_dac.c **** 
 304:Drivers/STM32F4xx_HAL_Driver/Src/stm32f4xx_hal_dac.c **** #if (USE_HAL_DAC_REGISTER_CALLBACKS == 1)
 305:Drivers/STM32F4xx_HAL_Driver/Src/stm32f4xx_hal_dac.c ****     /* Init the low level hardware */
 306:Drivers/STM32F4xx_HAL_Driver/Src/stm32f4xx_hal_dac.c ****     hdac->MspInitCallback(hdac);
 307:Drivers/STM32F4xx_HAL_Driver/Src/stm32f4xx_hal_dac.c **** #else
 308:Drivers/STM32F4xx_HAL_Driver/Src/stm32f4xx_hal_dac.c ****     /* Init the low level hardware */
 309:Drivers/STM32F4xx_HAL_Driver/Src/stm32f4xx_hal_dac.c ****     HAL_DAC_MspInit(hdac);
 310:Drivers/STM32F4xx_HAL_Driver/Src/stm32f4xx_hal_dac.c **** #endif /* USE_HAL_DAC_REGISTER_CALLBACKS */
 311:Drivers/STM32F4xx_HAL_Driver/Src/stm32f4xx_hal_dac.c ****   }
 312:Drivers/STM32F4xx_HAL_Driver/Src/stm32f4xx_hal_dac.c **** 
 313:Drivers/STM32F4xx_HAL_Driver/Src/stm32f4xx_hal_dac.c ****   /* Initialize the DAC state*/
 314:Drivers/STM32F4xx_HAL_Driver/Src/stm32f4xx_hal_dac.c ****   hdac->State = HAL_DAC_STATE_BUSY;
ARM GAS  C:\Users\fish\AppData\Local\Temp\ccNgX8mW.s 			page 7


 315:Drivers/STM32F4xx_HAL_Driver/Src/stm32f4xx_hal_dac.c **** 
 316:Drivers/STM32F4xx_HAL_Driver/Src/stm32f4xx_hal_dac.c ****   /* Set DAC error code to none */
 317:Drivers/STM32F4xx_HAL_Driver/Src/stm32f4xx_hal_dac.c ****   hdac->ErrorCode = HAL_DAC_ERROR_NONE;
 318:Drivers/STM32F4xx_HAL_Driver/Src/stm32f4xx_hal_dac.c **** 
 319:Drivers/STM32F4xx_HAL_Driver/Src/stm32f4xx_hal_dac.c ****   /* Initialize the DAC state*/
 320:Drivers/STM32F4xx_HAL_Driver/Src/stm32f4xx_hal_dac.c ****   hdac->State = HAL_DAC_STATE_READY;
 321:Drivers/STM32F4xx_HAL_Driver/Src/stm32f4xx_hal_dac.c **** 
 322:Drivers/STM32F4xx_HAL_Driver/Src/stm32f4xx_hal_dac.c ****   /* Return function status */
 323:Drivers/STM32F4xx_HAL_Driver/Src/stm32f4xx_hal_dac.c ****   return HAL_OK;
 324:Drivers/STM32F4xx_HAL_Driver/Src/stm32f4xx_hal_dac.c **** }
 325:Drivers/STM32F4xx_HAL_Driver/Src/stm32f4xx_hal_dac.c **** 
 326:Drivers/STM32F4xx_HAL_Driver/Src/stm32f4xx_hal_dac.c **** /**
 327:Drivers/STM32F4xx_HAL_Driver/Src/stm32f4xx_hal_dac.c ****   * @brief  Deinitialize the DAC peripheral registers to their default reset values.
 328:Drivers/STM32F4xx_HAL_Driver/Src/stm32f4xx_hal_dac.c ****   * @param  hdac pointer to a DAC_HandleTypeDef structure that contains
 329:Drivers/STM32F4xx_HAL_Driver/Src/stm32f4xx_hal_dac.c ****   *         the configuration information for the specified DAC.
 330:Drivers/STM32F4xx_HAL_Driver/Src/stm32f4xx_hal_dac.c ****   * @retval HAL status
 331:Drivers/STM32F4xx_HAL_Driver/Src/stm32f4xx_hal_dac.c ****   */
 332:Drivers/STM32F4xx_HAL_Driver/Src/stm32f4xx_hal_dac.c **** HAL_StatusTypeDef HAL_DAC_DeInit(DAC_HandleTypeDef *hdac)
 333:Drivers/STM32F4xx_HAL_Driver/Src/stm32f4xx_hal_dac.c **** {
 334:Drivers/STM32F4xx_HAL_Driver/Src/stm32f4xx_hal_dac.c ****   /* Check the DAC peripheral handle */
 335:Drivers/STM32F4xx_HAL_Driver/Src/stm32f4xx_hal_dac.c ****   if (hdac == NULL)
 336:Drivers/STM32F4xx_HAL_Driver/Src/stm32f4xx_hal_dac.c ****   {
 337:Drivers/STM32F4xx_HAL_Driver/Src/stm32f4xx_hal_dac.c ****     return HAL_ERROR;
 338:Drivers/STM32F4xx_HAL_Driver/Src/stm32f4xx_hal_dac.c ****   }
 339:Drivers/STM32F4xx_HAL_Driver/Src/stm32f4xx_hal_dac.c **** 
 340:Drivers/STM32F4xx_HAL_Driver/Src/stm32f4xx_hal_dac.c ****   /* Check the parameters */
 341:Drivers/STM32F4xx_HAL_Driver/Src/stm32f4xx_hal_dac.c ****   assert_param(IS_DAC_ALL_INSTANCE(hdac->Instance));
 342:Drivers/STM32F4xx_HAL_Driver/Src/stm32f4xx_hal_dac.c **** 
 343:Drivers/STM32F4xx_HAL_Driver/Src/stm32f4xx_hal_dac.c ****   /* Change DAC state */
 344:Drivers/STM32F4xx_HAL_Driver/Src/stm32f4xx_hal_dac.c ****   hdac->State = HAL_DAC_STATE_BUSY;
 345:Drivers/STM32F4xx_HAL_Driver/Src/stm32f4xx_hal_dac.c **** 
 346:Drivers/STM32F4xx_HAL_Driver/Src/stm32f4xx_hal_dac.c **** #if (USE_HAL_DAC_REGISTER_CALLBACKS == 1)
 347:Drivers/STM32F4xx_HAL_Driver/Src/stm32f4xx_hal_dac.c ****   if (hdac->MspDeInitCallback == NULL)
 348:Drivers/STM32F4xx_HAL_Driver/Src/stm32f4xx_hal_dac.c ****   {
 349:Drivers/STM32F4xx_HAL_Driver/Src/stm32f4xx_hal_dac.c ****     hdac->MspDeInitCallback = HAL_DAC_MspDeInit;
 350:Drivers/STM32F4xx_HAL_Driver/Src/stm32f4xx_hal_dac.c ****   }
 351:Drivers/STM32F4xx_HAL_Driver/Src/stm32f4xx_hal_dac.c ****   /* DeInit the low level hardware */
 352:Drivers/STM32F4xx_HAL_Driver/Src/stm32f4xx_hal_dac.c ****   hdac->MspDeInitCallback(hdac);
 353:Drivers/STM32F4xx_HAL_Driver/Src/stm32f4xx_hal_dac.c **** #else
 354:Drivers/STM32F4xx_HAL_Driver/Src/stm32f4xx_hal_dac.c ****   /* DeInit the low level hardware */
 355:Drivers/STM32F4xx_HAL_Driver/Src/stm32f4xx_hal_dac.c ****   HAL_DAC_MspDeInit(hdac);
 356:Drivers/STM32F4xx_HAL_Driver/Src/stm32f4xx_hal_dac.c **** #endif /* USE_HAL_DAC_REGISTER_CALLBACKS */
 357:Drivers/STM32F4xx_HAL_Driver/Src/stm32f4xx_hal_dac.c **** 
 358:Drivers/STM32F4xx_HAL_Driver/Src/stm32f4xx_hal_dac.c ****   /* Set DAC error code to none */
 359:Drivers/STM32F4xx_HAL_Driver/Src/stm32f4xx_hal_dac.c ****   hdac->ErrorCode = HAL_DAC_ERROR_NONE;
 360:Drivers/STM32F4xx_HAL_Driver/Src/stm32f4xx_hal_dac.c **** 
 361:Drivers/STM32F4xx_HAL_Driver/Src/stm32f4xx_hal_dac.c ****   /* Change DAC state */
 362:Drivers/STM32F4xx_HAL_Driver/Src/stm32f4xx_hal_dac.c ****   hdac->State = HAL_DAC_STATE_RESET;
 363:Drivers/STM32F4xx_HAL_Driver/Src/stm32f4xx_hal_dac.c **** 
 364:Drivers/STM32F4xx_HAL_Driver/Src/stm32f4xx_hal_dac.c ****   /* Release Lock */
 365:Drivers/STM32F4xx_HAL_Driver/Src/stm32f4xx_hal_dac.c ****   __HAL_UNLOCK(hdac);
 366:Drivers/STM32F4xx_HAL_Driver/Src/stm32f4xx_hal_dac.c **** 
 367:Drivers/STM32F4xx_HAL_Driver/Src/stm32f4xx_hal_dac.c ****   /* Return function status */
 368:Drivers/STM32F4xx_HAL_Driver/Src/stm32f4xx_hal_dac.c ****   return HAL_OK;
 369:Drivers/STM32F4xx_HAL_Driver/Src/stm32f4xx_hal_dac.c **** }
 370:Drivers/STM32F4xx_HAL_Driver/Src/stm32f4xx_hal_dac.c **** 
 371:Drivers/STM32F4xx_HAL_Driver/Src/stm32f4xx_hal_dac.c **** /**
ARM GAS  C:\Users\fish\AppData\Local\Temp\ccNgX8mW.s 			page 8


 372:Drivers/STM32F4xx_HAL_Driver/Src/stm32f4xx_hal_dac.c ****   * @brief  Initialize the DAC MSP.
 373:Drivers/STM32F4xx_HAL_Driver/Src/stm32f4xx_hal_dac.c ****   * @param  hdac pointer to a DAC_HandleTypeDef structure that contains
 374:Drivers/STM32F4xx_HAL_Driver/Src/stm32f4xx_hal_dac.c ****   *         the configuration information for the specified DAC.
 375:Drivers/STM32F4xx_HAL_Driver/Src/stm32f4xx_hal_dac.c ****   * @retval None
 376:Drivers/STM32F4xx_HAL_Driver/Src/stm32f4xx_hal_dac.c ****   */
 377:Drivers/STM32F4xx_HAL_Driver/Src/stm32f4xx_hal_dac.c **** __weak void HAL_DAC_MspInit(DAC_HandleTypeDef *hdac)
 378:Drivers/STM32F4xx_HAL_Driver/Src/stm32f4xx_hal_dac.c **** {
  30              		.loc 1 378 1 view -0
  31              		.cfi_startproc
  32              		@ args = 0, pretend = 0, frame = 0
  33              		@ frame_needed = 0, uses_anonymous_args = 0
  34              		@ link register save eliminated.
 379:Drivers/STM32F4xx_HAL_Driver/Src/stm32f4xx_hal_dac.c ****   /* Prevent unused argument(s) compilation warning */
 380:Drivers/STM32F4xx_HAL_Driver/Src/stm32f4xx_hal_dac.c ****   UNUSED(hdac);
  35              		.loc 1 380 3 view .LVU1
 381:Drivers/STM32F4xx_HAL_Driver/Src/stm32f4xx_hal_dac.c **** 
 382:Drivers/STM32F4xx_HAL_Driver/Src/stm32f4xx_hal_dac.c ****   /* NOTE : This function should not be modified, when the callback is needed,
 383:Drivers/STM32F4xx_HAL_Driver/Src/stm32f4xx_hal_dac.c ****             the HAL_DAC_MspInit could be implemented in the user file
 384:Drivers/STM32F4xx_HAL_Driver/Src/stm32f4xx_hal_dac.c ****    */
 385:Drivers/STM32F4xx_HAL_Driver/Src/stm32f4xx_hal_dac.c **** }
  36              		.loc 1 385 1 is_stmt 0 view .LVU2
  37 0000 7047     		bx	lr
  38              		.cfi_endproc
  39              	.LFE241:
  41              		.section	.text.HAL_DAC_Init,"ax",%progbits
  42              		.align	1
  43              		.global	HAL_DAC_Init
  44              		.syntax unified
  45              		.thumb
  46              		.thumb_func
  48              	HAL_DAC_Init:
  49              	.LVL1:
  50              	.LFB239:
 272:Drivers/STM32F4xx_HAL_Driver/Src/stm32f4xx_hal_dac.c ****   /* Check the DAC peripheral handle */
  51              		.loc 1 272 1 is_stmt 1 view -0
  52              		.cfi_startproc
  53              		@ args = 0, pretend = 0, frame = 0
  54              		@ frame_needed = 0, uses_anonymous_args = 0
 274:Drivers/STM32F4xx_HAL_Driver/Src/stm32f4xx_hal_dac.c ****   {
  55              		.loc 1 274 3 view .LVU4
 274:Drivers/STM32F4xx_HAL_Driver/Src/stm32f4xx_hal_dac.c ****   {
  56              		.loc 1 274 6 is_stmt 0 view .LVU5
  57 0000 70B1     		cbz	r0, .L5
 272:Drivers/STM32F4xx_HAL_Driver/Src/stm32f4xx_hal_dac.c ****   /* Check the DAC peripheral handle */
  58              		.loc 1 272 1 view .LVU6
  59 0002 10B5     		push	{r4, lr}
  60              		.cfi_def_cfa_offset 8
  61              		.cfi_offset 4, -8
  62              		.cfi_offset 14, -4
  63 0004 0446     		mov	r4, r0
 279:Drivers/STM32F4xx_HAL_Driver/Src/stm32f4xx_hal_dac.c **** 
  64              		.loc 1 279 3 is_stmt 1 view .LVU7
 281:Drivers/STM32F4xx_HAL_Driver/Src/stm32f4xx_hal_dac.c ****   {
  65              		.loc 1 281 3 view .LVU8
 281:Drivers/STM32F4xx_HAL_Driver/Src/stm32f4xx_hal_dac.c ****   {
  66              		.loc 1 281 11 is_stmt 0 view .LVU9
  67 0006 0379     		ldrb	r3, [r0, #4]	@ zero_extendqisi2
ARM GAS  C:\Users\fish\AppData\Local\Temp\ccNgX8mW.s 			page 9


 281:Drivers/STM32F4xx_HAL_Driver/Src/stm32f4xx_hal_dac.c ****   {
  68              		.loc 1 281 6 view .LVU10
  69 0008 33B1     		cbz	r3, .L10
  70              	.LVL2:
  71              	.L4:
 314:Drivers/STM32F4xx_HAL_Driver/Src/stm32f4xx_hal_dac.c **** 
  72              		.loc 1 314 3 is_stmt 1 view .LVU11
 314:Drivers/STM32F4xx_HAL_Driver/Src/stm32f4xx_hal_dac.c **** 
  73              		.loc 1 314 15 is_stmt 0 view .LVU12
  74 000a 0223     		movs	r3, #2
  75 000c 2371     		strb	r3, [r4, #4]
 317:Drivers/STM32F4xx_HAL_Driver/Src/stm32f4xx_hal_dac.c **** 
  76              		.loc 1 317 3 is_stmt 1 view .LVU13
 317:Drivers/STM32F4xx_HAL_Driver/Src/stm32f4xx_hal_dac.c **** 
  77              		.loc 1 317 19 is_stmt 0 view .LVU14
  78 000e 0020     		movs	r0, #0
  79 0010 2061     		str	r0, [r4, #16]
 320:Drivers/STM32F4xx_HAL_Driver/Src/stm32f4xx_hal_dac.c **** 
  80              		.loc 1 320 3 is_stmt 1 view .LVU15
 320:Drivers/STM32F4xx_HAL_Driver/Src/stm32f4xx_hal_dac.c **** 
  81              		.loc 1 320 15 is_stmt 0 view .LVU16
  82 0012 0123     		movs	r3, #1
  83 0014 2371     		strb	r3, [r4, #4]
 323:Drivers/STM32F4xx_HAL_Driver/Src/stm32f4xx_hal_dac.c **** }
  84              		.loc 1 323 3 is_stmt 1 view .LVU17
 324:Drivers/STM32F4xx_HAL_Driver/Src/stm32f4xx_hal_dac.c **** 
  85              		.loc 1 324 1 is_stmt 0 view .LVU18
  86 0016 10BD     		pop	{r4, pc}
  87              	.LVL3:
  88              	.L10:
 302:Drivers/STM32F4xx_HAL_Driver/Src/stm32f4xx_hal_dac.c **** 
  89              		.loc 1 302 5 is_stmt 1 view .LVU19
 302:Drivers/STM32F4xx_HAL_Driver/Src/stm32f4xx_hal_dac.c **** 
  90              		.loc 1 302 16 is_stmt 0 view .LVU20
  91 0018 4371     		strb	r3, [r0, #5]
 309:Drivers/STM32F4xx_HAL_Driver/Src/stm32f4xx_hal_dac.c **** #endif /* USE_HAL_DAC_REGISTER_CALLBACKS */
  92              		.loc 1 309 5 is_stmt 1 view .LVU21
  93 001a FFF7FEFF 		bl	HAL_DAC_MspInit
  94              	.LVL4:
 309:Drivers/STM32F4xx_HAL_Driver/Src/stm32f4xx_hal_dac.c **** #endif /* USE_HAL_DAC_REGISTER_CALLBACKS */
  95              		.loc 1 309 5 is_stmt 0 view .LVU22
  96 001e F4E7     		b	.L4
  97              	.LVL5:
  98              	.L5:
  99              		.cfi_def_cfa_offset 0
 100              		.cfi_restore 4
 101              		.cfi_restore 14
 276:Drivers/STM32F4xx_HAL_Driver/Src/stm32f4xx_hal_dac.c ****   }
 102              		.loc 1 276 12 view .LVU23
 103 0020 0120     		movs	r0, #1
 104              	.LVL6:
 324:Drivers/STM32F4xx_HAL_Driver/Src/stm32f4xx_hal_dac.c **** 
 105              		.loc 1 324 1 view .LVU24
 106 0022 7047     		bx	lr
 107              		.cfi_endproc
 108              	.LFE239:
 110              		.section	.text.HAL_DAC_MspDeInit,"ax",%progbits
ARM GAS  C:\Users\fish\AppData\Local\Temp\ccNgX8mW.s 			page 10


 111              		.align	1
 112              		.weak	HAL_DAC_MspDeInit
 113              		.syntax unified
 114              		.thumb
 115              		.thumb_func
 117              	HAL_DAC_MspDeInit:
 118              	.LVL7:
 119              	.LFB242:
 386:Drivers/STM32F4xx_HAL_Driver/Src/stm32f4xx_hal_dac.c **** 
 387:Drivers/STM32F4xx_HAL_Driver/Src/stm32f4xx_hal_dac.c **** /**
 388:Drivers/STM32F4xx_HAL_Driver/Src/stm32f4xx_hal_dac.c ****   * @brief  DeInitialize the DAC MSP.
 389:Drivers/STM32F4xx_HAL_Driver/Src/stm32f4xx_hal_dac.c ****   * @param  hdac pointer to a DAC_HandleTypeDef structure that contains
 390:Drivers/STM32F4xx_HAL_Driver/Src/stm32f4xx_hal_dac.c ****   *         the configuration information for the specified DAC.
 391:Drivers/STM32F4xx_HAL_Driver/Src/stm32f4xx_hal_dac.c ****   * @retval None
 392:Drivers/STM32F4xx_HAL_Driver/Src/stm32f4xx_hal_dac.c ****   */
 393:Drivers/STM32F4xx_HAL_Driver/Src/stm32f4xx_hal_dac.c **** __weak void HAL_DAC_MspDeInit(DAC_HandleTypeDef *hdac)
 394:Drivers/STM32F4xx_HAL_Driver/Src/stm32f4xx_hal_dac.c **** {
 120              		.loc 1 394 1 is_stmt 1 view -0
 121              		.cfi_startproc
 122              		@ args = 0, pretend = 0, frame = 0
 123              		@ frame_needed = 0, uses_anonymous_args = 0
 124              		@ link register save eliminated.
 395:Drivers/STM32F4xx_HAL_Driver/Src/stm32f4xx_hal_dac.c ****   /* Prevent unused argument(s) compilation warning */
 396:Drivers/STM32F4xx_HAL_Driver/Src/stm32f4xx_hal_dac.c ****   UNUSED(hdac);
 125              		.loc 1 396 3 view .LVU26
 397:Drivers/STM32F4xx_HAL_Driver/Src/stm32f4xx_hal_dac.c **** 
 398:Drivers/STM32F4xx_HAL_Driver/Src/stm32f4xx_hal_dac.c ****   /* NOTE : This function should not be modified, when the callback is needed,
 399:Drivers/STM32F4xx_HAL_Driver/Src/stm32f4xx_hal_dac.c ****             the HAL_DAC_MspDeInit could be implemented in the user file
 400:Drivers/STM32F4xx_HAL_Driver/Src/stm32f4xx_hal_dac.c ****    */
 401:Drivers/STM32F4xx_HAL_Driver/Src/stm32f4xx_hal_dac.c **** }
 126              		.loc 1 401 1 is_stmt 0 view .LVU27
 127 0000 7047     		bx	lr
 128              		.cfi_endproc
 129              	.LFE242:
 131              		.section	.text.HAL_DAC_DeInit,"ax",%progbits
 132              		.align	1
 133              		.global	HAL_DAC_DeInit
 134              		.syntax unified
 135              		.thumb
 136              		.thumb_func
 138              	HAL_DAC_DeInit:
 139              	.LVL8:
 140              	.LFB240:
 333:Drivers/STM32F4xx_HAL_Driver/Src/stm32f4xx_hal_dac.c ****   /* Check the DAC peripheral handle */
 141              		.loc 1 333 1 is_stmt 1 view -0
 142              		.cfi_startproc
 143              		@ args = 0, pretend = 0, frame = 0
 144              		@ frame_needed = 0, uses_anonymous_args = 0
 335:Drivers/STM32F4xx_HAL_Driver/Src/stm32f4xx_hal_dac.c ****   {
 145              		.loc 1 335 3 view .LVU29
 335:Drivers/STM32F4xx_HAL_Driver/Src/stm32f4xx_hal_dac.c ****   {
 146              		.loc 1 335 6 is_stmt 0 view .LVU30
 147 0000 50B1     		cbz	r0, .L14
 333:Drivers/STM32F4xx_HAL_Driver/Src/stm32f4xx_hal_dac.c ****   /* Check the DAC peripheral handle */
 148              		.loc 1 333 1 view .LVU31
 149 0002 10B5     		push	{r4, lr}
 150              		.cfi_def_cfa_offset 8
ARM GAS  C:\Users\fish\AppData\Local\Temp\ccNgX8mW.s 			page 11


 151              		.cfi_offset 4, -8
 152              		.cfi_offset 14, -4
 153 0004 0446     		mov	r4, r0
 341:Drivers/STM32F4xx_HAL_Driver/Src/stm32f4xx_hal_dac.c **** 
 154              		.loc 1 341 3 is_stmt 1 view .LVU32
 344:Drivers/STM32F4xx_HAL_Driver/Src/stm32f4xx_hal_dac.c **** 
 155              		.loc 1 344 3 view .LVU33
 344:Drivers/STM32F4xx_HAL_Driver/Src/stm32f4xx_hal_dac.c **** 
 156              		.loc 1 344 15 is_stmt 0 view .LVU34
 157 0006 0223     		movs	r3, #2
 158 0008 0371     		strb	r3, [r0, #4]
 355:Drivers/STM32F4xx_HAL_Driver/Src/stm32f4xx_hal_dac.c **** #endif /* USE_HAL_DAC_REGISTER_CALLBACKS */
 159              		.loc 1 355 3 is_stmt 1 view .LVU35
 160 000a FFF7FEFF 		bl	HAL_DAC_MspDeInit
 161              	.LVL9:
 359:Drivers/STM32F4xx_HAL_Driver/Src/stm32f4xx_hal_dac.c **** 
 162              		.loc 1 359 3 view .LVU36
 359:Drivers/STM32F4xx_HAL_Driver/Src/stm32f4xx_hal_dac.c **** 
 163              		.loc 1 359 19 is_stmt 0 view .LVU37
 164 000e 0020     		movs	r0, #0
 165 0010 2061     		str	r0, [r4, #16]
 362:Drivers/STM32F4xx_HAL_Driver/Src/stm32f4xx_hal_dac.c **** 
 166              		.loc 1 362 3 is_stmt 1 view .LVU38
 362:Drivers/STM32F4xx_HAL_Driver/Src/stm32f4xx_hal_dac.c **** 
 167              		.loc 1 362 15 is_stmt 0 view .LVU39
 168 0012 2071     		strb	r0, [r4, #4]
 365:Drivers/STM32F4xx_HAL_Driver/Src/stm32f4xx_hal_dac.c **** 
 169              		.loc 1 365 3 is_stmt 1 view .LVU40
 365:Drivers/STM32F4xx_HAL_Driver/Src/stm32f4xx_hal_dac.c **** 
 170              		.loc 1 365 3 view .LVU41
 171 0014 6071     		strb	r0, [r4, #5]
 365:Drivers/STM32F4xx_HAL_Driver/Src/stm32f4xx_hal_dac.c **** 
 172              		.loc 1 365 3 view .LVU42
 368:Drivers/STM32F4xx_HAL_Driver/Src/stm32f4xx_hal_dac.c **** }
 173              		.loc 1 368 3 view .LVU43
 369:Drivers/STM32F4xx_HAL_Driver/Src/stm32f4xx_hal_dac.c **** 
 174              		.loc 1 369 1 is_stmt 0 view .LVU44
 175 0016 10BD     		pop	{r4, pc}
 176              	.LVL10:
 177              	.L14:
 178              		.cfi_def_cfa_offset 0
 179              		.cfi_restore 4
 180              		.cfi_restore 14
 337:Drivers/STM32F4xx_HAL_Driver/Src/stm32f4xx_hal_dac.c ****   }
 181              		.loc 1 337 12 view .LVU45
 182 0018 0120     		movs	r0, #1
 183              	.LVL11:
 369:Drivers/STM32F4xx_HAL_Driver/Src/stm32f4xx_hal_dac.c **** 
 184              		.loc 1 369 1 view .LVU46
 185 001a 7047     		bx	lr
 186              		.cfi_endproc
 187              	.LFE240:
 189              		.section	.text.HAL_DAC_Start,"ax",%progbits
 190              		.align	1
 191              		.global	HAL_DAC_Start
 192              		.syntax unified
 193              		.thumb
ARM GAS  C:\Users\fish\AppData\Local\Temp\ccNgX8mW.s 			page 12


 194              		.thumb_func
 196              	HAL_DAC_Start:
 197              	.LVL12:
 198              	.LFB243:
 402:Drivers/STM32F4xx_HAL_Driver/Src/stm32f4xx_hal_dac.c **** 
 403:Drivers/STM32F4xx_HAL_Driver/Src/stm32f4xx_hal_dac.c **** /**
 404:Drivers/STM32F4xx_HAL_Driver/Src/stm32f4xx_hal_dac.c ****   * @}
 405:Drivers/STM32F4xx_HAL_Driver/Src/stm32f4xx_hal_dac.c ****   */
 406:Drivers/STM32F4xx_HAL_Driver/Src/stm32f4xx_hal_dac.c **** 
 407:Drivers/STM32F4xx_HAL_Driver/Src/stm32f4xx_hal_dac.c **** /** @defgroup DAC_Exported_Functions_Group2 IO operation functions
 408:Drivers/STM32F4xx_HAL_Driver/Src/stm32f4xx_hal_dac.c ****   *  @brief    IO operation functions
 409:Drivers/STM32F4xx_HAL_Driver/Src/stm32f4xx_hal_dac.c ****   *
 410:Drivers/STM32F4xx_HAL_Driver/Src/stm32f4xx_hal_dac.c **** @verbatim
 411:Drivers/STM32F4xx_HAL_Driver/Src/stm32f4xx_hal_dac.c ****   ==============================================================================
 412:Drivers/STM32F4xx_HAL_Driver/Src/stm32f4xx_hal_dac.c ****              ##### IO operation functions #####
 413:Drivers/STM32F4xx_HAL_Driver/Src/stm32f4xx_hal_dac.c ****   ==============================================================================
 414:Drivers/STM32F4xx_HAL_Driver/Src/stm32f4xx_hal_dac.c ****     [..]  This section provides functions allowing to:
 415:Drivers/STM32F4xx_HAL_Driver/Src/stm32f4xx_hal_dac.c ****       (+) Start conversion.
 416:Drivers/STM32F4xx_HAL_Driver/Src/stm32f4xx_hal_dac.c ****       (+) Stop conversion.
 417:Drivers/STM32F4xx_HAL_Driver/Src/stm32f4xx_hal_dac.c ****       (+) Start conversion and enable DMA transfer.
 418:Drivers/STM32F4xx_HAL_Driver/Src/stm32f4xx_hal_dac.c ****       (+) Stop conversion and disable DMA transfer.
 419:Drivers/STM32F4xx_HAL_Driver/Src/stm32f4xx_hal_dac.c ****       (+) Get result of conversion.
 420:Drivers/STM32F4xx_HAL_Driver/Src/stm32f4xx_hal_dac.c **** 
 421:Drivers/STM32F4xx_HAL_Driver/Src/stm32f4xx_hal_dac.c **** @endverbatim
 422:Drivers/STM32F4xx_HAL_Driver/Src/stm32f4xx_hal_dac.c ****   * @{
 423:Drivers/STM32F4xx_HAL_Driver/Src/stm32f4xx_hal_dac.c ****   */
 424:Drivers/STM32F4xx_HAL_Driver/Src/stm32f4xx_hal_dac.c **** 
 425:Drivers/STM32F4xx_HAL_Driver/Src/stm32f4xx_hal_dac.c **** /**
 426:Drivers/STM32F4xx_HAL_Driver/Src/stm32f4xx_hal_dac.c ****   * @brief  Enables DAC and starts conversion of channel.
 427:Drivers/STM32F4xx_HAL_Driver/Src/stm32f4xx_hal_dac.c ****   * @param  hdac pointer to a DAC_HandleTypeDef structure that contains
 428:Drivers/STM32F4xx_HAL_Driver/Src/stm32f4xx_hal_dac.c ****   *         the configuration information for the specified DAC.
 429:Drivers/STM32F4xx_HAL_Driver/Src/stm32f4xx_hal_dac.c ****   * @param  Channel The selected DAC channel.
 430:Drivers/STM32F4xx_HAL_Driver/Src/stm32f4xx_hal_dac.c ****   *          This parameter can be one of the following values:
 431:Drivers/STM32F4xx_HAL_Driver/Src/stm32f4xx_hal_dac.c ****   *            @arg DAC_CHANNEL_1: DAC Channel1 selected
 432:Drivers/STM32F4xx_HAL_Driver/Src/stm32f4xx_hal_dac.c ****   *            @arg DAC_CHANNEL_2: DAC Channel2 selected
 433:Drivers/STM32F4xx_HAL_Driver/Src/stm32f4xx_hal_dac.c ****   * @retval HAL status
 434:Drivers/STM32F4xx_HAL_Driver/Src/stm32f4xx_hal_dac.c ****   */
 435:Drivers/STM32F4xx_HAL_Driver/Src/stm32f4xx_hal_dac.c **** HAL_StatusTypeDef HAL_DAC_Start(DAC_HandleTypeDef *hdac, uint32_t Channel)
 436:Drivers/STM32F4xx_HAL_Driver/Src/stm32f4xx_hal_dac.c **** {
 199              		.loc 1 436 1 is_stmt 1 view -0
 200              		.cfi_startproc
 201              		@ args = 0, pretend = 0, frame = 0
 202              		@ frame_needed = 0, uses_anonymous_args = 0
 203              		@ link register save eliminated.
 437:Drivers/STM32F4xx_HAL_Driver/Src/stm32f4xx_hal_dac.c ****   /* Check the DAC peripheral handle */
 438:Drivers/STM32F4xx_HAL_Driver/Src/stm32f4xx_hal_dac.c ****   if (hdac == NULL)
 204              		.loc 1 438 3 view .LVU48
 205              		.loc 1 438 6 is_stmt 0 view .LVU49
 206 0000 88B3     		cbz	r0, .L23
 207 0002 0346     		mov	r3, r0
 439:Drivers/STM32F4xx_HAL_Driver/Src/stm32f4xx_hal_dac.c ****   {
 440:Drivers/STM32F4xx_HAL_Driver/Src/stm32f4xx_hal_dac.c ****     return HAL_ERROR;
 441:Drivers/STM32F4xx_HAL_Driver/Src/stm32f4xx_hal_dac.c ****   }
 442:Drivers/STM32F4xx_HAL_Driver/Src/stm32f4xx_hal_dac.c **** 
 443:Drivers/STM32F4xx_HAL_Driver/Src/stm32f4xx_hal_dac.c ****   /* Check the parameters */
 444:Drivers/STM32F4xx_HAL_Driver/Src/stm32f4xx_hal_dac.c ****   assert_param(IS_DAC_CHANNEL(Channel));
 208              		.loc 1 444 3 is_stmt 1 view .LVU50
ARM GAS  C:\Users\fish\AppData\Local\Temp\ccNgX8mW.s 			page 13


 445:Drivers/STM32F4xx_HAL_Driver/Src/stm32f4xx_hal_dac.c **** 
 446:Drivers/STM32F4xx_HAL_Driver/Src/stm32f4xx_hal_dac.c ****   /* Process locked */
 447:Drivers/STM32F4xx_HAL_Driver/Src/stm32f4xx_hal_dac.c ****   __HAL_LOCK(hdac);
 209              		.loc 1 447 3 view .LVU51
 210              		.loc 1 447 3 view .LVU52
 211 0004 4279     		ldrb	r2, [r0, #5]	@ zero_extendqisi2
 212 0006 012A     		cmp	r2, #1
 213 0008 2FD0     		beq	.L24
 436:Drivers/STM32F4xx_HAL_Driver/Src/stm32f4xx_hal_dac.c ****   /* Check the DAC peripheral handle */
 214              		.loc 1 436 1 is_stmt 0 view .LVU53
 215 000a 10B4     		push	{r4}
 216              		.cfi_def_cfa_offset 4
 217              		.cfi_offset 4, -4
 218              		.loc 1 447 3 is_stmt 1 discriminator 2 view .LVU54
 219 000c 0122     		movs	r2, #1
 220 000e 4271     		strb	r2, [r0, #5]
 221              		.loc 1 447 3 view .LVU55
 448:Drivers/STM32F4xx_HAL_Driver/Src/stm32f4xx_hal_dac.c **** 
 449:Drivers/STM32F4xx_HAL_Driver/Src/stm32f4xx_hal_dac.c ****   /* Change DAC state */
 450:Drivers/STM32F4xx_HAL_Driver/Src/stm32f4xx_hal_dac.c ****   hdac->State = HAL_DAC_STATE_BUSY;
 222              		.loc 1 450 3 view .LVU56
 223              		.loc 1 450 15 is_stmt 0 view .LVU57
 224 0010 0220     		movs	r0, #2
 225              	.LVL13:
 226              		.loc 1 450 15 view .LVU58
 227 0012 1871     		strb	r0, [r3, #4]
 451:Drivers/STM32F4xx_HAL_Driver/Src/stm32f4xx_hal_dac.c **** 
 452:Drivers/STM32F4xx_HAL_Driver/Src/stm32f4xx_hal_dac.c ****   /* Enable the Peripheral */
 453:Drivers/STM32F4xx_HAL_Driver/Src/stm32f4xx_hal_dac.c ****   __HAL_DAC_ENABLE(hdac, Channel);
 228              		.loc 1 453 3 is_stmt 1 view .LVU59
 229 0014 1C68     		ldr	r4, [r3]
 230 0016 2068     		ldr	r0, [r4]
 231 0018 01F0100C 		and	ip, r1, #16
 232 001c 02FA0CF2 		lsl	r2, r2, ip
 233 0020 0243     		orrs	r2, r2, r0
 234 0022 2260     		str	r2, [r4]
 454:Drivers/STM32F4xx_HAL_Driver/Src/stm32f4xx_hal_dac.c **** 
 455:Drivers/STM32F4xx_HAL_Driver/Src/stm32f4xx_hal_dac.c ****   if (Channel == DAC_CHANNEL_1)
 235              		.loc 1 455 3 view .LVU60
 236              		.loc 1 455 6 is_stmt 0 view .LVU61
 237 0024 89B9     		cbnz	r1, .L21
 456:Drivers/STM32F4xx_HAL_Driver/Src/stm32f4xx_hal_dac.c ****   {
 457:Drivers/STM32F4xx_HAL_Driver/Src/stm32f4xx_hal_dac.c ****     /* Check if software trigger enabled */
 458:Drivers/STM32F4xx_HAL_Driver/Src/stm32f4xx_hal_dac.c ****     if ((hdac->Instance->CR & (DAC_CR_TEN1 | DAC_CR_TSEL1)) == DAC_TRIGGER_SOFTWARE)
 238              		.loc 1 458 5 is_stmt 1 view .LVU62
 239              		.loc 1 458 14 is_stmt 0 view .LVU63
 240 0026 1968     		ldr	r1, [r3]
 241              	.LVL14:
 242              		.loc 1 458 24 view .LVU64
 243 0028 0A68     		ldr	r2, [r1]
 244              		.loc 1 458 29 view .LVU65
 245 002a 02F03C02 		and	r2, r2, #60
 246              		.loc 1 458 8 view .LVU66
 247 002e 3C2A     		cmp	r2, #60
 248 0030 06D0     		beq	.L29
 249              	.L22:
 459:Drivers/STM32F4xx_HAL_Driver/Src/stm32f4xx_hal_dac.c ****     {
ARM GAS  C:\Users\fish\AppData\Local\Temp\ccNgX8mW.s 			page 14


 460:Drivers/STM32F4xx_HAL_Driver/Src/stm32f4xx_hal_dac.c ****       /* Enable the selected DAC software conversion */
 461:Drivers/STM32F4xx_HAL_Driver/Src/stm32f4xx_hal_dac.c ****       SET_BIT(hdac->Instance->SWTRIGR, DAC_SWTRIGR_SWTRIG1);
 462:Drivers/STM32F4xx_HAL_Driver/Src/stm32f4xx_hal_dac.c ****     }
 463:Drivers/STM32F4xx_HAL_Driver/Src/stm32f4xx_hal_dac.c ****   }
 464:Drivers/STM32F4xx_HAL_Driver/Src/stm32f4xx_hal_dac.c **** #if defined(DAC_CHANNEL2_SUPPORT)
 465:Drivers/STM32F4xx_HAL_Driver/Src/stm32f4xx_hal_dac.c ****   else
 466:Drivers/STM32F4xx_HAL_Driver/Src/stm32f4xx_hal_dac.c ****   {
 467:Drivers/STM32F4xx_HAL_Driver/Src/stm32f4xx_hal_dac.c ****     /* Check if software trigger enabled */
 468:Drivers/STM32F4xx_HAL_Driver/Src/stm32f4xx_hal_dac.c ****     if ((hdac->Instance->CR & (DAC_CR_TEN2 | DAC_CR_TSEL2)) == (DAC_TRIGGER_SOFTWARE << (Channel & 
 469:Drivers/STM32F4xx_HAL_Driver/Src/stm32f4xx_hal_dac.c ****     {
 470:Drivers/STM32F4xx_HAL_Driver/Src/stm32f4xx_hal_dac.c ****       /* Enable the selected DAC software conversion*/
 471:Drivers/STM32F4xx_HAL_Driver/Src/stm32f4xx_hal_dac.c ****       SET_BIT(hdac->Instance->SWTRIGR, DAC_SWTRIGR_SWTRIG2);
 472:Drivers/STM32F4xx_HAL_Driver/Src/stm32f4xx_hal_dac.c ****     }
 473:Drivers/STM32F4xx_HAL_Driver/Src/stm32f4xx_hal_dac.c ****   }
 474:Drivers/STM32F4xx_HAL_Driver/Src/stm32f4xx_hal_dac.c **** #endif /* DAC_CHANNEL2_SUPPORT */
 475:Drivers/STM32F4xx_HAL_Driver/Src/stm32f4xx_hal_dac.c **** 
 476:Drivers/STM32F4xx_HAL_Driver/Src/stm32f4xx_hal_dac.c ****   /* Change DAC state */
 477:Drivers/STM32F4xx_HAL_Driver/Src/stm32f4xx_hal_dac.c ****   hdac->State = HAL_DAC_STATE_READY;
 250              		.loc 1 477 3 is_stmt 1 view .LVU67
 251              		.loc 1 477 15 is_stmt 0 view .LVU68
 252 0032 0122     		movs	r2, #1
 253 0034 1A71     		strb	r2, [r3, #4]
 478:Drivers/STM32F4xx_HAL_Driver/Src/stm32f4xx_hal_dac.c **** 
 479:Drivers/STM32F4xx_HAL_Driver/Src/stm32f4xx_hal_dac.c ****   /* Process unlocked */
 480:Drivers/STM32F4xx_HAL_Driver/Src/stm32f4xx_hal_dac.c ****   __HAL_UNLOCK(hdac);
 254              		.loc 1 480 3 is_stmt 1 view .LVU69
 255              		.loc 1 480 3 view .LVU70
 256 0036 0020     		movs	r0, #0
 257 0038 5871     		strb	r0, [r3, #5]
 258              		.loc 1 480 3 view .LVU71
 481:Drivers/STM32F4xx_HAL_Driver/Src/stm32f4xx_hal_dac.c **** 
 482:Drivers/STM32F4xx_HAL_Driver/Src/stm32f4xx_hal_dac.c ****   /* Return function status */
 483:Drivers/STM32F4xx_HAL_Driver/Src/stm32f4xx_hal_dac.c ****   return HAL_OK;
 259              		.loc 1 483 3 view .LVU72
 484:Drivers/STM32F4xx_HAL_Driver/Src/stm32f4xx_hal_dac.c **** }
 260              		.loc 1 484 1 is_stmt 0 view .LVU73
 261 003a 5DF8044B 		ldr	r4, [sp], #4
 262              		.cfi_remember_state
 263              		.cfi_restore 4
 264              		.cfi_def_cfa_offset 0
 265 003e 7047     		bx	lr
 266              	.L29:
 267              		.cfi_restore_state
 461:Drivers/STM32F4xx_HAL_Driver/Src/stm32f4xx_hal_dac.c ****     }
 268              		.loc 1 461 7 is_stmt 1 view .LVU74
 269 0040 4A68     		ldr	r2, [r1, #4]
 270 0042 42F00102 		orr	r2, r2, #1
 271 0046 4A60     		str	r2, [r1, #4]
 272 0048 F3E7     		b	.L22
 273              	.LVL15:
 274              	.L21:
 468:Drivers/STM32F4xx_HAL_Driver/Src/stm32f4xx_hal_dac.c ****     {
 275              		.loc 1 468 5 view .LVU75
 468:Drivers/STM32F4xx_HAL_Driver/Src/stm32f4xx_hal_dac.c ****     {
 276              		.loc 1 468 14 is_stmt 0 view .LVU76
 277 004a 1868     		ldr	r0, [r3]
 468:Drivers/STM32F4xx_HAL_Driver/Src/stm32f4xx_hal_dac.c ****     {
ARM GAS  C:\Users\fish\AppData\Local\Temp\ccNgX8mW.s 			page 15


 278              		.loc 1 468 24 view .LVU77
 279 004c 0168     		ldr	r1, [r0]
 280              	.LVL16:
 468:Drivers/STM32F4xx_HAL_Driver/Src/stm32f4xx_hal_dac.c ****     {
 281              		.loc 1 468 29 view .LVU78
 282 004e 01F47011 		and	r1, r1, #3932160
 468:Drivers/STM32F4xx_HAL_Driver/Src/stm32f4xx_hal_dac.c ****     {
 283              		.loc 1 468 86 view .LVU79
 284 0052 3C22     		movs	r2, #60
 285 0054 02FA0CF2 		lsl	r2, r2, ip
 468:Drivers/STM32F4xx_HAL_Driver/Src/stm32f4xx_hal_dac.c ****     {
 286              		.loc 1 468 8 view .LVU80
 287 0058 9142     		cmp	r1, r2
 288 005a EAD1     		bne	.L22
 471:Drivers/STM32F4xx_HAL_Driver/Src/stm32f4xx_hal_dac.c ****     }
 289              		.loc 1 471 7 is_stmt 1 view .LVU81
 290 005c 4268     		ldr	r2, [r0, #4]
 291 005e 42F00202 		orr	r2, r2, #2
 292 0062 4260     		str	r2, [r0, #4]
 293 0064 E5E7     		b	.L22
 294              	.LVL17:
 295              	.L23:
 296              		.cfi_def_cfa_offset 0
 297              		.cfi_restore 4
 440:Drivers/STM32F4xx_HAL_Driver/Src/stm32f4xx_hal_dac.c ****   }
 298              		.loc 1 440 12 is_stmt 0 view .LVU82
 299 0066 0120     		movs	r0, #1
 300              	.LVL18:
 440:Drivers/STM32F4xx_HAL_Driver/Src/stm32f4xx_hal_dac.c ****   }
 301              		.loc 1 440 12 view .LVU83
 302 0068 7047     		bx	lr
 303              	.LVL19:
 304              	.L24:
 447:Drivers/STM32F4xx_HAL_Driver/Src/stm32f4xx_hal_dac.c **** 
 305              		.loc 1 447 3 discriminator 1 view .LVU84
 306 006a 0220     		movs	r0, #2
 307              	.LVL20:
 308              		.loc 1 484 1 view .LVU85
 309 006c 7047     		bx	lr
 310              		.cfi_endproc
 311              	.LFE243:
 313              		.section	.text.HAL_DAC_Stop,"ax",%progbits
 314              		.align	1
 315              		.global	HAL_DAC_Stop
 316              		.syntax unified
 317              		.thumb
 318              		.thumb_func
 320              	HAL_DAC_Stop:
 321              	.LVL21:
 322              	.LFB244:
 485:Drivers/STM32F4xx_HAL_Driver/Src/stm32f4xx_hal_dac.c **** 
 486:Drivers/STM32F4xx_HAL_Driver/Src/stm32f4xx_hal_dac.c **** /**
 487:Drivers/STM32F4xx_HAL_Driver/Src/stm32f4xx_hal_dac.c ****   * @brief  Disables DAC and stop conversion of channel.
 488:Drivers/STM32F4xx_HAL_Driver/Src/stm32f4xx_hal_dac.c ****   * @param  hdac pointer to a DAC_HandleTypeDef structure that contains
 489:Drivers/STM32F4xx_HAL_Driver/Src/stm32f4xx_hal_dac.c ****   *         the configuration information for the specified DAC.
 490:Drivers/STM32F4xx_HAL_Driver/Src/stm32f4xx_hal_dac.c ****   * @param  Channel The selected DAC channel.
 491:Drivers/STM32F4xx_HAL_Driver/Src/stm32f4xx_hal_dac.c ****   *          This parameter can be one of the following values:
ARM GAS  C:\Users\fish\AppData\Local\Temp\ccNgX8mW.s 			page 16


 492:Drivers/STM32F4xx_HAL_Driver/Src/stm32f4xx_hal_dac.c ****   *            @arg DAC_CHANNEL_1: DAC Channel1 selected
 493:Drivers/STM32F4xx_HAL_Driver/Src/stm32f4xx_hal_dac.c ****   *            @arg DAC_CHANNEL_2: DAC Channel2 selected
 494:Drivers/STM32F4xx_HAL_Driver/Src/stm32f4xx_hal_dac.c ****   * @retval HAL status
 495:Drivers/STM32F4xx_HAL_Driver/Src/stm32f4xx_hal_dac.c ****   */
 496:Drivers/STM32F4xx_HAL_Driver/Src/stm32f4xx_hal_dac.c **** HAL_StatusTypeDef HAL_DAC_Stop(DAC_HandleTypeDef *hdac, uint32_t Channel)
 497:Drivers/STM32F4xx_HAL_Driver/Src/stm32f4xx_hal_dac.c **** {
 323              		.loc 1 497 1 is_stmt 1 view -0
 324              		.cfi_startproc
 325              		@ args = 0, pretend = 0, frame = 0
 326              		@ frame_needed = 0, uses_anonymous_args = 0
 327              		@ link register save eliminated.
 498:Drivers/STM32F4xx_HAL_Driver/Src/stm32f4xx_hal_dac.c ****   /* Check the DAC peripheral handle */
 499:Drivers/STM32F4xx_HAL_Driver/Src/stm32f4xx_hal_dac.c ****   if (hdac == NULL)
 328              		.loc 1 499 3 view .LVU87
 329              		.loc 1 499 6 is_stmt 0 view .LVU88
 330 0000 80B1     		cbz	r0, .L32
 497:Drivers/STM32F4xx_HAL_Driver/Src/stm32f4xx_hal_dac.c ****   /* Check the DAC peripheral handle */
 331              		.loc 1 497 1 view .LVU89
 332 0002 10B4     		push	{r4}
 333              		.cfi_def_cfa_offset 4
 334              		.cfi_offset 4, -4
 335 0004 0246     		mov	r2, r0
 500:Drivers/STM32F4xx_HAL_Driver/Src/stm32f4xx_hal_dac.c ****   {
 501:Drivers/STM32F4xx_HAL_Driver/Src/stm32f4xx_hal_dac.c ****     return HAL_ERROR;
 502:Drivers/STM32F4xx_HAL_Driver/Src/stm32f4xx_hal_dac.c ****   }
 503:Drivers/STM32F4xx_HAL_Driver/Src/stm32f4xx_hal_dac.c **** 
 504:Drivers/STM32F4xx_HAL_Driver/Src/stm32f4xx_hal_dac.c ****   /* Check the parameters */
 505:Drivers/STM32F4xx_HAL_Driver/Src/stm32f4xx_hal_dac.c ****   assert_param(IS_DAC_CHANNEL(Channel));
 336              		.loc 1 505 3 is_stmt 1 view .LVU90
 506:Drivers/STM32F4xx_HAL_Driver/Src/stm32f4xx_hal_dac.c **** 
 507:Drivers/STM32F4xx_HAL_Driver/Src/stm32f4xx_hal_dac.c ****   /* Disable the Peripheral */
 508:Drivers/STM32F4xx_HAL_Driver/Src/stm32f4xx_hal_dac.c ****   __HAL_DAC_DISABLE(hdac, Channel);
 337              		.loc 1 508 3 view .LVU91
 338 0006 0468     		ldr	r4, [r0]
 339 0008 2368     		ldr	r3, [r4]
 340 000a 01F01001 		and	r1, r1, #16
 341              	.LVL22:
 342              		.loc 1 508 3 is_stmt 0 view .LVU92
 343 000e 0120     		movs	r0, #1
 344              	.LVL23:
 345              		.loc 1 508 3 view .LVU93
 346 0010 00FA01F1 		lsl	r1, r0, r1
 347 0014 23EA0103 		bic	r3, r3, r1
 348 0018 2360     		str	r3, [r4]
 509:Drivers/STM32F4xx_HAL_Driver/Src/stm32f4xx_hal_dac.c **** 
 510:Drivers/STM32F4xx_HAL_Driver/Src/stm32f4xx_hal_dac.c ****   /* Change DAC state */
 511:Drivers/STM32F4xx_HAL_Driver/Src/stm32f4xx_hal_dac.c ****   hdac->State = HAL_DAC_STATE_READY;
 349              		.loc 1 511 3 is_stmt 1 view .LVU94
 350              		.loc 1 511 15 is_stmt 0 view .LVU95
 351 001a 1071     		strb	r0, [r2, #4]
 512:Drivers/STM32F4xx_HAL_Driver/Src/stm32f4xx_hal_dac.c **** 
 513:Drivers/STM32F4xx_HAL_Driver/Src/stm32f4xx_hal_dac.c ****   /* Return function status */
 514:Drivers/STM32F4xx_HAL_Driver/Src/stm32f4xx_hal_dac.c ****   return HAL_OK;
 352              		.loc 1 514 3 is_stmt 1 view .LVU96
 353              		.loc 1 514 10 is_stmt 0 view .LVU97
 354 001c 0020     		movs	r0, #0
 515:Drivers/STM32F4xx_HAL_Driver/Src/stm32f4xx_hal_dac.c **** }
ARM GAS  C:\Users\fish\AppData\Local\Temp\ccNgX8mW.s 			page 17


 355              		.loc 1 515 1 view .LVU98
 356 001e 5DF8044B 		ldr	r4, [sp], #4
 357              		.cfi_restore 4
 358              		.cfi_def_cfa_offset 0
 359 0022 7047     		bx	lr
 360              	.LVL24:
 361              	.L32:
 501:Drivers/STM32F4xx_HAL_Driver/Src/stm32f4xx_hal_dac.c ****   }
 362              		.loc 1 501 12 view .LVU99
 363 0024 0120     		movs	r0, #1
 364              	.LVL25:
 365              		.loc 1 515 1 view .LVU100
 366 0026 7047     		bx	lr
 367              		.cfi_endproc
 368              	.LFE244:
 370              		.section	.text.HAL_DAC_Start_DMA,"ax",%progbits
 371              		.align	1
 372              		.global	HAL_DAC_Start_DMA
 373              		.syntax unified
 374              		.thumb
 375              		.thumb_func
 377              	HAL_DAC_Start_DMA:
 378              	.LVL26:
 379              	.LFB245:
 516:Drivers/STM32F4xx_HAL_Driver/Src/stm32f4xx_hal_dac.c **** 
 517:Drivers/STM32F4xx_HAL_Driver/Src/stm32f4xx_hal_dac.c **** /**
 518:Drivers/STM32F4xx_HAL_Driver/Src/stm32f4xx_hal_dac.c ****   * @brief  Enables DAC and starts conversion of channel.
 519:Drivers/STM32F4xx_HAL_Driver/Src/stm32f4xx_hal_dac.c ****   * @param  hdac pointer to a DAC_HandleTypeDef structure that contains
 520:Drivers/STM32F4xx_HAL_Driver/Src/stm32f4xx_hal_dac.c ****   *         the configuration information for the specified DAC.
 521:Drivers/STM32F4xx_HAL_Driver/Src/stm32f4xx_hal_dac.c ****   * @param  Channel The selected DAC channel.
 522:Drivers/STM32F4xx_HAL_Driver/Src/stm32f4xx_hal_dac.c ****   *          This parameter can be one of the following values:
 523:Drivers/STM32F4xx_HAL_Driver/Src/stm32f4xx_hal_dac.c ****   *            @arg DAC_CHANNEL_1: DAC Channel1 selected
 524:Drivers/STM32F4xx_HAL_Driver/Src/stm32f4xx_hal_dac.c ****   *            @arg DAC_CHANNEL_2: DAC Channel2 selected
 525:Drivers/STM32F4xx_HAL_Driver/Src/stm32f4xx_hal_dac.c ****   * @param  pData The source Buffer address.
 526:Drivers/STM32F4xx_HAL_Driver/Src/stm32f4xx_hal_dac.c ****   * @param  Length The length of data to be transferred from memory to DAC peripheral
 527:Drivers/STM32F4xx_HAL_Driver/Src/stm32f4xx_hal_dac.c ****   * @param  Alignment Specifies the data alignment for DAC channel.
 528:Drivers/STM32F4xx_HAL_Driver/Src/stm32f4xx_hal_dac.c ****   *          This parameter can be one of the following values:
 529:Drivers/STM32F4xx_HAL_Driver/Src/stm32f4xx_hal_dac.c ****   *            @arg DAC_ALIGN_8B_R: 8bit right data alignment selected
 530:Drivers/STM32F4xx_HAL_Driver/Src/stm32f4xx_hal_dac.c ****   *            @arg DAC_ALIGN_12B_L: 12bit left data alignment selected
 531:Drivers/STM32F4xx_HAL_Driver/Src/stm32f4xx_hal_dac.c ****   *            @arg DAC_ALIGN_12B_R: 12bit right data alignment selected
 532:Drivers/STM32F4xx_HAL_Driver/Src/stm32f4xx_hal_dac.c ****   * @retval HAL status
 533:Drivers/STM32F4xx_HAL_Driver/Src/stm32f4xx_hal_dac.c ****   */
 534:Drivers/STM32F4xx_HAL_Driver/Src/stm32f4xx_hal_dac.c **** HAL_StatusTypeDef HAL_DAC_Start_DMA(DAC_HandleTypeDef *hdac, uint32_t Channel, const uint32_t *pDat
 535:Drivers/STM32F4xx_HAL_Driver/Src/stm32f4xx_hal_dac.c ****                                     uint32_t Alignment)
 536:Drivers/STM32F4xx_HAL_Driver/Src/stm32f4xx_hal_dac.c **** {
 380              		.loc 1 536 1 is_stmt 1 view -0
 381              		.cfi_startproc
 382              		@ args = 4, pretend = 0, frame = 0
 383              		@ frame_needed = 0, uses_anonymous_args = 0
 384              		.loc 1 536 1 is_stmt 0 view .LVU102
 385 0000 70B5     		push	{r4, r5, r6, lr}
 386              		.cfi_def_cfa_offset 16
 387              		.cfi_offset 4, -16
 388              		.cfi_offset 5, -12
 389              		.cfi_offset 6, -8
 390              		.cfi_offset 14, -4
 391 0002 0D46     		mov	r5, r1
ARM GAS  C:\Users\fish\AppData\Local\Temp\ccNgX8mW.s 			page 18


 392 0004 1146     		mov	r1, r2
 393              	.LVL27:
 394              		.loc 1 536 1 view .LVU103
 395 0006 049A     		ldr	r2, [sp, #16]
 396              	.LVL28:
 537:Drivers/STM32F4xx_HAL_Driver/Src/stm32f4xx_hal_dac.c **** #if defined(DAC_CHANNEL2_SUPPORT)
 538:Drivers/STM32F4xx_HAL_Driver/Src/stm32f4xx_hal_dac.c ****   HAL_StatusTypeDef status;
 397              		.loc 1 538 3 is_stmt 1 view .LVU104
 539:Drivers/STM32F4xx_HAL_Driver/Src/stm32f4xx_hal_dac.c **** #else
 540:Drivers/STM32F4xx_HAL_Driver/Src/stm32f4xx_hal_dac.c ****   HAL_StatusTypeDef status = HAL_ERROR;
 541:Drivers/STM32F4xx_HAL_Driver/Src/stm32f4xx_hal_dac.c **** #endif /* DAC_CHANNEL2_SUPPORT */
 542:Drivers/STM32F4xx_HAL_Driver/Src/stm32f4xx_hal_dac.c ****   uint32_t tmpreg;
 398              		.loc 1 542 3 view .LVU105
 543:Drivers/STM32F4xx_HAL_Driver/Src/stm32f4xx_hal_dac.c **** 
 544:Drivers/STM32F4xx_HAL_Driver/Src/stm32f4xx_hal_dac.c ****   /* Check the DAC peripheral handle */
 545:Drivers/STM32F4xx_HAL_Driver/Src/stm32f4xx_hal_dac.c ****   if (hdac == NULL)
 399              		.loc 1 545 3 view .LVU106
 400              		.loc 1 545 6 is_stmt 0 view .LVU107
 401 0008 0028     		cmp	r0, #0
 402 000a 61D0     		beq	.L50
 403 000c 0446     		mov	r4, r0
 546:Drivers/STM32F4xx_HAL_Driver/Src/stm32f4xx_hal_dac.c ****   {
 547:Drivers/STM32F4xx_HAL_Driver/Src/stm32f4xx_hal_dac.c ****     return HAL_ERROR;
 548:Drivers/STM32F4xx_HAL_Driver/Src/stm32f4xx_hal_dac.c ****   }
 549:Drivers/STM32F4xx_HAL_Driver/Src/stm32f4xx_hal_dac.c **** 
 550:Drivers/STM32F4xx_HAL_Driver/Src/stm32f4xx_hal_dac.c ****   /* Check the parameters */
 551:Drivers/STM32F4xx_HAL_Driver/Src/stm32f4xx_hal_dac.c ****   assert_param(IS_DAC_CHANNEL(Channel));
 404              		.loc 1 551 3 is_stmt 1 view .LVU108
 552:Drivers/STM32F4xx_HAL_Driver/Src/stm32f4xx_hal_dac.c ****   assert_param(IS_DAC_ALIGN(Alignment));
 405              		.loc 1 552 3 view .LVU109
 553:Drivers/STM32F4xx_HAL_Driver/Src/stm32f4xx_hal_dac.c **** 
 554:Drivers/STM32F4xx_HAL_Driver/Src/stm32f4xx_hal_dac.c ****   /* Process locked */
 555:Drivers/STM32F4xx_HAL_Driver/Src/stm32f4xx_hal_dac.c ****   __HAL_LOCK(hdac);
 406              		.loc 1 555 3 view .LVU110
 407              		.loc 1 555 3 view .LVU111
 408 000e 4079     		ldrb	r0, [r0, #5]	@ zero_extendqisi2
 409              	.LVL29:
 410              		.loc 1 555 3 is_stmt 0 view .LVU112
 411 0010 0128     		cmp	r0, #1
 412 0012 5FD0     		beq	.L51
 413              		.loc 1 555 3 is_stmt 1 discriminator 2 view .LVU113
 414 0014 0120     		movs	r0, #1
 415 0016 6071     		strb	r0, [r4, #5]
 416              		.loc 1 555 3 view .LVU114
 556:Drivers/STM32F4xx_HAL_Driver/Src/stm32f4xx_hal_dac.c **** 
 557:Drivers/STM32F4xx_HAL_Driver/Src/stm32f4xx_hal_dac.c ****   /* Change DAC state */
 558:Drivers/STM32F4xx_HAL_Driver/Src/stm32f4xx_hal_dac.c ****   hdac->State = HAL_DAC_STATE_BUSY;
 417              		.loc 1 558 3 view .LVU115
 418              		.loc 1 558 15 is_stmt 0 view .LVU116
 419 0018 0220     		movs	r0, #2
 420 001a 2071     		strb	r0, [r4, #4]
 559:Drivers/STM32F4xx_HAL_Driver/Src/stm32f4xx_hal_dac.c **** 
 560:Drivers/STM32F4xx_HAL_Driver/Src/stm32f4xx_hal_dac.c ****   if (Channel == DAC_CHANNEL_1)
 421              		.loc 1 560 3 is_stmt 1 view .LVU117
 422              		.loc 1 560 6 is_stmt 0 view .LVU118
 423 001c 002D     		cmp	r5, #0
 424 001e 2FD1     		bne	.L39
ARM GAS  C:\Users\fish\AppData\Local\Temp\ccNgX8mW.s 			page 19


 561:Drivers/STM32F4xx_HAL_Driver/Src/stm32f4xx_hal_dac.c ****   {
 562:Drivers/STM32F4xx_HAL_Driver/Src/stm32f4xx_hal_dac.c ****     /* Set the DMA transfer complete callback for channel1 */
 563:Drivers/STM32F4xx_HAL_Driver/Src/stm32f4xx_hal_dac.c ****     hdac->DMA_Handle1->XferCpltCallback = DAC_DMAConvCpltCh1;
 425              		.loc 1 563 5 is_stmt 1 view .LVU119
 426              		.loc 1 563 9 is_stmt 0 view .LVU120
 427 0020 A068     		ldr	r0, [r4, #8]
 428              		.loc 1 563 41 view .LVU121
 429 0022 2D4E     		ldr	r6, .L55
 430 0024 C663     		str	r6, [r0, #60]
 564:Drivers/STM32F4xx_HAL_Driver/Src/stm32f4xx_hal_dac.c **** 
 565:Drivers/STM32F4xx_HAL_Driver/Src/stm32f4xx_hal_dac.c ****     /* Set the DMA half transfer complete callback for channel1 */
 566:Drivers/STM32F4xx_HAL_Driver/Src/stm32f4xx_hal_dac.c ****     hdac->DMA_Handle1->XferHalfCpltCallback = DAC_DMAHalfConvCpltCh1;
 431              		.loc 1 566 5 is_stmt 1 view .LVU122
 432              		.loc 1 566 9 is_stmt 0 view .LVU123
 433 0026 A068     		ldr	r0, [r4, #8]
 434              		.loc 1 566 45 view .LVU124
 435 0028 2C4E     		ldr	r6, .L55+4
 436 002a 0664     		str	r6, [r0, #64]
 567:Drivers/STM32F4xx_HAL_Driver/Src/stm32f4xx_hal_dac.c **** 
 568:Drivers/STM32F4xx_HAL_Driver/Src/stm32f4xx_hal_dac.c ****     /* Set the DMA error callback for channel1 */
 569:Drivers/STM32F4xx_HAL_Driver/Src/stm32f4xx_hal_dac.c ****     hdac->DMA_Handle1->XferErrorCallback = DAC_DMAErrorCh1;
 437              		.loc 1 569 5 is_stmt 1 view .LVU125
 438              		.loc 1 569 9 is_stmt 0 view .LVU126
 439 002c A068     		ldr	r0, [r4, #8]
 440              		.loc 1 569 42 view .LVU127
 441 002e 2C4E     		ldr	r6, .L55+8
 442 0030 C664     		str	r6, [r0, #76]
 570:Drivers/STM32F4xx_HAL_Driver/Src/stm32f4xx_hal_dac.c **** 
 571:Drivers/STM32F4xx_HAL_Driver/Src/stm32f4xx_hal_dac.c ****     /* Enable the selected DAC channel1 DMA request */
 572:Drivers/STM32F4xx_HAL_Driver/Src/stm32f4xx_hal_dac.c ****     SET_BIT(hdac->Instance->CR, DAC_CR_DMAEN1);
 443              		.loc 1 572 5 is_stmt 1 view .LVU128
 444 0032 2668     		ldr	r6, [r4]
 445 0034 3068     		ldr	r0, [r6]
 446 0036 40F48050 		orr	r0, r0, #4096
 447 003a 3060     		str	r0, [r6]
 573:Drivers/STM32F4xx_HAL_Driver/Src/stm32f4xx_hal_dac.c **** 
 574:Drivers/STM32F4xx_HAL_Driver/Src/stm32f4xx_hal_dac.c ****     /* Case of use of channel 1 */
 575:Drivers/STM32F4xx_HAL_Driver/Src/stm32f4xx_hal_dac.c ****     switch (Alignment)
 448              		.loc 1 575 5 view .LVU129
 449 003c 22B1     		cbz	r2, .L40
 450 003e 042A     		cmp	r2, #4
 451 0040 1BD0     		beq	.L41
 576:Drivers/STM32F4xx_HAL_Driver/Src/stm32f4xx_hal_dac.c ****     {
 577:Drivers/STM32F4xx_HAL_Driver/Src/stm32f4xx_hal_dac.c ****       case DAC_ALIGN_12B_R:
 578:Drivers/STM32F4xx_HAL_Driver/Src/stm32f4xx_hal_dac.c ****         /* Get DHR12R1 address */
 579:Drivers/STM32F4xx_HAL_Driver/Src/stm32f4xx_hal_dac.c ****         tmpreg = (uint32_t)&hdac->Instance->DHR12R1;
 580:Drivers/STM32F4xx_HAL_Driver/Src/stm32f4xx_hal_dac.c ****         break;
 581:Drivers/STM32F4xx_HAL_Driver/Src/stm32f4xx_hal_dac.c ****       case DAC_ALIGN_12B_L:
 582:Drivers/STM32F4xx_HAL_Driver/Src/stm32f4xx_hal_dac.c ****         /* Get DHR12L1 address */
 583:Drivers/STM32F4xx_HAL_Driver/Src/stm32f4xx_hal_dac.c ****         tmpreg = (uint32_t)&hdac->Instance->DHR12L1;
 584:Drivers/STM32F4xx_HAL_Driver/Src/stm32f4xx_hal_dac.c ****         break;
 585:Drivers/STM32F4xx_HAL_Driver/Src/stm32f4xx_hal_dac.c ****       default: /* case DAC_ALIGN_8B_R */
 586:Drivers/STM32F4xx_HAL_Driver/Src/stm32f4xx_hal_dac.c ****         /* Get DHR8R1 address */
 587:Drivers/STM32F4xx_HAL_Driver/Src/stm32f4xx_hal_dac.c ****         tmpreg = (uint32_t)&hdac->Instance->DHR8R1;
 452              		.loc 1 587 9 view .LVU130
 453              		.loc 1 587 33 is_stmt 0 view .LVU131
 454 0042 2268     		ldr	r2, [r4]
ARM GAS  C:\Users\fish\AppData\Local\Temp\ccNgX8mW.s 			page 20


 455              		.loc 1 587 28 view .LVU132
 456 0044 1032     		adds	r2, r2, #16
 457              	.LVL30:
 588:Drivers/STM32F4xx_HAL_Driver/Src/stm32f4xx_hal_dac.c ****         break;
 458              		.loc 1 588 9 is_stmt 1 view .LVU133
 459 0046 01E0     		b	.L43
 460              	.LVL31:
 461              	.L40:
 579:Drivers/STM32F4xx_HAL_Driver/Src/stm32f4xx_hal_dac.c ****         break;
 462              		.loc 1 579 9 view .LVU134
 579:Drivers/STM32F4xx_HAL_Driver/Src/stm32f4xx_hal_dac.c ****         break;
 463              		.loc 1 579 33 is_stmt 0 view .LVU135
 464 0048 2268     		ldr	r2, [r4]
 579:Drivers/STM32F4xx_HAL_Driver/Src/stm32f4xx_hal_dac.c ****         break;
 465              		.loc 1 579 28 view .LVU136
 466 004a 0832     		adds	r2, r2, #8
 467              	.LVL32:
 580:Drivers/STM32F4xx_HAL_Driver/Src/stm32f4xx_hal_dac.c ****       case DAC_ALIGN_12B_L:
 468              		.loc 1 580 9 is_stmt 1 view .LVU137
 469              	.L43:
 589:Drivers/STM32F4xx_HAL_Driver/Src/stm32f4xx_hal_dac.c ****     }
 590:Drivers/STM32F4xx_HAL_Driver/Src/stm32f4xx_hal_dac.c ****   }
 591:Drivers/STM32F4xx_HAL_Driver/Src/stm32f4xx_hal_dac.c **** #if defined(DAC_CHANNEL2_SUPPORT)
 592:Drivers/STM32F4xx_HAL_Driver/Src/stm32f4xx_hal_dac.c ****   else
 593:Drivers/STM32F4xx_HAL_Driver/Src/stm32f4xx_hal_dac.c ****   {
 594:Drivers/STM32F4xx_HAL_Driver/Src/stm32f4xx_hal_dac.c ****     /* Set the DMA transfer complete callback for channel2 */
 595:Drivers/STM32F4xx_HAL_Driver/Src/stm32f4xx_hal_dac.c ****     hdac->DMA_Handle2->XferCpltCallback = DAC_DMAConvCpltCh2;
 596:Drivers/STM32F4xx_HAL_Driver/Src/stm32f4xx_hal_dac.c **** 
 597:Drivers/STM32F4xx_HAL_Driver/Src/stm32f4xx_hal_dac.c ****     /* Set the DMA half transfer complete callback for channel2 */
 598:Drivers/STM32F4xx_HAL_Driver/Src/stm32f4xx_hal_dac.c ****     hdac->DMA_Handle2->XferHalfCpltCallback = DAC_DMAHalfConvCpltCh2;
 599:Drivers/STM32F4xx_HAL_Driver/Src/stm32f4xx_hal_dac.c **** 
 600:Drivers/STM32F4xx_HAL_Driver/Src/stm32f4xx_hal_dac.c ****     /* Set the DMA error callback for channel2 */
 601:Drivers/STM32F4xx_HAL_Driver/Src/stm32f4xx_hal_dac.c ****     hdac->DMA_Handle2->XferErrorCallback = DAC_DMAErrorCh2;
 602:Drivers/STM32F4xx_HAL_Driver/Src/stm32f4xx_hal_dac.c **** 
 603:Drivers/STM32F4xx_HAL_Driver/Src/stm32f4xx_hal_dac.c ****     /* Enable the selected DAC channel2 DMA request */
 604:Drivers/STM32F4xx_HAL_Driver/Src/stm32f4xx_hal_dac.c ****     SET_BIT(hdac->Instance->CR, DAC_CR_DMAEN2);
 605:Drivers/STM32F4xx_HAL_Driver/Src/stm32f4xx_hal_dac.c **** 
 606:Drivers/STM32F4xx_HAL_Driver/Src/stm32f4xx_hal_dac.c ****     /* Case of use of channel 2 */
 607:Drivers/STM32F4xx_HAL_Driver/Src/stm32f4xx_hal_dac.c ****     switch (Alignment)
 608:Drivers/STM32F4xx_HAL_Driver/Src/stm32f4xx_hal_dac.c ****     {
 609:Drivers/STM32F4xx_HAL_Driver/Src/stm32f4xx_hal_dac.c ****       case DAC_ALIGN_12B_R:
 610:Drivers/STM32F4xx_HAL_Driver/Src/stm32f4xx_hal_dac.c ****         /* Get DHR12R2 address */
 611:Drivers/STM32F4xx_HAL_Driver/Src/stm32f4xx_hal_dac.c ****         tmpreg = (uint32_t)&hdac->Instance->DHR12R2;
 612:Drivers/STM32F4xx_HAL_Driver/Src/stm32f4xx_hal_dac.c ****         break;
 613:Drivers/STM32F4xx_HAL_Driver/Src/stm32f4xx_hal_dac.c ****       case DAC_ALIGN_12B_L:
 614:Drivers/STM32F4xx_HAL_Driver/Src/stm32f4xx_hal_dac.c ****         /* Get DHR12L2 address */
 615:Drivers/STM32F4xx_HAL_Driver/Src/stm32f4xx_hal_dac.c ****         tmpreg = (uint32_t)&hdac->Instance->DHR12L2;
 616:Drivers/STM32F4xx_HAL_Driver/Src/stm32f4xx_hal_dac.c ****         break;
 617:Drivers/STM32F4xx_HAL_Driver/Src/stm32f4xx_hal_dac.c ****       default: /* case DAC_ALIGN_8B_R */
 618:Drivers/STM32F4xx_HAL_Driver/Src/stm32f4xx_hal_dac.c ****         /* Get DHR8R2 address */
 619:Drivers/STM32F4xx_HAL_Driver/Src/stm32f4xx_hal_dac.c ****         tmpreg = (uint32_t)&hdac->Instance->DHR8R2;
 620:Drivers/STM32F4xx_HAL_Driver/Src/stm32f4xx_hal_dac.c ****         break;
 621:Drivers/STM32F4xx_HAL_Driver/Src/stm32f4xx_hal_dac.c ****     }
 622:Drivers/STM32F4xx_HAL_Driver/Src/stm32f4xx_hal_dac.c ****   }
 623:Drivers/STM32F4xx_HAL_Driver/Src/stm32f4xx_hal_dac.c **** #endif /* DAC_CHANNEL2_SUPPORT */
 624:Drivers/STM32F4xx_HAL_Driver/Src/stm32f4xx_hal_dac.c ****   if (Channel == DAC_CHANNEL_1)
 470              		.loc 1 624 3 view .LVU138
ARM GAS  C:\Users\fish\AppData\Local\Temp\ccNgX8mW.s 			page 21


 471              		.loc 1 624 6 is_stmt 0 view .LVU139
 472 004c 002D     		cmp	r5, #0
 473 004e 31D1     		bne	.L47
 625:Drivers/STM32F4xx_HAL_Driver/Src/stm32f4xx_hal_dac.c ****   {
 626:Drivers/STM32F4xx_HAL_Driver/Src/stm32f4xx_hal_dac.c ****     /* Enable the DAC DMA underrun interrupt */
 627:Drivers/STM32F4xx_HAL_Driver/Src/stm32f4xx_hal_dac.c ****     __HAL_DAC_ENABLE_IT(hdac, DAC_IT_DMAUDR1);
 474              		.loc 1 627 5 is_stmt 1 view .LVU140
 475 0050 2668     		ldr	r6, [r4]
 476 0052 3068     		ldr	r0, [r6]
 477 0054 40F40050 		orr	r0, r0, #8192
 478 0058 3060     		str	r0, [r6]
 628:Drivers/STM32F4xx_HAL_Driver/Src/stm32f4xx_hal_dac.c **** 
 629:Drivers/STM32F4xx_HAL_Driver/Src/stm32f4xx_hal_dac.c ****     /* Enable the DMA Stream */
 630:Drivers/STM32F4xx_HAL_Driver/Src/stm32f4xx_hal_dac.c ****     status = HAL_DMA_Start_IT(hdac->DMA_Handle1, (uint32_t)pData, tmpreg, Length);
 479              		.loc 1 630 5 view .LVU141
 480              		.loc 1 630 14 is_stmt 0 view .LVU142
 481 005a A068     		ldr	r0, [r4, #8]
 482 005c FFF7FEFF 		bl	HAL_DMA_Start_IT
 483              	.LVL33:
 484              	.L48:
 631:Drivers/STM32F4xx_HAL_Driver/Src/stm32f4xx_hal_dac.c ****   }
 632:Drivers/STM32F4xx_HAL_Driver/Src/stm32f4xx_hal_dac.c **** #if defined(DAC_CHANNEL2_SUPPORT)
 633:Drivers/STM32F4xx_HAL_Driver/Src/stm32f4xx_hal_dac.c ****   else
 634:Drivers/STM32F4xx_HAL_Driver/Src/stm32f4xx_hal_dac.c ****   {
 635:Drivers/STM32F4xx_HAL_Driver/Src/stm32f4xx_hal_dac.c ****     /* Enable the DAC DMA underrun interrupt */
 636:Drivers/STM32F4xx_HAL_Driver/Src/stm32f4xx_hal_dac.c ****     __HAL_DAC_ENABLE_IT(hdac, DAC_IT_DMAUDR2);
 637:Drivers/STM32F4xx_HAL_Driver/Src/stm32f4xx_hal_dac.c **** 
 638:Drivers/STM32F4xx_HAL_Driver/Src/stm32f4xx_hal_dac.c ****     /* Enable the DMA Stream */
 639:Drivers/STM32F4xx_HAL_Driver/Src/stm32f4xx_hal_dac.c ****     status = HAL_DMA_Start_IT(hdac->DMA_Handle2, (uint32_t)pData, tmpreg, Length);
 640:Drivers/STM32F4xx_HAL_Driver/Src/stm32f4xx_hal_dac.c ****   }
 641:Drivers/STM32F4xx_HAL_Driver/Src/stm32f4xx_hal_dac.c **** #endif /* DAC_CHANNEL2_SUPPORT */
 642:Drivers/STM32F4xx_HAL_Driver/Src/stm32f4xx_hal_dac.c **** 
 643:Drivers/STM32F4xx_HAL_Driver/Src/stm32f4xx_hal_dac.c ****   /* Process Unlocked */
 644:Drivers/STM32F4xx_HAL_Driver/Src/stm32f4xx_hal_dac.c ****   __HAL_UNLOCK(hdac);
 485              		.loc 1 644 3 is_stmt 1 view .LVU143
 486              		.loc 1 644 3 view .LVU144
 487 0060 0023     		movs	r3, #0
 488 0062 6371     		strb	r3, [r4, #5]
 489              		.loc 1 644 3 view .LVU145
 645:Drivers/STM32F4xx_HAL_Driver/Src/stm32f4xx_hal_dac.c **** 
 646:Drivers/STM32F4xx_HAL_Driver/Src/stm32f4xx_hal_dac.c ****   if (status == HAL_OK)
 490              		.loc 1 646 3 view .LVU146
 491              		.loc 1 646 6 is_stmt 0 view .LVU147
 492 0064 0028     		cmp	r0, #0
 493 0066 2ED1     		bne	.L49
 647:Drivers/STM32F4xx_HAL_Driver/Src/stm32f4xx_hal_dac.c ****   {
 648:Drivers/STM32F4xx_HAL_Driver/Src/stm32f4xx_hal_dac.c ****     /* Enable the Peripheral */
 649:Drivers/STM32F4xx_HAL_Driver/Src/stm32f4xx_hal_dac.c ****     __HAL_DAC_ENABLE(hdac, Channel);
 494              		.loc 1 649 5 is_stmt 1 view .LVU148
 495 0068 2168     		ldr	r1, [r4]
 496 006a 0B68     		ldr	r3, [r1]
 497 006c 05F01005 		and	r5, r5, #16
 498              	.LVL34:
 499              		.loc 1 649 5 is_stmt 0 view .LVU149
 500 0070 0122     		movs	r2, #1
 501 0072 AA40     		lsls	r2, r2, r5
 502 0074 1343     		orrs	r3, r3, r2
ARM GAS  C:\Users\fish\AppData\Local\Temp\ccNgX8mW.s 			page 22


 503 0076 0B60     		str	r3, [r1]
 504              	.LVL35:
 505              	.L38:
 650:Drivers/STM32F4xx_HAL_Driver/Src/stm32f4xx_hal_dac.c ****   }
 651:Drivers/STM32F4xx_HAL_Driver/Src/stm32f4xx_hal_dac.c ****   else
 652:Drivers/STM32F4xx_HAL_Driver/Src/stm32f4xx_hal_dac.c ****   {
 653:Drivers/STM32F4xx_HAL_Driver/Src/stm32f4xx_hal_dac.c ****     hdac->ErrorCode |= HAL_DAC_ERROR_DMA;
 654:Drivers/STM32F4xx_HAL_Driver/Src/stm32f4xx_hal_dac.c ****   }
 655:Drivers/STM32F4xx_HAL_Driver/Src/stm32f4xx_hal_dac.c **** 
 656:Drivers/STM32F4xx_HAL_Driver/Src/stm32f4xx_hal_dac.c ****   /* Return function status */
 657:Drivers/STM32F4xx_HAL_Driver/Src/stm32f4xx_hal_dac.c ****   return status;
 658:Drivers/STM32F4xx_HAL_Driver/Src/stm32f4xx_hal_dac.c **** }
 506              		.loc 1 658 1 view .LVU150
 507 0078 70BD     		pop	{r4, r5, r6, pc}
 508              	.LVL36:
 509              	.L41:
 583:Drivers/STM32F4xx_HAL_Driver/Src/stm32f4xx_hal_dac.c ****         break;
 510              		.loc 1 583 9 is_stmt 1 view .LVU151
 583:Drivers/STM32F4xx_HAL_Driver/Src/stm32f4xx_hal_dac.c ****         break;
 511              		.loc 1 583 33 is_stmt 0 view .LVU152
 512 007a 2268     		ldr	r2, [r4]
 583:Drivers/STM32F4xx_HAL_Driver/Src/stm32f4xx_hal_dac.c ****         break;
 513              		.loc 1 583 28 view .LVU153
 514 007c 0C32     		adds	r2, r2, #12
 515              	.LVL37:
 584:Drivers/STM32F4xx_HAL_Driver/Src/stm32f4xx_hal_dac.c ****       default: /* case DAC_ALIGN_8B_R */
 516              		.loc 1 584 9 is_stmt 1 view .LVU154
 517 007e E5E7     		b	.L43
 518              	.LVL38:
 519              	.L39:
 595:Drivers/STM32F4xx_HAL_Driver/Src/stm32f4xx_hal_dac.c **** 
 520              		.loc 1 595 5 view .LVU155
 595:Drivers/STM32F4xx_HAL_Driver/Src/stm32f4xx_hal_dac.c **** 
 521              		.loc 1 595 9 is_stmt 0 view .LVU156
 522 0080 E068     		ldr	r0, [r4, #12]
 595:Drivers/STM32F4xx_HAL_Driver/Src/stm32f4xx_hal_dac.c **** 
 523              		.loc 1 595 41 view .LVU157
 524 0082 184E     		ldr	r6, .L55+12
 525 0084 C663     		str	r6, [r0, #60]
 598:Drivers/STM32F4xx_HAL_Driver/Src/stm32f4xx_hal_dac.c **** 
 526              		.loc 1 598 5 is_stmt 1 view .LVU158
 598:Drivers/STM32F4xx_HAL_Driver/Src/stm32f4xx_hal_dac.c **** 
 527              		.loc 1 598 9 is_stmt 0 view .LVU159
 528 0086 E068     		ldr	r0, [r4, #12]
 598:Drivers/STM32F4xx_HAL_Driver/Src/stm32f4xx_hal_dac.c **** 
 529              		.loc 1 598 45 view .LVU160
 530 0088 174E     		ldr	r6, .L55+16
 531 008a 0664     		str	r6, [r0, #64]
 601:Drivers/STM32F4xx_HAL_Driver/Src/stm32f4xx_hal_dac.c **** 
 532              		.loc 1 601 5 is_stmt 1 view .LVU161
 601:Drivers/STM32F4xx_HAL_Driver/Src/stm32f4xx_hal_dac.c **** 
 533              		.loc 1 601 9 is_stmt 0 view .LVU162
 534 008c E068     		ldr	r0, [r4, #12]
 601:Drivers/STM32F4xx_HAL_Driver/Src/stm32f4xx_hal_dac.c **** 
 535              		.loc 1 601 42 view .LVU163
 536 008e 174E     		ldr	r6, .L55+20
 537 0090 C664     		str	r6, [r0, #76]
ARM GAS  C:\Users\fish\AppData\Local\Temp\ccNgX8mW.s 			page 23


 604:Drivers/STM32F4xx_HAL_Driver/Src/stm32f4xx_hal_dac.c **** 
 538              		.loc 1 604 5 is_stmt 1 view .LVU164
 539 0092 2668     		ldr	r6, [r4]
 540 0094 3068     		ldr	r0, [r6]
 541 0096 40F08050 		orr	r0, r0, #268435456
 542 009a 3060     		str	r0, [r6]
 607:Drivers/STM32F4xx_HAL_Driver/Src/stm32f4xx_hal_dac.c ****     {
 543              		.loc 1 607 5 view .LVU165
 544 009c 22B1     		cbz	r2, .L44
 545 009e 042A     		cmp	r2, #4
 546 00a0 05D0     		beq	.L45
 619:Drivers/STM32F4xx_HAL_Driver/Src/stm32f4xx_hal_dac.c ****         break;
 547              		.loc 1 619 9 view .LVU166
 619:Drivers/STM32F4xx_HAL_Driver/Src/stm32f4xx_hal_dac.c ****         break;
 548              		.loc 1 619 33 is_stmt 0 view .LVU167
 549 00a2 2268     		ldr	r2, [r4]
 619:Drivers/STM32F4xx_HAL_Driver/Src/stm32f4xx_hal_dac.c ****         break;
 550              		.loc 1 619 28 view .LVU168
 551 00a4 1C32     		adds	r2, r2, #28
 552              	.LVL39:
 620:Drivers/STM32F4xx_HAL_Driver/Src/stm32f4xx_hal_dac.c ****     }
 553              		.loc 1 620 9 is_stmt 1 view .LVU169
 554 00a6 D1E7     		b	.L43
 555              	.LVL40:
 556              	.L44:
 611:Drivers/STM32F4xx_HAL_Driver/Src/stm32f4xx_hal_dac.c ****         break;
 557              		.loc 1 611 9 view .LVU170
 611:Drivers/STM32F4xx_HAL_Driver/Src/stm32f4xx_hal_dac.c ****         break;
 558              		.loc 1 611 33 is_stmt 0 view .LVU171
 559 00a8 2268     		ldr	r2, [r4]
 611:Drivers/STM32F4xx_HAL_Driver/Src/stm32f4xx_hal_dac.c ****         break;
 560              		.loc 1 611 28 view .LVU172
 561 00aa 1432     		adds	r2, r2, #20
 562              	.LVL41:
 612:Drivers/STM32F4xx_HAL_Driver/Src/stm32f4xx_hal_dac.c ****       case DAC_ALIGN_12B_L:
 563              		.loc 1 612 9 is_stmt 1 view .LVU173
 564 00ac CEE7     		b	.L43
 565              	.LVL42:
 566              	.L45:
 615:Drivers/STM32F4xx_HAL_Driver/Src/stm32f4xx_hal_dac.c ****         break;
 567              		.loc 1 615 9 view .LVU174
 615:Drivers/STM32F4xx_HAL_Driver/Src/stm32f4xx_hal_dac.c ****         break;
 568              		.loc 1 615 33 is_stmt 0 view .LVU175
 569 00ae 2268     		ldr	r2, [r4]
 615:Drivers/STM32F4xx_HAL_Driver/Src/stm32f4xx_hal_dac.c ****         break;
 570              		.loc 1 615 28 view .LVU176
 571 00b0 1832     		adds	r2, r2, #24
 572              	.LVL43:
 616:Drivers/STM32F4xx_HAL_Driver/Src/stm32f4xx_hal_dac.c ****       default: /* case DAC_ALIGN_8B_R */
 573              		.loc 1 616 9 is_stmt 1 view .LVU177
 574 00b2 CBE7     		b	.L43
 575              	.L47:
 636:Drivers/STM32F4xx_HAL_Driver/Src/stm32f4xx_hal_dac.c **** 
 576              		.loc 1 636 5 view .LVU178
 577 00b4 2668     		ldr	r6, [r4]
 578 00b6 3068     		ldr	r0, [r6]
 579 00b8 40F00050 		orr	r0, r0, #536870912
ARM GAS  C:\Users\fish\AppData\Local\Temp\ccNgX8mW.s 			page 24


 580 00bc 3060     		str	r0, [r6]
 639:Drivers/STM32F4xx_HAL_Driver/Src/stm32f4xx_hal_dac.c ****   }
 581              		.loc 1 639 5 view .LVU179
 639:Drivers/STM32F4xx_HAL_Driver/Src/stm32f4xx_hal_dac.c ****   }
 582              		.loc 1 639 14 is_stmt 0 view .LVU180
 583 00be E068     		ldr	r0, [r4, #12]
 584 00c0 FFF7FEFF 		bl	HAL_DMA_Start_IT
 585              	.LVL44:
 639:Drivers/STM32F4xx_HAL_Driver/Src/stm32f4xx_hal_dac.c ****   }
 586              		.loc 1 639 14 view .LVU181
 587 00c4 CCE7     		b	.L48
 588              	.LVL45:
 589              	.L49:
 653:Drivers/STM32F4xx_HAL_Driver/Src/stm32f4xx_hal_dac.c ****   }
 590              		.loc 1 653 5 is_stmt 1 view .LVU182
 653:Drivers/STM32F4xx_HAL_Driver/Src/stm32f4xx_hal_dac.c ****   }
 591              		.loc 1 653 9 is_stmt 0 view .LVU183
 592 00c6 2369     		ldr	r3, [r4, #16]
 653:Drivers/STM32F4xx_HAL_Driver/Src/stm32f4xx_hal_dac.c ****   }
 593              		.loc 1 653 21 view .LVU184
 594 00c8 43F00403 		orr	r3, r3, #4
 595 00cc 2361     		str	r3, [r4, #16]
 596 00ce D3E7     		b	.L38
 597              	.LVL46:
 598              	.L50:
 547:Drivers/STM32F4xx_HAL_Driver/Src/stm32f4xx_hal_dac.c ****   }
 599              		.loc 1 547 12 view .LVU185
 600 00d0 0120     		movs	r0, #1
 601              	.LVL47:
 547:Drivers/STM32F4xx_HAL_Driver/Src/stm32f4xx_hal_dac.c ****   }
 602              		.loc 1 547 12 view .LVU186
 603 00d2 D1E7     		b	.L38
 604              	.LVL48:
 605              	.L51:
 555:Drivers/STM32F4xx_HAL_Driver/Src/stm32f4xx_hal_dac.c **** 
 606              		.loc 1 555 3 discriminator 1 view .LVU187
 607 00d4 0220     		movs	r0, #2
 608 00d6 CFE7     		b	.L38
 609              	.L56:
 610              		.align	2
 611              	.L55:
 612 00d8 00000000 		.word	DAC_DMAConvCpltCh1
 613 00dc 00000000 		.word	DAC_DMAHalfConvCpltCh1
 614 00e0 00000000 		.word	DAC_DMAErrorCh1
 615 00e4 00000000 		.word	DAC_DMAConvCpltCh2
 616 00e8 00000000 		.word	DAC_DMAHalfConvCpltCh2
 617 00ec 00000000 		.word	DAC_DMAErrorCh2
 618              		.cfi_endproc
 619              	.LFE245:
 621              		.section	.text.HAL_DAC_Stop_DMA,"ax",%progbits
 622              		.align	1
 623              		.global	HAL_DAC_Stop_DMA
 624              		.syntax unified
 625              		.thumb
 626              		.thumb_func
 628              	HAL_DAC_Stop_DMA:
 629              	.LVL49:
ARM GAS  C:\Users\fish\AppData\Local\Temp\ccNgX8mW.s 			page 25


 630              	.LFB246:
 659:Drivers/STM32F4xx_HAL_Driver/Src/stm32f4xx_hal_dac.c **** 
 660:Drivers/STM32F4xx_HAL_Driver/Src/stm32f4xx_hal_dac.c **** /**
 661:Drivers/STM32F4xx_HAL_Driver/Src/stm32f4xx_hal_dac.c ****   * @brief  Disables DAC and stop conversion of channel.
 662:Drivers/STM32F4xx_HAL_Driver/Src/stm32f4xx_hal_dac.c ****   * @param  hdac pointer to a DAC_HandleTypeDef structure that contains
 663:Drivers/STM32F4xx_HAL_Driver/Src/stm32f4xx_hal_dac.c ****   *         the configuration information for the specified DAC.
 664:Drivers/STM32F4xx_HAL_Driver/Src/stm32f4xx_hal_dac.c ****   * @param  Channel The selected DAC channel.
 665:Drivers/STM32F4xx_HAL_Driver/Src/stm32f4xx_hal_dac.c ****   *          This parameter can be one of the following values:
 666:Drivers/STM32F4xx_HAL_Driver/Src/stm32f4xx_hal_dac.c ****   *            @arg DAC_CHANNEL_1: DAC Channel1 selected
 667:Drivers/STM32F4xx_HAL_Driver/Src/stm32f4xx_hal_dac.c ****   *            @arg DAC_CHANNEL_2: DAC Channel2 selected
 668:Drivers/STM32F4xx_HAL_Driver/Src/stm32f4xx_hal_dac.c ****   * @retval HAL status
 669:Drivers/STM32F4xx_HAL_Driver/Src/stm32f4xx_hal_dac.c ****   */
 670:Drivers/STM32F4xx_HAL_Driver/Src/stm32f4xx_hal_dac.c **** HAL_StatusTypeDef HAL_DAC_Stop_DMA(DAC_HandleTypeDef *hdac, uint32_t Channel)
 671:Drivers/STM32F4xx_HAL_Driver/Src/stm32f4xx_hal_dac.c **** {
 631              		.loc 1 671 1 is_stmt 1 view -0
 632              		.cfi_startproc
 633              		@ args = 0, pretend = 0, frame = 0
 634              		@ frame_needed = 0, uses_anonymous_args = 0
 672:Drivers/STM32F4xx_HAL_Driver/Src/stm32f4xx_hal_dac.c ****   /* Check the DAC peripheral handle */
 673:Drivers/STM32F4xx_HAL_Driver/Src/stm32f4xx_hal_dac.c ****   if (hdac == NULL)
 635              		.loc 1 673 3 view .LVU189
 636              		.loc 1 673 6 is_stmt 0 view .LVU190
 637 0000 50B3     		cbz	r0, .L61
 671:Drivers/STM32F4xx_HAL_Driver/Src/stm32f4xx_hal_dac.c ****   /* Check the DAC peripheral handle */
 638              		.loc 1 671 1 view .LVU191
 639 0002 10B5     		push	{r4, lr}
 640              		.cfi_def_cfa_offset 8
 641              		.cfi_offset 4, -8
 642              		.cfi_offset 14, -4
 643 0004 0446     		mov	r4, r0
 674:Drivers/STM32F4xx_HAL_Driver/Src/stm32f4xx_hal_dac.c ****   {
 675:Drivers/STM32F4xx_HAL_Driver/Src/stm32f4xx_hal_dac.c ****     return HAL_ERROR;
 676:Drivers/STM32F4xx_HAL_Driver/Src/stm32f4xx_hal_dac.c ****   }
 677:Drivers/STM32F4xx_HAL_Driver/Src/stm32f4xx_hal_dac.c **** 
 678:Drivers/STM32F4xx_HAL_Driver/Src/stm32f4xx_hal_dac.c ****   /* Check the parameters */
 679:Drivers/STM32F4xx_HAL_Driver/Src/stm32f4xx_hal_dac.c ****   assert_param(IS_DAC_CHANNEL(Channel));
 644              		.loc 1 679 3 is_stmt 1 view .LVU192
 680:Drivers/STM32F4xx_HAL_Driver/Src/stm32f4xx_hal_dac.c **** 
 681:Drivers/STM32F4xx_HAL_Driver/Src/stm32f4xx_hal_dac.c ****   /* Disable the selected DAC channel DMA request */
 682:Drivers/STM32F4xx_HAL_Driver/Src/stm32f4xx_hal_dac.c ****   hdac->Instance->CR &= ~(DAC_CR_DMAEN1 << (Channel & 0x10UL));
 645              		.loc 1 682 3 view .LVU193
 646              		.loc 1 682 7 is_stmt 0 view .LVU194
 647 0006 0068     		ldr	r0, [r0]
 648              	.LVL50:
 649              		.loc 1 682 17 view .LVU195
 650 0008 0368     		ldr	r3, [r0]
 651              		.loc 1 682 53 view .LVU196
 652 000a 01F0100C 		and	ip, r1, #16
 653              		.loc 1 682 41 view .LVU197
 654 000e 4FF48052 		mov	r2, #4096
 655 0012 02FA0CF2 		lsl	r2, r2, ip
 656              		.loc 1 682 22 view .LVU198
 657 0016 23EA0203 		bic	r3, r3, r2
 658 001a 0360     		str	r3, [r0]
 683:Drivers/STM32F4xx_HAL_Driver/Src/stm32f4xx_hal_dac.c **** 
 684:Drivers/STM32F4xx_HAL_Driver/Src/stm32f4xx_hal_dac.c ****   /* Disable the Peripheral */
 685:Drivers/STM32F4xx_HAL_Driver/Src/stm32f4xx_hal_dac.c ****   __HAL_DAC_DISABLE(hdac, Channel);
ARM GAS  C:\Users\fish\AppData\Local\Temp\ccNgX8mW.s 			page 26


 659              		.loc 1 685 3 is_stmt 1 view .LVU199
 660 001c 2068     		ldr	r0, [r4]
 661 001e 0368     		ldr	r3, [r0]
 662 0020 0122     		movs	r2, #1
 663 0022 02FA0CF2 		lsl	r2, r2, ip
 664 0026 23EA0203 		bic	r3, r3, r2
 665 002a 0360     		str	r3, [r0]
 686:Drivers/STM32F4xx_HAL_Driver/Src/stm32f4xx_hal_dac.c **** 
 687:Drivers/STM32F4xx_HAL_Driver/Src/stm32f4xx_hal_dac.c ****   /* Disable the DMA Stream */
 688:Drivers/STM32F4xx_HAL_Driver/Src/stm32f4xx_hal_dac.c **** 
 689:Drivers/STM32F4xx_HAL_Driver/Src/stm32f4xx_hal_dac.c ****   /* Channel1 is used */
 690:Drivers/STM32F4xx_HAL_Driver/Src/stm32f4xx_hal_dac.c ****   if (Channel == DAC_CHANNEL_1)
 666              		.loc 1 690 3 view .LVU200
 667              		.loc 1 690 6 is_stmt 0 view .LVU201
 668 002c 59B9     		cbnz	r1, .L59
 691:Drivers/STM32F4xx_HAL_Driver/Src/stm32f4xx_hal_dac.c ****   {
 692:Drivers/STM32F4xx_HAL_Driver/Src/stm32f4xx_hal_dac.c ****     /* Disable the DMA Stream */
 693:Drivers/STM32F4xx_HAL_Driver/Src/stm32f4xx_hal_dac.c ****     (void)HAL_DMA_Abort(hdac->DMA_Handle1);
 669              		.loc 1 693 5 is_stmt 1 view .LVU202
 670              		.loc 1 693 11 is_stmt 0 view .LVU203
 671 002e A068     		ldr	r0, [r4, #8]
 672 0030 FFF7FEFF 		bl	HAL_DMA_Abort
 673              	.LVL51:
 694:Drivers/STM32F4xx_HAL_Driver/Src/stm32f4xx_hal_dac.c **** 
 695:Drivers/STM32F4xx_HAL_Driver/Src/stm32f4xx_hal_dac.c ****     /* Disable the DAC DMA underrun interrupt */
 696:Drivers/STM32F4xx_HAL_Driver/Src/stm32f4xx_hal_dac.c ****     __HAL_DAC_DISABLE_IT(hdac, DAC_IT_DMAUDR1);
 674              		.loc 1 696 5 is_stmt 1 view .LVU204
 675 0034 2268     		ldr	r2, [r4]
 676 0036 1368     		ldr	r3, [r2]
 677 0038 23F40053 		bic	r3, r3, #8192
 678 003c 1360     		str	r3, [r2]
 679              	.L60:
 697:Drivers/STM32F4xx_HAL_Driver/Src/stm32f4xx_hal_dac.c ****   }
 698:Drivers/STM32F4xx_HAL_Driver/Src/stm32f4xx_hal_dac.c **** #if defined(DAC_CHANNEL2_SUPPORT)
 699:Drivers/STM32F4xx_HAL_Driver/Src/stm32f4xx_hal_dac.c ****   else /* Channel2 is used for */
 700:Drivers/STM32F4xx_HAL_Driver/Src/stm32f4xx_hal_dac.c ****   {
 701:Drivers/STM32F4xx_HAL_Driver/Src/stm32f4xx_hal_dac.c ****     /* Disable the DMA Stream */
 702:Drivers/STM32F4xx_HAL_Driver/Src/stm32f4xx_hal_dac.c ****     (void)HAL_DMA_Abort(hdac->DMA_Handle2);
 703:Drivers/STM32F4xx_HAL_Driver/Src/stm32f4xx_hal_dac.c **** 
 704:Drivers/STM32F4xx_HAL_Driver/Src/stm32f4xx_hal_dac.c ****     /* Disable the DAC DMA underrun interrupt */
 705:Drivers/STM32F4xx_HAL_Driver/Src/stm32f4xx_hal_dac.c ****     __HAL_DAC_DISABLE_IT(hdac, DAC_IT_DMAUDR2);
 706:Drivers/STM32F4xx_HAL_Driver/Src/stm32f4xx_hal_dac.c ****   }
 707:Drivers/STM32F4xx_HAL_Driver/Src/stm32f4xx_hal_dac.c **** #endif /* DAC_CHANNEL2_SUPPORT */
 708:Drivers/STM32F4xx_HAL_Driver/Src/stm32f4xx_hal_dac.c **** 
 709:Drivers/STM32F4xx_HAL_Driver/Src/stm32f4xx_hal_dac.c ****   /* Change DAC state */
 710:Drivers/STM32F4xx_HAL_Driver/Src/stm32f4xx_hal_dac.c ****   hdac->State = HAL_DAC_STATE_READY;
 680              		.loc 1 710 3 view .LVU205
 681              		.loc 1 710 15 is_stmt 0 view .LVU206
 682 003e 0123     		movs	r3, #1
 683 0040 2371     		strb	r3, [r4, #4]
 711:Drivers/STM32F4xx_HAL_Driver/Src/stm32f4xx_hal_dac.c **** 
 712:Drivers/STM32F4xx_HAL_Driver/Src/stm32f4xx_hal_dac.c ****   /* Return function status */
 713:Drivers/STM32F4xx_HAL_Driver/Src/stm32f4xx_hal_dac.c ****   return HAL_OK;
 684              		.loc 1 713 3 is_stmt 1 view .LVU207
 685              		.loc 1 713 10 is_stmt 0 view .LVU208
 686 0042 0020     		movs	r0, #0
 714:Drivers/STM32F4xx_HAL_Driver/Src/stm32f4xx_hal_dac.c **** }
ARM GAS  C:\Users\fish\AppData\Local\Temp\ccNgX8mW.s 			page 27


 687              		.loc 1 714 1 view .LVU209
 688 0044 10BD     		pop	{r4, pc}
 689              	.LVL52:
 690              	.L59:
 702:Drivers/STM32F4xx_HAL_Driver/Src/stm32f4xx_hal_dac.c **** 
 691              		.loc 1 702 5 is_stmt 1 view .LVU210
 702:Drivers/STM32F4xx_HAL_Driver/Src/stm32f4xx_hal_dac.c **** 
 692              		.loc 1 702 11 is_stmt 0 view .LVU211
 693 0046 E068     		ldr	r0, [r4, #12]
 694 0048 FFF7FEFF 		bl	HAL_DMA_Abort
 695              	.LVL53:
 705:Drivers/STM32F4xx_HAL_Driver/Src/stm32f4xx_hal_dac.c ****   }
 696              		.loc 1 705 5 is_stmt 1 view .LVU212
 697 004c 2268     		ldr	r2, [r4]
 698 004e 1368     		ldr	r3, [r2]
 699 0050 23F00053 		bic	r3, r3, #536870912
 700 0054 1360     		str	r3, [r2]
 701 0056 F2E7     		b	.L60
 702              	.LVL54:
 703              	.L61:
 704              		.cfi_def_cfa_offset 0
 705              		.cfi_restore 4
 706              		.cfi_restore 14
 675:Drivers/STM32F4xx_HAL_Driver/Src/stm32f4xx_hal_dac.c ****   }
 707              		.loc 1 675 12 is_stmt 0 view .LVU213
 708 0058 0120     		movs	r0, #1
 709              	.LVL55:
 710              		.loc 1 714 1 view .LVU214
 711 005a 7047     		bx	lr
 712              		.cfi_endproc
 713              	.LFE246:
 715              		.section	.text.HAL_DAC_SetValue,"ax",%progbits
 716              		.align	1
 717              		.global	HAL_DAC_SetValue
 718              		.syntax unified
 719              		.thumb
 720              		.thumb_func
 722              	HAL_DAC_SetValue:
 723              	.LVL56:
 724              	.LFB248:
 715:Drivers/STM32F4xx_HAL_Driver/Src/stm32f4xx_hal_dac.c **** 
 716:Drivers/STM32F4xx_HAL_Driver/Src/stm32f4xx_hal_dac.c **** /**
 717:Drivers/STM32F4xx_HAL_Driver/Src/stm32f4xx_hal_dac.c ****   * @brief  Handles DAC interrupt request
 718:Drivers/STM32F4xx_HAL_Driver/Src/stm32f4xx_hal_dac.c ****   *         This function uses the interruption of DMA
 719:Drivers/STM32F4xx_HAL_Driver/Src/stm32f4xx_hal_dac.c ****   *         underrun.
 720:Drivers/STM32F4xx_HAL_Driver/Src/stm32f4xx_hal_dac.c ****   * @param  hdac pointer to a DAC_HandleTypeDef structure that contains
 721:Drivers/STM32F4xx_HAL_Driver/Src/stm32f4xx_hal_dac.c ****   *         the configuration information for the specified DAC.
 722:Drivers/STM32F4xx_HAL_Driver/Src/stm32f4xx_hal_dac.c ****   * @retval None
 723:Drivers/STM32F4xx_HAL_Driver/Src/stm32f4xx_hal_dac.c ****   */
 724:Drivers/STM32F4xx_HAL_Driver/Src/stm32f4xx_hal_dac.c **** void HAL_DAC_IRQHandler(DAC_HandleTypeDef *hdac)
 725:Drivers/STM32F4xx_HAL_Driver/Src/stm32f4xx_hal_dac.c **** {
 726:Drivers/STM32F4xx_HAL_Driver/Src/stm32f4xx_hal_dac.c ****   uint32_t itsource = hdac->Instance->CR;
 727:Drivers/STM32F4xx_HAL_Driver/Src/stm32f4xx_hal_dac.c ****   uint32_t itflag   = hdac->Instance->SR;
 728:Drivers/STM32F4xx_HAL_Driver/Src/stm32f4xx_hal_dac.c **** 
 729:Drivers/STM32F4xx_HAL_Driver/Src/stm32f4xx_hal_dac.c ****   if ((itsource & DAC_IT_DMAUDR1) == DAC_IT_DMAUDR1)
 730:Drivers/STM32F4xx_HAL_Driver/Src/stm32f4xx_hal_dac.c ****   {
 731:Drivers/STM32F4xx_HAL_Driver/Src/stm32f4xx_hal_dac.c ****     /* Check underrun flag of DAC channel 1 */
ARM GAS  C:\Users\fish\AppData\Local\Temp\ccNgX8mW.s 			page 28


 732:Drivers/STM32F4xx_HAL_Driver/Src/stm32f4xx_hal_dac.c ****     if ((itflag & DAC_FLAG_DMAUDR1) == DAC_FLAG_DMAUDR1)
 733:Drivers/STM32F4xx_HAL_Driver/Src/stm32f4xx_hal_dac.c ****     {
 734:Drivers/STM32F4xx_HAL_Driver/Src/stm32f4xx_hal_dac.c ****       /* Change DAC state to error state */
 735:Drivers/STM32F4xx_HAL_Driver/Src/stm32f4xx_hal_dac.c ****       hdac->State = HAL_DAC_STATE_ERROR;
 736:Drivers/STM32F4xx_HAL_Driver/Src/stm32f4xx_hal_dac.c **** 
 737:Drivers/STM32F4xx_HAL_Driver/Src/stm32f4xx_hal_dac.c ****       /* Set DAC error code to channel1 DMA underrun error */
 738:Drivers/STM32F4xx_HAL_Driver/Src/stm32f4xx_hal_dac.c ****       SET_BIT(hdac->ErrorCode, HAL_DAC_ERROR_DMAUNDERRUNCH1);
 739:Drivers/STM32F4xx_HAL_Driver/Src/stm32f4xx_hal_dac.c **** 
 740:Drivers/STM32F4xx_HAL_Driver/Src/stm32f4xx_hal_dac.c ****       /* Clear the underrun flag */
 741:Drivers/STM32F4xx_HAL_Driver/Src/stm32f4xx_hal_dac.c ****       __HAL_DAC_CLEAR_FLAG(hdac, DAC_FLAG_DMAUDR1);
 742:Drivers/STM32F4xx_HAL_Driver/Src/stm32f4xx_hal_dac.c **** 
 743:Drivers/STM32F4xx_HAL_Driver/Src/stm32f4xx_hal_dac.c ****       /* Disable the selected DAC channel1 DMA request */
 744:Drivers/STM32F4xx_HAL_Driver/Src/stm32f4xx_hal_dac.c ****       __HAL_DAC_DISABLE_IT(hdac, DAC_CR_DMAEN1);
 745:Drivers/STM32F4xx_HAL_Driver/Src/stm32f4xx_hal_dac.c **** 
 746:Drivers/STM32F4xx_HAL_Driver/Src/stm32f4xx_hal_dac.c ****       /* Error callback */
 747:Drivers/STM32F4xx_HAL_Driver/Src/stm32f4xx_hal_dac.c **** #if (USE_HAL_DAC_REGISTER_CALLBACKS == 1)
 748:Drivers/STM32F4xx_HAL_Driver/Src/stm32f4xx_hal_dac.c ****       hdac->DMAUnderrunCallbackCh1(hdac);
 749:Drivers/STM32F4xx_HAL_Driver/Src/stm32f4xx_hal_dac.c **** #else
 750:Drivers/STM32F4xx_HAL_Driver/Src/stm32f4xx_hal_dac.c ****       HAL_DAC_DMAUnderrunCallbackCh1(hdac);
 751:Drivers/STM32F4xx_HAL_Driver/Src/stm32f4xx_hal_dac.c **** #endif /* USE_HAL_DAC_REGISTER_CALLBACKS */
 752:Drivers/STM32F4xx_HAL_Driver/Src/stm32f4xx_hal_dac.c ****     }
 753:Drivers/STM32F4xx_HAL_Driver/Src/stm32f4xx_hal_dac.c ****   }
 754:Drivers/STM32F4xx_HAL_Driver/Src/stm32f4xx_hal_dac.c **** 
 755:Drivers/STM32F4xx_HAL_Driver/Src/stm32f4xx_hal_dac.c **** #if defined(DAC_CHANNEL2_SUPPORT)
 756:Drivers/STM32F4xx_HAL_Driver/Src/stm32f4xx_hal_dac.c ****   if ((itsource & DAC_IT_DMAUDR2) == DAC_IT_DMAUDR2)
 757:Drivers/STM32F4xx_HAL_Driver/Src/stm32f4xx_hal_dac.c ****   {
 758:Drivers/STM32F4xx_HAL_Driver/Src/stm32f4xx_hal_dac.c ****     /* Check underrun flag of DAC channel 2 */
 759:Drivers/STM32F4xx_HAL_Driver/Src/stm32f4xx_hal_dac.c ****     if ((itflag & DAC_FLAG_DMAUDR2) == DAC_FLAG_DMAUDR2)
 760:Drivers/STM32F4xx_HAL_Driver/Src/stm32f4xx_hal_dac.c ****     {
 761:Drivers/STM32F4xx_HAL_Driver/Src/stm32f4xx_hal_dac.c ****       /* Change DAC state to error state */
 762:Drivers/STM32F4xx_HAL_Driver/Src/stm32f4xx_hal_dac.c ****       hdac->State = HAL_DAC_STATE_ERROR;
 763:Drivers/STM32F4xx_HAL_Driver/Src/stm32f4xx_hal_dac.c **** 
 764:Drivers/STM32F4xx_HAL_Driver/Src/stm32f4xx_hal_dac.c ****       /* Set DAC error code to channel2 DMA underrun error */
 765:Drivers/STM32F4xx_HAL_Driver/Src/stm32f4xx_hal_dac.c ****       SET_BIT(hdac->ErrorCode, HAL_DAC_ERROR_DMAUNDERRUNCH2);
 766:Drivers/STM32F4xx_HAL_Driver/Src/stm32f4xx_hal_dac.c **** 
 767:Drivers/STM32F4xx_HAL_Driver/Src/stm32f4xx_hal_dac.c ****       /* Clear the underrun flag */
 768:Drivers/STM32F4xx_HAL_Driver/Src/stm32f4xx_hal_dac.c ****       __HAL_DAC_CLEAR_FLAG(hdac, DAC_FLAG_DMAUDR2);
 769:Drivers/STM32F4xx_HAL_Driver/Src/stm32f4xx_hal_dac.c **** 
 770:Drivers/STM32F4xx_HAL_Driver/Src/stm32f4xx_hal_dac.c ****       /* Disable the selected DAC channel2 DMA request */
 771:Drivers/STM32F4xx_HAL_Driver/Src/stm32f4xx_hal_dac.c ****       __HAL_DAC_DISABLE_IT(hdac, DAC_CR_DMAEN2);
 772:Drivers/STM32F4xx_HAL_Driver/Src/stm32f4xx_hal_dac.c **** 
 773:Drivers/STM32F4xx_HAL_Driver/Src/stm32f4xx_hal_dac.c ****       /* Error callback */
 774:Drivers/STM32F4xx_HAL_Driver/Src/stm32f4xx_hal_dac.c **** #if (USE_HAL_DAC_REGISTER_CALLBACKS == 1)
 775:Drivers/STM32F4xx_HAL_Driver/Src/stm32f4xx_hal_dac.c ****       hdac->DMAUnderrunCallbackCh2(hdac);
 776:Drivers/STM32F4xx_HAL_Driver/Src/stm32f4xx_hal_dac.c **** #else
 777:Drivers/STM32F4xx_HAL_Driver/Src/stm32f4xx_hal_dac.c ****       HAL_DACEx_DMAUnderrunCallbackCh2(hdac);
 778:Drivers/STM32F4xx_HAL_Driver/Src/stm32f4xx_hal_dac.c **** #endif /* USE_HAL_DAC_REGISTER_CALLBACKS */
 779:Drivers/STM32F4xx_HAL_Driver/Src/stm32f4xx_hal_dac.c ****     }
 780:Drivers/STM32F4xx_HAL_Driver/Src/stm32f4xx_hal_dac.c ****   }
 781:Drivers/STM32F4xx_HAL_Driver/Src/stm32f4xx_hal_dac.c **** #endif /* DAC_CHANNEL2_SUPPORT */
 782:Drivers/STM32F4xx_HAL_Driver/Src/stm32f4xx_hal_dac.c **** }
 783:Drivers/STM32F4xx_HAL_Driver/Src/stm32f4xx_hal_dac.c **** 
 784:Drivers/STM32F4xx_HAL_Driver/Src/stm32f4xx_hal_dac.c **** /**
 785:Drivers/STM32F4xx_HAL_Driver/Src/stm32f4xx_hal_dac.c ****   * @brief  Set the specified data holding register value for DAC channel.
 786:Drivers/STM32F4xx_HAL_Driver/Src/stm32f4xx_hal_dac.c ****   * @param  hdac pointer to a DAC_HandleTypeDef structure that contains
 787:Drivers/STM32F4xx_HAL_Driver/Src/stm32f4xx_hal_dac.c ****   *         the configuration information for the specified DAC.
 788:Drivers/STM32F4xx_HAL_Driver/Src/stm32f4xx_hal_dac.c ****   * @param  Channel The selected DAC channel.
ARM GAS  C:\Users\fish\AppData\Local\Temp\ccNgX8mW.s 			page 29


 789:Drivers/STM32F4xx_HAL_Driver/Src/stm32f4xx_hal_dac.c ****   *          This parameter can be one of the following values:
 790:Drivers/STM32F4xx_HAL_Driver/Src/stm32f4xx_hal_dac.c ****   *            @arg DAC_CHANNEL_1: DAC Channel1 selected
 791:Drivers/STM32F4xx_HAL_Driver/Src/stm32f4xx_hal_dac.c ****   *            @arg DAC_CHANNEL_2: DAC Channel2 selected
 792:Drivers/STM32F4xx_HAL_Driver/Src/stm32f4xx_hal_dac.c ****   * @param  Alignment Specifies the data alignment.
 793:Drivers/STM32F4xx_HAL_Driver/Src/stm32f4xx_hal_dac.c ****   *          This parameter can be one of the following values:
 794:Drivers/STM32F4xx_HAL_Driver/Src/stm32f4xx_hal_dac.c ****   *            @arg DAC_ALIGN_8B_R: 8bit right data alignment selected
 795:Drivers/STM32F4xx_HAL_Driver/Src/stm32f4xx_hal_dac.c ****   *            @arg DAC_ALIGN_12B_L: 12bit left data alignment selected
 796:Drivers/STM32F4xx_HAL_Driver/Src/stm32f4xx_hal_dac.c ****   *            @arg DAC_ALIGN_12B_R: 12bit right data alignment selected
 797:Drivers/STM32F4xx_HAL_Driver/Src/stm32f4xx_hal_dac.c ****   * @param  Data Data to be loaded in the selected data holding register.
 798:Drivers/STM32F4xx_HAL_Driver/Src/stm32f4xx_hal_dac.c ****   * @retval HAL status
 799:Drivers/STM32F4xx_HAL_Driver/Src/stm32f4xx_hal_dac.c ****   */
 800:Drivers/STM32F4xx_HAL_Driver/Src/stm32f4xx_hal_dac.c **** HAL_StatusTypeDef HAL_DAC_SetValue(DAC_HandleTypeDef *hdac, uint32_t Channel, uint32_t Alignment, u
 801:Drivers/STM32F4xx_HAL_Driver/Src/stm32f4xx_hal_dac.c **** {
 725              		.loc 1 801 1 is_stmt 1 view -0
 726              		.cfi_startproc
 727              		@ args = 0, pretend = 0, frame = 8
 728              		@ frame_needed = 0, uses_anonymous_args = 0
 729              		@ link register save eliminated.
 730              		.loc 1 801 1 is_stmt 0 view .LVU216
 731 0000 10B4     		push	{r4}
 732              		.cfi_def_cfa_offset 4
 733              		.cfi_offset 4, -4
 734 0002 83B0     		sub	sp, sp, #12
 735              		.cfi_def_cfa_offset 16
 802:Drivers/STM32F4xx_HAL_Driver/Src/stm32f4xx_hal_dac.c ****   __IO uint32_t tmp = 0UL;
 736              		.loc 1 802 3 is_stmt 1 view .LVU217
 737              		.loc 1 802 17 is_stmt 0 view .LVU218
 738 0004 0024     		movs	r4, #0
 739 0006 0194     		str	r4, [sp, #4]
 803:Drivers/STM32F4xx_HAL_Driver/Src/stm32f4xx_hal_dac.c **** 
 804:Drivers/STM32F4xx_HAL_Driver/Src/stm32f4xx_hal_dac.c ****   /* Check the DAC peripheral handle */
 805:Drivers/STM32F4xx_HAL_Driver/Src/stm32f4xx_hal_dac.c ****   if (hdac == NULL)
 740              		.loc 1 805 3 is_stmt 1 view .LVU219
 741              		.loc 1 805 6 is_stmt 0 view .LVU220
 742 0008 90B1     		cbz	r0, .L70
 806:Drivers/STM32F4xx_HAL_Driver/Src/stm32f4xx_hal_dac.c ****   {
 807:Drivers/STM32F4xx_HAL_Driver/Src/stm32f4xx_hal_dac.c ****     return HAL_ERROR;
 808:Drivers/STM32F4xx_HAL_Driver/Src/stm32f4xx_hal_dac.c ****   }
 809:Drivers/STM32F4xx_HAL_Driver/Src/stm32f4xx_hal_dac.c **** 
 810:Drivers/STM32F4xx_HAL_Driver/Src/stm32f4xx_hal_dac.c ****   /* Check the parameters */
 811:Drivers/STM32F4xx_HAL_Driver/Src/stm32f4xx_hal_dac.c ****   assert_param(IS_DAC_CHANNEL(Channel));
 743              		.loc 1 811 3 is_stmt 1 view .LVU221
 812:Drivers/STM32F4xx_HAL_Driver/Src/stm32f4xx_hal_dac.c ****   assert_param(IS_DAC_ALIGN(Alignment));
 744              		.loc 1 812 3 view .LVU222
 813:Drivers/STM32F4xx_HAL_Driver/Src/stm32f4xx_hal_dac.c ****   assert_param(IS_DAC_DATA(Data));
 745              		.loc 1 813 3 view .LVU223
 814:Drivers/STM32F4xx_HAL_Driver/Src/stm32f4xx_hal_dac.c **** 
 815:Drivers/STM32F4xx_HAL_Driver/Src/stm32f4xx_hal_dac.c ****   tmp = (uint32_t)hdac->Instance;
 746              		.loc 1 815 3 view .LVU224
 747              		.loc 1 815 23 is_stmt 0 view .LVU225
 748 000a 0068     		ldr	r0, [r0]
 749              	.LVL57:
 750              		.loc 1 815 7 view .LVU226
 751 000c 0190     		str	r0, [sp, #4]
 816:Drivers/STM32F4xx_HAL_Driver/Src/stm32f4xx_hal_dac.c ****   if (Channel == DAC_CHANNEL_1)
 752              		.loc 1 816 3 is_stmt 1 view .LVU227
 753              		.loc 1 816 6 is_stmt 0 view .LVU228
ARM GAS  C:\Users\fish\AppData\Local\Temp\ccNgX8mW.s 			page 30


 754 000e 51B9     		cbnz	r1, .L68
 817:Drivers/STM32F4xx_HAL_Driver/Src/stm32f4xx_hal_dac.c ****   {
 818:Drivers/STM32F4xx_HAL_Driver/Src/stm32f4xx_hal_dac.c ****     tmp += DAC_DHR12R1_ALIGNMENT(Alignment);
 755              		.loc 1 818 5 is_stmt 1 view .LVU229
 756              		.loc 1 818 9 is_stmt 0 view .LVU230
 757 0010 0199     		ldr	r1, [sp, #4]
 758              	.LVL58:
 759              		.loc 1 818 9 view .LVU231
 760 0012 0A44     		add	r2, r2, r1
 761              	.LVL59:
 762              		.loc 1 818 9 view .LVU232
 763 0014 0832     		adds	r2, r2, #8
 764 0016 0192     		str	r2, [sp, #4]
 765              	.L69:
 819:Drivers/STM32F4xx_HAL_Driver/Src/stm32f4xx_hal_dac.c ****   }
 820:Drivers/STM32F4xx_HAL_Driver/Src/stm32f4xx_hal_dac.c **** #if defined(DAC_CHANNEL2_SUPPORT)
 821:Drivers/STM32F4xx_HAL_Driver/Src/stm32f4xx_hal_dac.c ****   else
 822:Drivers/STM32F4xx_HAL_Driver/Src/stm32f4xx_hal_dac.c ****   {
 823:Drivers/STM32F4xx_HAL_Driver/Src/stm32f4xx_hal_dac.c ****     tmp += DAC_DHR12R2_ALIGNMENT(Alignment);
 824:Drivers/STM32F4xx_HAL_Driver/Src/stm32f4xx_hal_dac.c ****   }
 825:Drivers/STM32F4xx_HAL_Driver/Src/stm32f4xx_hal_dac.c **** #endif /* DAC_CHANNEL2_SUPPORT */
 826:Drivers/STM32F4xx_HAL_Driver/Src/stm32f4xx_hal_dac.c **** 
 827:Drivers/STM32F4xx_HAL_Driver/Src/stm32f4xx_hal_dac.c ****   /* Set the DAC channel selected data holding register */
 828:Drivers/STM32F4xx_HAL_Driver/Src/stm32f4xx_hal_dac.c ****   *(__IO uint32_t *) tmp = Data;
 766              		.loc 1 828 3 is_stmt 1 view .LVU233
 767              		.loc 1 828 4 is_stmt 0 view .LVU234
 768 0018 019A     		ldr	r2, [sp, #4]
 769              		.loc 1 828 26 view .LVU235
 770 001a 1360     		str	r3, [r2]
 829:Drivers/STM32F4xx_HAL_Driver/Src/stm32f4xx_hal_dac.c **** 
 830:Drivers/STM32F4xx_HAL_Driver/Src/stm32f4xx_hal_dac.c ****   /* Return function status */
 831:Drivers/STM32F4xx_HAL_Driver/Src/stm32f4xx_hal_dac.c ****   return HAL_OK;
 771              		.loc 1 831 3 is_stmt 1 view .LVU236
 772              		.loc 1 831 10 is_stmt 0 view .LVU237
 773 001c 0020     		movs	r0, #0
 774              	.L67:
 832:Drivers/STM32F4xx_HAL_Driver/Src/stm32f4xx_hal_dac.c **** }
 775              		.loc 1 832 1 view .LVU238
 776 001e 03B0     		add	sp, sp, #12
 777              		.cfi_remember_state
 778              		.cfi_def_cfa_offset 4
 779              		@ sp needed
 780 0020 5DF8044B 		ldr	r4, [sp], #4
 781              		.cfi_restore 4
 782              		.cfi_def_cfa_offset 0
 783 0024 7047     		bx	lr
 784              	.LVL60:
 785              	.L68:
 786              		.cfi_restore_state
 823:Drivers/STM32F4xx_HAL_Driver/Src/stm32f4xx_hal_dac.c ****   }
 787              		.loc 1 823 5 is_stmt 1 view .LVU239
 823:Drivers/STM32F4xx_HAL_Driver/Src/stm32f4xx_hal_dac.c ****   }
 788              		.loc 1 823 9 is_stmt 0 view .LVU240
 789 0026 0199     		ldr	r1, [sp, #4]
 790              	.LVL61:
 823:Drivers/STM32F4xx_HAL_Driver/Src/stm32f4xx_hal_dac.c ****   }
 791              		.loc 1 823 9 view .LVU241
ARM GAS  C:\Users\fish\AppData\Local\Temp\ccNgX8mW.s 			page 31


 792 0028 0A44     		add	r2, r2, r1
 793              	.LVL62:
 823:Drivers/STM32F4xx_HAL_Driver/Src/stm32f4xx_hal_dac.c ****   }
 794              		.loc 1 823 9 view .LVU242
 795 002a 1432     		adds	r2, r2, #20
 796 002c 0192     		str	r2, [sp, #4]
 797 002e F3E7     		b	.L69
 798              	.LVL63:
 799              	.L70:
 807:Drivers/STM32F4xx_HAL_Driver/Src/stm32f4xx_hal_dac.c ****   }
 800              		.loc 1 807 12 view .LVU243
 801 0030 0120     		movs	r0, #1
 802              	.LVL64:
 807:Drivers/STM32F4xx_HAL_Driver/Src/stm32f4xx_hal_dac.c ****   }
 803              		.loc 1 807 12 view .LVU244
 804 0032 F4E7     		b	.L67
 805              		.cfi_endproc
 806              	.LFE248:
 808              		.section	.text.HAL_DAC_ConvCpltCallbackCh1,"ax",%progbits
 809              		.align	1
 810              		.weak	HAL_DAC_ConvCpltCallbackCh1
 811              		.syntax unified
 812              		.thumb
 813              		.thumb_func
 815              	HAL_DAC_ConvCpltCallbackCh1:
 816              	.LVL65:
 817              	.LFB249:
 833:Drivers/STM32F4xx_HAL_Driver/Src/stm32f4xx_hal_dac.c **** 
 834:Drivers/STM32F4xx_HAL_Driver/Src/stm32f4xx_hal_dac.c **** /**
 835:Drivers/STM32F4xx_HAL_Driver/Src/stm32f4xx_hal_dac.c ****   * @brief  Conversion complete callback in non-blocking mode for Channel1
 836:Drivers/STM32F4xx_HAL_Driver/Src/stm32f4xx_hal_dac.c ****   * @param  hdac pointer to a DAC_HandleTypeDef structure that contains
 837:Drivers/STM32F4xx_HAL_Driver/Src/stm32f4xx_hal_dac.c ****   *         the configuration information for the specified DAC.
 838:Drivers/STM32F4xx_HAL_Driver/Src/stm32f4xx_hal_dac.c ****   * @retval None
 839:Drivers/STM32F4xx_HAL_Driver/Src/stm32f4xx_hal_dac.c ****   */
 840:Drivers/STM32F4xx_HAL_Driver/Src/stm32f4xx_hal_dac.c **** __weak void HAL_DAC_ConvCpltCallbackCh1(DAC_HandleTypeDef *hdac)
 841:Drivers/STM32F4xx_HAL_Driver/Src/stm32f4xx_hal_dac.c **** {
 818              		.loc 1 841 1 is_stmt 1 view -0
 819              		.cfi_startproc
 820              		@ args = 0, pretend = 0, frame = 0
 821              		@ frame_needed = 0, uses_anonymous_args = 0
 822              		@ link register save eliminated.
 842:Drivers/STM32F4xx_HAL_Driver/Src/stm32f4xx_hal_dac.c ****   /* Prevent unused argument(s) compilation warning */
 843:Drivers/STM32F4xx_HAL_Driver/Src/stm32f4xx_hal_dac.c ****   UNUSED(hdac);
 823              		.loc 1 843 3 view .LVU246
 844:Drivers/STM32F4xx_HAL_Driver/Src/stm32f4xx_hal_dac.c **** 
 845:Drivers/STM32F4xx_HAL_Driver/Src/stm32f4xx_hal_dac.c ****   /* NOTE : This function should not be modified, when the callback is needed,
 846:Drivers/STM32F4xx_HAL_Driver/Src/stm32f4xx_hal_dac.c ****             the HAL_DAC_ConvCpltCallbackCh1 could be implemented in the user file
 847:Drivers/STM32F4xx_HAL_Driver/Src/stm32f4xx_hal_dac.c ****    */
 848:Drivers/STM32F4xx_HAL_Driver/Src/stm32f4xx_hal_dac.c **** }
 824              		.loc 1 848 1 is_stmt 0 view .LVU247
 825 0000 7047     		bx	lr
 826              		.cfi_endproc
 827              	.LFE249:
 829              		.section	.text.DAC_DMAConvCpltCh1,"ax",%progbits
 830              		.align	1
 831              		.global	DAC_DMAConvCpltCh1
 832              		.syntax unified
ARM GAS  C:\Users\fish\AppData\Local\Temp\ccNgX8mW.s 			page 32


 833              		.thumb
 834              		.thumb_func
 836              	DAC_DMAConvCpltCh1:
 837              	.LVL66:
 838              	.LFB257:
 849:Drivers/STM32F4xx_HAL_Driver/Src/stm32f4xx_hal_dac.c **** 
 850:Drivers/STM32F4xx_HAL_Driver/Src/stm32f4xx_hal_dac.c **** /**
 851:Drivers/STM32F4xx_HAL_Driver/Src/stm32f4xx_hal_dac.c ****   * @brief  Conversion half DMA transfer callback in non-blocking mode for Channel1
 852:Drivers/STM32F4xx_HAL_Driver/Src/stm32f4xx_hal_dac.c ****   * @param  hdac pointer to a DAC_HandleTypeDef structure that contains
 853:Drivers/STM32F4xx_HAL_Driver/Src/stm32f4xx_hal_dac.c ****   *         the configuration information for the specified DAC.
 854:Drivers/STM32F4xx_HAL_Driver/Src/stm32f4xx_hal_dac.c ****   * @retval None
 855:Drivers/STM32F4xx_HAL_Driver/Src/stm32f4xx_hal_dac.c ****   */
 856:Drivers/STM32F4xx_HAL_Driver/Src/stm32f4xx_hal_dac.c **** __weak void HAL_DAC_ConvHalfCpltCallbackCh1(DAC_HandleTypeDef *hdac)
 857:Drivers/STM32F4xx_HAL_Driver/Src/stm32f4xx_hal_dac.c **** {
 858:Drivers/STM32F4xx_HAL_Driver/Src/stm32f4xx_hal_dac.c ****   /* Prevent unused argument(s) compilation warning */
 859:Drivers/STM32F4xx_HAL_Driver/Src/stm32f4xx_hal_dac.c ****   UNUSED(hdac);
 860:Drivers/STM32F4xx_HAL_Driver/Src/stm32f4xx_hal_dac.c **** 
 861:Drivers/STM32F4xx_HAL_Driver/Src/stm32f4xx_hal_dac.c ****   /* NOTE : This function should not be modified, when the callback is needed,
 862:Drivers/STM32F4xx_HAL_Driver/Src/stm32f4xx_hal_dac.c ****             the HAL_DAC_ConvHalfCpltCallbackCh1 could be implemented in the user file
 863:Drivers/STM32F4xx_HAL_Driver/Src/stm32f4xx_hal_dac.c ****    */
 864:Drivers/STM32F4xx_HAL_Driver/Src/stm32f4xx_hal_dac.c **** }
 865:Drivers/STM32F4xx_HAL_Driver/Src/stm32f4xx_hal_dac.c **** 
 866:Drivers/STM32F4xx_HAL_Driver/Src/stm32f4xx_hal_dac.c **** /**
 867:Drivers/STM32F4xx_HAL_Driver/Src/stm32f4xx_hal_dac.c ****   * @brief  Error DAC callback for Channel1.
 868:Drivers/STM32F4xx_HAL_Driver/Src/stm32f4xx_hal_dac.c ****   * @param  hdac pointer to a DAC_HandleTypeDef structure that contains
 869:Drivers/STM32F4xx_HAL_Driver/Src/stm32f4xx_hal_dac.c ****   *         the configuration information for the specified DAC.
 870:Drivers/STM32F4xx_HAL_Driver/Src/stm32f4xx_hal_dac.c ****   * @retval None
 871:Drivers/STM32F4xx_HAL_Driver/Src/stm32f4xx_hal_dac.c ****   */
 872:Drivers/STM32F4xx_HAL_Driver/Src/stm32f4xx_hal_dac.c **** __weak void HAL_DAC_ErrorCallbackCh1(DAC_HandleTypeDef *hdac)
 873:Drivers/STM32F4xx_HAL_Driver/Src/stm32f4xx_hal_dac.c **** {
 874:Drivers/STM32F4xx_HAL_Driver/Src/stm32f4xx_hal_dac.c ****   /* Prevent unused argument(s) compilation warning */
 875:Drivers/STM32F4xx_HAL_Driver/Src/stm32f4xx_hal_dac.c ****   UNUSED(hdac);
 876:Drivers/STM32F4xx_HAL_Driver/Src/stm32f4xx_hal_dac.c **** 
 877:Drivers/STM32F4xx_HAL_Driver/Src/stm32f4xx_hal_dac.c ****   /* NOTE : This function should not be modified, when the callback is needed,
 878:Drivers/STM32F4xx_HAL_Driver/Src/stm32f4xx_hal_dac.c ****             the HAL_DAC_ErrorCallbackCh1 could be implemented in the user file
 879:Drivers/STM32F4xx_HAL_Driver/Src/stm32f4xx_hal_dac.c ****    */
 880:Drivers/STM32F4xx_HAL_Driver/Src/stm32f4xx_hal_dac.c **** }
 881:Drivers/STM32F4xx_HAL_Driver/Src/stm32f4xx_hal_dac.c **** 
 882:Drivers/STM32F4xx_HAL_Driver/Src/stm32f4xx_hal_dac.c **** /**
 883:Drivers/STM32F4xx_HAL_Driver/Src/stm32f4xx_hal_dac.c ****   * @brief  DMA underrun DAC callback for channel1.
 884:Drivers/STM32F4xx_HAL_Driver/Src/stm32f4xx_hal_dac.c ****   * @param  hdac pointer to a DAC_HandleTypeDef structure that contains
 885:Drivers/STM32F4xx_HAL_Driver/Src/stm32f4xx_hal_dac.c ****   *         the configuration information for the specified DAC.
 886:Drivers/STM32F4xx_HAL_Driver/Src/stm32f4xx_hal_dac.c ****   * @retval None
 887:Drivers/STM32F4xx_HAL_Driver/Src/stm32f4xx_hal_dac.c ****   */
 888:Drivers/STM32F4xx_HAL_Driver/Src/stm32f4xx_hal_dac.c **** __weak void HAL_DAC_DMAUnderrunCallbackCh1(DAC_HandleTypeDef *hdac)
 889:Drivers/STM32F4xx_HAL_Driver/Src/stm32f4xx_hal_dac.c **** {
 890:Drivers/STM32F4xx_HAL_Driver/Src/stm32f4xx_hal_dac.c ****   /* Prevent unused argument(s) compilation warning */
 891:Drivers/STM32F4xx_HAL_Driver/Src/stm32f4xx_hal_dac.c ****   UNUSED(hdac);
 892:Drivers/STM32F4xx_HAL_Driver/Src/stm32f4xx_hal_dac.c **** 
 893:Drivers/STM32F4xx_HAL_Driver/Src/stm32f4xx_hal_dac.c ****   /* NOTE : This function should not be modified, when the callback is needed,
 894:Drivers/STM32F4xx_HAL_Driver/Src/stm32f4xx_hal_dac.c ****             the HAL_DAC_DMAUnderrunCallbackCh1 could be implemented in the user file
 895:Drivers/STM32F4xx_HAL_Driver/Src/stm32f4xx_hal_dac.c ****    */
 896:Drivers/STM32F4xx_HAL_Driver/Src/stm32f4xx_hal_dac.c **** }
 897:Drivers/STM32F4xx_HAL_Driver/Src/stm32f4xx_hal_dac.c **** 
 898:Drivers/STM32F4xx_HAL_Driver/Src/stm32f4xx_hal_dac.c **** /**
 899:Drivers/STM32F4xx_HAL_Driver/Src/stm32f4xx_hal_dac.c ****   * @}
 900:Drivers/STM32F4xx_HAL_Driver/Src/stm32f4xx_hal_dac.c ****   */
ARM GAS  C:\Users\fish\AppData\Local\Temp\ccNgX8mW.s 			page 33


 901:Drivers/STM32F4xx_HAL_Driver/Src/stm32f4xx_hal_dac.c **** 
 902:Drivers/STM32F4xx_HAL_Driver/Src/stm32f4xx_hal_dac.c **** /** @defgroup DAC_Exported_Functions_Group3 Peripheral Control functions
 903:Drivers/STM32F4xx_HAL_Driver/Src/stm32f4xx_hal_dac.c ****   *  @brief    Peripheral Control functions
 904:Drivers/STM32F4xx_HAL_Driver/Src/stm32f4xx_hal_dac.c ****   *
 905:Drivers/STM32F4xx_HAL_Driver/Src/stm32f4xx_hal_dac.c **** @verbatim
 906:Drivers/STM32F4xx_HAL_Driver/Src/stm32f4xx_hal_dac.c ****   ==============================================================================
 907:Drivers/STM32F4xx_HAL_Driver/Src/stm32f4xx_hal_dac.c ****              ##### Peripheral Control functions #####
 908:Drivers/STM32F4xx_HAL_Driver/Src/stm32f4xx_hal_dac.c ****   ==============================================================================
 909:Drivers/STM32F4xx_HAL_Driver/Src/stm32f4xx_hal_dac.c ****     [..]  This section provides functions allowing to:
 910:Drivers/STM32F4xx_HAL_Driver/Src/stm32f4xx_hal_dac.c ****       (+) Configure channels.
 911:Drivers/STM32F4xx_HAL_Driver/Src/stm32f4xx_hal_dac.c ****       (+) Set the specified data holding register value for DAC channel.
 912:Drivers/STM32F4xx_HAL_Driver/Src/stm32f4xx_hal_dac.c **** 
 913:Drivers/STM32F4xx_HAL_Driver/Src/stm32f4xx_hal_dac.c **** @endverbatim
 914:Drivers/STM32F4xx_HAL_Driver/Src/stm32f4xx_hal_dac.c ****   * @{
 915:Drivers/STM32F4xx_HAL_Driver/Src/stm32f4xx_hal_dac.c ****   */
 916:Drivers/STM32F4xx_HAL_Driver/Src/stm32f4xx_hal_dac.c **** 
 917:Drivers/STM32F4xx_HAL_Driver/Src/stm32f4xx_hal_dac.c **** /**
 918:Drivers/STM32F4xx_HAL_Driver/Src/stm32f4xx_hal_dac.c ****   * @brief  Returns the last data output value of the selected DAC channel.
 919:Drivers/STM32F4xx_HAL_Driver/Src/stm32f4xx_hal_dac.c ****   * @param  hdac pointer to a DAC_HandleTypeDef structure that contains
 920:Drivers/STM32F4xx_HAL_Driver/Src/stm32f4xx_hal_dac.c ****   *         the configuration information for the specified DAC.
 921:Drivers/STM32F4xx_HAL_Driver/Src/stm32f4xx_hal_dac.c ****   * @param  Channel The selected DAC channel.
 922:Drivers/STM32F4xx_HAL_Driver/Src/stm32f4xx_hal_dac.c ****   *          This parameter can be one of the following values:
 923:Drivers/STM32F4xx_HAL_Driver/Src/stm32f4xx_hal_dac.c ****   *            @arg DAC_CHANNEL_1: DAC Channel1 selected
 924:Drivers/STM32F4xx_HAL_Driver/Src/stm32f4xx_hal_dac.c ****   *            @arg DAC_CHANNEL_2: DAC Channel2 selected
 925:Drivers/STM32F4xx_HAL_Driver/Src/stm32f4xx_hal_dac.c ****   * @retval The selected DAC channel data output value.
 926:Drivers/STM32F4xx_HAL_Driver/Src/stm32f4xx_hal_dac.c ****   */
 927:Drivers/STM32F4xx_HAL_Driver/Src/stm32f4xx_hal_dac.c **** uint32_t HAL_DAC_GetValue(const DAC_HandleTypeDef *hdac, uint32_t Channel)
 928:Drivers/STM32F4xx_HAL_Driver/Src/stm32f4xx_hal_dac.c **** {
 929:Drivers/STM32F4xx_HAL_Driver/Src/stm32f4xx_hal_dac.c ****   uint32_t result = 0;
 930:Drivers/STM32F4xx_HAL_Driver/Src/stm32f4xx_hal_dac.c **** 
 931:Drivers/STM32F4xx_HAL_Driver/Src/stm32f4xx_hal_dac.c ****   /* Check the DAC peripheral handle */
 932:Drivers/STM32F4xx_HAL_Driver/Src/stm32f4xx_hal_dac.c ****   assert_param(hdac != NULL);
 933:Drivers/STM32F4xx_HAL_Driver/Src/stm32f4xx_hal_dac.c **** 
 934:Drivers/STM32F4xx_HAL_Driver/Src/stm32f4xx_hal_dac.c ****   /* Check the parameters */
 935:Drivers/STM32F4xx_HAL_Driver/Src/stm32f4xx_hal_dac.c ****   assert_param(IS_DAC_CHANNEL(Channel));
 936:Drivers/STM32F4xx_HAL_Driver/Src/stm32f4xx_hal_dac.c **** 
 937:Drivers/STM32F4xx_HAL_Driver/Src/stm32f4xx_hal_dac.c ****   if (Channel == DAC_CHANNEL_1)
 938:Drivers/STM32F4xx_HAL_Driver/Src/stm32f4xx_hal_dac.c ****   {
 939:Drivers/STM32F4xx_HAL_Driver/Src/stm32f4xx_hal_dac.c ****     result = hdac->Instance->DOR1;
 940:Drivers/STM32F4xx_HAL_Driver/Src/stm32f4xx_hal_dac.c ****   }
 941:Drivers/STM32F4xx_HAL_Driver/Src/stm32f4xx_hal_dac.c **** #if defined(DAC_CHANNEL2_SUPPORT)
 942:Drivers/STM32F4xx_HAL_Driver/Src/stm32f4xx_hal_dac.c ****   else
 943:Drivers/STM32F4xx_HAL_Driver/Src/stm32f4xx_hal_dac.c ****   {
 944:Drivers/STM32F4xx_HAL_Driver/Src/stm32f4xx_hal_dac.c ****     result = hdac->Instance->DOR2;
 945:Drivers/STM32F4xx_HAL_Driver/Src/stm32f4xx_hal_dac.c ****   }
 946:Drivers/STM32F4xx_HAL_Driver/Src/stm32f4xx_hal_dac.c **** #endif /* DAC_CHANNEL2_SUPPORT */
 947:Drivers/STM32F4xx_HAL_Driver/Src/stm32f4xx_hal_dac.c ****   /* Returns the DAC channel data output register value */
 948:Drivers/STM32F4xx_HAL_Driver/Src/stm32f4xx_hal_dac.c ****   return result;
 949:Drivers/STM32F4xx_HAL_Driver/Src/stm32f4xx_hal_dac.c **** }
 950:Drivers/STM32F4xx_HAL_Driver/Src/stm32f4xx_hal_dac.c **** 
 951:Drivers/STM32F4xx_HAL_Driver/Src/stm32f4xx_hal_dac.c **** /**
 952:Drivers/STM32F4xx_HAL_Driver/Src/stm32f4xx_hal_dac.c ****   * @brief  Configures the selected DAC channel.
 953:Drivers/STM32F4xx_HAL_Driver/Src/stm32f4xx_hal_dac.c ****   * @param  hdac pointer to a DAC_HandleTypeDef structure that contains
 954:Drivers/STM32F4xx_HAL_Driver/Src/stm32f4xx_hal_dac.c ****   *         the configuration information for the specified DAC.
 955:Drivers/STM32F4xx_HAL_Driver/Src/stm32f4xx_hal_dac.c ****   * @param  sConfig DAC configuration structure.
 956:Drivers/STM32F4xx_HAL_Driver/Src/stm32f4xx_hal_dac.c ****   * @param  Channel The selected DAC channel.
 957:Drivers/STM32F4xx_HAL_Driver/Src/stm32f4xx_hal_dac.c ****   *          This parameter can be one of the following values:
ARM GAS  C:\Users\fish\AppData\Local\Temp\ccNgX8mW.s 			page 34


 958:Drivers/STM32F4xx_HAL_Driver/Src/stm32f4xx_hal_dac.c ****   *            @arg DAC_CHANNEL_1: DAC Channel1 selected
 959:Drivers/STM32F4xx_HAL_Driver/Src/stm32f4xx_hal_dac.c ****   *            @arg DAC_CHANNEL_2: DAC Channel2 selected
 960:Drivers/STM32F4xx_HAL_Driver/Src/stm32f4xx_hal_dac.c ****   * @retval HAL status
 961:Drivers/STM32F4xx_HAL_Driver/Src/stm32f4xx_hal_dac.c ****   */
 962:Drivers/STM32F4xx_HAL_Driver/Src/stm32f4xx_hal_dac.c **** HAL_StatusTypeDef HAL_DAC_ConfigChannel(DAC_HandleTypeDef *hdac,
 963:Drivers/STM32F4xx_HAL_Driver/Src/stm32f4xx_hal_dac.c ****                                         const DAC_ChannelConfTypeDef *sConfig, uint32_t Channel)
 964:Drivers/STM32F4xx_HAL_Driver/Src/stm32f4xx_hal_dac.c **** {
 965:Drivers/STM32F4xx_HAL_Driver/Src/stm32f4xx_hal_dac.c ****   HAL_StatusTypeDef status = HAL_OK;
 966:Drivers/STM32F4xx_HAL_Driver/Src/stm32f4xx_hal_dac.c ****   uint32_t tmpreg1;
 967:Drivers/STM32F4xx_HAL_Driver/Src/stm32f4xx_hal_dac.c ****   uint32_t tmpreg2;
 968:Drivers/STM32F4xx_HAL_Driver/Src/stm32f4xx_hal_dac.c **** 
 969:Drivers/STM32F4xx_HAL_Driver/Src/stm32f4xx_hal_dac.c ****   /* Check the DAC peripheral handle and channel configuration struct */
 970:Drivers/STM32F4xx_HAL_Driver/Src/stm32f4xx_hal_dac.c ****   if ((hdac == NULL) || (sConfig == NULL))
 971:Drivers/STM32F4xx_HAL_Driver/Src/stm32f4xx_hal_dac.c ****   {
 972:Drivers/STM32F4xx_HAL_Driver/Src/stm32f4xx_hal_dac.c ****     return HAL_ERROR;
 973:Drivers/STM32F4xx_HAL_Driver/Src/stm32f4xx_hal_dac.c ****   }
 974:Drivers/STM32F4xx_HAL_Driver/Src/stm32f4xx_hal_dac.c **** 
 975:Drivers/STM32F4xx_HAL_Driver/Src/stm32f4xx_hal_dac.c ****   /* Check the DAC parameters */
 976:Drivers/STM32F4xx_HAL_Driver/Src/stm32f4xx_hal_dac.c ****   assert_param(IS_DAC_TRIGGER(sConfig->DAC_Trigger));
 977:Drivers/STM32F4xx_HAL_Driver/Src/stm32f4xx_hal_dac.c ****   assert_param(IS_DAC_OUTPUT_BUFFER_STATE(sConfig->DAC_OutputBuffer));
 978:Drivers/STM32F4xx_HAL_Driver/Src/stm32f4xx_hal_dac.c ****   assert_param(IS_DAC_CHANNEL(Channel));
 979:Drivers/STM32F4xx_HAL_Driver/Src/stm32f4xx_hal_dac.c **** 
 980:Drivers/STM32F4xx_HAL_Driver/Src/stm32f4xx_hal_dac.c ****   /* Process locked */
 981:Drivers/STM32F4xx_HAL_Driver/Src/stm32f4xx_hal_dac.c ****   __HAL_LOCK(hdac);
 982:Drivers/STM32F4xx_HAL_Driver/Src/stm32f4xx_hal_dac.c **** 
 983:Drivers/STM32F4xx_HAL_Driver/Src/stm32f4xx_hal_dac.c ****   /* Change DAC state */
 984:Drivers/STM32F4xx_HAL_Driver/Src/stm32f4xx_hal_dac.c ****   hdac->State = HAL_DAC_STATE_BUSY;
 985:Drivers/STM32F4xx_HAL_Driver/Src/stm32f4xx_hal_dac.c **** 
 986:Drivers/STM32F4xx_HAL_Driver/Src/stm32f4xx_hal_dac.c ****   /* Get the DAC CR value */
 987:Drivers/STM32F4xx_HAL_Driver/Src/stm32f4xx_hal_dac.c ****   tmpreg1 = hdac->Instance->CR;
 988:Drivers/STM32F4xx_HAL_Driver/Src/stm32f4xx_hal_dac.c ****   /* Clear BOFFx, TENx, TSELx, WAVEx and MAMPx bits */
 989:Drivers/STM32F4xx_HAL_Driver/Src/stm32f4xx_hal_dac.c ****   tmpreg1 &= ~(((uint32_t)(DAC_CR_MAMP1 | DAC_CR_WAVE1 | DAC_CR_TSEL1 | DAC_CR_TEN1 | DAC_CR_BOFF1)
 990:Drivers/STM32F4xx_HAL_Driver/Src/stm32f4xx_hal_dac.c ****                << (Channel & 0x10UL));
 991:Drivers/STM32F4xx_HAL_Driver/Src/stm32f4xx_hal_dac.c ****   /* Configure for the selected DAC channel: buffer output, trigger */
 992:Drivers/STM32F4xx_HAL_Driver/Src/stm32f4xx_hal_dac.c ****   /* Set TSELx and TENx bits according to DAC_Trigger value */
 993:Drivers/STM32F4xx_HAL_Driver/Src/stm32f4xx_hal_dac.c ****   /* Set BOFFx bit according to DAC_OutputBuffer value */
 994:Drivers/STM32F4xx_HAL_Driver/Src/stm32f4xx_hal_dac.c ****   tmpreg2 = (sConfig->DAC_Trigger | sConfig->DAC_OutputBuffer);
 995:Drivers/STM32F4xx_HAL_Driver/Src/stm32f4xx_hal_dac.c ****   /* Calculate CR register value depending on DAC_Channel */
 996:Drivers/STM32F4xx_HAL_Driver/Src/stm32f4xx_hal_dac.c ****   tmpreg1 |= tmpreg2 << (Channel & 0x10UL);
 997:Drivers/STM32F4xx_HAL_Driver/Src/stm32f4xx_hal_dac.c ****   /* Write to DAC CR */
 998:Drivers/STM32F4xx_HAL_Driver/Src/stm32f4xx_hal_dac.c ****   hdac->Instance->CR = tmpreg1;
 999:Drivers/STM32F4xx_HAL_Driver/Src/stm32f4xx_hal_dac.c ****   /* Disable wave generation */
1000:Drivers/STM32F4xx_HAL_Driver/Src/stm32f4xx_hal_dac.c ****   CLEAR_BIT(hdac->Instance->CR, (DAC_CR_WAVE1 << (Channel & 0x10UL)));
1001:Drivers/STM32F4xx_HAL_Driver/Src/stm32f4xx_hal_dac.c **** 
1002:Drivers/STM32F4xx_HAL_Driver/Src/stm32f4xx_hal_dac.c ****   /* Change DAC state */
1003:Drivers/STM32F4xx_HAL_Driver/Src/stm32f4xx_hal_dac.c ****   hdac->State = HAL_DAC_STATE_READY;
1004:Drivers/STM32F4xx_HAL_Driver/Src/stm32f4xx_hal_dac.c **** 
1005:Drivers/STM32F4xx_HAL_Driver/Src/stm32f4xx_hal_dac.c ****   /* Process unlocked */
1006:Drivers/STM32F4xx_HAL_Driver/Src/stm32f4xx_hal_dac.c ****   __HAL_UNLOCK(hdac);
1007:Drivers/STM32F4xx_HAL_Driver/Src/stm32f4xx_hal_dac.c **** 
1008:Drivers/STM32F4xx_HAL_Driver/Src/stm32f4xx_hal_dac.c ****   /* Return function status */
1009:Drivers/STM32F4xx_HAL_Driver/Src/stm32f4xx_hal_dac.c ****   return status;
1010:Drivers/STM32F4xx_HAL_Driver/Src/stm32f4xx_hal_dac.c **** }
1011:Drivers/STM32F4xx_HAL_Driver/Src/stm32f4xx_hal_dac.c **** 
1012:Drivers/STM32F4xx_HAL_Driver/Src/stm32f4xx_hal_dac.c **** /**
1013:Drivers/STM32F4xx_HAL_Driver/Src/stm32f4xx_hal_dac.c ****   * @}
1014:Drivers/STM32F4xx_HAL_Driver/Src/stm32f4xx_hal_dac.c ****   */
ARM GAS  C:\Users\fish\AppData\Local\Temp\ccNgX8mW.s 			page 35


1015:Drivers/STM32F4xx_HAL_Driver/Src/stm32f4xx_hal_dac.c **** 
1016:Drivers/STM32F4xx_HAL_Driver/Src/stm32f4xx_hal_dac.c **** /** @defgroup DAC_Exported_Functions_Group4 Peripheral State and Errors functions
1017:Drivers/STM32F4xx_HAL_Driver/Src/stm32f4xx_hal_dac.c ****   *  @brief   Peripheral State and Errors functions
1018:Drivers/STM32F4xx_HAL_Driver/Src/stm32f4xx_hal_dac.c ****   *
1019:Drivers/STM32F4xx_HAL_Driver/Src/stm32f4xx_hal_dac.c **** @verbatim
1020:Drivers/STM32F4xx_HAL_Driver/Src/stm32f4xx_hal_dac.c ****   ==============================================================================
1021:Drivers/STM32F4xx_HAL_Driver/Src/stm32f4xx_hal_dac.c ****             ##### Peripheral State and Errors functions #####
1022:Drivers/STM32F4xx_HAL_Driver/Src/stm32f4xx_hal_dac.c ****   ==============================================================================
1023:Drivers/STM32F4xx_HAL_Driver/Src/stm32f4xx_hal_dac.c ****     [..]
1024:Drivers/STM32F4xx_HAL_Driver/Src/stm32f4xx_hal_dac.c ****     This subsection provides functions allowing to
1025:Drivers/STM32F4xx_HAL_Driver/Src/stm32f4xx_hal_dac.c ****       (+) Check the DAC state.
1026:Drivers/STM32F4xx_HAL_Driver/Src/stm32f4xx_hal_dac.c ****       (+) Check the DAC Errors.
1027:Drivers/STM32F4xx_HAL_Driver/Src/stm32f4xx_hal_dac.c **** 
1028:Drivers/STM32F4xx_HAL_Driver/Src/stm32f4xx_hal_dac.c **** @endverbatim
1029:Drivers/STM32F4xx_HAL_Driver/Src/stm32f4xx_hal_dac.c ****   * @{
1030:Drivers/STM32F4xx_HAL_Driver/Src/stm32f4xx_hal_dac.c ****   */
1031:Drivers/STM32F4xx_HAL_Driver/Src/stm32f4xx_hal_dac.c **** 
1032:Drivers/STM32F4xx_HAL_Driver/Src/stm32f4xx_hal_dac.c **** /**
1033:Drivers/STM32F4xx_HAL_Driver/Src/stm32f4xx_hal_dac.c ****   * @brief  return the DAC handle state
1034:Drivers/STM32F4xx_HAL_Driver/Src/stm32f4xx_hal_dac.c ****   * @param  hdac pointer to a DAC_HandleTypeDef structure that contains
1035:Drivers/STM32F4xx_HAL_Driver/Src/stm32f4xx_hal_dac.c ****   *         the configuration information for the specified DAC.
1036:Drivers/STM32F4xx_HAL_Driver/Src/stm32f4xx_hal_dac.c ****   * @retval HAL state
1037:Drivers/STM32F4xx_HAL_Driver/Src/stm32f4xx_hal_dac.c ****   */
1038:Drivers/STM32F4xx_HAL_Driver/Src/stm32f4xx_hal_dac.c **** HAL_DAC_StateTypeDef HAL_DAC_GetState(const DAC_HandleTypeDef *hdac)
1039:Drivers/STM32F4xx_HAL_Driver/Src/stm32f4xx_hal_dac.c **** {
1040:Drivers/STM32F4xx_HAL_Driver/Src/stm32f4xx_hal_dac.c ****   /* Return DAC handle state */
1041:Drivers/STM32F4xx_HAL_Driver/Src/stm32f4xx_hal_dac.c ****   return hdac->State;
1042:Drivers/STM32F4xx_HAL_Driver/Src/stm32f4xx_hal_dac.c **** }
1043:Drivers/STM32F4xx_HAL_Driver/Src/stm32f4xx_hal_dac.c **** 
1044:Drivers/STM32F4xx_HAL_Driver/Src/stm32f4xx_hal_dac.c **** 
1045:Drivers/STM32F4xx_HAL_Driver/Src/stm32f4xx_hal_dac.c **** /**
1046:Drivers/STM32F4xx_HAL_Driver/Src/stm32f4xx_hal_dac.c ****   * @brief  Return the DAC error code
1047:Drivers/STM32F4xx_HAL_Driver/Src/stm32f4xx_hal_dac.c ****   * @param  hdac pointer to a DAC_HandleTypeDef structure that contains
1048:Drivers/STM32F4xx_HAL_Driver/Src/stm32f4xx_hal_dac.c ****   *         the configuration information for the specified DAC.
1049:Drivers/STM32F4xx_HAL_Driver/Src/stm32f4xx_hal_dac.c ****   * @retval DAC Error Code
1050:Drivers/STM32F4xx_HAL_Driver/Src/stm32f4xx_hal_dac.c ****   */
1051:Drivers/STM32F4xx_HAL_Driver/Src/stm32f4xx_hal_dac.c **** uint32_t HAL_DAC_GetError(const DAC_HandleTypeDef *hdac)
1052:Drivers/STM32F4xx_HAL_Driver/Src/stm32f4xx_hal_dac.c **** {
1053:Drivers/STM32F4xx_HAL_Driver/Src/stm32f4xx_hal_dac.c ****   return hdac->ErrorCode;
1054:Drivers/STM32F4xx_HAL_Driver/Src/stm32f4xx_hal_dac.c **** }
1055:Drivers/STM32F4xx_HAL_Driver/Src/stm32f4xx_hal_dac.c **** 
1056:Drivers/STM32F4xx_HAL_Driver/Src/stm32f4xx_hal_dac.c **** /**
1057:Drivers/STM32F4xx_HAL_Driver/Src/stm32f4xx_hal_dac.c ****   * @}
1058:Drivers/STM32F4xx_HAL_Driver/Src/stm32f4xx_hal_dac.c ****   */
1059:Drivers/STM32F4xx_HAL_Driver/Src/stm32f4xx_hal_dac.c **** 
1060:Drivers/STM32F4xx_HAL_Driver/Src/stm32f4xx_hal_dac.c **** /**
1061:Drivers/STM32F4xx_HAL_Driver/Src/stm32f4xx_hal_dac.c ****   * @}
1062:Drivers/STM32F4xx_HAL_Driver/Src/stm32f4xx_hal_dac.c ****   */
1063:Drivers/STM32F4xx_HAL_Driver/Src/stm32f4xx_hal_dac.c **** 
1064:Drivers/STM32F4xx_HAL_Driver/Src/stm32f4xx_hal_dac.c **** /** @addtogroup DAC_Exported_Functions
1065:Drivers/STM32F4xx_HAL_Driver/Src/stm32f4xx_hal_dac.c ****   * @{
1066:Drivers/STM32F4xx_HAL_Driver/Src/stm32f4xx_hal_dac.c ****   */
1067:Drivers/STM32F4xx_HAL_Driver/Src/stm32f4xx_hal_dac.c **** 
1068:Drivers/STM32F4xx_HAL_Driver/Src/stm32f4xx_hal_dac.c **** /** @addtogroup DAC_Exported_Functions_Group1
1069:Drivers/STM32F4xx_HAL_Driver/Src/stm32f4xx_hal_dac.c ****   * @{
1070:Drivers/STM32F4xx_HAL_Driver/Src/stm32f4xx_hal_dac.c ****   */
1071:Drivers/STM32F4xx_HAL_Driver/Src/stm32f4xx_hal_dac.c **** #if (USE_HAL_DAC_REGISTER_CALLBACKS == 1)
ARM GAS  C:\Users\fish\AppData\Local\Temp\ccNgX8mW.s 			page 36


1072:Drivers/STM32F4xx_HAL_Driver/Src/stm32f4xx_hal_dac.c **** /**
1073:Drivers/STM32F4xx_HAL_Driver/Src/stm32f4xx_hal_dac.c ****   * @brief  Register a User DAC Callback
1074:Drivers/STM32F4xx_HAL_Driver/Src/stm32f4xx_hal_dac.c ****   *         To be used instead of the weak (overridden) predefined callback
1075:Drivers/STM32F4xx_HAL_Driver/Src/stm32f4xx_hal_dac.c ****   * @note   The HAL_DAC_RegisterCallback() may be called before HAL_DAC_Init() in HAL_DAC_STATE_RES
1076:Drivers/STM32F4xx_HAL_Driver/Src/stm32f4xx_hal_dac.c ****   *         callbacks for HAL_DAC_MSPINIT_CB_ID and HAL_DAC_MSPDEINIT_CB_ID
1077:Drivers/STM32F4xx_HAL_Driver/Src/stm32f4xx_hal_dac.c ****   * @param  hdac DAC handle
1078:Drivers/STM32F4xx_HAL_Driver/Src/stm32f4xx_hal_dac.c ****   * @param  CallbackID ID of the callback to be registered
1079:Drivers/STM32F4xx_HAL_Driver/Src/stm32f4xx_hal_dac.c ****   *         This parameter can be one of the following values:
1080:Drivers/STM32F4xx_HAL_Driver/Src/stm32f4xx_hal_dac.c ****   *          @arg @ref HAL_DAC_ERROR_INVALID_CALLBACK   DAC Error Callback ID
1081:Drivers/STM32F4xx_HAL_Driver/Src/stm32f4xx_hal_dac.c ****   *          @arg @ref HAL_DAC_CH1_COMPLETE_CB_ID       DAC CH1 Complete Callback ID
1082:Drivers/STM32F4xx_HAL_Driver/Src/stm32f4xx_hal_dac.c ****   *          @arg @ref HAL_DAC_CH1_HALF_COMPLETE_CB_ID  DAC CH1 Half Complete Callback ID
1083:Drivers/STM32F4xx_HAL_Driver/Src/stm32f4xx_hal_dac.c ****   *          @arg @ref HAL_DAC_CH1_ERROR_ID             DAC CH1 Error Callback ID
1084:Drivers/STM32F4xx_HAL_Driver/Src/stm32f4xx_hal_dac.c ****   *          @arg @ref HAL_DAC_CH1_UNDERRUN_CB_ID       DAC CH1 UnderRun Callback ID
1085:Drivers/STM32F4xx_HAL_Driver/Src/stm32f4xx_hal_dac.c ****   *          @arg @ref HAL_DAC_CH2_COMPLETE_CB_ID       DAC CH2 Complete Callback ID
1086:Drivers/STM32F4xx_HAL_Driver/Src/stm32f4xx_hal_dac.c ****   *          @arg @ref HAL_DAC_CH2_HALF_COMPLETE_CB_ID  DAC CH2 Half Complete Callback ID
1087:Drivers/STM32F4xx_HAL_Driver/Src/stm32f4xx_hal_dac.c ****   *          @arg @ref HAL_DAC_CH2_ERROR_ID             DAC CH2 Error Callback ID
1088:Drivers/STM32F4xx_HAL_Driver/Src/stm32f4xx_hal_dac.c ****   *          @arg @ref HAL_DAC_CH2_UNDERRUN_CB_ID       DAC CH2 UnderRun Callback ID
1089:Drivers/STM32F4xx_HAL_Driver/Src/stm32f4xx_hal_dac.c ****   *          @arg @ref HAL_DAC_MSPINIT_CB_ID            DAC MSP Init Callback ID
1090:Drivers/STM32F4xx_HAL_Driver/Src/stm32f4xx_hal_dac.c ****   *          @arg @ref HAL_DAC_MSPDEINIT_CB_ID          DAC MSP DeInit Callback ID
1091:Drivers/STM32F4xx_HAL_Driver/Src/stm32f4xx_hal_dac.c ****   *
1092:Drivers/STM32F4xx_HAL_Driver/Src/stm32f4xx_hal_dac.c ****   * @param  pCallback pointer to the Callback function
1093:Drivers/STM32F4xx_HAL_Driver/Src/stm32f4xx_hal_dac.c ****   * @retval status
1094:Drivers/STM32F4xx_HAL_Driver/Src/stm32f4xx_hal_dac.c ****   */
1095:Drivers/STM32F4xx_HAL_Driver/Src/stm32f4xx_hal_dac.c **** HAL_StatusTypeDef HAL_DAC_RegisterCallback(DAC_HandleTypeDef *hdac, HAL_DAC_CallbackIDTypeDef Callb
1096:Drivers/STM32F4xx_HAL_Driver/Src/stm32f4xx_hal_dac.c ****                                            pDAC_CallbackTypeDef pCallback)
1097:Drivers/STM32F4xx_HAL_Driver/Src/stm32f4xx_hal_dac.c **** {
1098:Drivers/STM32F4xx_HAL_Driver/Src/stm32f4xx_hal_dac.c ****   HAL_StatusTypeDef status = HAL_OK;
1099:Drivers/STM32F4xx_HAL_Driver/Src/stm32f4xx_hal_dac.c **** 
1100:Drivers/STM32F4xx_HAL_Driver/Src/stm32f4xx_hal_dac.c ****   /* Check the DAC peripheral handle */
1101:Drivers/STM32F4xx_HAL_Driver/Src/stm32f4xx_hal_dac.c ****   if (hdac == NULL)
1102:Drivers/STM32F4xx_HAL_Driver/Src/stm32f4xx_hal_dac.c ****   {
1103:Drivers/STM32F4xx_HAL_Driver/Src/stm32f4xx_hal_dac.c ****     return HAL_ERROR;
1104:Drivers/STM32F4xx_HAL_Driver/Src/stm32f4xx_hal_dac.c ****   }
1105:Drivers/STM32F4xx_HAL_Driver/Src/stm32f4xx_hal_dac.c **** 
1106:Drivers/STM32F4xx_HAL_Driver/Src/stm32f4xx_hal_dac.c ****   if (pCallback == NULL)
1107:Drivers/STM32F4xx_HAL_Driver/Src/stm32f4xx_hal_dac.c ****   {
1108:Drivers/STM32F4xx_HAL_Driver/Src/stm32f4xx_hal_dac.c ****     /* Update the error code */
1109:Drivers/STM32F4xx_HAL_Driver/Src/stm32f4xx_hal_dac.c ****     hdac->ErrorCode |= HAL_DAC_ERROR_INVALID_CALLBACK;
1110:Drivers/STM32F4xx_HAL_Driver/Src/stm32f4xx_hal_dac.c ****     return HAL_ERROR;
1111:Drivers/STM32F4xx_HAL_Driver/Src/stm32f4xx_hal_dac.c ****   }
1112:Drivers/STM32F4xx_HAL_Driver/Src/stm32f4xx_hal_dac.c **** 
1113:Drivers/STM32F4xx_HAL_Driver/Src/stm32f4xx_hal_dac.c ****   if (hdac->State == HAL_DAC_STATE_READY)
1114:Drivers/STM32F4xx_HAL_Driver/Src/stm32f4xx_hal_dac.c ****   {
1115:Drivers/STM32F4xx_HAL_Driver/Src/stm32f4xx_hal_dac.c ****     switch (CallbackID)
1116:Drivers/STM32F4xx_HAL_Driver/Src/stm32f4xx_hal_dac.c ****     {
1117:Drivers/STM32F4xx_HAL_Driver/Src/stm32f4xx_hal_dac.c ****       case HAL_DAC_CH1_COMPLETE_CB_ID :
1118:Drivers/STM32F4xx_HAL_Driver/Src/stm32f4xx_hal_dac.c ****         hdac->ConvCpltCallbackCh1 = pCallback;
1119:Drivers/STM32F4xx_HAL_Driver/Src/stm32f4xx_hal_dac.c ****         break;
1120:Drivers/STM32F4xx_HAL_Driver/Src/stm32f4xx_hal_dac.c ****       case HAL_DAC_CH1_HALF_COMPLETE_CB_ID :
1121:Drivers/STM32F4xx_HAL_Driver/Src/stm32f4xx_hal_dac.c ****         hdac->ConvHalfCpltCallbackCh1 = pCallback;
1122:Drivers/STM32F4xx_HAL_Driver/Src/stm32f4xx_hal_dac.c ****         break;
1123:Drivers/STM32F4xx_HAL_Driver/Src/stm32f4xx_hal_dac.c ****       case HAL_DAC_CH1_ERROR_ID :
1124:Drivers/STM32F4xx_HAL_Driver/Src/stm32f4xx_hal_dac.c ****         hdac->ErrorCallbackCh1 = pCallback;
1125:Drivers/STM32F4xx_HAL_Driver/Src/stm32f4xx_hal_dac.c ****         break;
1126:Drivers/STM32F4xx_HAL_Driver/Src/stm32f4xx_hal_dac.c ****       case HAL_DAC_CH1_UNDERRUN_CB_ID :
1127:Drivers/STM32F4xx_HAL_Driver/Src/stm32f4xx_hal_dac.c ****         hdac->DMAUnderrunCallbackCh1 = pCallback;
1128:Drivers/STM32F4xx_HAL_Driver/Src/stm32f4xx_hal_dac.c ****         break;
ARM GAS  C:\Users\fish\AppData\Local\Temp\ccNgX8mW.s 			page 37


1129:Drivers/STM32F4xx_HAL_Driver/Src/stm32f4xx_hal_dac.c **** #if defined(DAC_CHANNEL2_SUPPORT)
1130:Drivers/STM32F4xx_HAL_Driver/Src/stm32f4xx_hal_dac.c ****       case HAL_DAC_CH2_COMPLETE_CB_ID :
1131:Drivers/STM32F4xx_HAL_Driver/Src/stm32f4xx_hal_dac.c ****         hdac->ConvCpltCallbackCh2 = pCallback;
1132:Drivers/STM32F4xx_HAL_Driver/Src/stm32f4xx_hal_dac.c ****         break;
1133:Drivers/STM32F4xx_HAL_Driver/Src/stm32f4xx_hal_dac.c ****       case HAL_DAC_CH2_HALF_COMPLETE_CB_ID :
1134:Drivers/STM32F4xx_HAL_Driver/Src/stm32f4xx_hal_dac.c ****         hdac->ConvHalfCpltCallbackCh2 = pCallback;
1135:Drivers/STM32F4xx_HAL_Driver/Src/stm32f4xx_hal_dac.c ****         break;
1136:Drivers/STM32F4xx_HAL_Driver/Src/stm32f4xx_hal_dac.c ****       case HAL_DAC_CH2_ERROR_ID :
1137:Drivers/STM32F4xx_HAL_Driver/Src/stm32f4xx_hal_dac.c ****         hdac->ErrorCallbackCh2 = pCallback;
1138:Drivers/STM32F4xx_HAL_Driver/Src/stm32f4xx_hal_dac.c ****         break;
1139:Drivers/STM32F4xx_HAL_Driver/Src/stm32f4xx_hal_dac.c ****       case HAL_DAC_CH2_UNDERRUN_CB_ID :
1140:Drivers/STM32F4xx_HAL_Driver/Src/stm32f4xx_hal_dac.c ****         hdac->DMAUnderrunCallbackCh2 = pCallback;
1141:Drivers/STM32F4xx_HAL_Driver/Src/stm32f4xx_hal_dac.c ****         break;
1142:Drivers/STM32F4xx_HAL_Driver/Src/stm32f4xx_hal_dac.c **** #endif /* DAC_CHANNEL2_SUPPORT */
1143:Drivers/STM32F4xx_HAL_Driver/Src/stm32f4xx_hal_dac.c ****       case HAL_DAC_MSPINIT_CB_ID :
1144:Drivers/STM32F4xx_HAL_Driver/Src/stm32f4xx_hal_dac.c ****         hdac->MspInitCallback = pCallback;
1145:Drivers/STM32F4xx_HAL_Driver/Src/stm32f4xx_hal_dac.c ****         break;
1146:Drivers/STM32F4xx_HAL_Driver/Src/stm32f4xx_hal_dac.c ****       case HAL_DAC_MSPDEINIT_CB_ID :
1147:Drivers/STM32F4xx_HAL_Driver/Src/stm32f4xx_hal_dac.c ****         hdac->MspDeInitCallback = pCallback;
1148:Drivers/STM32F4xx_HAL_Driver/Src/stm32f4xx_hal_dac.c ****         break;
1149:Drivers/STM32F4xx_HAL_Driver/Src/stm32f4xx_hal_dac.c ****       default :
1150:Drivers/STM32F4xx_HAL_Driver/Src/stm32f4xx_hal_dac.c ****         /* Update the error code */
1151:Drivers/STM32F4xx_HAL_Driver/Src/stm32f4xx_hal_dac.c ****         hdac->ErrorCode |= HAL_DAC_ERROR_INVALID_CALLBACK;
1152:Drivers/STM32F4xx_HAL_Driver/Src/stm32f4xx_hal_dac.c ****         /* update return status */
1153:Drivers/STM32F4xx_HAL_Driver/Src/stm32f4xx_hal_dac.c ****         status =  HAL_ERROR;
1154:Drivers/STM32F4xx_HAL_Driver/Src/stm32f4xx_hal_dac.c ****         break;
1155:Drivers/STM32F4xx_HAL_Driver/Src/stm32f4xx_hal_dac.c ****     }
1156:Drivers/STM32F4xx_HAL_Driver/Src/stm32f4xx_hal_dac.c ****   }
1157:Drivers/STM32F4xx_HAL_Driver/Src/stm32f4xx_hal_dac.c ****   else if (hdac->State == HAL_DAC_STATE_RESET)
1158:Drivers/STM32F4xx_HAL_Driver/Src/stm32f4xx_hal_dac.c ****   {
1159:Drivers/STM32F4xx_HAL_Driver/Src/stm32f4xx_hal_dac.c ****     switch (CallbackID)
1160:Drivers/STM32F4xx_HAL_Driver/Src/stm32f4xx_hal_dac.c ****     {
1161:Drivers/STM32F4xx_HAL_Driver/Src/stm32f4xx_hal_dac.c ****       case HAL_DAC_MSPINIT_CB_ID :
1162:Drivers/STM32F4xx_HAL_Driver/Src/stm32f4xx_hal_dac.c ****         hdac->MspInitCallback = pCallback;
1163:Drivers/STM32F4xx_HAL_Driver/Src/stm32f4xx_hal_dac.c ****         break;
1164:Drivers/STM32F4xx_HAL_Driver/Src/stm32f4xx_hal_dac.c ****       case HAL_DAC_MSPDEINIT_CB_ID :
1165:Drivers/STM32F4xx_HAL_Driver/Src/stm32f4xx_hal_dac.c ****         hdac->MspDeInitCallback = pCallback;
1166:Drivers/STM32F4xx_HAL_Driver/Src/stm32f4xx_hal_dac.c ****         break;
1167:Drivers/STM32F4xx_HAL_Driver/Src/stm32f4xx_hal_dac.c ****       default :
1168:Drivers/STM32F4xx_HAL_Driver/Src/stm32f4xx_hal_dac.c ****         /* Update the error code */
1169:Drivers/STM32F4xx_HAL_Driver/Src/stm32f4xx_hal_dac.c ****         hdac->ErrorCode |= HAL_DAC_ERROR_INVALID_CALLBACK;
1170:Drivers/STM32F4xx_HAL_Driver/Src/stm32f4xx_hal_dac.c ****         /* update return status */
1171:Drivers/STM32F4xx_HAL_Driver/Src/stm32f4xx_hal_dac.c ****         status =  HAL_ERROR;
1172:Drivers/STM32F4xx_HAL_Driver/Src/stm32f4xx_hal_dac.c ****         break;
1173:Drivers/STM32F4xx_HAL_Driver/Src/stm32f4xx_hal_dac.c ****     }
1174:Drivers/STM32F4xx_HAL_Driver/Src/stm32f4xx_hal_dac.c ****   }
1175:Drivers/STM32F4xx_HAL_Driver/Src/stm32f4xx_hal_dac.c ****   else
1176:Drivers/STM32F4xx_HAL_Driver/Src/stm32f4xx_hal_dac.c ****   {
1177:Drivers/STM32F4xx_HAL_Driver/Src/stm32f4xx_hal_dac.c ****     /* Update the error code */
1178:Drivers/STM32F4xx_HAL_Driver/Src/stm32f4xx_hal_dac.c ****     hdac->ErrorCode |= HAL_DAC_ERROR_INVALID_CALLBACK;
1179:Drivers/STM32F4xx_HAL_Driver/Src/stm32f4xx_hal_dac.c ****     /* update return status */
1180:Drivers/STM32F4xx_HAL_Driver/Src/stm32f4xx_hal_dac.c ****     status =  HAL_ERROR;
1181:Drivers/STM32F4xx_HAL_Driver/Src/stm32f4xx_hal_dac.c ****   }
1182:Drivers/STM32F4xx_HAL_Driver/Src/stm32f4xx_hal_dac.c **** 
1183:Drivers/STM32F4xx_HAL_Driver/Src/stm32f4xx_hal_dac.c ****   return status;
1184:Drivers/STM32F4xx_HAL_Driver/Src/stm32f4xx_hal_dac.c **** }
1185:Drivers/STM32F4xx_HAL_Driver/Src/stm32f4xx_hal_dac.c **** 
ARM GAS  C:\Users\fish\AppData\Local\Temp\ccNgX8mW.s 			page 38


1186:Drivers/STM32F4xx_HAL_Driver/Src/stm32f4xx_hal_dac.c **** /**
1187:Drivers/STM32F4xx_HAL_Driver/Src/stm32f4xx_hal_dac.c ****   * @brief  Unregister a User DAC Callback
1188:Drivers/STM32F4xx_HAL_Driver/Src/stm32f4xx_hal_dac.c ****   *         DAC Callback is redirected to the weak (overridden) predefined callback
1189:Drivers/STM32F4xx_HAL_Driver/Src/stm32f4xx_hal_dac.c ****   * @note   The HAL_DAC_UnRegisterCallback() may be called before HAL_DAC_Init() in HAL_DAC_STATE_R
1190:Drivers/STM32F4xx_HAL_Driver/Src/stm32f4xx_hal_dac.c ****   *         callbacks for HAL_DAC_MSPINIT_CB_ID and HAL_DAC_MSPDEINIT_CB_ID
1191:Drivers/STM32F4xx_HAL_Driver/Src/stm32f4xx_hal_dac.c ****   * @param  hdac DAC handle
1192:Drivers/STM32F4xx_HAL_Driver/Src/stm32f4xx_hal_dac.c ****   * @param  CallbackID ID of the callback to be unregistered
1193:Drivers/STM32F4xx_HAL_Driver/Src/stm32f4xx_hal_dac.c ****   *         This parameter can be one of the following values:
1194:Drivers/STM32F4xx_HAL_Driver/Src/stm32f4xx_hal_dac.c ****   *          @arg @ref HAL_DAC_CH1_COMPLETE_CB_ID          DAC CH1 transfer Complete Callback ID
1195:Drivers/STM32F4xx_HAL_Driver/Src/stm32f4xx_hal_dac.c ****   *          @arg @ref HAL_DAC_CH1_HALF_COMPLETE_CB_ID     DAC CH1 Half Complete Callback ID
1196:Drivers/STM32F4xx_HAL_Driver/Src/stm32f4xx_hal_dac.c ****   *          @arg @ref HAL_DAC_CH1_ERROR_ID                DAC CH1 Error Callback ID
1197:Drivers/STM32F4xx_HAL_Driver/Src/stm32f4xx_hal_dac.c ****   *          @arg @ref HAL_DAC_CH1_UNDERRUN_CB_ID          DAC CH1 UnderRun Callback ID
1198:Drivers/STM32F4xx_HAL_Driver/Src/stm32f4xx_hal_dac.c ****   *          @arg @ref HAL_DAC_CH2_COMPLETE_CB_ID          DAC CH2 Complete Callback ID
1199:Drivers/STM32F4xx_HAL_Driver/Src/stm32f4xx_hal_dac.c ****   *          @arg @ref HAL_DAC_CH2_HALF_COMPLETE_CB_ID     DAC CH2 Half Complete Callback ID
1200:Drivers/STM32F4xx_HAL_Driver/Src/stm32f4xx_hal_dac.c ****   *          @arg @ref HAL_DAC_CH2_ERROR_ID                DAC CH2 Error Callback ID
1201:Drivers/STM32F4xx_HAL_Driver/Src/stm32f4xx_hal_dac.c ****   *          @arg @ref HAL_DAC_CH2_UNDERRUN_CB_ID          DAC CH2 UnderRun Callback ID
1202:Drivers/STM32F4xx_HAL_Driver/Src/stm32f4xx_hal_dac.c ****   *          @arg @ref HAL_DAC_MSPINIT_CB_ID               DAC MSP Init Callback ID
1203:Drivers/STM32F4xx_HAL_Driver/Src/stm32f4xx_hal_dac.c ****   *          @arg @ref HAL_DAC_MSPDEINIT_CB_ID             DAC MSP DeInit Callback ID
1204:Drivers/STM32F4xx_HAL_Driver/Src/stm32f4xx_hal_dac.c ****   *          @arg @ref HAL_DAC_ALL_CB_ID                   DAC All callbacks
1205:Drivers/STM32F4xx_HAL_Driver/Src/stm32f4xx_hal_dac.c ****   * @retval status
1206:Drivers/STM32F4xx_HAL_Driver/Src/stm32f4xx_hal_dac.c ****   */
1207:Drivers/STM32F4xx_HAL_Driver/Src/stm32f4xx_hal_dac.c **** HAL_StatusTypeDef HAL_DAC_UnRegisterCallback(DAC_HandleTypeDef *hdac, HAL_DAC_CallbackIDTypeDef Cal
1208:Drivers/STM32F4xx_HAL_Driver/Src/stm32f4xx_hal_dac.c **** {
1209:Drivers/STM32F4xx_HAL_Driver/Src/stm32f4xx_hal_dac.c ****   HAL_StatusTypeDef status = HAL_OK;
1210:Drivers/STM32F4xx_HAL_Driver/Src/stm32f4xx_hal_dac.c **** 
1211:Drivers/STM32F4xx_HAL_Driver/Src/stm32f4xx_hal_dac.c ****   /* Check the DAC peripheral handle */
1212:Drivers/STM32F4xx_HAL_Driver/Src/stm32f4xx_hal_dac.c ****   if (hdac == NULL)
1213:Drivers/STM32F4xx_HAL_Driver/Src/stm32f4xx_hal_dac.c ****   {
1214:Drivers/STM32F4xx_HAL_Driver/Src/stm32f4xx_hal_dac.c ****     return HAL_ERROR;
1215:Drivers/STM32F4xx_HAL_Driver/Src/stm32f4xx_hal_dac.c ****   }
1216:Drivers/STM32F4xx_HAL_Driver/Src/stm32f4xx_hal_dac.c **** 
1217:Drivers/STM32F4xx_HAL_Driver/Src/stm32f4xx_hal_dac.c ****   if (hdac->State == HAL_DAC_STATE_READY)
1218:Drivers/STM32F4xx_HAL_Driver/Src/stm32f4xx_hal_dac.c ****   {
1219:Drivers/STM32F4xx_HAL_Driver/Src/stm32f4xx_hal_dac.c ****     switch (CallbackID)
1220:Drivers/STM32F4xx_HAL_Driver/Src/stm32f4xx_hal_dac.c ****     {
1221:Drivers/STM32F4xx_HAL_Driver/Src/stm32f4xx_hal_dac.c ****       case HAL_DAC_CH1_COMPLETE_CB_ID :
1222:Drivers/STM32F4xx_HAL_Driver/Src/stm32f4xx_hal_dac.c ****         hdac->ConvCpltCallbackCh1 = HAL_DAC_ConvCpltCallbackCh1;
1223:Drivers/STM32F4xx_HAL_Driver/Src/stm32f4xx_hal_dac.c ****         break;
1224:Drivers/STM32F4xx_HAL_Driver/Src/stm32f4xx_hal_dac.c ****       case HAL_DAC_CH1_HALF_COMPLETE_CB_ID :
1225:Drivers/STM32F4xx_HAL_Driver/Src/stm32f4xx_hal_dac.c ****         hdac->ConvHalfCpltCallbackCh1 = HAL_DAC_ConvHalfCpltCallbackCh1;
1226:Drivers/STM32F4xx_HAL_Driver/Src/stm32f4xx_hal_dac.c ****         break;
1227:Drivers/STM32F4xx_HAL_Driver/Src/stm32f4xx_hal_dac.c ****       case HAL_DAC_CH1_ERROR_ID :
1228:Drivers/STM32F4xx_HAL_Driver/Src/stm32f4xx_hal_dac.c ****         hdac->ErrorCallbackCh1 = HAL_DAC_ErrorCallbackCh1;
1229:Drivers/STM32F4xx_HAL_Driver/Src/stm32f4xx_hal_dac.c ****         break;
1230:Drivers/STM32F4xx_HAL_Driver/Src/stm32f4xx_hal_dac.c ****       case HAL_DAC_CH1_UNDERRUN_CB_ID :
1231:Drivers/STM32F4xx_HAL_Driver/Src/stm32f4xx_hal_dac.c ****         hdac->DMAUnderrunCallbackCh1 = HAL_DAC_DMAUnderrunCallbackCh1;
1232:Drivers/STM32F4xx_HAL_Driver/Src/stm32f4xx_hal_dac.c ****         break;
1233:Drivers/STM32F4xx_HAL_Driver/Src/stm32f4xx_hal_dac.c **** #if defined(DAC_CHANNEL2_SUPPORT)
1234:Drivers/STM32F4xx_HAL_Driver/Src/stm32f4xx_hal_dac.c ****       case HAL_DAC_CH2_COMPLETE_CB_ID :
1235:Drivers/STM32F4xx_HAL_Driver/Src/stm32f4xx_hal_dac.c ****         hdac->ConvCpltCallbackCh2 = HAL_DACEx_ConvCpltCallbackCh2;
1236:Drivers/STM32F4xx_HAL_Driver/Src/stm32f4xx_hal_dac.c ****         break;
1237:Drivers/STM32F4xx_HAL_Driver/Src/stm32f4xx_hal_dac.c ****       case HAL_DAC_CH2_HALF_COMPLETE_CB_ID :
1238:Drivers/STM32F4xx_HAL_Driver/Src/stm32f4xx_hal_dac.c ****         hdac->ConvHalfCpltCallbackCh2 = HAL_DACEx_ConvHalfCpltCallbackCh2;
1239:Drivers/STM32F4xx_HAL_Driver/Src/stm32f4xx_hal_dac.c ****         break;
1240:Drivers/STM32F4xx_HAL_Driver/Src/stm32f4xx_hal_dac.c ****       case HAL_DAC_CH2_ERROR_ID :
1241:Drivers/STM32F4xx_HAL_Driver/Src/stm32f4xx_hal_dac.c ****         hdac->ErrorCallbackCh2 = HAL_DACEx_ErrorCallbackCh2;
1242:Drivers/STM32F4xx_HAL_Driver/Src/stm32f4xx_hal_dac.c ****         break;
ARM GAS  C:\Users\fish\AppData\Local\Temp\ccNgX8mW.s 			page 39


1243:Drivers/STM32F4xx_HAL_Driver/Src/stm32f4xx_hal_dac.c ****       case HAL_DAC_CH2_UNDERRUN_CB_ID :
1244:Drivers/STM32F4xx_HAL_Driver/Src/stm32f4xx_hal_dac.c ****         hdac->DMAUnderrunCallbackCh2 = HAL_DACEx_DMAUnderrunCallbackCh2;
1245:Drivers/STM32F4xx_HAL_Driver/Src/stm32f4xx_hal_dac.c ****         break;
1246:Drivers/STM32F4xx_HAL_Driver/Src/stm32f4xx_hal_dac.c **** #endif /* DAC_CHANNEL2_SUPPORT */
1247:Drivers/STM32F4xx_HAL_Driver/Src/stm32f4xx_hal_dac.c ****       case HAL_DAC_MSPINIT_CB_ID :
1248:Drivers/STM32F4xx_HAL_Driver/Src/stm32f4xx_hal_dac.c ****         hdac->MspInitCallback = HAL_DAC_MspInit;
1249:Drivers/STM32F4xx_HAL_Driver/Src/stm32f4xx_hal_dac.c ****         break;
1250:Drivers/STM32F4xx_HAL_Driver/Src/stm32f4xx_hal_dac.c ****       case HAL_DAC_MSPDEINIT_CB_ID :
1251:Drivers/STM32F4xx_HAL_Driver/Src/stm32f4xx_hal_dac.c ****         hdac->MspDeInitCallback = HAL_DAC_MspDeInit;
1252:Drivers/STM32F4xx_HAL_Driver/Src/stm32f4xx_hal_dac.c ****         break;
1253:Drivers/STM32F4xx_HAL_Driver/Src/stm32f4xx_hal_dac.c ****       case HAL_DAC_ALL_CB_ID :
1254:Drivers/STM32F4xx_HAL_Driver/Src/stm32f4xx_hal_dac.c ****         hdac->ConvCpltCallbackCh1 = HAL_DAC_ConvCpltCallbackCh1;
1255:Drivers/STM32F4xx_HAL_Driver/Src/stm32f4xx_hal_dac.c ****         hdac->ConvHalfCpltCallbackCh1 = HAL_DAC_ConvHalfCpltCallbackCh1;
1256:Drivers/STM32F4xx_HAL_Driver/Src/stm32f4xx_hal_dac.c ****         hdac->ErrorCallbackCh1 = HAL_DAC_ErrorCallbackCh1;
1257:Drivers/STM32F4xx_HAL_Driver/Src/stm32f4xx_hal_dac.c ****         hdac->DMAUnderrunCallbackCh1 = HAL_DAC_DMAUnderrunCallbackCh1;
1258:Drivers/STM32F4xx_HAL_Driver/Src/stm32f4xx_hal_dac.c **** #if defined(DAC_CHANNEL2_SUPPORT)
1259:Drivers/STM32F4xx_HAL_Driver/Src/stm32f4xx_hal_dac.c ****         hdac->ConvCpltCallbackCh2 = HAL_DACEx_ConvCpltCallbackCh2;
1260:Drivers/STM32F4xx_HAL_Driver/Src/stm32f4xx_hal_dac.c ****         hdac->ConvHalfCpltCallbackCh2 = HAL_DACEx_ConvHalfCpltCallbackCh2;
1261:Drivers/STM32F4xx_HAL_Driver/Src/stm32f4xx_hal_dac.c ****         hdac->ErrorCallbackCh2 = HAL_DACEx_ErrorCallbackCh2;
1262:Drivers/STM32F4xx_HAL_Driver/Src/stm32f4xx_hal_dac.c ****         hdac->DMAUnderrunCallbackCh2 = HAL_DACEx_DMAUnderrunCallbackCh2;
1263:Drivers/STM32F4xx_HAL_Driver/Src/stm32f4xx_hal_dac.c **** #endif /* DAC_CHANNEL2_SUPPORT */
1264:Drivers/STM32F4xx_HAL_Driver/Src/stm32f4xx_hal_dac.c ****         hdac->MspInitCallback = HAL_DAC_MspInit;
1265:Drivers/STM32F4xx_HAL_Driver/Src/stm32f4xx_hal_dac.c ****         hdac->MspDeInitCallback = HAL_DAC_MspDeInit;
1266:Drivers/STM32F4xx_HAL_Driver/Src/stm32f4xx_hal_dac.c ****         break;
1267:Drivers/STM32F4xx_HAL_Driver/Src/stm32f4xx_hal_dac.c ****       default :
1268:Drivers/STM32F4xx_HAL_Driver/Src/stm32f4xx_hal_dac.c ****         /* Update the error code */
1269:Drivers/STM32F4xx_HAL_Driver/Src/stm32f4xx_hal_dac.c ****         hdac->ErrorCode |= HAL_DAC_ERROR_INVALID_CALLBACK;
1270:Drivers/STM32F4xx_HAL_Driver/Src/stm32f4xx_hal_dac.c ****         /* update return status */
1271:Drivers/STM32F4xx_HAL_Driver/Src/stm32f4xx_hal_dac.c ****         status =  HAL_ERROR;
1272:Drivers/STM32F4xx_HAL_Driver/Src/stm32f4xx_hal_dac.c ****         break;
1273:Drivers/STM32F4xx_HAL_Driver/Src/stm32f4xx_hal_dac.c ****     }
1274:Drivers/STM32F4xx_HAL_Driver/Src/stm32f4xx_hal_dac.c ****   }
1275:Drivers/STM32F4xx_HAL_Driver/Src/stm32f4xx_hal_dac.c ****   else if (hdac->State == HAL_DAC_STATE_RESET)
1276:Drivers/STM32F4xx_HAL_Driver/Src/stm32f4xx_hal_dac.c ****   {
1277:Drivers/STM32F4xx_HAL_Driver/Src/stm32f4xx_hal_dac.c ****     switch (CallbackID)
1278:Drivers/STM32F4xx_HAL_Driver/Src/stm32f4xx_hal_dac.c ****     {
1279:Drivers/STM32F4xx_HAL_Driver/Src/stm32f4xx_hal_dac.c ****       case HAL_DAC_MSPINIT_CB_ID :
1280:Drivers/STM32F4xx_HAL_Driver/Src/stm32f4xx_hal_dac.c ****         hdac->MspInitCallback = HAL_DAC_MspInit;
1281:Drivers/STM32F4xx_HAL_Driver/Src/stm32f4xx_hal_dac.c ****         break;
1282:Drivers/STM32F4xx_HAL_Driver/Src/stm32f4xx_hal_dac.c ****       case HAL_DAC_MSPDEINIT_CB_ID :
1283:Drivers/STM32F4xx_HAL_Driver/Src/stm32f4xx_hal_dac.c ****         hdac->MspDeInitCallback = HAL_DAC_MspDeInit;
1284:Drivers/STM32F4xx_HAL_Driver/Src/stm32f4xx_hal_dac.c ****         break;
1285:Drivers/STM32F4xx_HAL_Driver/Src/stm32f4xx_hal_dac.c ****       default :
1286:Drivers/STM32F4xx_HAL_Driver/Src/stm32f4xx_hal_dac.c ****         /* Update the error code */
1287:Drivers/STM32F4xx_HAL_Driver/Src/stm32f4xx_hal_dac.c ****         hdac->ErrorCode |= HAL_DAC_ERROR_INVALID_CALLBACK;
1288:Drivers/STM32F4xx_HAL_Driver/Src/stm32f4xx_hal_dac.c ****         /* update return status */
1289:Drivers/STM32F4xx_HAL_Driver/Src/stm32f4xx_hal_dac.c ****         status =  HAL_ERROR;
1290:Drivers/STM32F4xx_HAL_Driver/Src/stm32f4xx_hal_dac.c ****         break;
1291:Drivers/STM32F4xx_HAL_Driver/Src/stm32f4xx_hal_dac.c ****     }
1292:Drivers/STM32F4xx_HAL_Driver/Src/stm32f4xx_hal_dac.c ****   }
1293:Drivers/STM32F4xx_HAL_Driver/Src/stm32f4xx_hal_dac.c ****   else
1294:Drivers/STM32F4xx_HAL_Driver/Src/stm32f4xx_hal_dac.c ****   {
1295:Drivers/STM32F4xx_HAL_Driver/Src/stm32f4xx_hal_dac.c ****     /* Update the error code */
1296:Drivers/STM32F4xx_HAL_Driver/Src/stm32f4xx_hal_dac.c ****     hdac->ErrorCode |= HAL_DAC_ERROR_INVALID_CALLBACK;
1297:Drivers/STM32F4xx_HAL_Driver/Src/stm32f4xx_hal_dac.c ****     /* update return status */
1298:Drivers/STM32F4xx_HAL_Driver/Src/stm32f4xx_hal_dac.c ****     status =  HAL_ERROR;
1299:Drivers/STM32F4xx_HAL_Driver/Src/stm32f4xx_hal_dac.c ****   }
ARM GAS  C:\Users\fish\AppData\Local\Temp\ccNgX8mW.s 			page 40


1300:Drivers/STM32F4xx_HAL_Driver/Src/stm32f4xx_hal_dac.c **** 
1301:Drivers/STM32F4xx_HAL_Driver/Src/stm32f4xx_hal_dac.c ****   return status;
1302:Drivers/STM32F4xx_HAL_Driver/Src/stm32f4xx_hal_dac.c **** }
1303:Drivers/STM32F4xx_HAL_Driver/Src/stm32f4xx_hal_dac.c **** #endif /* USE_HAL_DAC_REGISTER_CALLBACKS */
1304:Drivers/STM32F4xx_HAL_Driver/Src/stm32f4xx_hal_dac.c **** 
1305:Drivers/STM32F4xx_HAL_Driver/Src/stm32f4xx_hal_dac.c **** /**
1306:Drivers/STM32F4xx_HAL_Driver/Src/stm32f4xx_hal_dac.c ****   * @}
1307:Drivers/STM32F4xx_HAL_Driver/Src/stm32f4xx_hal_dac.c ****   */
1308:Drivers/STM32F4xx_HAL_Driver/Src/stm32f4xx_hal_dac.c **** 
1309:Drivers/STM32F4xx_HAL_Driver/Src/stm32f4xx_hal_dac.c **** /**
1310:Drivers/STM32F4xx_HAL_Driver/Src/stm32f4xx_hal_dac.c ****   * @}
1311:Drivers/STM32F4xx_HAL_Driver/Src/stm32f4xx_hal_dac.c ****   */
1312:Drivers/STM32F4xx_HAL_Driver/Src/stm32f4xx_hal_dac.c **** 
1313:Drivers/STM32F4xx_HAL_Driver/Src/stm32f4xx_hal_dac.c **** /** @addtogroup DAC_Private_Functions
1314:Drivers/STM32F4xx_HAL_Driver/Src/stm32f4xx_hal_dac.c ****   * @{
1315:Drivers/STM32F4xx_HAL_Driver/Src/stm32f4xx_hal_dac.c ****   */
1316:Drivers/STM32F4xx_HAL_Driver/Src/stm32f4xx_hal_dac.c **** 
1317:Drivers/STM32F4xx_HAL_Driver/Src/stm32f4xx_hal_dac.c **** /**
1318:Drivers/STM32F4xx_HAL_Driver/Src/stm32f4xx_hal_dac.c ****   * @brief  DMA conversion complete callback.
1319:Drivers/STM32F4xx_HAL_Driver/Src/stm32f4xx_hal_dac.c ****   * @param  hdma pointer to a DMA_HandleTypeDef structure that contains
1320:Drivers/STM32F4xx_HAL_Driver/Src/stm32f4xx_hal_dac.c ****   *                the configuration information for the specified DMA module.
1321:Drivers/STM32F4xx_HAL_Driver/Src/stm32f4xx_hal_dac.c ****   * @retval None
1322:Drivers/STM32F4xx_HAL_Driver/Src/stm32f4xx_hal_dac.c ****   */
1323:Drivers/STM32F4xx_HAL_Driver/Src/stm32f4xx_hal_dac.c **** void DAC_DMAConvCpltCh1(DMA_HandleTypeDef *hdma)
1324:Drivers/STM32F4xx_HAL_Driver/Src/stm32f4xx_hal_dac.c **** {
 839              		.loc 1 1324 1 is_stmt 1 view -0
 840              		.cfi_startproc
 841              		@ args = 0, pretend = 0, frame = 0
 842              		@ frame_needed = 0, uses_anonymous_args = 0
 843              		.loc 1 1324 1 is_stmt 0 view .LVU249
 844 0000 10B5     		push	{r4, lr}
 845              		.cfi_def_cfa_offset 8
 846              		.cfi_offset 4, -8
 847              		.cfi_offset 14, -4
1325:Drivers/STM32F4xx_HAL_Driver/Src/stm32f4xx_hal_dac.c ****   DAC_HandleTypeDef *hdac = (DAC_HandleTypeDef *)((DMA_HandleTypeDef *)hdma)->Parent;
 848              		.loc 1 1325 3 is_stmt 1 view .LVU250
 849              		.loc 1 1325 22 is_stmt 0 view .LVU251
 850 0002 846B     		ldr	r4, [r0, #56]
 851              	.LVL67:
1326:Drivers/STM32F4xx_HAL_Driver/Src/stm32f4xx_hal_dac.c **** 
1327:Drivers/STM32F4xx_HAL_Driver/Src/stm32f4xx_hal_dac.c **** #if (USE_HAL_DAC_REGISTER_CALLBACKS == 1)
1328:Drivers/STM32F4xx_HAL_Driver/Src/stm32f4xx_hal_dac.c ****   hdac->ConvCpltCallbackCh1(hdac);
1329:Drivers/STM32F4xx_HAL_Driver/Src/stm32f4xx_hal_dac.c **** #else
1330:Drivers/STM32F4xx_HAL_Driver/Src/stm32f4xx_hal_dac.c ****   HAL_DAC_ConvCpltCallbackCh1(hdac);
 852              		.loc 1 1330 3 is_stmt 1 view .LVU252
 853 0004 2046     		mov	r0, r4
 854              	.LVL68:
 855              		.loc 1 1330 3 is_stmt 0 view .LVU253
 856 0006 FFF7FEFF 		bl	HAL_DAC_ConvCpltCallbackCh1
 857              	.LVL69:
1331:Drivers/STM32F4xx_HAL_Driver/Src/stm32f4xx_hal_dac.c **** #endif /* USE_HAL_DAC_REGISTER_CALLBACKS */
1332:Drivers/STM32F4xx_HAL_Driver/Src/stm32f4xx_hal_dac.c **** 
1333:Drivers/STM32F4xx_HAL_Driver/Src/stm32f4xx_hal_dac.c ****   hdac->State = HAL_DAC_STATE_READY;
 858              		.loc 1 1333 3 is_stmt 1 view .LVU254
 859              		.loc 1 1333 15 is_stmt 0 view .LVU255
 860 000a 0123     		movs	r3, #1
 861 000c 2371     		strb	r3, [r4, #4]
ARM GAS  C:\Users\fish\AppData\Local\Temp\ccNgX8mW.s 			page 41


1334:Drivers/STM32F4xx_HAL_Driver/Src/stm32f4xx_hal_dac.c **** }
 862              		.loc 1 1334 1 view .LVU256
 863 000e 10BD     		pop	{r4, pc}
 864              		.loc 1 1334 1 view .LVU257
 865              		.cfi_endproc
 866              	.LFE257:
 868              		.section	.text.HAL_DAC_ConvHalfCpltCallbackCh1,"ax",%progbits
 869              		.align	1
 870              		.weak	HAL_DAC_ConvHalfCpltCallbackCh1
 871              		.syntax unified
 872              		.thumb
 873              		.thumb_func
 875              	HAL_DAC_ConvHalfCpltCallbackCh1:
 876              	.LVL70:
 877              	.LFB250:
 857:Drivers/STM32F4xx_HAL_Driver/Src/stm32f4xx_hal_dac.c ****   /* Prevent unused argument(s) compilation warning */
 878              		.loc 1 857 1 is_stmt 1 view -0
 879              		.cfi_startproc
 880              		@ args = 0, pretend = 0, frame = 0
 881              		@ frame_needed = 0, uses_anonymous_args = 0
 882              		@ link register save eliminated.
 859:Drivers/STM32F4xx_HAL_Driver/Src/stm32f4xx_hal_dac.c **** 
 883              		.loc 1 859 3 view .LVU259
 864:Drivers/STM32F4xx_HAL_Driver/Src/stm32f4xx_hal_dac.c **** 
 884              		.loc 1 864 1 is_stmt 0 view .LVU260
 885 0000 7047     		bx	lr
 886              		.cfi_endproc
 887              	.LFE250:
 889              		.section	.text.DAC_DMAHalfConvCpltCh1,"ax",%progbits
 890              		.align	1
 891              		.global	DAC_DMAHalfConvCpltCh1
 892              		.syntax unified
 893              		.thumb
 894              		.thumb_func
 896              	DAC_DMAHalfConvCpltCh1:
 897              	.LVL71:
 898              	.LFB258:
1335:Drivers/STM32F4xx_HAL_Driver/Src/stm32f4xx_hal_dac.c **** 
1336:Drivers/STM32F4xx_HAL_Driver/Src/stm32f4xx_hal_dac.c **** /**
1337:Drivers/STM32F4xx_HAL_Driver/Src/stm32f4xx_hal_dac.c ****   * @brief  DMA half transfer complete callback.
1338:Drivers/STM32F4xx_HAL_Driver/Src/stm32f4xx_hal_dac.c ****   * @param  hdma pointer to a DMA_HandleTypeDef structure that contains
1339:Drivers/STM32F4xx_HAL_Driver/Src/stm32f4xx_hal_dac.c ****   *                the configuration information for the specified DMA module.
1340:Drivers/STM32F4xx_HAL_Driver/Src/stm32f4xx_hal_dac.c ****   * @retval None
1341:Drivers/STM32F4xx_HAL_Driver/Src/stm32f4xx_hal_dac.c ****   */
1342:Drivers/STM32F4xx_HAL_Driver/Src/stm32f4xx_hal_dac.c **** void DAC_DMAHalfConvCpltCh1(DMA_HandleTypeDef *hdma)
1343:Drivers/STM32F4xx_HAL_Driver/Src/stm32f4xx_hal_dac.c **** {
 899              		.loc 1 1343 1 is_stmt 1 view -0
 900              		.cfi_startproc
 901              		@ args = 0, pretend = 0, frame = 0
 902              		@ frame_needed = 0, uses_anonymous_args = 0
 903              		.loc 1 1343 1 is_stmt 0 view .LVU262
 904 0000 08B5     		push	{r3, lr}
 905              		.cfi_def_cfa_offset 8
 906              		.cfi_offset 3, -8
 907              		.cfi_offset 14, -4
1344:Drivers/STM32F4xx_HAL_Driver/Src/stm32f4xx_hal_dac.c ****   DAC_HandleTypeDef *hdac = (DAC_HandleTypeDef *)((DMA_HandleTypeDef *)hdma)->Parent;
 908              		.loc 1 1344 3 is_stmt 1 view .LVU263
ARM GAS  C:\Users\fish\AppData\Local\Temp\ccNgX8mW.s 			page 42


 909              	.LVL72:
1345:Drivers/STM32F4xx_HAL_Driver/Src/stm32f4xx_hal_dac.c ****   /* Conversion complete callback */
1346:Drivers/STM32F4xx_HAL_Driver/Src/stm32f4xx_hal_dac.c **** #if (USE_HAL_DAC_REGISTER_CALLBACKS == 1)
1347:Drivers/STM32F4xx_HAL_Driver/Src/stm32f4xx_hal_dac.c ****   hdac->ConvHalfCpltCallbackCh1(hdac);
1348:Drivers/STM32F4xx_HAL_Driver/Src/stm32f4xx_hal_dac.c **** #else
1349:Drivers/STM32F4xx_HAL_Driver/Src/stm32f4xx_hal_dac.c ****   HAL_DAC_ConvHalfCpltCallbackCh1(hdac);
 910              		.loc 1 1349 3 view .LVU264
 911 0002 806B     		ldr	r0, [r0, #56]
 912              	.LVL73:
 913              		.loc 1 1349 3 is_stmt 0 view .LVU265
 914 0004 FFF7FEFF 		bl	HAL_DAC_ConvHalfCpltCallbackCh1
 915              	.LVL74:
1350:Drivers/STM32F4xx_HAL_Driver/Src/stm32f4xx_hal_dac.c **** #endif  /* USE_HAL_DAC_REGISTER_CALLBACKS */
1351:Drivers/STM32F4xx_HAL_Driver/Src/stm32f4xx_hal_dac.c **** }
 916              		.loc 1 1351 1 view .LVU266
 917 0008 08BD     		pop	{r3, pc}
 918              		.cfi_endproc
 919              	.LFE258:
 921              		.section	.text.HAL_DAC_ErrorCallbackCh1,"ax",%progbits
 922              		.align	1
 923              		.weak	HAL_DAC_ErrorCallbackCh1
 924              		.syntax unified
 925              		.thumb
 926              		.thumb_func
 928              	HAL_DAC_ErrorCallbackCh1:
 929              	.LVL75:
 930              	.LFB251:
 873:Drivers/STM32F4xx_HAL_Driver/Src/stm32f4xx_hal_dac.c ****   /* Prevent unused argument(s) compilation warning */
 931              		.loc 1 873 1 is_stmt 1 view -0
 932              		.cfi_startproc
 933              		@ args = 0, pretend = 0, frame = 0
 934              		@ frame_needed = 0, uses_anonymous_args = 0
 935              		@ link register save eliminated.
 875:Drivers/STM32F4xx_HAL_Driver/Src/stm32f4xx_hal_dac.c **** 
 936              		.loc 1 875 3 view .LVU268
 880:Drivers/STM32F4xx_HAL_Driver/Src/stm32f4xx_hal_dac.c **** 
 937              		.loc 1 880 1 is_stmt 0 view .LVU269
 938 0000 7047     		bx	lr
 939              		.cfi_endproc
 940              	.LFE251:
 942              		.section	.text.DAC_DMAErrorCh1,"ax",%progbits
 943              		.align	1
 944              		.global	DAC_DMAErrorCh1
 945              		.syntax unified
 946              		.thumb
 947              		.thumb_func
 949              	DAC_DMAErrorCh1:
 950              	.LVL76:
 951              	.LFB259:
1352:Drivers/STM32F4xx_HAL_Driver/Src/stm32f4xx_hal_dac.c **** 
1353:Drivers/STM32F4xx_HAL_Driver/Src/stm32f4xx_hal_dac.c **** /**
1354:Drivers/STM32F4xx_HAL_Driver/Src/stm32f4xx_hal_dac.c ****   * @brief  DMA error callback
1355:Drivers/STM32F4xx_HAL_Driver/Src/stm32f4xx_hal_dac.c ****   * @param  hdma pointer to a DMA_HandleTypeDef structure that contains
1356:Drivers/STM32F4xx_HAL_Driver/Src/stm32f4xx_hal_dac.c ****   *                the configuration information for the specified DMA module.
1357:Drivers/STM32F4xx_HAL_Driver/Src/stm32f4xx_hal_dac.c ****   * @retval None
1358:Drivers/STM32F4xx_HAL_Driver/Src/stm32f4xx_hal_dac.c ****   */
1359:Drivers/STM32F4xx_HAL_Driver/Src/stm32f4xx_hal_dac.c **** void DAC_DMAErrorCh1(DMA_HandleTypeDef *hdma)
ARM GAS  C:\Users\fish\AppData\Local\Temp\ccNgX8mW.s 			page 43


1360:Drivers/STM32F4xx_HAL_Driver/Src/stm32f4xx_hal_dac.c **** {
 952              		.loc 1 1360 1 is_stmt 1 view -0
 953              		.cfi_startproc
 954              		@ args = 0, pretend = 0, frame = 0
 955              		@ frame_needed = 0, uses_anonymous_args = 0
 956              		.loc 1 1360 1 is_stmt 0 view .LVU271
 957 0000 10B5     		push	{r4, lr}
 958              		.cfi_def_cfa_offset 8
 959              		.cfi_offset 4, -8
 960              		.cfi_offset 14, -4
1361:Drivers/STM32F4xx_HAL_Driver/Src/stm32f4xx_hal_dac.c ****   DAC_HandleTypeDef *hdac = (DAC_HandleTypeDef *)((DMA_HandleTypeDef *)hdma)->Parent;
 961              		.loc 1 1361 3 is_stmt 1 view .LVU272
 962              		.loc 1 1361 22 is_stmt 0 view .LVU273
 963 0002 846B     		ldr	r4, [r0, #56]
 964              	.LVL77:
1362:Drivers/STM32F4xx_HAL_Driver/Src/stm32f4xx_hal_dac.c **** 
1363:Drivers/STM32F4xx_HAL_Driver/Src/stm32f4xx_hal_dac.c ****   /* Set DAC error code to DMA error */
1364:Drivers/STM32F4xx_HAL_Driver/Src/stm32f4xx_hal_dac.c ****   hdac->ErrorCode |= HAL_DAC_ERROR_DMA;
 965              		.loc 1 1364 3 is_stmt 1 view .LVU274
 966              		.loc 1 1364 7 is_stmt 0 view .LVU275
 967 0004 2369     		ldr	r3, [r4, #16]
 968              		.loc 1 1364 19 view .LVU276
 969 0006 43F00403 		orr	r3, r3, #4
 970 000a 2361     		str	r3, [r4, #16]
1365:Drivers/STM32F4xx_HAL_Driver/Src/stm32f4xx_hal_dac.c **** 
1366:Drivers/STM32F4xx_HAL_Driver/Src/stm32f4xx_hal_dac.c **** #if (USE_HAL_DAC_REGISTER_CALLBACKS == 1)
1367:Drivers/STM32F4xx_HAL_Driver/Src/stm32f4xx_hal_dac.c ****   hdac->ErrorCallbackCh1(hdac);
1368:Drivers/STM32F4xx_HAL_Driver/Src/stm32f4xx_hal_dac.c **** #else
1369:Drivers/STM32F4xx_HAL_Driver/Src/stm32f4xx_hal_dac.c ****   HAL_DAC_ErrorCallbackCh1(hdac);
 971              		.loc 1 1369 3 is_stmt 1 view .LVU277
 972 000c 2046     		mov	r0, r4
 973              	.LVL78:
 974              		.loc 1 1369 3 is_stmt 0 view .LVU278
 975 000e FFF7FEFF 		bl	HAL_DAC_ErrorCallbackCh1
 976              	.LVL79:
1370:Drivers/STM32F4xx_HAL_Driver/Src/stm32f4xx_hal_dac.c **** #endif /* USE_HAL_DAC_REGISTER_CALLBACKS */
1371:Drivers/STM32F4xx_HAL_Driver/Src/stm32f4xx_hal_dac.c **** 
1372:Drivers/STM32F4xx_HAL_Driver/Src/stm32f4xx_hal_dac.c ****   hdac->State = HAL_DAC_STATE_READY;
 977              		.loc 1 1372 3 is_stmt 1 view .LVU279
 978              		.loc 1 1372 15 is_stmt 0 view .LVU280
 979 0012 0123     		movs	r3, #1
 980 0014 2371     		strb	r3, [r4, #4]
1373:Drivers/STM32F4xx_HAL_Driver/Src/stm32f4xx_hal_dac.c **** }
 981              		.loc 1 1373 1 view .LVU281
 982 0016 10BD     		pop	{r4, pc}
 983              		.loc 1 1373 1 view .LVU282
 984              		.cfi_endproc
 985              	.LFE259:
 987              		.section	.text.HAL_DAC_DMAUnderrunCallbackCh1,"ax",%progbits
 988              		.align	1
 989              		.weak	HAL_DAC_DMAUnderrunCallbackCh1
 990              		.syntax unified
 991              		.thumb
 992              		.thumb_func
 994              	HAL_DAC_DMAUnderrunCallbackCh1:
 995              	.LVL80:
 996              	.LFB252:
ARM GAS  C:\Users\fish\AppData\Local\Temp\ccNgX8mW.s 			page 44


 889:Drivers/STM32F4xx_HAL_Driver/Src/stm32f4xx_hal_dac.c ****   /* Prevent unused argument(s) compilation warning */
 997              		.loc 1 889 1 is_stmt 1 view -0
 998              		.cfi_startproc
 999              		@ args = 0, pretend = 0, frame = 0
 1000              		@ frame_needed = 0, uses_anonymous_args = 0
 1001              		@ link register save eliminated.
 891:Drivers/STM32F4xx_HAL_Driver/Src/stm32f4xx_hal_dac.c **** 
 1002              		.loc 1 891 3 view .LVU284
 896:Drivers/STM32F4xx_HAL_Driver/Src/stm32f4xx_hal_dac.c **** 
 1003              		.loc 1 896 1 is_stmt 0 view .LVU285
 1004 0000 7047     		bx	lr
 1005              		.cfi_endproc
 1006              	.LFE252:
 1008              		.section	.text.HAL_DAC_IRQHandler,"ax",%progbits
 1009              		.align	1
 1010              		.global	HAL_DAC_IRQHandler
 1011              		.syntax unified
 1012              		.thumb
 1013              		.thumb_func
 1015              	HAL_DAC_IRQHandler:
 1016              	.LVL81:
 1017              	.LFB247:
 725:Drivers/STM32F4xx_HAL_Driver/Src/stm32f4xx_hal_dac.c ****   uint32_t itsource = hdac->Instance->CR;
 1018              		.loc 1 725 1 is_stmt 1 view -0
 1019              		.cfi_startproc
 1020              		@ args = 0, pretend = 0, frame = 0
 1021              		@ frame_needed = 0, uses_anonymous_args = 0
 725:Drivers/STM32F4xx_HAL_Driver/Src/stm32f4xx_hal_dac.c ****   uint32_t itsource = hdac->Instance->CR;
 1022              		.loc 1 725 1 is_stmt 0 view .LVU287
 1023 0000 70B5     		push	{r4, r5, r6, lr}
 1024              		.cfi_def_cfa_offset 16
 1025              		.cfi_offset 4, -16
 1026              		.cfi_offset 5, -12
 1027              		.cfi_offset 6, -8
 1028              		.cfi_offset 14, -4
 1029 0002 0446     		mov	r4, r0
 726:Drivers/STM32F4xx_HAL_Driver/Src/stm32f4xx_hal_dac.c ****   uint32_t itflag   = hdac->Instance->SR;
 1030              		.loc 1 726 3 is_stmt 1 view .LVU288
 726:Drivers/STM32F4xx_HAL_Driver/Src/stm32f4xx_hal_dac.c ****   uint32_t itflag   = hdac->Instance->SR;
 1031              		.loc 1 726 27 is_stmt 0 view .LVU289
 1032 0004 0368     		ldr	r3, [r0]
 726:Drivers/STM32F4xx_HAL_Driver/Src/stm32f4xx_hal_dac.c ****   uint32_t itflag   = hdac->Instance->SR;
 1033              		.loc 1 726 12 view .LVU290
 1034 0006 1D68     		ldr	r5, [r3]
 1035              	.LVL82:
 727:Drivers/STM32F4xx_HAL_Driver/Src/stm32f4xx_hal_dac.c **** 
 1036              		.loc 1 727 3 is_stmt 1 view .LVU291
 727:Drivers/STM32F4xx_HAL_Driver/Src/stm32f4xx_hal_dac.c **** 
 1037              		.loc 1 727 12 is_stmt 0 view .LVU292
 1038 0008 5E6B     		ldr	r6, [r3, #52]
 1039              	.LVL83:
 729:Drivers/STM32F4xx_HAL_Driver/Src/stm32f4xx_hal_dac.c ****   {
 1040              		.loc 1 729 3 is_stmt 1 view .LVU293
 729:Drivers/STM32F4xx_HAL_Driver/Src/stm32f4xx_hal_dac.c ****   {
 1041              		.loc 1 729 6 is_stmt 0 view .LVU294
 1042 000a 15F4005F 		tst	r5, #8192
 1043 000e 02D0     		beq	.L83
ARM GAS  C:\Users\fish\AppData\Local\Temp\ccNgX8mW.s 			page 45


 732:Drivers/STM32F4xx_HAL_Driver/Src/stm32f4xx_hal_dac.c ****     {
 1044              		.loc 1 732 5 is_stmt 1 view .LVU295
 732:Drivers/STM32F4xx_HAL_Driver/Src/stm32f4xx_hal_dac.c ****     {
 1045              		.loc 1 732 8 is_stmt 0 view .LVU296
 1046 0010 16F4005F 		tst	r6, #8192
 1047 0014 06D1     		bne	.L86
 1048              	.LVL84:
 1049              	.L83:
 756:Drivers/STM32F4xx_HAL_Driver/Src/stm32f4xx_hal_dac.c ****   {
 1050              		.loc 1 756 3 is_stmt 1 view .LVU297
 756:Drivers/STM32F4xx_HAL_Driver/Src/stm32f4xx_hal_dac.c ****   {
 1051              		.loc 1 756 6 is_stmt 0 view .LVU298
 1052 0016 15F0005F 		tst	r5, #536870912
 1053 001a 02D0     		beq	.L82
 759:Drivers/STM32F4xx_HAL_Driver/Src/stm32f4xx_hal_dac.c ****     {
 1054              		.loc 1 759 5 is_stmt 1 view .LVU299
 759:Drivers/STM32F4xx_HAL_Driver/Src/stm32f4xx_hal_dac.c ****     {
 1055              		.loc 1 759 8 is_stmt 0 view .LVU300
 1056 001c 16F0005F 		tst	r6, #536870912
 1057 0020 11D1     		bne	.L87
 1058              	.L82:
 782:Drivers/STM32F4xx_HAL_Driver/Src/stm32f4xx_hal_dac.c **** 
 1059              		.loc 1 782 1 view .LVU301
 1060 0022 70BD     		pop	{r4, r5, r6, pc}
 1061              	.LVL85:
 1062              	.L86:
 735:Drivers/STM32F4xx_HAL_Driver/Src/stm32f4xx_hal_dac.c **** 
 1063              		.loc 1 735 7 is_stmt 1 view .LVU302
 735:Drivers/STM32F4xx_HAL_Driver/Src/stm32f4xx_hal_dac.c **** 
 1064              		.loc 1 735 19 is_stmt 0 view .LVU303
 1065 0024 0422     		movs	r2, #4
 1066 0026 0271     		strb	r2, [r0, #4]
 738:Drivers/STM32F4xx_HAL_Driver/Src/stm32f4xx_hal_dac.c **** 
 1067              		.loc 1 738 7 is_stmt 1 view .LVU304
 1068 0028 0269     		ldr	r2, [r0, #16]
 1069 002a 42F00102 		orr	r2, r2, #1
 1070 002e 0261     		str	r2, [r0, #16]
 741:Drivers/STM32F4xx_HAL_Driver/Src/stm32f4xx_hal_dac.c **** 
 1071              		.loc 1 741 7 view .LVU305
 1072 0030 4FF40052 		mov	r2, #8192
 1073 0034 5A63     		str	r2, [r3, #52]
 744:Drivers/STM32F4xx_HAL_Driver/Src/stm32f4xx_hal_dac.c **** 
 1074              		.loc 1 744 7 view .LVU306
 1075 0036 0268     		ldr	r2, [r0]
 1076 0038 1368     		ldr	r3, [r2]
 1077 003a 23F48053 		bic	r3, r3, #4096
 1078 003e 1360     		str	r3, [r2]
 750:Drivers/STM32F4xx_HAL_Driver/Src/stm32f4xx_hal_dac.c **** #endif /* USE_HAL_DAC_REGISTER_CALLBACKS */
 1079              		.loc 1 750 7 view .LVU307
 1080 0040 FFF7FEFF 		bl	HAL_DAC_DMAUnderrunCallbackCh1
 1081              	.LVL86:
 750:Drivers/STM32F4xx_HAL_Driver/Src/stm32f4xx_hal_dac.c **** #endif /* USE_HAL_DAC_REGISTER_CALLBACKS */
 1082              		.loc 1 750 7 is_stmt 0 view .LVU308
 1083 0044 E7E7     		b	.L83
 1084              	.L87:
 762:Drivers/STM32F4xx_HAL_Driver/Src/stm32f4xx_hal_dac.c **** 
 1085              		.loc 1 762 7 is_stmt 1 view .LVU309
ARM GAS  C:\Users\fish\AppData\Local\Temp\ccNgX8mW.s 			page 46


 762:Drivers/STM32F4xx_HAL_Driver/Src/stm32f4xx_hal_dac.c **** 
 1086              		.loc 1 762 19 is_stmt 0 view .LVU310
 1087 0046 0423     		movs	r3, #4
 1088 0048 2371     		strb	r3, [r4, #4]
 765:Drivers/STM32F4xx_HAL_Driver/Src/stm32f4xx_hal_dac.c **** 
 1089              		.loc 1 765 7 is_stmt 1 view .LVU311
 1090 004a 2369     		ldr	r3, [r4, #16]
 1091 004c 43F00203 		orr	r3, r3, #2
 1092 0050 2361     		str	r3, [r4, #16]
 768:Drivers/STM32F4xx_HAL_Driver/Src/stm32f4xx_hal_dac.c **** 
 1093              		.loc 1 768 7 view .LVU312
 1094 0052 2368     		ldr	r3, [r4]
 1095 0054 4FF00052 		mov	r2, #536870912
 1096 0058 5A63     		str	r2, [r3, #52]
 771:Drivers/STM32F4xx_HAL_Driver/Src/stm32f4xx_hal_dac.c **** 
 1097              		.loc 1 771 7 view .LVU313
 1098 005a 2268     		ldr	r2, [r4]
 1099 005c 1368     		ldr	r3, [r2]
 1100 005e 23F08053 		bic	r3, r3, #268435456
 1101 0062 1360     		str	r3, [r2]
 777:Drivers/STM32F4xx_HAL_Driver/Src/stm32f4xx_hal_dac.c **** #endif /* USE_HAL_DAC_REGISTER_CALLBACKS */
 1102              		.loc 1 777 7 view .LVU314
 1103 0064 2046     		mov	r0, r4
 1104 0066 FFF7FEFF 		bl	HAL_DACEx_DMAUnderrunCallbackCh2
 1105              	.LVL87:
 782:Drivers/STM32F4xx_HAL_Driver/Src/stm32f4xx_hal_dac.c **** 
 1106              		.loc 1 782 1 is_stmt 0 view .LVU315
 1107 006a DAE7     		b	.L82
 1108              		.cfi_endproc
 1109              	.LFE247:
 1111              		.section	.text.HAL_DAC_GetValue,"ax",%progbits
 1112              		.align	1
 1113              		.global	HAL_DAC_GetValue
 1114              		.syntax unified
 1115              		.thumb
 1116              		.thumb_func
 1118              	HAL_DAC_GetValue:
 1119              	.LVL88:
 1120              	.LFB253:
 928:Drivers/STM32F4xx_HAL_Driver/Src/stm32f4xx_hal_dac.c ****   uint32_t result = 0;
 1121              		.loc 1 928 1 is_stmt 1 view -0
 1122              		.cfi_startproc
 1123              		@ args = 0, pretend = 0, frame = 0
 1124              		@ frame_needed = 0, uses_anonymous_args = 0
 1125              		@ link register save eliminated.
 929:Drivers/STM32F4xx_HAL_Driver/Src/stm32f4xx_hal_dac.c **** 
 1126              		.loc 1 929 3 view .LVU317
 932:Drivers/STM32F4xx_HAL_Driver/Src/stm32f4xx_hal_dac.c **** 
 1127              		.loc 1 932 3 view .LVU318
 935:Drivers/STM32F4xx_HAL_Driver/Src/stm32f4xx_hal_dac.c **** 
 1128              		.loc 1 935 3 view .LVU319
 937:Drivers/STM32F4xx_HAL_Driver/Src/stm32f4xx_hal_dac.c ****   {
 1129              		.loc 1 937 3 view .LVU320
 937:Drivers/STM32F4xx_HAL_Driver/Src/stm32f4xx_hal_dac.c ****   {
 1130              		.loc 1 937 6 is_stmt 0 view .LVU321
 1131 0000 11B9     		cbnz	r1, .L89
 939:Drivers/STM32F4xx_HAL_Driver/Src/stm32f4xx_hal_dac.c ****   }
ARM GAS  C:\Users\fish\AppData\Local\Temp\ccNgX8mW.s 			page 47


 1132              		.loc 1 939 5 is_stmt 1 view .LVU322
 939:Drivers/STM32F4xx_HAL_Driver/Src/stm32f4xx_hal_dac.c ****   }
 1133              		.loc 1 939 18 is_stmt 0 view .LVU323
 1134 0002 0368     		ldr	r3, [r0]
 939:Drivers/STM32F4xx_HAL_Driver/Src/stm32f4xx_hal_dac.c ****   }
 1135              		.loc 1 939 12 view .LVU324
 1136 0004 D86A     		ldr	r0, [r3, #44]
 1137              	.LVL89:
 939:Drivers/STM32F4xx_HAL_Driver/Src/stm32f4xx_hal_dac.c ****   }
 1138              		.loc 1 939 12 view .LVU325
 1139 0006 7047     		bx	lr
 1140              	.LVL90:
 1141              	.L89:
 944:Drivers/STM32F4xx_HAL_Driver/Src/stm32f4xx_hal_dac.c ****   }
 1142              		.loc 1 944 5 is_stmt 1 view .LVU326
 944:Drivers/STM32F4xx_HAL_Driver/Src/stm32f4xx_hal_dac.c ****   }
 1143              		.loc 1 944 18 is_stmt 0 view .LVU327
 1144 0008 0368     		ldr	r3, [r0]
 944:Drivers/STM32F4xx_HAL_Driver/Src/stm32f4xx_hal_dac.c ****   }
 1145              		.loc 1 944 12 view .LVU328
 1146 000a 186B     		ldr	r0, [r3, #48]
 1147              	.LVL91:
 948:Drivers/STM32F4xx_HAL_Driver/Src/stm32f4xx_hal_dac.c **** }
 1148              		.loc 1 948 3 is_stmt 1 view .LVU329
 949:Drivers/STM32F4xx_HAL_Driver/Src/stm32f4xx_hal_dac.c **** 
 1149              		.loc 1 949 1 is_stmt 0 view .LVU330
 1150 000c 7047     		bx	lr
 1151              		.cfi_endproc
 1152              	.LFE253:
 1154              		.section	.text.HAL_DAC_ConfigChannel,"ax",%progbits
 1155              		.align	1
 1156              		.global	HAL_DAC_ConfigChannel
 1157              		.syntax unified
 1158              		.thumb
 1159              		.thumb_func
 1161              	HAL_DAC_ConfigChannel:
 1162              	.LVL92:
 1163              	.LFB254:
 964:Drivers/STM32F4xx_HAL_Driver/Src/stm32f4xx_hal_dac.c ****   HAL_StatusTypeDef status = HAL_OK;
 1164              		.loc 1 964 1 is_stmt 1 view -0
 1165              		.cfi_startproc
 1166              		@ args = 0, pretend = 0, frame = 0
 1167              		@ frame_needed = 0, uses_anonymous_args = 0
 965:Drivers/STM32F4xx_HAL_Driver/Src/stm32f4xx_hal_dac.c ****   uint32_t tmpreg1;
 1168              		.loc 1 965 3 view .LVU332
 966:Drivers/STM32F4xx_HAL_Driver/Src/stm32f4xx_hal_dac.c ****   uint32_t tmpreg2;
 1169              		.loc 1 966 3 view .LVU333
 967:Drivers/STM32F4xx_HAL_Driver/Src/stm32f4xx_hal_dac.c **** 
 1170              		.loc 1 967 3 view .LVU334
 970:Drivers/STM32F4xx_HAL_Driver/Src/stm32f4xx_hal_dac.c ****   {
 1171              		.loc 1 970 3 view .LVU335
 970:Drivers/STM32F4xx_HAL_Driver/Src/stm32f4xx_hal_dac.c ****   {
 1172              		.loc 1 970 6 is_stmt 0 view .LVU336
 1173 0000 48B3     		cbz	r0, .L93
 1174 0002 8446     		mov	ip, r0
 970:Drivers/STM32F4xx_HAL_Driver/Src/stm32f4xx_hal_dac.c ****   {
 1175              		.loc 1 970 22 discriminator 1 view .LVU337
ARM GAS  C:\Users\fish\AppData\Local\Temp\ccNgX8mW.s 			page 48


 1176 0004 49B3     		cbz	r1, .L94
 976:Drivers/STM32F4xx_HAL_Driver/Src/stm32f4xx_hal_dac.c ****   assert_param(IS_DAC_OUTPUT_BUFFER_STATE(sConfig->DAC_OutputBuffer));
 1177              		.loc 1 976 3 is_stmt 1 view .LVU338
 977:Drivers/STM32F4xx_HAL_Driver/Src/stm32f4xx_hal_dac.c ****   assert_param(IS_DAC_CHANNEL(Channel));
 1178              		.loc 1 977 3 view .LVU339
 978:Drivers/STM32F4xx_HAL_Driver/Src/stm32f4xx_hal_dac.c **** 
 1179              		.loc 1 978 3 view .LVU340
 981:Drivers/STM32F4xx_HAL_Driver/Src/stm32f4xx_hal_dac.c **** 
 1180              		.loc 1 981 3 view .LVU341
 981:Drivers/STM32F4xx_HAL_Driver/Src/stm32f4xx_hal_dac.c **** 
 1181              		.loc 1 981 3 view .LVU342
 1182 0006 4379     		ldrb	r3, [r0, #5]	@ zero_extendqisi2
 1183 0008 012B     		cmp	r3, #1
 1184 000a 28D0     		beq	.L95
 964:Drivers/STM32F4xx_HAL_Driver/Src/stm32f4xx_hal_dac.c ****   HAL_StatusTypeDef status = HAL_OK;
 1185              		.loc 1 964 1 is_stmt 0 view .LVU343
 1186 000c 10B5     		push	{r4, lr}
 1187              		.cfi_def_cfa_offset 8
 1188              		.cfi_offset 4, -8
 1189              		.cfi_offset 14, -4
 981:Drivers/STM32F4xx_HAL_Driver/Src/stm32f4xx_hal_dac.c **** 
 1190              		.loc 1 981 3 is_stmt 1 discriminator 2 view .LVU344
 1191 000e 4FF0010E 		mov	lr, #1
 1192 0012 80F805E0 		strb	lr, [r0, #5]
 981:Drivers/STM32F4xx_HAL_Driver/Src/stm32f4xx_hal_dac.c **** 
 1193              		.loc 1 981 3 view .LVU345
 984:Drivers/STM32F4xx_HAL_Driver/Src/stm32f4xx_hal_dac.c **** 
 1194              		.loc 1 984 3 view .LVU346
 984:Drivers/STM32F4xx_HAL_Driver/Src/stm32f4xx_hal_dac.c **** 
 1195              		.loc 1 984 15 is_stmt 0 view .LVU347
 1196 0016 0223     		movs	r3, #2
 1197 0018 0371     		strb	r3, [r0, #4]
 987:Drivers/STM32F4xx_HAL_Driver/Src/stm32f4xx_hal_dac.c ****   /* Clear BOFFx, TENx, TSELx, WAVEx and MAMPx bits */
 1198              		.loc 1 987 3 is_stmt 1 view .LVU348
 987:Drivers/STM32F4xx_HAL_Driver/Src/stm32f4xx_hal_dac.c ****   /* Clear BOFFx, TENx, TSELx, WAVEx and MAMPx bits */
 1199              		.loc 1 987 17 is_stmt 0 view .LVU349
 1200 001a 0468     		ldr	r4, [r0]
 987:Drivers/STM32F4xx_HAL_Driver/Src/stm32f4xx_hal_dac.c ****   /* Clear BOFFx, TENx, TSELx, WAVEx and MAMPx bits */
 1201              		.loc 1 987 11 view .LVU350
 1202 001c 2068     		ldr	r0, [r4]
 1203              	.LVL93:
 989:Drivers/STM32F4xx_HAL_Driver/Src/stm32f4xx_hal_dac.c ****                << (Channel & 0x10UL));
 1204              		.loc 1 989 3 is_stmt 1 view .LVU351
 990:Drivers/STM32F4xx_HAL_Driver/Src/stm32f4xx_hal_dac.c ****   /* Configure for the selected DAC channel: buffer output, trigger */
 1205              		.loc 1 990 28 is_stmt 0 view .LVU352
 1206 001e 02F01002 		and	r2, r2, #16
 1207              	.LVL94:
 990:Drivers/STM32F4xx_HAL_Driver/Src/stm32f4xx_hal_dac.c ****   /* Configure for the selected DAC channel: buffer output, trigger */
 1208              		.loc 1 990 16 view .LVU353
 1209 0022 40F6FE73 		movw	r3, #4094
 1210 0026 9340     		lsls	r3, r3, r2
 989:Drivers/STM32F4xx_HAL_Driver/Src/stm32f4xx_hal_dac.c ****                << (Channel & 0x10UL));
 1211              		.loc 1 989 11 view .LVU354
 1212 0028 20EA0300 		bic	r0, r0, r3
 1213              	.LVL95:
 994:Drivers/STM32F4xx_HAL_Driver/Src/stm32f4xx_hal_dac.c ****   /* Calculate CR register value depending on DAC_Channel */
 1214              		.loc 1 994 3 is_stmt 1 view .LVU355
ARM GAS  C:\Users\fish\AppData\Local\Temp\ccNgX8mW.s 			page 49


 994:Drivers/STM32F4xx_HAL_Driver/Src/stm32f4xx_hal_dac.c ****   /* Calculate CR register value depending on DAC_Channel */
 1215              		.loc 1 994 21 is_stmt 0 view .LVU356
 1216 002c 0B68     		ldr	r3, [r1]
 994:Drivers/STM32F4xx_HAL_Driver/Src/stm32f4xx_hal_dac.c ****   /* Calculate CR register value depending on DAC_Channel */
 1217              		.loc 1 994 44 view .LVU357
 1218 002e 4968     		ldr	r1, [r1, #4]
 1219              	.LVL96:
 994:Drivers/STM32F4xx_HAL_Driver/Src/stm32f4xx_hal_dac.c ****   /* Calculate CR register value depending on DAC_Channel */
 1220              		.loc 1 994 11 view .LVU358
 1221 0030 0B43     		orrs	r3, r3, r1
 1222              	.LVL97:
 996:Drivers/STM32F4xx_HAL_Driver/Src/stm32f4xx_hal_dac.c ****   /* Write to DAC CR */
 1223              		.loc 1 996 3 is_stmt 1 view .LVU359
 996:Drivers/STM32F4xx_HAL_Driver/Src/stm32f4xx_hal_dac.c ****   /* Write to DAC CR */
 1224              		.loc 1 996 22 is_stmt 0 view .LVU360
 1225 0032 9340     		lsls	r3, r3, r2
 1226              	.LVL98:
 996:Drivers/STM32F4xx_HAL_Driver/Src/stm32f4xx_hal_dac.c ****   /* Write to DAC CR */
 1227              		.loc 1 996 11 view .LVU361
 1228 0034 0343     		orrs	r3, r3, r0
 1229              	.LVL99:
 998:Drivers/STM32F4xx_HAL_Driver/Src/stm32f4xx_hal_dac.c ****   /* Disable wave generation */
 1230              		.loc 1 998 3 is_stmt 1 view .LVU362
 998:Drivers/STM32F4xx_HAL_Driver/Src/stm32f4xx_hal_dac.c ****   /* Disable wave generation */
 1231              		.loc 1 998 22 is_stmt 0 view .LVU363
 1232 0036 2360     		str	r3, [r4]
 1233              	.LVL100:
1000:Drivers/STM32F4xx_HAL_Driver/Src/stm32f4xx_hal_dac.c **** 
 1234              		.loc 1 1000 3 is_stmt 1 view .LVU364
 1235 0038 DCF80000 		ldr	r0, [ip]
 1236 003c 0368     		ldr	r3, [r0]
 1237              	.LVL101:
1000:Drivers/STM32F4xx_HAL_Driver/Src/stm32f4xx_hal_dac.c **** 
 1238              		.loc 1 1000 3 is_stmt 0 view .LVU365
 1239 003e C021     		movs	r1, #192
 1240 0040 01FA02F2 		lsl	r2, r1, r2
 1241 0044 23EA0203 		bic	r3, r3, r2
 1242 0048 0360     		str	r3, [r0]
 1243              	.LVL102:
1003:Drivers/STM32F4xx_HAL_Driver/Src/stm32f4xx_hal_dac.c **** 
 1244              		.loc 1 1003 3 is_stmt 1 view .LVU366
1003:Drivers/STM32F4xx_HAL_Driver/Src/stm32f4xx_hal_dac.c **** 
 1245              		.loc 1 1003 15 is_stmt 0 view .LVU367
 1246 004a 8CF804E0 		strb	lr, [ip, #4]
1006:Drivers/STM32F4xx_HAL_Driver/Src/stm32f4xx_hal_dac.c **** 
 1247              		.loc 1 1006 3 is_stmt 1 view .LVU368
1006:Drivers/STM32F4xx_HAL_Driver/Src/stm32f4xx_hal_dac.c **** 
 1248              		.loc 1 1006 3 view .LVU369
 1249 004e 0020     		movs	r0, #0
 1250 0050 8CF80500 		strb	r0, [ip, #5]
1006:Drivers/STM32F4xx_HAL_Driver/Src/stm32f4xx_hal_dac.c **** 
 1251              		.loc 1 1006 3 view .LVU370
1009:Drivers/STM32F4xx_HAL_Driver/Src/stm32f4xx_hal_dac.c **** }
 1252              		.loc 1 1009 3 view .LVU371
1010:Drivers/STM32F4xx_HAL_Driver/Src/stm32f4xx_hal_dac.c **** 
 1253              		.loc 1 1010 1 is_stmt 0 view .LVU372
 1254 0054 10BD     		pop	{r4, pc}
ARM GAS  C:\Users\fish\AppData\Local\Temp\ccNgX8mW.s 			page 50


 1255              	.LVL103:
 1256              	.L93:
 1257              		.cfi_def_cfa_offset 0
 1258              		.cfi_restore 4
 1259              		.cfi_restore 14
 972:Drivers/STM32F4xx_HAL_Driver/Src/stm32f4xx_hal_dac.c ****   }
 1260              		.loc 1 972 12 view .LVU373
 1261 0056 0120     		movs	r0, #1
 1262              	.LVL104:
 972:Drivers/STM32F4xx_HAL_Driver/Src/stm32f4xx_hal_dac.c ****   }
 1263              		.loc 1 972 12 view .LVU374
 1264 0058 7047     		bx	lr
 1265              	.LVL105:
 1266              	.L94:
 972:Drivers/STM32F4xx_HAL_Driver/Src/stm32f4xx_hal_dac.c ****   }
 1267              		.loc 1 972 12 view .LVU375
 1268 005a 0120     		movs	r0, #1
 1269              	.LVL106:
 972:Drivers/STM32F4xx_HAL_Driver/Src/stm32f4xx_hal_dac.c ****   }
 1270              		.loc 1 972 12 view .LVU376
 1271 005c 7047     		bx	lr
 1272              	.LVL107:
 1273              	.L95:
 981:Drivers/STM32F4xx_HAL_Driver/Src/stm32f4xx_hal_dac.c **** 
 1274              		.loc 1 981 3 discriminator 1 view .LVU377
 1275 005e 0220     		movs	r0, #2
 1276              	.LVL108:
1010:Drivers/STM32F4xx_HAL_Driver/Src/stm32f4xx_hal_dac.c **** 
 1277              		.loc 1 1010 1 view .LVU378
 1278 0060 7047     		bx	lr
 1279              		.cfi_endproc
 1280              	.LFE254:
 1282              		.section	.text.HAL_DAC_GetState,"ax",%progbits
 1283              		.align	1
 1284              		.global	HAL_DAC_GetState
 1285              		.syntax unified
 1286              		.thumb
 1287              		.thumb_func
 1289              	HAL_DAC_GetState:
 1290              	.LVL109:
 1291              	.LFB255:
1039:Drivers/STM32F4xx_HAL_Driver/Src/stm32f4xx_hal_dac.c ****   /* Return DAC handle state */
 1292              		.loc 1 1039 1 is_stmt 1 view -0
 1293              		.cfi_startproc
 1294              		@ args = 0, pretend = 0, frame = 0
 1295              		@ frame_needed = 0, uses_anonymous_args = 0
 1296              		@ link register save eliminated.
1041:Drivers/STM32F4xx_HAL_Driver/Src/stm32f4xx_hal_dac.c **** }
 1297              		.loc 1 1041 3 view .LVU380
1041:Drivers/STM32F4xx_HAL_Driver/Src/stm32f4xx_hal_dac.c **** }
 1298              		.loc 1 1041 14 is_stmt 0 view .LVU381
 1299 0000 0079     		ldrb	r0, [r0, #4]	@ zero_extendqisi2
 1300              	.LVL110:
1042:Drivers/STM32F4xx_HAL_Driver/Src/stm32f4xx_hal_dac.c **** 
 1301              		.loc 1 1042 1 view .LVU382
 1302 0002 7047     		bx	lr
 1303              		.cfi_endproc
ARM GAS  C:\Users\fish\AppData\Local\Temp\ccNgX8mW.s 			page 51


 1304              	.LFE255:
 1306              		.section	.text.HAL_DAC_GetError,"ax",%progbits
 1307              		.align	1
 1308              		.global	HAL_DAC_GetError
 1309              		.syntax unified
 1310              		.thumb
 1311              		.thumb_func
 1313              	HAL_DAC_GetError:
 1314              	.LVL111:
 1315              	.LFB256:
1052:Drivers/STM32F4xx_HAL_Driver/Src/stm32f4xx_hal_dac.c ****   return hdac->ErrorCode;
 1316              		.loc 1 1052 1 is_stmt 1 view -0
 1317              		.cfi_startproc
 1318              		@ args = 0, pretend = 0, frame = 0
 1319              		@ frame_needed = 0, uses_anonymous_args = 0
 1320              		@ link register save eliminated.
1053:Drivers/STM32F4xx_HAL_Driver/Src/stm32f4xx_hal_dac.c **** }
 1321              		.loc 1 1053 3 view .LVU384
1053:Drivers/STM32F4xx_HAL_Driver/Src/stm32f4xx_hal_dac.c **** }
 1322              		.loc 1 1053 14 is_stmt 0 view .LVU385
 1323 0000 0069     		ldr	r0, [r0, #16]
 1324              	.LVL112:
1054:Drivers/STM32F4xx_HAL_Driver/Src/stm32f4xx_hal_dac.c **** 
 1325              		.loc 1 1054 1 view .LVU386
 1326 0002 7047     		bx	lr
 1327              		.cfi_endproc
 1328              	.LFE256:
 1330              		.text
 1331              	.Letext0:
 1332              		.file 2 "C:/STM32/arm-none-eabi-gcc/14.2.1-1.1.1/.content/arm-none-eabi/include/machine/_default_t
 1333              		.file 3 "C:/STM32/arm-none-eabi-gcc/14.2.1-1.1.1/.content/arm-none-eabi/include/sys/_stdint.h"
 1334              		.file 4 "Drivers/CMSIS/Device/ST/STM32F4xx/Include/stm32f407xx.h"
 1335              		.file 5 "Drivers/STM32F4xx_HAL_Driver/Inc/stm32f4xx_hal_def.h"
 1336              		.file 6 "Drivers/STM32F4xx_HAL_Driver/Inc/stm32f4xx_hal_dma.h"
 1337              		.file 7 "Drivers/STM32F4xx_HAL_Driver/Inc/stm32f4xx_hal_dac.h"
 1338              		.file 8 "Drivers/STM32F4xx_HAL_Driver/Inc/stm32f4xx_hal_dac_ex.h"
ARM GAS  C:\Users\fish\AppData\Local\Temp\ccNgX8mW.s 			page 52

