ARM GAS  C:\Users\fish\AppData\Local\Temp\cc4JAs8f.s 			page 1


   1              		.cpu cortex-m4
   2              		.arch armv7e-m
   3              		.fpu fpv4-sp-d16
   4              		.eabi_attribute 27, 1
   5              		.eabi_attribute 28, 1
   6              		.eabi_attribute 20, 1
   7              		.eabi_attribute 21, 1
   8              		.eabi_attribute 23, 3
   9              		.eabi_attribute 24, 1
  10              		.eabi_attribute 25, 1
  11              		.eabi_attribute 26, 1
  12              		.eabi_attribute 30, 1
  13              		.eabi_attribute 34, 1
  14              		.eabi_attribute 18, 4
  15              		.file	"GUISlim.c"
  16              		.text
  17              	.Ltext0:
  18              		.cfi_sections	.debug_frame
  19              		.file 1 "../Bsp/OLED/GUISlim.c"
  20              		.section	.text.is_valid_utf8_sequence,"ax",%progbits
  21              		.align	1
  22              		.syntax unified
  23              		.thumb
  24              		.thumb_func
  26              	is_valid_utf8_sequence:
  27              	.LVL0:
  28              	.LFB247:
   1:../Bsp/OLED/GUISlim.c **** 
   2:../Bsp/OLED/GUISlim.c **** #include <stddef.h>           /* needed for definition of NULL */
   3:../Bsp/OLED/GUISlim.c **** #include "GUI.h"
   4:../Bsp/OLED/GUISlim.c **** #include "ssd1306.h"
   5:../Bsp/OLED/GUISlim.c **** 
   6:../Bsp/OLED/GUISlim.c **** GUI_CONTEXT GUI_Context;
   7:../Bsp/OLED/GUISlim.c **** char GUI_DecChar;
   8:../Bsp/OLED/GUISlim.c **** 
   9:../Bsp/OLED/GUISlim.c **** char* utf8_string_to_gbk_with_table(const char* utf8_str);
  10:../Bsp/OLED/GUISlim.c **** char* mixed_string_to_gbk(const char* str);
  11:../Bsp/OLED/GUISlim.c **** 
  12:../Bsp/OLED/GUISlim.c **** int LCD_GetXSize(void)        { return SSD1306_WIDTH; }
  13:../Bsp/OLED/GUISlim.c **** int LCD_GetYSize(void)        { return SSD1306_HEIGHT; }
  14:../Bsp/OLED/GUISlim.c **** int GUI_GetXSize(void)        { return LCD_GetXSize(); }
  15:../Bsp/OLED/GUISlim.c **** int GUI_GetYSize(void)        { return LCD_GetYSize(); }
  16:../Bsp/OLED/GUISlim.c **** void LCD_GetRect(LCD_RECT *pRect) {
  17:../Bsp/OLED/GUISlim.c ****   pRect->x0 = 0;
  18:../Bsp/OLED/GUISlim.c ****   pRect->y0 = 0;
  19:../Bsp/OLED/GUISlim.c ****   pRect->x1 = LCD_GetXSize() - 1;
  20:../Bsp/OLED/GUISlim.c ****   pRect->y1 = LCD_GetYSize() - 1;
  21:../Bsp/OLED/GUISlim.c **** }
  22:../Bsp/OLED/GUISlim.c **** 
  23:../Bsp/OLED/GUISlim.c **** int GUI_Init(void) {
  24:../Bsp/OLED/GUISlim.c ****   GUI_DecChar = '.';
  25:../Bsp/OLED/GUISlim.c **** 	GUI_Context.ClipRect.x0 = 0;
  26:../Bsp/OLED/GUISlim.c **** 	GUI_Context.ClipRect.y0 = 0;
  27:../Bsp/OLED/GUISlim.c **** 	GUI_Context.ClipRect.x1 = LCD_GetXSize() - 1;
  28:../Bsp/OLED/GUISlim.c **** 	GUI_Context.ClipRect.y1 = LCD_GetYSize() - 1;
  29:../Bsp/OLED/GUISlim.c **** 	GUI_Context.DispPosX = 0;
  30:../Bsp/OLED/GUISlim.c **** 	GUI_Context.DispPosY = 0;
ARM GAS  C:\Users\fish\AppData\Local\Temp\cc4JAs8f.s 			page 2


  31:../Bsp/OLED/GUISlim.c **** 	GUI_Context.pAFont = GUI_DEFAULT_FONT;
  32:../Bsp/OLED/GUISlim.c **** 	GUI_Context.PenSize = 1;
  33:../Bsp/OLED/GUISlim.c **** 	GUI_Context.DrawColor = GUI_COLOR_WHITE;
  34:../Bsp/OLED/GUISlim.c **** 	
  35:../Bsp/OLED/GUISlim.c **** 	SSD1306_init(); //初始化OLED
  36:../Bsp/OLED/GUISlim.c **** 	
  37:../Bsp/OLED/GUISlim.c **** 	return 0;
  38:../Bsp/OLED/GUISlim.c **** }
  39:../Bsp/OLED/GUISlim.c **** 
  40:../Bsp/OLED/GUISlim.c **** const GUI_FONT GUI_UNI_PTR* GUI_SetFont(const GUI_FONT GUI_UNI_PTR * pNewFont) {
  41:../Bsp/OLED/GUISlim.c ****   const GUI_FONT GUI_UNI_PTR* pOldFont = GUI_Context.pAFont;
  42:../Bsp/OLED/GUISlim.c ****   GUI_LOCK();
  43:../Bsp/OLED/GUISlim.c ****   if (pNewFont)
  44:../Bsp/OLED/GUISlim.c ****     GUI_Context.pAFont = pNewFont;
  45:../Bsp/OLED/GUISlim.c ****   GUI_UNLOCK();
  46:../Bsp/OLED/GUISlim.c ****   return pOldFont;
  47:../Bsp/OLED/GUISlim.c **** }
  48:../Bsp/OLED/GUISlim.c **** const GUI_FONT GUI_UNI_PTR* GUI_GetFont(void) {
  49:../Bsp/OLED/GUISlim.c ****   const GUI_FONT GUI_UNI_PTR * r;
  50:../Bsp/OLED/GUISlim.c ****   GUI_LOCK();
  51:../Bsp/OLED/GUISlim.c ****   r = GUI_Context.pAFont;
  52:../Bsp/OLED/GUISlim.c ****   GUI_UNLOCK();
  53:../Bsp/OLED/GUISlim.c ****   return r;
  54:../Bsp/OLED/GUISlim.c **** }
  55:../Bsp/OLED/GUISlim.c **** 
  56:../Bsp/OLED/GUISlim.c **** 
  57:../Bsp/OLED/GUISlim.c **** typedef struct {
  58:../Bsp/OLED/GUISlim.c ****     int utf8_only;       int gbk_only;        int both_valid;       int utf8_invalid;     int gbk_i
  59:../Bsp/OLED/GUISlim.c **** 
  60:../Bsp/OLED/GUISlim.c **** static int is_valid_utf8_sequence(const unsigned char* s, size_t len, size_t* consumed) {
  29              		.loc 1 60 89 view -0
  30              		.cfi_startproc
  31              		@ args = 0, pretend = 0, frame = 0
  32              		@ frame_needed = 0, uses_anonymous_args = 0
  61:../Bsp/OLED/GUISlim.c ****     *consumed = 1;
  33              		.loc 1 61 5 view .LVU1
  34              		.loc 1 61 15 is_stmt 0 view .LVU2
  35 0000 0123     		movs	r3, #1
  36 0002 1360     		str	r3, [r2]
  62:../Bsp/OLED/GUISlim.c ****         if (s[0] <= 0x7F) {
  37              		.loc 1 62 9 is_stmt 1 view .LVU3
  38              		.loc 1 62 14 is_stmt 0 view .LVU4
  39 0004 0378     		ldrb	r3, [r0]	@ zero_extendqisi2
  40              		.loc 1 62 18 view .LVU5
  41 0006 90F900C0 		ldrsb	ip, [r0]
  42              		.loc 1 62 12 view .LVU6
  43 000a BCF1000F 		cmp	ip, #0
  44 000e 75DA     		bge	.L5
  63:../Bsp/OLED/GUISlim.c ****         return -1;     }
  64:../Bsp/OLED/GUISlim.c ****         if ((s[0] & 0x80) == 0x00) {
  45              		.loc 1 64 9 is_stmt 1 view .LVU7
  65:../Bsp/OLED/GUISlim.c ****         return -1;     }
  66:../Bsp/OLED/GUISlim.c ****         if ((s[0] & 0xE0) == 0xC0) {
  46              		.loc 1 66 9 view .LVU8
  47              		.loc 1 66 12 is_stmt 0 view .LVU9
  48 0010 03F0E00C 		and	ip, r3, #224
  49 0014 BCF1C00F 		cmp	ip, #192
ARM GAS  C:\Users\fish\AppData\Local\Temp\cc4JAs8f.s 			page 3


  50 0018 0BD0     		beq	.L26
  67:../Bsp/OLED/GUISlim.c ****         if (len < 2) return 0;
  68:../Bsp/OLED/GUISlim.c ****         if ((s[1] & 0xC0) != 0x80) return 0;
  69:../Bsp/OLED/GUISlim.c ****                 unsigned int code_point = ((s[0] & 0x1F) << 6) | (s[1] & 0x3F);
  70:../Bsp/OLED/GUISlim.c ****         if (code_point < 0x80) return 0;          if (code_point > 0x7FF) return 0;                
  71:../Bsp/OLED/GUISlim.c ****         return 1;
  72:../Bsp/OLED/GUISlim.c ****     }
  73:../Bsp/OLED/GUISlim.c ****         if ((s[0] & 0xF0) == 0xE0) {
  51              		.loc 1 73 9 is_stmt 1 view .LVU10
  52              		.loc 1 73 12 is_stmt 0 view .LVU11
  53 001a 03F0F00C 		and	ip, r3, #240
  54 001e BCF1E00F 		cmp	ip, #224
  55 0022 19D0     		beq	.L27
  74:../Bsp/OLED/GUISlim.c ****         if (len < 3) return 0;
  75:../Bsp/OLED/GUISlim.c ****         if ((s[1] & 0xC0) != 0x80) return 0;
  76:../Bsp/OLED/GUISlim.c ****         if ((s[2] & 0xC0) != 0x80) return 0;
  77:../Bsp/OLED/GUISlim.c ****                 unsigned int code_point = ((s[0] & 0x0F) << 12) | 
  78:../Bsp/OLED/GUISlim.c ****                                  ((s[1] & 0x3F) << 6) | 
  79:../Bsp/OLED/GUISlim.c ****                                  (s[2] & 0x3F);
  80:../Bsp/OLED/GUISlim.c ****                 if (code_point < 0x800) return 0;          if (code_point >= 0xD800 && code_point <
  81:../Bsp/OLED/GUISlim.c ****         return 1;
  82:../Bsp/OLED/GUISlim.c ****     }
  83:../Bsp/OLED/GUISlim.c ****         if ((s[0] & 0xF8) == 0xF0) {
  56              		.loc 1 83 9 is_stmt 1 view .LVU12
  57              		.loc 1 83 12 is_stmt 0 view .LVU13
  58 0024 03F0F80C 		and	ip, r3, #248
  59 0028 BCF1F00F 		cmp	ip, #240
  60 002c 37D0     		beq	.L28
  84:../Bsp/OLED/GUISlim.c ****         if (len < 4) return 0;
  85:../Bsp/OLED/GUISlim.c ****         if ((s[1] & 0xC0) != 0x80) return 0;
  86:../Bsp/OLED/GUISlim.c ****         if ((s[2] & 0xC0) != 0x80) return 0;
  87:../Bsp/OLED/GUISlim.c ****         if ((s[3] & 0xC0) != 0x80) return 0;
  88:../Bsp/OLED/GUISlim.c ****                 unsigned int code_point = ((s[0] & 0x07) << 18) | 
  89:../Bsp/OLED/GUISlim.c ****                                  ((s[1] & 0x3F) << 12) | 
  90:../Bsp/OLED/GUISlim.c ****                                  ((s[2] & 0x3F) << 6) | 
  91:../Bsp/OLED/GUISlim.c ****                                  (s[3] & 0x3F);
  92:../Bsp/OLED/GUISlim.c ****                 if (code_point < 0x10000) return 0;          if (code_point > 0x10FFFF) return 0;  
  93:../Bsp/OLED/GUISlim.c ****         return 1;
  94:../Bsp/OLED/GUISlim.c ****     }
  95:../Bsp/OLED/GUISlim.c ****         return 0;
  61              		.loc 1 95 16 view .LVU14
  62 002e 0020     		movs	r0, #0
  63              	.LVL1:
  64              		.loc 1 95 16 view .LVU15
  65 0030 7047     		bx	lr
  66              	.LVL2:
  67              	.L26:
  68              	.LBB2:
  67:../Bsp/OLED/GUISlim.c ****         if ((s[1] & 0xC0) != 0x80) return 0;
  69              		.loc 1 67 9 is_stmt 1 view .LVU16
  67:../Bsp/OLED/GUISlim.c ****         if ((s[1] & 0xC0) != 0x80) return 0;
  70              		.loc 1 67 12 is_stmt 0 view .LVU17
  71 0032 0129     		cmp	r1, #1
  72 0034 65D9     		bls	.L6
  68:../Bsp/OLED/GUISlim.c ****                 unsigned int code_point = ((s[0] & 0x1F) << 6) | (s[1] & 0x3F);
  73              		.loc 1 68 9 is_stmt 1 view .LVU18
  68:../Bsp/OLED/GUISlim.c ****                 unsigned int code_point = ((s[0] & 0x1F) << 6) | (s[1] & 0x3F);
ARM GAS  C:\Users\fish\AppData\Local\Temp\cc4JAs8f.s 			page 4


  74              		.loc 1 68 15 is_stmt 0 view .LVU19
  75 0036 4178     		ldrb	r1, [r0, #1]	@ zero_extendqisi2
  76              	.LVL3:
  68:../Bsp/OLED/GUISlim.c ****                 unsigned int code_point = ((s[0] & 0x1F) << 6) | (s[1] & 0x3F);
  77              		.loc 1 68 12 view .LVU20
  78 0038 01F0C000 		and	r0, r1, #192
  79              	.LVL4:
  68:../Bsp/OLED/GUISlim.c ****                 unsigned int code_point = ((s[0] & 0x1F) << 6) | (s[1] & 0x3F);
  80              		.loc 1 68 12 view .LVU21
  81 003c 8028     		cmp	r0, #128
  82 003e 62D1     		bne	.L7
  69:../Bsp/OLED/GUISlim.c ****         if (code_point < 0x80) return 0;          if (code_point > 0x7FF) return 0;                
  83              		.loc 1 69 17 is_stmt 1 view .LVU22
  69:../Bsp/OLED/GUISlim.c ****         if (code_point < 0x80) return 0;          if (code_point > 0x7FF) return 0;                
  84              		.loc 1 69 58 is_stmt 0 view .LVU23
  85 0040 9B01     		lsls	r3, r3, #6
  86 0042 03F4F863 		and	r3, r3, #1984
  69:../Bsp/OLED/GUISlim.c ****         if (code_point < 0x80) return 0;          if (code_point > 0x7FF) return 0;                
  87              		.loc 1 69 72 view .LVU24
  88 0046 01F03F01 		and	r1, r1, #63
  69:../Bsp/OLED/GUISlim.c ****         if (code_point < 0x80) return 0;          if (code_point > 0x7FF) return 0;                
  89              		.loc 1 69 64 view .LVU25
  90 004a 0B43     		orrs	r3, r3, r1
  91              	.LVL5:
  70:../Bsp/OLED/GUISlim.c ****         return 1;
  92              		.loc 1 70 9 is_stmt 1 view .LVU26
  70:../Bsp/OLED/GUISlim.c ****         return 1;
  93              		.loc 1 70 12 is_stmt 0 view .LVU27
  94 004c 7F2B     		cmp	r3, #127
  95 004e 5CD9     		bls	.L8
  70:../Bsp/OLED/GUISlim.c ****         return 1;
  96              		.loc 1 70 51 is_stmt 1 discriminator 2 view .LVU28
  70:../Bsp/OLED/GUISlim.c ****         return 1;
  97              		.loc 1 70 102 discriminator 4 view .LVU29
  70:../Bsp/OLED/GUISlim.c ****         return 1;
  98              		.loc 1 70 112 is_stmt 0 discriminator 4 view .LVU30
  99 0050 0223     		movs	r3, #2
 100              	.LVL6:
  70:../Bsp/OLED/GUISlim.c ****         return 1;
 101              		.loc 1 70 112 discriminator 4 view .LVU31
 102 0052 1360     		str	r3, [r2]
 103              	.LVL7:
  71:../Bsp/OLED/GUISlim.c ****     }
 104              		.loc 1 71 9 is_stmt 1 view .LVU32
  71:../Bsp/OLED/GUISlim.c ****     }
 105              		.loc 1 71 16 is_stmt 0 view .LVU33
 106 0054 0120     		movs	r0, #1
 107 0056 7047     		bx	lr
 108              	.LVL8:
 109              	.L27:
  71:../Bsp/OLED/GUISlim.c ****     }
 110              		.loc 1 71 16 view .LVU34
 111              	.LBE2:
 112              	.LBB3:
  74:../Bsp/OLED/GUISlim.c ****         if ((s[1] & 0xC0) != 0x80) return 0;
 113              		.loc 1 74 9 is_stmt 1 view .LVU35
  74:../Bsp/OLED/GUISlim.c ****         if ((s[1] & 0xC0) != 0x80) return 0;
ARM GAS  C:\Users\fish\AppData\Local\Temp\cc4JAs8f.s 			page 5


 114              		.loc 1 74 12 is_stmt 0 view .LVU36
 115 0058 0229     		cmp	r1, #2
 116 005a 58D9     		bls	.L9
  75:../Bsp/OLED/GUISlim.c ****         if ((s[2] & 0xC0) != 0x80) return 0;
 117              		.loc 1 75 9 is_stmt 1 view .LVU37
  75:../Bsp/OLED/GUISlim.c ****         if ((s[2] & 0xC0) != 0x80) return 0;
 118              		.loc 1 75 15 is_stmt 0 view .LVU38
 119 005c 4178     		ldrb	r1, [r0, #1]	@ zero_extendqisi2
 120              	.LVL9:
  75:../Bsp/OLED/GUISlim.c ****         if ((s[2] & 0xC0) != 0x80) return 0;
 121              		.loc 1 75 12 view .LVU39
 122 005e 01F0C00C 		and	ip, r1, #192
 123 0062 BCF1800F 		cmp	ip, #128
 124 0066 54D1     		bne	.L10
  76:../Bsp/OLED/GUISlim.c ****                 unsigned int code_point = ((s[0] & 0x0F) << 12) | 
 125              		.loc 1 76 9 is_stmt 1 view .LVU40
  76:../Bsp/OLED/GUISlim.c ****                 unsigned int code_point = ((s[0] & 0x0F) << 12) | 
 126              		.loc 1 76 15 is_stmt 0 view .LVU41
 127 0068 8078     		ldrb	r0, [r0, #2]	@ zero_extendqisi2
 128              	.LVL10:
  76:../Bsp/OLED/GUISlim.c ****                 unsigned int code_point = ((s[0] & 0x0F) << 12) | 
 129              		.loc 1 76 12 view .LVU42
 130 006a 00F0C00C 		and	ip, r0, #192
 131 006e BCF1800F 		cmp	ip, #128
 132 0072 50D1     		bne	.L11
  77:../Bsp/OLED/GUISlim.c ****                                  ((s[1] & 0x3F) << 6) | 
 133              		.loc 1 77 17 is_stmt 1 view .LVU43
  77:../Bsp/OLED/GUISlim.c ****                                  ((s[1] & 0x3F) << 6) | 
 134              		.loc 1 77 58 is_stmt 0 view .LVU44
 135 0074 1B03     		lsls	r3, r3, #12
 136 0076 9BB2     		uxth	r3, r3
  78:../Bsp/OLED/GUISlim.c ****                                  (s[2] & 0x3F);
 137              		.loc 1 78 49 view .LVU45
 138 0078 8901     		lsls	r1, r1, #6
 139 007a 01F47C61 		and	r1, r1, #4032
  77:../Bsp/OLED/GUISlim.c ****                                  ((s[1] & 0x3F) << 6) | 
 140              		.loc 1 77 65 view .LVU46
 141 007e 0B43     		orrs	r3, r3, r1
  79:../Bsp/OLED/GUISlim.c ****                 if (code_point < 0x800) return 0;          if (code_point >= 0xD800 && code_point <
 142              		.loc 1 79 40 view .LVU47
 143 0080 00F03F00 		and	r0, r0, #63
  78:../Bsp/OLED/GUISlim.c ****                                  (s[2] & 0x3F);
 144              		.loc 1 78 55 view .LVU48
 145 0084 0343     		orrs	r3, r3, r0
 146              	.LVL11:
  80:../Bsp/OLED/GUISlim.c ****         return 1;
 147              		.loc 1 80 17 is_stmt 1 view .LVU49
  80:../Bsp/OLED/GUISlim.c ****         return 1;
 148              		.loc 1 80 20 is_stmt 0 view .LVU50
 149 0086 B3F5006F 		cmp	r3, #2048
 150 008a 46D3     		bcc	.L12
  80:../Bsp/OLED/GUISlim.c ****         return 1;
 151              		.loc 1 80 60 is_stmt 1 discriminator 2 view .LVU51
  80:../Bsp/OLED/GUISlim.c ****         return 1;
 152              		.loc 1 80 85 is_stmt 0 discriminator 2 view .LVU52
 153 008c A3F55843 		sub	r3, r3, #55296
 154              	.LVL12:
ARM GAS  C:\Users\fish\AppData\Local\Temp\cc4JAs8f.s 			page 6


  80:../Bsp/OLED/GUISlim.c ****         return 1;
 155              		.loc 1 80 63 discriminator 2 view .LVU53
 156 0090 B3F5006F 		cmp	r3, #2048
 157 0094 43D3     		bcc	.L13
  80:../Bsp/OLED/GUISlim.c ****         return 1;
 158              		.loc 1 80 181 is_stmt 1 discriminator 6 view .LVU54
  80:../Bsp/OLED/GUISlim.c ****         return 1;
 159              		.loc 1 80 191 is_stmt 0 discriminator 6 view .LVU55
 160 0096 0323     		movs	r3, #3
 161              	.LVL13:
  80:../Bsp/OLED/GUISlim.c ****         return 1;
 162              		.loc 1 80 191 discriminator 6 view .LVU56
 163 0098 1360     		str	r3, [r2]
 164              	.LVL14:
  81:../Bsp/OLED/GUISlim.c ****     }
 165              		.loc 1 81 9 is_stmt 1 view .LVU57
  81:../Bsp/OLED/GUISlim.c ****     }
 166              		.loc 1 81 16 is_stmt 0 view .LVU58
 167 009a 0120     		movs	r0, #1
 168 009c 7047     		bx	lr
 169              	.LVL15:
 170              	.L28:
  81:../Bsp/OLED/GUISlim.c ****     }
 171              		.loc 1 81 16 view .LVU59
 172              	.LBE3:
 173              	.LBB4:
  84:../Bsp/OLED/GUISlim.c ****         if ((s[1] & 0xC0) != 0x80) return 0;
 174              		.loc 1 84 9 is_stmt 1 view .LVU60
  84:../Bsp/OLED/GUISlim.c ****         if ((s[1] & 0xC0) != 0x80) return 0;
 175              		.loc 1 84 12 is_stmt 0 view .LVU61
 176 009e 0329     		cmp	r1, #3
 177 00a0 3FD9     		bls	.L16
  85:../Bsp/OLED/GUISlim.c ****         if ((s[2] & 0xC0) != 0x80) return 0;
 178              		.loc 1 85 9 is_stmt 1 view .LVU62
  85:../Bsp/OLED/GUISlim.c ****         if ((s[2] & 0xC0) != 0x80) return 0;
 179              		.loc 1 85 15 is_stmt 0 view .LVU63
 180 00a2 4178     		ldrb	r1, [r0, #1]	@ zero_extendqisi2
 181              	.LVL16:
  85:../Bsp/OLED/GUISlim.c ****         if ((s[2] & 0xC0) != 0x80) return 0;
 182              		.loc 1 85 12 view .LVU64
 183 00a4 01F0C00C 		and	ip, r1, #192
 184 00a8 BCF1800F 		cmp	ip, #128
 185 00ac 3BD1     		bne	.L17
 186              	.LBE4:
  60:../Bsp/OLED/GUISlim.c ****     *consumed = 1;
 187              		.loc 1 60 89 view .LVU65
 188 00ae 00B5     		push	{lr}
 189              		.cfi_def_cfa_offset 4
 190              		.cfi_offset 14, -4
 191              	.LBB5:
  86:../Bsp/OLED/GUISlim.c ****         if ((s[3] & 0xC0) != 0x80) return 0;
 192              		.loc 1 86 9 is_stmt 1 view .LVU66
  86:../Bsp/OLED/GUISlim.c ****         if ((s[3] & 0xC0) != 0x80) return 0;
 193              		.loc 1 86 15 is_stmt 0 view .LVU67
 194 00b0 90F802C0 		ldrb	ip, [r0, #2]	@ zero_extendqisi2
  86:../Bsp/OLED/GUISlim.c ****         if ((s[3] & 0xC0) != 0x80) return 0;
 195              		.loc 1 86 12 view .LVU68
ARM GAS  C:\Users\fish\AppData\Local\Temp\cc4JAs8f.s 			page 7


 196 00b4 0CF0C00E 		and	lr, ip, #192
 197 00b8 BEF1800F 		cmp	lr, #128
 198 00bc 35D1     		bne	.L18
  87:../Bsp/OLED/GUISlim.c ****                 unsigned int code_point = ((s[0] & 0x07) << 18) | 
 199              		.loc 1 87 9 is_stmt 1 view .LVU69
  87:../Bsp/OLED/GUISlim.c ****                 unsigned int code_point = ((s[0] & 0x07) << 18) | 
 200              		.loc 1 87 15 is_stmt 0 view .LVU70
 201 00be C078     		ldrb	r0, [r0, #3]	@ zero_extendqisi2
 202              	.LVL17:
  87:../Bsp/OLED/GUISlim.c ****                 unsigned int code_point = ((s[0] & 0x07) << 18) | 
 203              		.loc 1 87 12 view .LVU71
 204 00c0 00F0C00E 		and	lr, r0, #192
 205 00c4 BEF1800F 		cmp	lr, #128
 206 00c8 32D1     		bne	.L19
  88:../Bsp/OLED/GUISlim.c ****                                  ((s[1] & 0x3F) << 12) | 
 207              		.loc 1 88 17 is_stmt 1 view .LVU72
  88:../Bsp/OLED/GUISlim.c ****                                  ((s[1] & 0x3F) << 12) | 
 208              		.loc 1 88 58 is_stmt 0 view .LVU73
 209 00ca 9B04     		lsls	r3, r3, #18
 210 00cc 03F4E013 		and	r3, r3, #1835008
  89:../Bsp/OLED/GUISlim.c ****                                  ((s[2] & 0x3F) << 6) | 
 211              		.loc 1 89 49 view .LVU74
 212 00d0 0903     		lsls	r1, r1, #12
 213 00d2 01F47C31 		and	r1, r1, #258048
  88:../Bsp/OLED/GUISlim.c ****                                  ((s[1] & 0x3F) << 12) | 
 214              		.loc 1 88 65 view .LVU75
 215 00d6 0B43     		orrs	r3, r3, r1
  90:../Bsp/OLED/GUISlim.c ****                                  (s[3] & 0x3F);
 216              		.loc 1 90 49 view .LVU76
 217 00d8 4FEA8C11 		lsl	r1, ip, #6
 218 00dc 01F47C61 		and	r1, r1, #4032
  89:../Bsp/OLED/GUISlim.c ****                                  ((s[2] & 0x3F) << 6) | 
 219              		.loc 1 89 56 view .LVU77
 220 00e0 0B43     		orrs	r3, r3, r1
  91:../Bsp/OLED/GUISlim.c ****                 if (code_point < 0x10000) return 0;          if (code_point > 0x10FFFF) return 0;  
 221              		.loc 1 91 40 view .LVU78
 222 00e2 00F03F00 		and	r0, r0, #63
  90:../Bsp/OLED/GUISlim.c ****                                  (s[3] & 0x3F);
 223              		.loc 1 90 55 view .LVU79
 224 00e6 0343     		orrs	r3, r3, r0
 225              	.LVL18:
  92:../Bsp/OLED/GUISlim.c ****         return 1;
 226              		.loc 1 92 17 is_stmt 1 view .LVU80
  92:../Bsp/OLED/GUISlim.c ****         return 1;
 227              		.loc 1 92 20 is_stmt 0 view .LVU81
 228 00e8 B3F5803F 		cmp	r3, #65536
 229 00ec 22D3     		bcc	.L20
  92:../Bsp/OLED/GUISlim.c ****         return 1;
 230              		.loc 1 92 62 is_stmt 1 discriminator 2 view .LVU82
  92:../Bsp/OLED/GUISlim.c ****         return 1;
 231              		.loc 1 92 65 is_stmt 0 discriminator 2 view .LVU83
 232 00ee B3F5881F 		cmp	r3, #1114112
 233 00f2 21D2     		bcs	.L21
  92:../Bsp/OLED/GUISlim.c ****         return 1;
 234              		.loc 1 92 116 is_stmt 1 discriminator 4 view .LVU84
  92:../Bsp/OLED/GUISlim.c ****         return 1;
 235              		.loc 1 92 126 is_stmt 0 discriminator 4 view .LVU85
ARM GAS  C:\Users\fish\AppData\Local\Temp\cc4JAs8f.s 			page 8


 236 00f4 0423     		movs	r3, #4
 237              	.LVL19:
  92:../Bsp/OLED/GUISlim.c ****         return 1;
 238              		.loc 1 92 126 discriminator 4 view .LVU86
 239 00f6 1360     		str	r3, [r2]
 240              	.LVL20:
  93:../Bsp/OLED/GUISlim.c ****     }
 241              		.loc 1 93 9 is_stmt 1 view .LVU87
  93:../Bsp/OLED/GUISlim.c ****     }
 242              		.loc 1 93 16 is_stmt 0 view .LVU88
 243 00f8 0120     		movs	r0, #1
 244 00fa 17E0     		b	.L1
 245              	.LVL21:
 246              	.L5:
 247              		.cfi_def_cfa_offset 0
 248              		.cfi_restore 14
  93:../Bsp/OLED/GUISlim.c ****     }
 249              		.loc 1 93 16 view .LVU89
 250              	.LBE5:
  63:../Bsp/OLED/GUISlim.c ****         if ((s[0] & 0x80) == 0x00) {
 251              		.loc 1 63 16 view .LVU90
 252 00fc 4FF0FF30 		mov	r0, #-1
 253              	.LVL22:
  63:../Bsp/OLED/GUISlim.c ****         if ((s[0] & 0x80) == 0x00) {
 254              		.loc 1 63 16 view .LVU91
 255 0100 7047     		bx	lr
 256              	.LVL23:
 257              	.L6:
 258              	.LBB6:
  67:../Bsp/OLED/GUISlim.c ****         if ((s[1] & 0xC0) != 0x80) return 0;
 259              		.loc 1 67 29 discriminator 1 view .LVU92
 260 0102 0020     		movs	r0, #0
 261              	.LVL24:
  67:../Bsp/OLED/GUISlim.c ****         if ((s[1] & 0xC0) != 0x80) return 0;
 262              		.loc 1 67 29 discriminator 1 view .LVU93
 263 0104 7047     		bx	lr
 264              	.LVL25:
 265              	.L7:
  68:../Bsp/OLED/GUISlim.c ****                 unsigned int code_point = ((s[0] & 0x1F) << 6) | (s[1] & 0x3F);
 266              		.loc 1 68 43 discriminator 1 view .LVU94
 267 0106 0020     		movs	r0, #0
 268 0108 7047     		bx	lr
 269              	.LVL26:
 270              	.L8:
  70:../Bsp/OLED/GUISlim.c ****         return 1;
 271              		.loc 1 70 39 discriminator 1 view .LVU95
 272 010a 0020     		movs	r0, #0
 273 010c 7047     		bx	lr
 274              	.LVL27:
 275              	.L9:
  70:../Bsp/OLED/GUISlim.c ****         return 1;
 276              		.loc 1 70 39 discriminator 1 view .LVU96
 277              	.LBE6:
 278              	.LBB7:
  74:../Bsp/OLED/GUISlim.c ****         if ((s[1] & 0xC0) != 0x80) return 0;
 279              		.loc 1 74 29 discriminator 1 view .LVU97
 280 010e 0020     		movs	r0, #0
ARM GAS  C:\Users\fish\AppData\Local\Temp\cc4JAs8f.s 			page 9


 281              	.LVL28:
  74:../Bsp/OLED/GUISlim.c ****         if ((s[1] & 0xC0) != 0x80) return 0;
 282              		.loc 1 74 29 discriminator 1 view .LVU98
 283 0110 7047     		bx	lr
 284              	.LVL29:
 285              	.L10:
  75:../Bsp/OLED/GUISlim.c ****         if ((s[2] & 0xC0) != 0x80) return 0;
 286              		.loc 1 75 43 discriminator 1 view .LVU99
 287 0112 0020     		movs	r0, #0
 288              	.LVL30:
  75:../Bsp/OLED/GUISlim.c ****         if ((s[2] & 0xC0) != 0x80) return 0;
 289              		.loc 1 75 43 discriminator 1 view .LVU100
 290 0114 7047     		bx	lr
 291              	.L11:
  76:../Bsp/OLED/GUISlim.c ****                 unsigned int code_point = ((s[0] & 0x0F) << 12) | 
 292              		.loc 1 76 43 discriminator 1 view .LVU101
 293 0116 0020     		movs	r0, #0
 294 0118 7047     		bx	lr
 295              	.LVL31:
 296              	.L12:
  80:../Bsp/OLED/GUISlim.c ****         return 1;
 297              		.loc 1 80 48 discriminator 1 view .LVU102
 298 011a 0020     		movs	r0, #0
 299 011c 7047     		bx	lr
 300              	.LVL32:
 301              	.L13:
  80:../Bsp/OLED/GUISlim.c ****         return 1;
 302              		.loc 1 80 117 discriminator 3 view .LVU103
 303 011e 0020     		movs	r0, #0
 304 0120 7047     		bx	lr
 305              	.LVL33:
 306              	.L16:
  80:../Bsp/OLED/GUISlim.c ****         return 1;
 307              		.loc 1 80 117 discriminator 3 view .LVU104
 308              	.LBE7:
 309              	.LBB8:
  84:../Bsp/OLED/GUISlim.c ****         if ((s[1] & 0xC0) != 0x80) return 0;
 310              		.loc 1 84 29 discriminator 1 view .LVU105
 311 0122 0020     		movs	r0, #0
 312              	.LVL34:
  84:../Bsp/OLED/GUISlim.c ****         if ((s[1] & 0xC0) != 0x80) return 0;
 313              		.loc 1 84 29 discriminator 1 view .LVU106
 314 0124 7047     		bx	lr
 315              	.LVL35:
 316              	.L17:
  85:../Bsp/OLED/GUISlim.c ****         if ((s[2] & 0xC0) != 0x80) return 0;
 317              		.loc 1 85 43 discriminator 1 view .LVU107
 318 0126 0020     		movs	r0, #0
 319              	.LVL36:
  85:../Bsp/OLED/GUISlim.c ****         if ((s[2] & 0xC0) != 0x80) return 0;
 320              		.loc 1 85 43 discriminator 1 view .LVU108
 321              	.LBE8:
  96:../Bsp/OLED/GUISlim.c **** }
 322              		.loc 1 96 1 view .LVU109
 323 0128 7047     		bx	lr
 324              	.LVL37:
 325              	.L18:
ARM GAS  C:\Users\fish\AppData\Local\Temp\cc4JAs8f.s 			page 10


 326              		.cfi_def_cfa_offset 4
 327              		.cfi_offset 14, -4
 328              	.LBB9:
  86:../Bsp/OLED/GUISlim.c ****         if ((s[3] & 0xC0) != 0x80) return 0;
 329              		.loc 1 86 43 discriminator 1 view .LVU110
 330 012a 0020     		movs	r0, #0
 331              	.LVL38:
 332              	.L1:
  86:../Bsp/OLED/GUISlim.c ****         if ((s[3] & 0xC0) != 0x80) return 0;
 333              		.loc 1 86 43 discriminator 1 view .LVU111
 334              	.LBE9:
 335              		.loc 1 96 1 view .LVU112
 336 012c 5DF804FB 		ldr	pc, [sp], #4
 337              	.L19:
 338              	.LBB10:
  87:../Bsp/OLED/GUISlim.c ****                 unsigned int code_point = ((s[0] & 0x07) << 18) | 
 339              		.loc 1 87 43 discriminator 1 view .LVU113
 340 0130 0020     		movs	r0, #0
 341 0132 FBE7     		b	.L1
 342              	.LVL39:
 343              	.L20:
  92:../Bsp/OLED/GUISlim.c ****         return 1;
 344              		.loc 1 92 50 discriminator 1 view .LVU114
 345 0134 0020     		movs	r0, #0
 346 0136 F9E7     		b	.L1
 347              	.L21:
  92:../Bsp/OLED/GUISlim.c ****         return 1;
 348              		.loc 1 92 96 discriminator 3 view .LVU115
 349 0138 0020     		movs	r0, #0
 350 013a F7E7     		b	.L1
 351              	.LBE10:
 352              		.cfi_endproc
 353              	.LFE247:
 355              		.section	.text.is_valid_gbk_sequence,"ax",%progbits
 356              		.align	1
 357              		.syntax unified
 358              		.thumb
 359              		.thumb_func
 361              	is_valid_gbk_sequence:
 362              	.LVL40:
 363              	.LFB248:
  97:../Bsp/OLED/GUISlim.c **** 
  98:../Bsp/OLED/GUISlim.c **** static int is_valid_gbk_sequence(const unsigned char* s, size_t len, size_t* consumed) {
 364              		.loc 1 98 88 is_stmt 1 view -0
 365              		.cfi_startproc
 366              		@ args = 0, pretend = 0, frame = 0
 367              		@ frame_needed = 0, uses_anonymous_args = 0
 368              		@ link register save eliminated.
  99:../Bsp/OLED/GUISlim.c ****     *consumed = 1;
 369              		.loc 1 99 5 view .LVU117
 370              		.loc 1 99 15 is_stmt 0 view .LVU118
 371 0000 0123     		movs	r3, #1
 372 0002 1360     		str	r3, [r2]
 100:../Bsp/OLED/GUISlim.c ****         if (s[0] <= 0x80) {
 373              		.loc 1 100 9 is_stmt 1 view .LVU119
 374              		.loc 1 100 14 is_stmt 0 view .LVU120
 375 0004 0378     		ldrb	r3, [r0]	@ zero_extendqisi2
ARM GAS  C:\Users\fish\AppData\Local\Temp\cc4JAs8f.s 			page 11


 376              		.loc 1 100 12 view .LVU121
 377 0006 802B     		cmp	r3, #128
 378 0008 13D9     		bls	.L32
 101:../Bsp/OLED/GUISlim.c ****         return -1;     }
 102:../Bsp/OLED/GUISlim.c ****         if (s[0] >= 0x81 && s[0] <= 0xFE) {
 379              		.loc 1 102 9 is_stmt 1 view .LVU122
 380              		.loc 1 102 26 is_stmt 0 view .LVU123
 381 000a 7F33     		adds	r3, r3, #127
 382 000c DBB2     		uxtb	r3, r3
 383              		.loc 1 102 12 view .LVU124
 384 000e 7D2B     		cmp	r3, #125
 385 0010 12D8     		bhi	.L33
 386              	.LBB11:
 103:../Bsp/OLED/GUISlim.c ****         if (len < 2) return 0;                  unsigned char second = s[1];
 387              		.loc 1 103 9 is_stmt 1 view .LVU125
 388              		.loc 1 103 12 is_stmt 0 view .LVU126
 389 0012 0129     		cmp	r1, #1
 390 0014 12D9     		bls	.L34
 391              		.loc 1 103 49 is_stmt 1 discriminator 2 view .LVU127
 392              		.loc 1 103 63 is_stmt 0 discriminator 2 view .LVU128
 393 0016 4178     		ldrb	r1, [r0, #1]	@ zero_extendqisi2
 394              	.LVL41:
 104:../Bsp/OLED/GUISlim.c ****         if ((second >= 0x40 && second <= 0x7E) || 
 395              		.loc 1 104 9 is_stmt 1 view .LVU129
 396              		.loc 1 104 29 is_stmt 0 view .LVU130
 397 0018 A1F14003 		sub	r3, r1, #64
 398 001c DBB2     		uxtb	r3, r3
 399              		.loc 1 104 12 view .LVU131
 400 001e 3E2B     		cmp	r3, #62
 401 0020 03D9     		bls	.L31
 105:../Bsp/OLED/GUISlim.c ****             (second >= 0x80 && second <= 0xFE)) {
 402              		.loc 1 105 29 view .LVU132
 403 0022 81F08001 		eor	r1, r1, #128
 404              	.LVL42:
 104:../Bsp/OLED/GUISlim.c ****         if ((second >= 0x40 && second <= 0x7E) || 
 405              		.loc 1 104 48 discriminator 1 view .LVU133
 406 0026 7E29     		cmp	r1, #126
 407 0028 0AD8     		bhi	.L35
 408              	.LVL43:
 409              	.L31:
 106:../Bsp/OLED/GUISlim.c ****             *consumed = 2;
 410              		.loc 1 106 13 is_stmt 1 view .LVU134
 411              		.loc 1 106 23 is_stmt 0 view .LVU135
 412 002a 0223     		movs	r3, #2
 413 002c 1360     		str	r3, [r2]
 414              	.LVL44:
 107:../Bsp/OLED/GUISlim.c ****             return 1;
 415              		.loc 1 107 13 is_stmt 1 view .LVU136
 416              		.loc 1 107 20 is_stmt 0 view .LVU137
 417 002e 0120     		movs	r0, #1
 418              	.LVL45:
 419              		.loc 1 107 20 view .LVU138
 420 0030 7047     		bx	lr
 421              	.LVL46:
 422              	.L32:
 423              		.loc 1 107 20 view .LVU139
 424              	.LBE11:
ARM GAS  C:\Users\fish\AppData\Local\Temp\cc4JAs8f.s 			page 12


 101:../Bsp/OLED/GUISlim.c ****         if (s[0] >= 0x81 && s[0] <= 0xFE) {
 425              		.loc 1 101 16 view .LVU140
 426 0032 4FF0FF30 		mov	r0, #-1
 427              	.LVL47:
 101:../Bsp/OLED/GUISlim.c ****         if (s[0] >= 0x81 && s[0] <= 0xFE) {
 428              		.loc 1 101 16 view .LVU141
 429 0036 7047     		bx	lr
 430              	.LVL48:
 431              	.L33:
 108:../Bsp/OLED/GUISlim.c ****         }
 109:../Bsp/OLED/GUISlim.c ****         return 0;      }
 110:../Bsp/OLED/GUISlim.c ****         return 0;
 432              		.loc 1 110 16 view .LVU142
 433 0038 0020     		movs	r0, #0
 434              	.LVL49:
 435              		.loc 1 110 16 view .LVU143
 436 003a 7047     		bx	lr
 437              	.LVL50:
 438              	.L34:
 439              	.LBB12:
 103:../Bsp/OLED/GUISlim.c ****         if ((second >= 0x40 && second <= 0x7E) || 
 440              		.loc 1 103 29 discriminator 1 view .LVU144
 441 003c 0020     		movs	r0, #0
 442              	.LVL51:
 103:../Bsp/OLED/GUISlim.c ****         if ((second >= 0x40 && second <= 0x7E) || 
 443              		.loc 1 103 29 discriminator 1 view .LVU145
 444 003e 7047     		bx	lr
 445              	.LVL52:
 446              	.L35:
 109:../Bsp/OLED/GUISlim.c ****         return 0;
 447              		.loc 1 109 16 view .LVU146
 448 0040 0020     		movs	r0, #0
 449              	.LVL53:
 109:../Bsp/OLED/GUISlim.c ****         return 0;
 450              		.loc 1 109 16 view .LVU147
 451              	.LBE12:
 111:../Bsp/OLED/GUISlim.c **** }
 452              		.loc 1 111 1 view .LVU148
 453 0042 7047     		bx	lr
 454              		.cfi_endproc
 455              	.LFE248:
 457              		.section	.text.get_gbk_char_frequency_score,"ax",%progbits
 458              		.align	1
 459              		.syntax unified
 460              		.thumb
 461              		.thumb_func
 463              	get_gbk_char_frequency_score:
 464              	.LVL54:
 465              	.LFB249:
 112:../Bsp/OLED/GUISlim.c **** 
 113:../Bsp/OLED/GUISlim.c **** static int get_gbk_char_frequency_score(const unsigned char* s) {
 466              		.loc 1 113 65 is_stmt 1 view -0
 467              		.cfi_startproc
 468              		@ args = 0, pretend = 0, frame = 0
 469              		@ frame_needed = 0, uses_anonymous_args = 0
 470              		@ link register save eliminated.
 114:../Bsp/OLED/GUISlim.c ****     if (s[0] >= 0xB0 && s[0] <= 0xD7) {
ARM GAS  C:\Users\fish\AppData\Local\Temp\cc4JAs8f.s 			page 13


 471              		.loc 1 114 5 view .LVU150
 472              		.loc 1 114 10 is_stmt 0 view .LVU151
 473 0000 0378     		ldrb	r3, [r0]	@ zero_extendqisi2
 474              		.loc 1 114 22 view .LVU152
 475 0002 03F15002 		add	r2, r3, #80
 476 0006 D2B2     		uxtb	r2, r2
 477              		.loc 1 114 8 view .LVU153
 478 0008 272A     		cmp	r2, #39
 479 000a 04D8     		bhi	.L37
 115:../Bsp/OLED/GUISlim.c ****         if (s[1] >= 0xA1 && s[1] <= 0xFE) {
 480              		.loc 1 115 9 is_stmt 1 view .LVU154
 481              		.loc 1 115 14 is_stmt 0 view .LVU155
 482 000c 4278     		ldrb	r2, [r0, #1]	@ zero_extendqisi2
 483              		.loc 1 115 26 view .LVU156
 484 000e 5F32     		adds	r2, r2, #95
 485 0010 D2B2     		uxtb	r2, r2
 486              		.loc 1 115 12 view .LVU157
 487 0012 5D2A     		cmp	r2, #93
 488 0014 14D9     		bls	.L40
 489              	.L37:
 116:../Bsp/OLED/GUISlim.c ****             return 3;         }
 117:../Bsp/OLED/GUISlim.c ****     }
 118:../Bsp/OLED/GUISlim.c ****     if (s[0] >= 0xD8 && s[0] <= 0xF7) {
 490              		.loc 1 118 5 is_stmt 1 view .LVU158
 491              		.loc 1 118 22 is_stmt 0 view .LVU159
 492 0016 03F12802 		add	r2, r3, #40
 493 001a D2B2     		uxtb	r2, r2
 494              		.loc 1 118 8 view .LVU160
 495 001c 1F2A     		cmp	r2, #31
 496 001e 04D8     		bhi	.L39
 119:../Bsp/OLED/GUISlim.c ****         if (s[1] >= 0xA1 && s[1] <= 0xFE) {
 497              		.loc 1 119 9 is_stmt 1 view .LVU161
 498              		.loc 1 119 14 is_stmt 0 view .LVU162
 499 0020 4278     		ldrb	r2, [r0, #1]	@ zero_extendqisi2
 500              		.loc 1 119 26 view .LVU163
 501 0022 5F32     		adds	r2, r2, #95
 502 0024 D2B2     		uxtb	r2, r2
 503              		.loc 1 119 12 view .LVU164
 504 0026 5D2A     		cmp	r2, #93
 505 0028 0CD9     		bls	.L41
 506              	.L39:
 120:../Bsp/OLED/GUISlim.c ****             return 3;         }
 121:../Bsp/OLED/GUISlim.c ****     }
 122:../Bsp/OLED/GUISlim.c ****         if (s[0] >= 0x81 && s[0] <= 0xA0) {
 507              		.loc 1 122 9 is_stmt 1 view .LVU165
 508              		.loc 1 122 26 is_stmt 0 view .LVU166
 509 002a 03F17F02 		add	r2, r3, #127
 510 002e D2B2     		uxtb	r2, r2
 511              		.loc 1 122 12 view .LVU167
 512 0030 1F2A     		cmp	r2, #31
 513 0032 09D9     		bls	.L42
 123:../Bsp/OLED/GUISlim.c ****         return 1;     }
 124:../Bsp/OLED/GUISlim.c ****     if (s[0] >= 0xAA && s[0] <= 0xFE) {
 514              		.loc 1 124 5 is_stmt 1 view .LVU168
 515              		.loc 1 124 22 is_stmt 0 view .LVU169
 516 0034 5633     		adds	r3, r3, #86
 517 0036 DBB2     		uxtb	r3, r3
ARM GAS  C:\Users\fish\AppData\Local\Temp\cc4JAs8f.s 			page 14


 518              		.loc 1 124 8 view .LVU170
 519 0038 542B     		cmp	r3, #84
 520 003a 07D9     		bls	.L43
 125:../Bsp/OLED/GUISlim.c ****         return 1;     }
 126:../Bsp/OLED/GUISlim.c ****         return 2;
 521              		.loc 1 126 16 view .LVU171
 522 003c 0220     		movs	r0, #2
 523              	.LVL55:
 524              		.loc 1 126 16 view .LVU172
 525 003e 7047     		bx	lr
 526              	.LVL56:
 527              	.L40:
 116:../Bsp/OLED/GUISlim.c ****     }
 528              		.loc 1 116 20 view .LVU173
 529 0040 0320     		movs	r0, #3
 530              	.LVL57:
 116:../Bsp/OLED/GUISlim.c ****     }
 531              		.loc 1 116 20 view .LVU174
 532 0042 7047     		bx	lr
 533              	.LVL58:
 534              	.L41:
 120:../Bsp/OLED/GUISlim.c ****     }
 535              		.loc 1 120 20 view .LVU175
 536 0044 0320     		movs	r0, #3
 537              	.LVL59:
 120:../Bsp/OLED/GUISlim.c ****     }
 538              		.loc 1 120 20 view .LVU176
 539 0046 7047     		bx	lr
 540              	.LVL60:
 541              	.L42:
 123:../Bsp/OLED/GUISlim.c ****     if (s[0] >= 0xAA && s[0] <= 0xFE) {
 542              		.loc 1 123 16 view .LVU177
 543 0048 0120     		movs	r0, #1
 544              	.LVL61:
 123:../Bsp/OLED/GUISlim.c ****     if (s[0] >= 0xAA && s[0] <= 0xFE) {
 545              		.loc 1 123 16 view .LVU178
 546 004a 7047     		bx	lr
 547              	.LVL62:
 548              	.L43:
 125:../Bsp/OLED/GUISlim.c ****         return 2;
 549              		.loc 1 125 16 view .LVU179
 550 004c 0120     		movs	r0, #1
 551              	.LVL63:
 127:../Bsp/OLED/GUISlim.c **** }
 552              		.loc 1 127 1 view .LVU180
 553 004e 7047     		bx	lr
 554              		.cfi_endproc
 555              	.LFE249:
 557              		.section	.text.get_utf8_char_frequency_score,"ax",%progbits
 558              		.align	1
 559              		.syntax unified
 560              		.thumb
 561              		.thumb_func
 563              	get_utf8_char_frequency_score:
 564              	.LVL64:
 565              	.LFB250:
 128:../Bsp/OLED/GUISlim.c **** 
ARM GAS  C:\Users\fish\AppData\Local\Temp\cc4JAs8f.s 			page 15


 129:../Bsp/OLED/GUISlim.c **** static int get_utf8_char_frequency_score(const unsigned char* s, size_t len) {
 566              		.loc 1 129 78 is_stmt 1 view -0
 567              		.cfi_startproc
 568              		@ args = 0, pretend = 0, frame = 0
 569              		@ frame_needed = 0, uses_anonymous_args = 0
 570              		@ link register save eliminated.
 130:../Bsp/OLED/GUISlim.c ****     if (len == 3 && (s[0] & 0xF0) == 0xE0) {
 571              		.loc 1 130 5 view .LVU182
 572              		.loc 1 130 8 is_stmt 0 view .LVU183
 573 0000 0329     		cmp	r1, #3
 574 0002 01D0     		beq	.L51
 131:../Bsp/OLED/GUISlim.c ****         unsigned int code_point = ((s[0] & 0x0F) << 12) | 
 132:../Bsp/OLED/GUISlim.c ****                          ((s[1] & 0x3F) << 6) | 
 133:../Bsp/OLED/GUISlim.c ****                          (s[2] & 0x3F);
 134:../Bsp/OLED/GUISlim.c ****                 if (code_point >= 0x4E00 && code_point <= 0x9FFF) {
 135:../Bsp/OLED/GUISlim.c ****             return 3;         }
 136:../Bsp/OLED/GUISlim.c ****         if (code_point >= 0x3400 && code_point <= 0x4DBF) {
 137:../Bsp/OLED/GUISlim.c ****             return 2;         }
 138:../Bsp/OLED/GUISlim.c ****         if (code_point >= 0x3000 && code_point <= 0x303F) {
 139:../Bsp/OLED/GUISlim.c ****             return 2;         }
 140:../Bsp/OLED/GUISlim.c ****     }
 141:../Bsp/OLED/GUISlim.c ****     return 1;
 575              		.loc 1 141 12 view .LVU184
 576 0004 0120     		movs	r0, #1
 577              	.LVL65:
 578              		.loc 1 141 12 view .LVU185
 579 0006 7047     		bx	lr
 580              	.LVL66:
 581              	.L51:
 130:../Bsp/OLED/GUISlim.c ****     if (len == 3 && (s[0] & 0xF0) == 0xE0) {
 582              		.loc 1 130 23 discriminator 1 view .LVU186
 583 0008 0378     		ldrb	r3, [r0]	@ zero_extendqisi2
 130:../Bsp/OLED/GUISlim.c ****     if (len == 3 && (s[0] & 0xF0) == 0xE0) {
 584              		.loc 1 130 18 discriminator 1 view .LVU187
 585 000a 03F0F002 		and	r2, r3, #240
 586 000e E02A     		cmp	r2, #224
 587 0010 01D0     		beq	.L52
 588              		.loc 1 141 12 view .LVU188
 589 0012 0120     		movs	r0, #1
 590              	.LVL67:
 591              		.loc 1 141 12 view .LVU189
 592 0014 7047     		bx	lr
 593              	.LVL68:
 594              	.L52:
 595              	.LBB13:
 131:../Bsp/OLED/GUISlim.c ****         unsigned int code_point = ((s[0] & 0x0F) << 12) | 
 596              		.loc 1 131 9 is_stmt 1 view .LVU190
 131:../Bsp/OLED/GUISlim.c ****         unsigned int code_point = ((s[0] & 0x0F) << 12) | 
 597              		.loc 1 131 50 is_stmt 0 view .LVU191
 598 0016 1B03     		lsls	r3, r3, #12
 599 0018 9BB2     		uxth	r3, r3
 132:../Bsp/OLED/GUISlim.c ****                          (s[2] & 0x3F);
 600              		.loc 1 132 29 view .LVU192
 601 001a 4278     		ldrb	r2, [r0, #1]	@ zero_extendqisi2
 132:../Bsp/OLED/GUISlim.c ****                          (s[2] & 0x3F);
 602              		.loc 1 132 41 view .LVU193
 603 001c 9201     		lsls	r2, r2, #6
ARM GAS  C:\Users\fish\AppData\Local\Temp\cc4JAs8f.s 			page 16


 604 001e 02F47C62 		and	r2, r2, #4032
 131:../Bsp/OLED/GUISlim.c ****         unsigned int code_point = ((s[0] & 0x0F) << 12) | 
 605              		.loc 1 131 57 view .LVU194
 606 0022 1343     		orrs	r3, r3, r2
 133:../Bsp/OLED/GUISlim.c ****                 if (code_point >= 0x4E00 && code_point <= 0x9FFF) {
 607              		.loc 1 133 28 view .LVU195
 608 0024 8278     		ldrb	r2, [r0, #2]	@ zero_extendqisi2
 133:../Bsp/OLED/GUISlim.c ****                 if (code_point >= 0x4E00 && code_point <= 0x9FFF) {
 609              		.loc 1 133 32 view .LVU196
 610 0026 02F03F02 		and	r2, r2, #63
 132:../Bsp/OLED/GUISlim.c ****                          (s[2] & 0x3F);
 611              		.loc 1 132 47 view .LVU197
 612 002a 1343     		orrs	r3, r3, r2
 613              	.LVL69:
 134:../Bsp/OLED/GUISlim.c ****             return 3;         }
 614              		.loc 1 134 17 is_stmt 1 view .LVU198
 134:../Bsp/OLED/GUISlim.c ****             return 3;         }
 615              		.loc 1 134 42 is_stmt 0 view .LVU199
 616 002c A3F59C42 		sub	r2, r3, #19968
 134:../Bsp/OLED/GUISlim.c ****             return 3;         }
 617              		.loc 1 134 20 view .LVU200
 618 0030 B2F5A44F 		cmp	r2, #20992
 619 0034 0AD3     		bcc	.L48
 136:../Bsp/OLED/GUISlim.c ****             return 2;         }
 620              		.loc 1 136 9 is_stmt 1 view .LVU201
 136:../Bsp/OLED/GUISlim.c ****             return 2;         }
 621              		.loc 1 136 34 is_stmt 0 view .LVU202
 622 0036 A3F55052 		sub	r2, r3, #13312
 136:../Bsp/OLED/GUISlim.c ****             return 2;         }
 623              		.loc 1 136 12 view .LVU203
 624 003a B2F5CE5F 		cmp	r2, #6592
 625 003e 07D3     		bcc	.L49
 138:../Bsp/OLED/GUISlim.c ****             return 2;         }
 626              		.loc 1 138 9 is_stmt 1 view .LVU204
 138:../Bsp/OLED/GUISlim.c ****             return 2;         }
 627              		.loc 1 138 34 is_stmt 0 view .LVU205
 628 0040 A3F54053 		sub	r3, r3, #12288
 629              	.LVL70:
 138:../Bsp/OLED/GUISlim.c ****             return 2;         }
 630              		.loc 1 138 12 view .LVU206
 631 0044 3F2B     		cmp	r3, #63
 632 0046 05D9     		bls	.L50
 633              	.LBE13:
 634              		.loc 1 141 12 view .LVU207
 635 0048 0120     		movs	r0, #1
 636              	.LVL71:
 637              		.loc 1 141 12 view .LVU208
 638 004a 7047     		bx	lr
 639              	.LVL72:
 640              	.L48:
 641              	.LBB14:
 135:../Bsp/OLED/GUISlim.c ****         if (code_point >= 0x3400 && code_point <= 0x4DBF) {
 642              		.loc 1 135 20 view .LVU209
 643 004c 0320     		movs	r0, #3
 644              	.LVL73:
 135:../Bsp/OLED/GUISlim.c ****         if (code_point >= 0x3400 && code_point <= 0x4DBF) {
 645              		.loc 1 135 20 view .LVU210
ARM GAS  C:\Users\fish\AppData\Local\Temp\cc4JAs8f.s 			page 17


 646 004e 7047     		bx	lr
 647              	.LVL74:
 648              	.L49:
 137:../Bsp/OLED/GUISlim.c ****         if (code_point >= 0x3000 && code_point <= 0x303F) {
 649              		.loc 1 137 20 view .LVU211
 650 0050 0220     		movs	r0, #2
 651              	.LVL75:
 137:../Bsp/OLED/GUISlim.c ****         if (code_point >= 0x3000 && code_point <= 0x303F) {
 652              		.loc 1 137 20 view .LVU212
 653 0052 7047     		bx	lr
 654              	.LVL76:
 655              	.L50:
 139:../Bsp/OLED/GUISlim.c ****     }
 656              		.loc 1 139 20 view .LVU213
 657 0054 0220     		movs	r0, #2
 658              	.LVL77:
 139:../Bsp/OLED/GUISlim.c ****     }
 659              		.loc 1 139 20 view .LVU214
 660              	.LBE14:
 142:../Bsp/OLED/GUISlim.c **** }
 661              		.loc 1 142 1 view .LVU215
 662 0056 7047     		bx	lr
 663              		.cfi_endproc
 664              	.LFE250:
 666              		.section	.text.GUIPROP_FindChar,"ax",%progbits
 667              		.align	1
 668              		.syntax unified
 669              		.thumb
 670              		.thumb_func
 672              	GUIPROP_FindChar:
 673              	.LVL78:
 674              	.LFB253:
 143:../Bsp/OLED/GUISlim.c **** 
 144:../Bsp/OLED/GUISlim.c **** int detect_encoding_comprehensive(const char* str) {
 145:../Bsp/OLED/GUISlim.c ****     if (!str) return -1;
 146:../Bsp/OLED/GUISlim.c ****     
 147:../Bsp/OLED/GUISlim.c ****     const unsigned char* s = (const unsigned char*)str;
 148:../Bsp/OLED/GUISlim.c ****     size_t len = strlen((const char*)s);
 149:../Bsp/OLED/GUISlim.c ****     if (len == 0) return 0;
 150:../Bsp/OLED/GUISlim.c ****     
 151:../Bsp/OLED/GUISlim.c ****     EncodingStats stats = {0, 0, 0, 0, 0, 0};
 152:../Bsp/OLED/GUISlim.c ****     int utf8_score = 0;
 153:../Bsp/OLED/GUISlim.c ****     int gbk_score = 0;
 154:../Bsp/OLED/GUISlim.c ****     
 155:../Bsp/OLED/GUISlim.c ****     size_t i = 0;
 156:../Bsp/OLED/GUISlim.c ****     while (i < len) {
 157:../Bsp/OLED/GUISlim.c ****         if (s[i] <= 0x7F) {
 158:../Bsp/OLED/GUISlim.c ****             stats.ascii_count++;
 159:../Bsp/OLED/GUISlim.c ****             i++;
 160:../Bsp/OLED/GUISlim.c ****             continue;
 161:../Bsp/OLED/GUISlim.c ****         }
 162:../Bsp/OLED/GUISlim.c ****         
 163:../Bsp/OLED/GUISlim.c ****         size_t utf8_consumed = 1;
 164:../Bsp/OLED/GUISlim.c ****         size_t gbk_consumed = 1;
 165:../Bsp/OLED/GUISlim.c ****         int is_utf8 = is_valid_utf8_sequence(s + i, len - i, &utf8_consumed);
 166:../Bsp/OLED/GUISlim.c ****         int is_gbk = is_valid_gbk_sequence(s + i, len - i, &gbk_consumed);
 167:../Bsp/OLED/GUISlim.c ****         
ARM GAS  C:\Users\fish\AppData\Local\Temp\cc4JAs8f.s 			page 18


 168:../Bsp/OLED/GUISlim.c ****         if (is_utf8 == 1 && is_gbk == 1) {
 169:../Bsp/OLED/GUISlim.c ****                         stats.both_valid++;
 170:../Bsp/OLED/GUISlim.c ****                         int utf8_freq = get_utf8_char_frequency_score(s + i, utf8_consumed);
 171:../Bsp/OLED/GUISlim.c ****             int gbk_freq = get_gbk_char_frequency_score(s + i);
 172:../Bsp/OLED/GUISlim.c ****             utf8_score += utf8_freq;
 173:../Bsp/OLED/GUISlim.c ****             gbk_score += gbk_freq;
 174:../Bsp/OLED/GUISlim.c ****                         if (utf8_consumed == 3 && gbk_consumed == 2) {
 175:../Bsp/OLED/GUISlim.c ****                 utf8_score += 2;             }
 176:../Bsp/OLED/GUISlim.c ****             i += utf8_consumed;
 177:../Bsp/OLED/GUISlim.c ****         }
 178:../Bsp/OLED/GUISlim.c ****         else if (is_utf8 == 1 && is_gbk != 1) {
 179:../Bsp/OLED/GUISlim.c ****                         stats.utf8_only++;
 180:../Bsp/OLED/GUISlim.c ****             utf8_score += 4;             i += utf8_consumed;
 181:../Bsp/OLED/GUISlim.c ****         }
 182:../Bsp/OLED/GUISlim.c ****         else if (is_gbk == 1 && is_utf8 != 1) {
 183:../Bsp/OLED/GUISlim.c ****                         stats.gbk_only++;
 184:../Bsp/OLED/GUISlim.c ****             gbk_score += 4;             i += gbk_consumed;
 185:../Bsp/OLED/GUISlim.c ****         }
 186:../Bsp/OLED/GUISlim.c ****         else if (is_utf8 == 0 && is_gbk == 0) {
 187:../Bsp/OLED/GUISlim.c ****                         stats.utf8_invalid++;
 188:../Bsp/OLED/GUISlim.c ****             stats.gbk_invalid++;
 189:../Bsp/OLED/GUISlim.c ****             i++;
 190:../Bsp/OLED/GUISlim.c ****         }
 191:../Bsp/OLED/GUISlim.c ****         else if (is_utf8 == 0) {
 192:../Bsp/OLED/GUISlim.c ****             stats.utf8_invalid++;
 193:../Bsp/OLED/GUISlim.c ****             i++;
 194:../Bsp/OLED/GUISlim.c ****         }
 195:../Bsp/OLED/GUISlim.c ****         else if (is_gbk == 0) {
 196:../Bsp/OLED/GUISlim.c ****             stats.gbk_invalid++;
 197:../Bsp/OLED/GUISlim.c ****             i++;
 198:../Bsp/OLED/GUISlim.c ****         }
 199:../Bsp/OLED/GUISlim.c ****         else {
 200:../Bsp/OLED/GUISlim.c ****             i++;
 201:../Bsp/OLED/GUISlim.c ****         }
 202:../Bsp/OLED/GUISlim.c ****     }
 203:../Bsp/OLED/GUISlim.c ****     
 204:../Bsp/OLED/GUISlim.c ****     int non_ascii = stats.utf8_only + stats.gbk_only + stats.both_valid;
 205:../Bsp/OLED/GUISlim.c ****     if (non_ascii == 0) {
 206:../Bsp/OLED/GUISlim.c ****         return 0;     }
 207:../Bsp/OLED/GUISlim.c ****     
 208:../Bsp/OLED/GUISlim.c ****         if (stats.utf8_only > 0 && stats.gbk_invalid > stats.utf8_invalid) {
 209:../Bsp/OLED/GUISlim.c ****         return 1;     }
 210:../Bsp/OLED/GUISlim.c ****     if (stats.gbk_only > 0 && stats.utf8_invalid > stats.gbk_invalid) {
 211:../Bsp/OLED/GUISlim.c ****         return 2;     }
 212:../Bsp/OLED/GUISlim.c ****         if (stats.both_valid > 0 && stats.utf8_only == 0 && stats.gbk_only == 0) {
 213:../Bsp/OLED/GUISlim.c ****                 if (utf8_score > gbk_score) {
 214:../Bsp/OLED/GUISlim.c ****             return 1;
 215:../Bsp/OLED/GUISlim.c ****         } else if (gbk_score > utf8_score) {
 216:../Bsp/OLED/GUISlim.c ****             return 2;
 217:../Bsp/OLED/GUISlim.c ****         }
 218:../Bsp/OLED/GUISlim.c ****                 return 1;     }
 219:../Bsp/OLED/GUISlim.c ****         if (stats.utf8_only > 0 && stats.gbk_only > 0) {
 220:../Bsp/OLED/GUISlim.c ****                 int mixed_threshold = non_ascii / 5;
 221:../Bsp/OLED/GUISlim.c ****         if (stats.utf8_only > mixed_threshold && stats.gbk_only > mixed_threshold) {
 222:../Bsp/OLED/GUISlim.c ****             return 3;         }
 223:../Bsp/OLED/GUISlim.c ****                 if (stats.utf8_only > stats.gbk_only * 2) {
 224:../Bsp/OLED/GUISlim.c ****             return 1;
ARM GAS  C:\Users\fish\AppData\Local\Temp\cc4JAs8f.s 			page 19


 225:../Bsp/OLED/GUISlim.c ****         } else if (stats.gbk_only > stats.utf8_only * 2) {
 226:../Bsp/OLED/GUISlim.c ****             return 2;
 227:../Bsp/OLED/GUISlim.c ****         }
 228:../Bsp/OLED/GUISlim.c ****                 return (utf8_score > gbk_score) ? 1 : 2;
 229:../Bsp/OLED/GUISlim.c ****     }
 230:../Bsp/OLED/GUISlim.c ****         if (stats.utf8_only > 0) {
 231:../Bsp/OLED/GUISlim.c ****         return 1;
 232:../Bsp/OLED/GUISlim.c ****     }
 233:../Bsp/OLED/GUISlim.c ****     if (stats.gbk_only > 0) {
 234:../Bsp/OLED/GUISlim.c ****         return 2;
 235:../Bsp/OLED/GUISlim.c ****     }
 236:../Bsp/OLED/GUISlim.c ****         if (utf8_score > gbk_score) {
 237:../Bsp/OLED/GUISlim.c ****         return 1;
 238:../Bsp/OLED/GUISlim.c ****     } else if (gbk_score > utf8_score) {
 239:../Bsp/OLED/GUISlim.c ****         return 2;
 240:../Bsp/OLED/GUISlim.c ****     }
 241:../Bsp/OLED/GUISlim.c ****     
 242:../Bsp/OLED/GUISlim.c ****     return 1; }
 243:../Bsp/OLED/GUISlim.c **** 
 244:../Bsp/OLED/GUISlim.c **** int detect_encoding_by_sequence(const char* str) {
 245:../Bsp/OLED/GUISlim.c ****     return detect_encoding_comprehensive(str);
 246:../Bsp/OLED/GUISlim.c **** }
 247:../Bsp/OLED/GUISlim.c **** 
 248:../Bsp/OLED/GUISlim.c **** /*********************************************************************
 249:../Bsp/OLED/GUISlim.c **** *
 250:../Bsp/OLED/GUISlim.c **** *       Static code
 251:../Bsp/OLED/GUISlim.c **** *
 252:../Bsp/OLED/GUISlim.c **** **********************************************************************
 253:../Bsp/OLED/GUISlim.c **** */
 254:../Bsp/OLED/GUISlim.c **** /*********************************************************************
 255:../Bsp/OLED/GUISlim.c **** *
 256:../Bsp/OLED/GUISlim.c **** *       GUIPROP_FindChar
 257:../Bsp/OLED/GUISlim.c **** */
 258:../Bsp/OLED/GUISlim.c **** static const GUI_FONT_PROP GUI_UNI_PTR * GUIPROP_FindChar(const GUI_FONT_PROP GUI_UNI_PTR* pProp, U
 675              		.loc 1 258 107 is_stmt 1 view -0
 676              		.cfi_startproc
 677              		@ args = 0, pretend = 0, frame = 0
 678              		@ frame_needed = 0, uses_anonymous_args = 0
 679              		@ link register save eliminated.
 259:../Bsp/OLED/GUISlim.c ****   for (; pProp; pProp = pProp->pNext) {
 680              		.loc 1 259 3 view .LVU217
 681 0000 00E0     		b	.L54
 682              	.L55:
 683              		.loc 1 259 23 view .LVU218
 684 0002 8068     		ldr	r0, [r0, #8]
 685              	.LVL79:
 686              	.L54:
 687              		.loc 1 259 10 discriminator 1 view .LVU219
 688 0004 28B1     		cbz	r0, .L56
 260:../Bsp/OLED/GUISlim.c ****     if ((c>=pProp->First) && (c<=pProp->Last))
 689              		.loc 1 260 5 view .LVU220
 690              		.loc 1 260 18 is_stmt 0 view .LVU221
 691 0006 0388     		ldrh	r3, [r0]
 692              		.loc 1 260 8 view .LVU222
 693 0008 8B42     		cmp	r3, r1
 694 000a FAD8     		bhi	.L55
 695              		.loc 1 260 39 discriminator 1 view .LVU223
ARM GAS  C:\Users\fish\AppData\Local\Temp\cc4JAs8f.s 			page 20


 696 000c 4388     		ldrh	r3, [r0, #2]
 697              		.loc 1 260 27 discriminator 1 view .LVU224
 698 000e 8B42     		cmp	r3, r1
 699 0010 F7D3     		bcc	.L55
 700              	.L56:
 261:../Bsp/OLED/GUISlim.c ****       break;
 262:../Bsp/OLED/GUISlim.c ****   }
 263:../Bsp/OLED/GUISlim.c ****   return pProp;
 701              		.loc 1 263 3 is_stmt 1 view .LVU225
 264:../Bsp/OLED/GUISlim.c **** }
 702              		.loc 1 264 1 is_stmt 0 view .LVU226
 703 0012 7047     		bx	lr
 704              		.cfi_endproc
 705              	.LFE253:
 707              		.section	.text._GotoY,"ax",%progbits
 708              		.align	1
 709              		.syntax unified
 710              		.thumb
 711              		.thumb_func
 713              	_GotoY:
 714              	.LVL80:
 715              	.LFB266:
 265:../Bsp/OLED/GUISlim.c **** 
 266:../Bsp/OLED/GUISlim.c **** /*********************************************************************
 267:../Bsp/OLED/GUISlim.c **** *
 268:../Bsp/OLED/GUISlim.c **** *       Public code
 269:../Bsp/OLED/GUISlim.c **** *
 270:../Bsp/OLED/GUISlim.c **** **********************************************************************
 271:../Bsp/OLED/GUISlim.c **** */
 272:../Bsp/OLED/GUISlim.c **** /*********************************************************************
 273:../Bsp/OLED/GUISlim.c **** *
 274:../Bsp/OLED/GUISlim.c **** *       GUIPROP_DispChar
 275:../Bsp/OLED/GUISlim.c **** *
 276:../Bsp/OLED/GUISlim.c **** * Purpose:
 277:../Bsp/OLED/GUISlim.c **** *   This is the routine that displays a character. It is used by all
 278:../Bsp/OLED/GUISlim.c **** *   other routines which display characters as a subroutine.
 279:../Bsp/OLED/GUISlim.c **** */
 280:../Bsp/OLED/GUISlim.c **** void DrawBitLine1BPP(int x, int y, U8 const*p, int Diff, int xsize)
 281:../Bsp/OLED/GUISlim.c **** {
 282:../Bsp/OLED/GUISlim.c ****   U8 pixels;
 283:../Bsp/OLED/GUISlim.c **** 	
 284:../Bsp/OLED/GUISlim.c **** /*
 285:../Bsp/OLED/GUISlim.c **** // Jump to right entry point
 286:../Bsp/OLED/GUISlim.c **** */
 287:../Bsp/OLED/GUISlim.c ****   pixels = *p;
 288:../Bsp/OLED/GUISlim.c **** 
 289:../Bsp/OLED/GUISlim.c **** 	switch (Diff&7) {
 290:../Bsp/OLED/GUISlim.c **** 	case 0:
 291:../Bsp/OLED/GUISlim.c **** 		goto WriteBit0;
 292:../Bsp/OLED/GUISlim.c **** 	case 1:
 293:../Bsp/OLED/GUISlim.c **** 		goto WriteBit1;
 294:../Bsp/OLED/GUISlim.c **** 	case 2:
 295:../Bsp/OLED/GUISlim.c **** 		goto WriteBit2;
 296:../Bsp/OLED/GUISlim.c **** 	case 3:
 297:../Bsp/OLED/GUISlim.c **** 		goto WriteBit3;
 298:../Bsp/OLED/GUISlim.c **** 	case 4:
 299:../Bsp/OLED/GUISlim.c **** 		goto WriteBit4;
ARM GAS  C:\Users\fish\AppData\Local\Temp\cc4JAs8f.s 			page 21


 300:../Bsp/OLED/GUISlim.c **** 	case 5:
 301:../Bsp/OLED/GUISlim.c **** 		goto WriteBit5;
 302:../Bsp/OLED/GUISlim.c **** 	case 6:
 303:../Bsp/OLED/GUISlim.c **** 		goto WriteBit6;
 304:../Bsp/OLED/GUISlim.c **** 	case 7:
 305:../Bsp/OLED/GUISlim.c **** 		goto WriteBit7;
 306:../Bsp/OLED/GUISlim.c **** 	}
 307:../Bsp/OLED/GUISlim.c **** 
 308:../Bsp/OLED/GUISlim.c **** /*
 309:../Bsp/OLED/GUISlim.c ****         Write without transparency
 310:../Bsp/OLED/GUISlim.c **** */
 311:../Bsp/OLED/GUISlim.c **** 
 312:../Bsp/OLED/GUISlim.c ****   WriteBit0:
 313:../Bsp/OLED/GUISlim.c ****     SSD1306_DrawPixel(x+0, y, (pixels&(1<<7)) ? COLOR_F : COLOR_B);
 314:../Bsp/OLED/GUISlim.c ****     if (!--xsize)
 315:../Bsp/OLED/GUISlim.c ****       return;
 316:../Bsp/OLED/GUISlim.c ****   WriteBit1:
 317:../Bsp/OLED/GUISlim.c ****     SSD1306_DrawPixel(x+1, y, (pixels&(1<<6)) ? COLOR_F : COLOR_B);
 318:../Bsp/OLED/GUISlim.c ****     if (!--xsize)
 319:../Bsp/OLED/GUISlim.c ****       return;
 320:../Bsp/OLED/GUISlim.c ****   WriteBit2:
 321:../Bsp/OLED/GUISlim.c ****     SSD1306_DrawPixel(x+2, y, (pixels&(1<<5)) ? COLOR_F : COLOR_B);
 322:../Bsp/OLED/GUISlim.c ****     if (!--xsize)
 323:../Bsp/OLED/GUISlim.c ****       return;
 324:../Bsp/OLED/GUISlim.c ****   WriteBit3:
 325:../Bsp/OLED/GUISlim.c ****     SSD1306_DrawPixel(x+3, y, (pixels&(1<<4)) ? COLOR_F : COLOR_B);
 326:../Bsp/OLED/GUISlim.c ****     if (!--xsize)
 327:../Bsp/OLED/GUISlim.c ****       return;
 328:../Bsp/OLED/GUISlim.c ****   WriteBit4:
 329:../Bsp/OLED/GUISlim.c ****     SSD1306_DrawPixel(x+4, y, (pixels&(1<<3)) ? COLOR_F : COLOR_B);
 330:../Bsp/OLED/GUISlim.c ****     if (!--xsize)
 331:../Bsp/OLED/GUISlim.c ****       return;
 332:../Bsp/OLED/GUISlim.c ****   WriteBit5:
 333:../Bsp/OLED/GUISlim.c ****     SSD1306_DrawPixel(x+5, y, (pixels&(1<<2)) ? COLOR_F : COLOR_B);
 334:../Bsp/OLED/GUISlim.c ****     if (!--xsize)
 335:../Bsp/OLED/GUISlim.c ****       return;
 336:../Bsp/OLED/GUISlim.c ****   WriteBit6:
 337:../Bsp/OLED/GUISlim.c ****     SSD1306_DrawPixel(x+6, y, (pixels&(1<<1)) ? COLOR_F : COLOR_B);
 338:../Bsp/OLED/GUISlim.c ****     if (!--xsize)
 339:../Bsp/OLED/GUISlim.c ****       return;
 340:../Bsp/OLED/GUISlim.c ****   WriteBit7:
 341:../Bsp/OLED/GUISlim.c ****     SSD1306_DrawPixel(x+7, y, (pixels&(1<<0)) ? COLOR_F : COLOR_B);
 342:../Bsp/OLED/GUISlim.c ****     if (!--xsize)
 343:../Bsp/OLED/GUISlim.c ****       return;
 344:../Bsp/OLED/GUISlim.c ****     x+=8;
 345:../Bsp/OLED/GUISlim.c ****     pixels = *(++p);
 346:../Bsp/OLED/GUISlim.c ****     goto WriteBit0;
 347:../Bsp/OLED/GUISlim.c **** }
 348:../Bsp/OLED/GUISlim.c **** 
 349:../Bsp/OLED/GUISlim.c **** void LCD_L0_DrawBitmap1BPP(	int x0, int y0, int xsize, int ysize,
 350:../Bsp/OLED/GUISlim.c **** 														int BytesPerLine, const U8* pData, int Diff){
 351:../Bsp/OLED/GUISlim.c ****   int i;
 352:../Bsp/OLED/GUISlim.c **** 	for (i = 0; i < ysize; i++)
 353:../Bsp/OLED/GUISlim.c **** 	{
 354:../Bsp/OLED/GUISlim.c **** 		DrawBitLine1BPP(x0, i+y0, pData, Diff, xsize);
 355:../Bsp/OLED/GUISlim.c **** 		pData += BytesPerLine;
 356:../Bsp/OLED/GUISlim.c **** 	}
ARM GAS  C:\Users\fish\AppData\Local\Temp\cc4JAs8f.s 			page 22


 357:../Bsp/OLED/GUISlim.c **** }
 358:../Bsp/OLED/GUISlim.c **** 
 359:../Bsp/OLED/GUISlim.c **** void LCD_DrawBitmap1BPP(	int x0, int y0, int xsize, int ysize, 
 360:../Bsp/OLED/GUISlim.c **** 													int BytesPerLine, const U8 GUI_UNI_PTR * pPixel){
 361:../Bsp/OLED/GUISlim.c ****   int x1, y1;
 362:../Bsp/OLED/GUISlim.c ****   /* Handle the optional Y-magnification */
 363:../Bsp/OLED/GUISlim.c ****   y1 = y0 + ysize - 1;
 364:../Bsp/OLED/GUISlim.c ****   x1 = x0 + xsize - 1;
 365:../Bsp/OLED/GUISlim.c **** /*  Handle BITMAP without magnification */
 366:../Bsp/OLED/GUISlim.c **** 	int Diff;
 367:../Bsp/OLED/GUISlim.c **** 	/*  Clip y0 (top) */
 368:../Bsp/OLED/GUISlim.c **** 	Diff = GUI_Context.ClipRect.y0 - y0;
 369:../Bsp/OLED/GUISlim.c **** 	if (Diff > 0) {
 370:../Bsp/OLED/GUISlim.c **** 		ysize -= Diff;
 371:../Bsp/OLED/GUISlim.c **** 		if (ysize <= 0) {
 372:../Bsp/OLED/GUISlim.c **** 			return;
 373:../Bsp/OLED/GUISlim.c **** 		}
 374:../Bsp/OLED/GUISlim.c **** 		y0 = GUI_Context.ClipRect.y0;
 375:../Bsp/OLED/GUISlim.c **** 		pPixel += (unsigned)Diff * (unsigned)BytesPerLine;
 376:../Bsp/OLED/GUISlim.c **** 	}
 377:../Bsp/OLED/GUISlim.c **** 	/*  Clip y1 (bottom) */
 378:../Bsp/OLED/GUISlim.c **** 	Diff = y1 - GUI_Context.ClipRect.y1;
 379:../Bsp/OLED/GUISlim.c **** 	if (Diff > 0) {
 380:../Bsp/OLED/GUISlim.c **** 		ysize -= Diff;
 381:../Bsp/OLED/GUISlim.c **** 		if (ysize <= 0) {
 382:../Bsp/OLED/GUISlim.c **** 			return;
 383:../Bsp/OLED/GUISlim.c **** 		}
 384:../Bsp/OLED/GUISlim.c **** 	}
 385:../Bsp/OLED/GUISlim.c **** 	/*        Clip right side    */
 386:../Bsp/OLED/GUISlim.c **** 	Diff = x1 - GUI_Context.ClipRect.x1;
 387:../Bsp/OLED/GUISlim.c **** 	if (Diff > 0) {
 388:../Bsp/OLED/GUISlim.c **** 		xsize -= Diff;
 389:../Bsp/OLED/GUISlim.c **** 	}
 390:../Bsp/OLED/GUISlim.c **** 	/*        Clip left side ... (The difficult side ...)    */
 391:../Bsp/OLED/GUISlim.c **** 	Diff = 0;
 392:../Bsp/OLED/GUISlim.c **** 	if (x0 < GUI_Context.ClipRect.x0) {
 393:../Bsp/OLED/GUISlim.c **** 		Diff = GUI_Context.ClipRect.x0 - x0;
 394:../Bsp/OLED/GUISlim.c **** 		xsize -= Diff;
 395:../Bsp/OLED/GUISlim.c **** 		pPixel += (Diff>>3); 
 396:../Bsp/OLED/GUISlim.c **** 		x0 += (Diff>>3)<<3; 
 397:../Bsp/OLED/GUISlim.c **** 		Diff &=7;
 398:../Bsp/OLED/GUISlim.c **** 	}
 399:../Bsp/OLED/GUISlim.c **** 	if (xsize <=0) {
 400:../Bsp/OLED/GUISlim.c **** 		return;
 401:../Bsp/OLED/GUISlim.c **** 	}
 402:../Bsp/OLED/GUISlim.c **** 	LCD_L0_DrawBitmap1BPP(x0, y0, xsize, ysize, BytesPerLine, pPixel, Diff);
 403:../Bsp/OLED/GUISlim.c **** }
 404:../Bsp/OLED/GUISlim.c **** 
 405:../Bsp/OLED/GUISlim.c **** void GUIPROP_DispChar(U16P c) {
 406:../Bsp/OLED/GUISlim.c ****   int BytesPerLine;
 407:../Bsp/OLED/GUISlim.c ****   const GUI_FONT_PROP GUI_UNI_PTR * pProp = GUIPROP_FindChar(GUI_Context.pAFont->p.pProp, c);
 408:../Bsp/OLED/GUISlim.c ****   if (pProp) {
 409:../Bsp/OLED/GUISlim.c ****     const GUI_CHARINFO GUI_UNI_PTR * pCharInfo = pProp->paCharInfo+(c-pProp->First);
 410:../Bsp/OLED/GUISlim.c ****     BytesPerLine = pCharInfo->BytesPerLine;
 411:../Bsp/OLED/GUISlim.c ****     LCD_DrawBitmap1BPP( GUI_Context.DispPosX, GUI_Context.DispPosY,
 412:../Bsp/OLED/GUISlim.c **** 												pCharInfo->XSize, GUI_Context.pAFont->YSize,
 413:../Bsp/OLED/GUISlim.c **** 												BytesPerLine, pCharInfo->pData);
ARM GAS  C:\Users\fish\AppData\Local\Temp\cc4JAs8f.s 			page 23


 414:../Bsp/OLED/GUISlim.c ****     /* Fill empty pixel lines */
 415:../Bsp/OLED/GUISlim.c ****     if (GUI_Context.pAFont->YDist > GUI_Context.pAFont->YSize) {
 416:../Bsp/OLED/GUISlim.c ****       int YDist = GUI_Context.pAFont->YDist;
 417:../Bsp/OLED/GUISlim.c ****       int YSize = GUI_Context.pAFont->YSize;
 418:../Bsp/OLED/GUISlim.c ****         SSD1306_DrawFilledRectangle(GUI_Context.DispPosX, 
 419:../Bsp/OLED/GUISlim.c ****                      GUI_Context.DispPosY + YSize, 
 420:../Bsp/OLED/GUISlim.c ****                      GUI_Context.DispPosX + pCharInfo->XSize, 
 421:../Bsp/OLED/GUISlim.c ****                      GUI_Context.DispPosY + YDist, COLOR_B);
 422:../Bsp/OLED/GUISlim.c ****     }
 423:../Bsp/OLED/GUISlim.c ****     GUI_Context.DispPosX += pCharInfo->XDist * GUI_Context.pAFont->XMag;
 424:../Bsp/OLED/GUISlim.c ****   }
 425:../Bsp/OLED/GUISlim.c **** }
 426:../Bsp/OLED/GUISlim.c **** 
 427:../Bsp/OLED/GUISlim.c **** /*********************************************************************
 428:../Bsp/OLED/GUISlim.c **** *
 429:../Bsp/OLED/GUISlim.c **** *       GUIPROP_GetCharDistX
 430:../Bsp/OLED/GUISlim.c **** */
 431:../Bsp/OLED/GUISlim.c **** int GUIPROP_GetCharDistX(U16P c) {
 432:../Bsp/OLED/GUISlim.c ****   const GUI_FONT_PROP GUI_UNI_PTR * pProp = GUIPROP_FindChar(GUI_Context.pAFont->p.pProp, c);
 433:../Bsp/OLED/GUISlim.c ****   return (pProp) ? (pProp->paCharInfo+(c-pProp->First))->XSize * GUI_Context.pAFont->XMag : 0;
 434:../Bsp/OLED/GUISlim.c **** }
 435:../Bsp/OLED/GUISlim.c **** 
 436:../Bsp/OLED/GUISlim.c **** /*********************************************************************
 437:../Bsp/OLED/GUISlim.c **** *
 438:../Bsp/OLED/GUISlim.c **** *       GUIPROP_GetFontInfo
 439:../Bsp/OLED/GUISlim.c **** */
 440:../Bsp/OLED/GUISlim.c **** void GUIPROP_GetFontInfo(const GUI_FONT GUI_UNI_PTR * pFont, GUI_FONTINFO* pfi) {
 441:../Bsp/OLED/GUISlim.c ****   pfi->Flags = GUI_FONTINFO_FLAG_PROP;
 442:../Bsp/OLED/GUISlim.c **** }
 443:../Bsp/OLED/GUISlim.c **** 
 444:../Bsp/OLED/GUISlim.c **** /*********************************************************************
 445:../Bsp/OLED/GUISlim.c **** *
 446:../Bsp/OLED/GUISlim.c **** *       GUIPROP_IsInFont
 447:../Bsp/OLED/GUISlim.c **** */
 448:../Bsp/OLED/GUISlim.c **** char GUIPROP_IsInFont(const GUI_FONT GUI_UNI_PTR * pFont, U16 c) {
 449:../Bsp/OLED/GUISlim.c ****   const GUI_FONT_PROP GUI_UNI_PTR * pProp = GUIPROP_FindChar(pFont->p.pProp, c);
 450:../Bsp/OLED/GUISlim.c ****   return (pProp==NULL) ? 0 : 1;
 451:../Bsp/OLED/GUISlim.c **** }
 452:../Bsp/OLED/GUISlim.c **** 
 453:../Bsp/OLED/GUISlim.c **** /*********************************************************************
 454:../Bsp/OLED/GUISlim.c **** *
 455:../Bsp/OLED/GUISlim.c **** *       GUI_GetFontDistY
 456:../Bsp/OLED/GUISlim.c **** */
 457:../Bsp/OLED/GUISlim.c **** int GUI_GetFontDistY(void) {
 458:../Bsp/OLED/GUISlim.c ****   int r;
 459:../Bsp/OLED/GUISlim.c ****   GUI_LOCK();
 460:../Bsp/OLED/GUISlim.c ****   r = GUI_Context.pAFont->YDist;
 461:../Bsp/OLED/GUISlim.c ****   GUI_UNLOCK();
 462:../Bsp/OLED/GUISlim.c ****   return r;
 463:../Bsp/OLED/GUISlim.c **** }
 464:../Bsp/OLED/GUISlim.c **** 
 465:../Bsp/OLED/GUISlim.c **** /*********************************************************************
 466:../Bsp/OLED/GUISlim.c **** *
 467:../Bsp/OLED/GUISlim.c **** *       GUI_GetCharDistX
 468:../Bsp/OLED/GUISlim.c **** */
 469:../Bsp/OLED/GUISlim.c **** int GUI_GetCharDistX(U16 c) {
 470:../Bsp/OLED/GUISlim.c ****   int r;
ARM GAS  C:\Users\fish\AppData\Local\Temp\cc4JAs8f.s 			page 24


 471:../Bsp/OLED/GUISlim.c ****   GUI_LOCK();
 472:../Bsp/OLED/GUISlim.c ****   r = GUI_Context.pAFont->pfGetCharDistX(c);
 473:../Bsp/OLED/GUISlim.c ****   GUI_UNLOCK();
 474:../Bsp/OLED/GUISlim.c ****   return r;
 475:../Bsp/OLED/GUISlim.c **** }
 476:../Bsp/OLED/GUISlim.c **** 
 477:../Bsp/OLED/GUISlim.c **** void GUI_DispNextLine(void) {
 478:../Bsp/OLED/GUISlim.c ****   GUI_LOCK();
 479:../Bsp/OLED/GUISlim.c ****   GUI_Context.DispPosY += GUI_GetFontDistY();
 480:../Bsp/OLED/GUISlim.c ****   GUI_UNLOCK();
 481:../Bsp/OLED/GUISlim.c **** }
 482:../Bsp/OLED/GUISlim.c **** 
 483:../Bsp/OLED/GUISlim.c **** /*********************************************************************
 484:../Bsp/OLED/GUISlim.c **** *
 485:../Bsp/OLED/GUISlim.c **** *       GL_DispChar
 486:../Bsp/OLED/GUISlim.c **** */
 487:../Bsp/OLED/GUISlim.c **** void GL_DispChar(U16 c) {
 488:../Bsp/OLED/GUISlim.c ****   /* check for control characters */
 489:../Bsp/OLED/GUISlim.c ****   if (c == '\n') {
 490:../Bsp/OLED/GUISlim.c ****     GUI_DispNextLine();
 491:../Bsp/OLED/GUISlim.c ****   } else {
 492:../Bsp/OLED/GUISlim.c ****     if (c != '\r') {
 493:../Bsp/OLED/GUISlim.c ****       GUI_LOCK();
 494:../Bsp/OLED/GUISlim.c ****       GUI_Context.pAFont->pfDispChar(c);
 495:../Bsp/OLED/GUISlim.c ****       GUI_UNLOCK();
 496:../Bsp/OLED/GUISlim.c ****     }
 497:../Bsp/OLED/GUISlim.c ****   }
 498:../Bsp/OLED/GUISlim.c **** }
 499:../Bsp/OLED/GUISlim.c **** 
 500:../Bsp/OLED/GUISlim.c **** /*********************************************************************
 501:../Bsp/OLED/GUISlim.c **** *
 502:../Bsp/OLED/GUISlim.c **** *       GUI_GetYAdjust
 503:../Bsp/OLED/GUISlim.c **** *
 504:../Bsp/OLED/GUISlim.c **** * Returns adjustment in vertical (Y) direction
 505:../Bsp/OLED/GUISlim.c **** *
 506:../Bsp/OLED/GUISlim.c **** * Note: The return value needs to be subtracted from
 507:../Bsp/OLED/GUISlim.c **** *       the y-position of the character.
 508:../Bsp/OLED/GUISlim.c **** */
 509:../Bsp/OLED/GUISlim.c **** int GUI_GetYAdjust(void) {
 510:../Bsp/OLED/GUISlim.c ****   int r = 0;
 511:../Bsp/OLED/GUISlim.c ****   GUI_LOCK();
 512:../Bsp/OLED/GUISlim.c ****   switch (GUI_Context.TextAlign & GUI_TA_VERTICAL) {
 513:../Bsp/OLED/GUISlim.c **** 	case GUI_TA_BOTTOM:
 514:../Bsp/OLED/GUISlim.c **** 		r = GUI_Context.pAFont->YSize - 1;
 515:../Bsp/OLED/GUISlim.c ****     break;
 516:../Bsp/OLED/GUISlim.c **** 	case GUI_TA_VCENTER:
 517:../Bsp/OLED/GUISlim.c **** 		r = GUI_Context.pAFont->YSize / 2;
 518:../Bsp/OLED/GUISlim.c ****     break;
 519:../Bsp/OLED/GUISlim.c **** 	case GUI_TA_BASELINE:
 520:../Bsp/OLED/GUISlim.c **** 		r = GUI_Context.pAFont->YSize / 2;
 521:../Bsp/OLED/GUISlim.c **** 	}
 522:../Bsp/OLED/GUISlim.c ****   GUI_UNLOCK();
 523:../Bsp/OLED/GUISlim.c ****   return r;
 524:../Bsp/OLED/GUISlim.c **** }
 525:../Bsp/OLED/GUISlim.c **** 
 526:../Bsp/OLED/GUISlim.c **** /*********************************************************************
 527:../Bsp/OLED/GUISlim.c **** *
ARM GAS  C:\Users\fish\AppData\Local\Temp\cc4JAs8f.s 			page 25


 528:../Bsp/OLED/GUISlim.c **** *       _GotoY
 529:../Bsp/OLED/GUISlim.c **** */
 530:../Bsp/OLED/GUISlim.c **** static char _GotoY(int y) {
 716              		.loc 1 530 27 is_stmt 1 view -0
 717              		.cfi_startproc
 718              		@ args = 0, pretend = 0, frame = 0
 719              		@ frame_needed = 0, uses_anonymous_args = 0
 720              		@ link register save eliminated.
 531:../Bsp/OLED/GUISlim.c ****   GUI_Context.DispPosY = y;
 721              		.loc 1 531 3 view .LVU228
 722              		.loc 1 531 24 is_stmt 0 view .LVU229
 723 0000 014B     		ldr	r3, .L59
 724 0002 D882     		strh	r0, [r3, #22]	@ movhi
 532:../Bsp/OLED/GUISlim.c ****   return 0;
 725              		.loc 1 532 3 is_stmt 1 view .LVU230
 533:../Bsp/OLED/GUISlim.c **** }
 726              		.loc 1 533 1 is_stmt 0 view .LVU231
 727 0004 0020     		movs	r0, #0
 728              	.LVL81:
 729              		.loc 1 533 1 view .LVU232
 730 0006 7047     		bx	lr
 731              	.L60:
 732              		.align	2
 733              	.L59:
 734 0008 00000000 		.word	GUI_Context
 735              		.cfi_endproc
 736              	.LFE266:
 738              		.section	.text._GotoX,"ax",%progbits
 739              		.align	1
 740              		.syntax unified
 741              		.thumb
 742              		.thumb_func
 744              	_GotoX:
 745              	.LVL82:
 746              	.LFB267:
 534:../Bsp/OLED/GUISlim.c **** 
 535:../Bsp/OLED/GUISlim.c **** /*********************************************************************
 536:../Bsp/OLED/GUISlim.c **** *
 537:../Bsp/OLED/GUISlim.c **** *       _GotoX
 538:../Bsp/OLED/GUISlim.c **** */
 539:../Bsp/OLED/GUISlim.c **** static char _GotoX(int x) {
 747              		.loc 1 539 27 is_stmt 1 view -0
 748              		.cfi_startproc
 749              		@ args = 0, pretend = 0, frame = 0
 750              		@ frame_needed = 0, uses_anonymous_args = 0
 751              		@ link register save eliminated.
 540:../Bsp/OLED/GUISlim.c ****   GUI_Context.DispPosX = x;
 752              		.loc 1 540 3 view .LVU234
 753              		.loc 1 540 24 is_stmt 0 view .LVU235
 754 0000 014B     		ldr	r3, .L62
 755 0002 9882     		strh	r0, [r3, #20]	@ movhi
 541:../Bsp/OLED/GUISlim.c ****   return 0;
 756              		.loc 1 541 3 is_stmt 1 view .LVU236
 542:../Bsp/OLED/GUISlim.c **** }
 757              		.loc 1 542 1 is_stmt 0 view .LVU237
 758 0004 0020     		movs	r0, #0
 759              	.LVL83:
ARM GAS  C:\Users\fish\AppData\Local\Temp\cc4JAs8f.s 			page 26


 760              		.loc 1 542 1 view .LVU238
 761 0006 7047     		bx	lr
 762              	.L63:
 763              		.align	2
 764              	.L62:
 765 0008 00000000 		.word	GUI_Context
 766              		.cfi_endproc
 767              	.LFE267:
 769              		.section	.text.DB2SJIS,"ax",%progbits
 770              		.align	1
 771              		.syntax unified
 772              		.thumb
 773              		.thumb_func
 775              	DB2SJIS:
 776              	.LVL84:
 777              	.LFB276:
 543:../Bsp/OLED/GUISlim.c **** 
 544:../Bsp/OLED/GUISlim.c **** /*********************************************************************
 545:../Bsp/OLED/GUISlim.c **** *
 546:../Bsp/OLED/GUISlim.c **** *       GUI_GotoY
 547:../Bsp/OLED/GUISlim.c **** */
 548:../Bsp/OLED/GUISlim.c **** char GUI_GotoY(int y) {
 549:../Bsp/OLED/GUISlim.c ****   char r;
 550:../Bsp/OLED/GUISlim.c ****   GUI_LOCK();
 551:../Bsp/OLED/GUISlim.c ****   r = _GotoY(y);
 552:../Bsp/OLED/GUISlim.c ****   GUI_UNLOCK();
 553:../Bsp/OLED/GUISlim.c ****   return r;
 554:../Bsp/OLED/GUISlim.c **** }
 555:../Bsp/OLED/GUISlim.c **** 
 556:../Bsp/OLED/GUISlim.c **** /*********************************************************************
 557:../Bsp/OLED/GUISlim.c **** *
 558:../Bsp/OLED/GUISlim.c **** *       GUI_GotoX
 559:../Bsp/OLED/GUISlim.c **** */
 560:../Bsp/OLED/GUISlim.c **** char GUI_GotoX(int x) {
 561:../Bsp/OLED/GUISlim.c ****   char r;
 562:../Bsp/OLED/GUISlim.c ****   GUI_LOCK();
 563:../Bsp/OLED/GUISlim.c ****   r = _GotoX(x);
 564:../Bsp/OLED/GUISlim.c ****   GUI_UNLOCK();
 565:../Bsp/OLED/GUISlim.c ****   return r;
 566:../Bsp/OLED/GUISlim.c **** }
 567:../Bsp/OLED/GUISlim.c **** 
 568:../Bsp/OLED/GUISlim.c **** /*********************************************************************
 569:../Bsp/OLED/GUISlim.c **** *
 570:../Bsp/OLED/GUISlim.c **** *       GUI_GotoXY
 571:../Bsp/OLED/GUISlim.c **** */
 572:../Bsp/OLED/GUISlim.c **** char GUI_GotoXY(int x, int y) {
 573:../Bsp/OLED/GUISlim.c ****   char r;
 574:../Bsp/OLED/GUISlim.c ****   GUI_LOCK();
 575:../Bsp/OLED/GUISlim.c ****   r  = _GotoX(x);
 576:../Bsp/OLED/GUISlim.c ****   r |= _GotoY(y);
 577:../Bsp/OLED/GUISlim.c ****   GUI_UNLOCK();
 578:../Bsp/OLED/GUISlim.c ****   return r;
 579:../Bsp/OLED/GUISlim.c **** }
 580:../Bsp/OLED/GUISlim.c **** 
 581:../Bsp/OLED/GUISlim.c **** void GUI_ClearRect(int x0, int y0, int x1, int y1) {
 582:../Bsp/OLED/GUISlim.c ****   GUI_LOCK();
 583:../Bsp/OLED/GUISlim.c ****   SSD1306_DrawFilledRectangle(x0,y0,x1,y1, GUI_COLOR_BLACK);
ARM GAS  C:\Users\fish\AppData\Local\Temp\cc4JAs8f.s 			page 27


 584:../Bsp/OLED/GUISlim.c ****   GUI_UNLOCK();
 585:../Bsp/OLED/GUISlim.c **** }
 586:../Bsp/OLED/GUISlim.c **** 
 587:../Bsp/OLED/GUISlim.c **** void GUI_Clear(void) {
 588:../Bsp/OLED/GUISlim.c ****   GUI_GotoXY(0,0);     /* Reset text cursor to upper left */
 589:../Bsp/OLED/GUISlim.c ****   GUI_ClearRect(0, 0, GUI_GetXSize(), GUI_GetYSize());
 590:../Bsp/OLED/GUISlim.c **** }
 591:../Bsp/OLED/GUISlim.c **** 
 592:../Bsp/OLED/GUISlim.c **** void GUI_DispCEOL(void) {
 593:../Bsp/OLED/GUISlim.c ****   int y = GUI_Context.DispPosY - GUI_GetYAdjust();
 594:../Bsp/OLED/GUISlim.c ****   GUI_ClearRect(GUI_Context.DispPosX, y, 4000,             /* Max pos x */
 595:../Bsp/OLED/GUISlim.c ****                 y + GUI_Context.pAFont->YDist - 1);
 596:../Bsp/OLED/GUISlim.c **** }
 597:../Bsp/OLED/GUISlim.c **** 
 598:../Bsp/OLED/GUISlim.c **** void GUI_DispChar(U16 c) {
 599:../Bsp/OLED/GUISlim.c ****   GUI_LOCK();
 600:../Bsp/OLED/GUISlim.c ****   GL_DispChar(c);
 601:../Bsp/OLED/GUISlim.c ****   GUI_UNLOCK();
 602:../Bsp/OLED/GUISlim.c **** }
 603:../Bsp/OLED/GUISlim.c **** 
 604:../Bsp/OLED/GUISlim.c **** void GUI_DispCharAt(U16 c, I16P x, I16P y) {
 605:../Bsp/OLED/GUISlim.c ****   GUI_LOCK();
 606:../Bsp/OLED/GUISlim.c ****   GUI_Context.DispPosX = x;
 607:../Bsp/OLED/GUISlim.c ****   GUI_Context.DispPosY = y;
 608:../Bsp/OLED/GUISlim.c **** 	GL_DispChar(c);
 609:../Bsp/OLED/GUISlim.c ****   GUI_UNLOCK();
 610:../Bsp/OLED/GUISlim.c **** }
 611:../Bsp/OLED/GUISlim.c **** 
 612:../Bsp/OLED/GUISlim.c **** ///////////////////////////////////////////////////////////////////////
 613:../Bsp/OLED/GUISlim.c **** /*********************************************************************
 614:../Bsp/OLED/GUISlim.c **** *
 615:../Bsp/OLED/GUISlim.c **** *       Static code
 616:../Bsp/OLED/GUISlim.c **** *
 617:../Bsp/OLED/GUISlim.c **** **********************************************************************
 618:../Bsp/OLED/GUISlim.c **** */
 619:../Bsp/OLED/GUISlim.c **** /*********************************************************************
 620:../Bsp/OLED/GUISlim.c **** *
 621:../Bsp/OLED/GUISlim.c **** *       DB2SJIS
 622:../Bsp/OLED/GUISlim.c **** */
 623:../Bsp/OLED/GUISlim.c **** static U16 DB2SJIS(U8 Byte0, U8 Byte1) {
 778              		.loc 1 623 40 is_stmt 1 view -0
 779              		.cfi_startproc
 780              		@ args = 0, pretend = 0, frame = 0
 781              		@ frame_needed = 0, uses_anonymous_args = 0
 782              		@ link register save eliminated.
 624:../Bsp/OLED/GUISlim.c ****   return Byte1 | (((U16)Byte0)<<8);
 783              		.loc 1 624 3 view .LVU240
 625:../Bsp/OLED/GUISlim.c **** }
 784              		.loc 1 625 1 is_stmt 0 view .LVU241
 785 0000 41EA0020 		orr	r0, r1, r0, lsl #8
 786              	.LVL85:
 787              		.loc 1 625 1 view .LVU242
 788 0004 7047     		bx	lr
 789              		.cfi_endproc
 790              	.LFE276:
 792              		.section	.text._GetLineLen_SJIS,"ax",%progbits
 793              		.align	1
ARM GAS  C:\Users\fish\AppData\Local\Temp\cc4JAs8f.s 			page 28


 794              		.syntax unified
 795              		.thumb
 796              		.thumb_func
 798              	_GetLineLen_SJIS:
 799              	.LVL86:
 800              	.LFB278:
 626:../Bsp/OLED/GUISlim.c **** 
 627:../Bsp/OLED/GUISlim.c **** /*********************************************************************
 628:../Bsp/OLED/GUISlim.c **** *
 629:../Bsp/OLED/GUISlim.c **** *       _GetLineDistX_SJIS
 630:../Bsp/OLED/GUISlim.c **** */
 631:../Bsp/OLED/GUISlim.c **** static int _GetLineDistX_SJIS(const char GUI_UNI_PTR *s, int Len) {
 632:../Bsp/OLED/GUISlim.c ****   int Dist =0;
 633:../Bsp/OLED/GUISlim.c ****   if (s) {
 634:../Bsp/OLED/GUISlim.c ****     U8 c0;
 635:../Bsp/OLED/GUISlim.c ****     while (((c0=*(const U8*)s) !=0) && Len >=0) {
 636:../Bsp/OLED/GUISlim.c ****       s++; Len--;
 637:../Bsp/OLED/GUISlim.c ****       if (c0 > 127) {
 638:../Bsp/OLED/GUISlim.c ****         U8  c1 = *(const U8*)s++;
 639:../Bsp/OLED/GUISlim.c ****         Len--;
 640:../Bsp/OLED/GUISlim.c ****         Dist += GUI_GetCharDistX(DB2SJIS(c0, c1));
 641:../Bsp/OLED/GUISlim.c ****       } else {
 642:../Bsp/OLED/GUISlim.c ****         Dist += GUI_GetCharDistX(c0);
 643:../Bsp/OLED/GUISlim.c ****       }
 644:../Bsp/OLED/GUISlim.c ****     }
 645:../Bsp/OLED/GUISlim.c ****   }
 646:../Bsp/OLED/GUISlim.c ****   return Dist;
 647:../Bsp/OLED/GUISlim.c **** }
 648:../Bsp/OLED/GUISlim.c **** 
 649:../Bsp/OLED/GUISlim.c **** /*********************************************************************
 650:../Bsp/OLED/GUISlim.c **** *
 651:../Bsp/OLED/GUISlim.c **** *       _GetLineLen_SJIS
 652:../Bsp/OLED/GUISlim.c **** * Purpose:
 653:../Bsp/OLED/GUISlim.c **** *   Returns the number of characters in a string.
 654:../Bsp/OLED/GUISlim.c **** *
 655:../Bsp/OLED/GUISlim.c **** * NOTE:
 656:../Bsp/OLED/GUISlim.c **** *   The return value can be used as offset into the
 657:../Bsp/OLED/GUISlim.c **** *   string, which means that double characters count double
 658:../Bsp/OLED/GUISlim.c **** */
 659:../Bsp/OLED/GUISlim.c **** static int _GetLineLen_SJIS(const char GUI_UNI_PTR *s, int MaxLen) {
 801              		.loc 1 659 68 is_stmt 1 view -0
 802              		.cfi_startproc
 803              		@ args = 0, pretend = 0, frame = 0
 804              		@ frame_needed = 0, uses_anonymous_args = 0
 805              		@ link register save eliminated.
 806              		.loc 1 659 68 is_stmt 0 view .LVU244
 807 0000 0346     		mov	r3, r0
 660:../Bsp/OLED/GUISlim.c ****   int Len =0;
 808              		.loc 1 660 3 is_stmt 1 view .LVU245
 809              	.LVL87:
 661:../Bsp/OLED/GUISlim.c ****   U8 c0;
 810              		.loc 1 661 3 view .LVU246
 662:../Bsp/OLED/GUISlim.c ****   while (((c0=*(const U8*)s) !=0) && Len < MaxLen) {
 811              		.loc 1 662 3 view .LVU247
 660:../Bsp/OLED/GUISlim.c ****   int Len =0;
 812              		.loc 1 660 7 is_stmt 0 view .LVU248
 813 0002 0020     		movs	r0, #0
ARM GAS  C:\Users\fish\AppData\Local\Temp\cc4JAs8f.s 			page 29


 814              	.LVL88:
 815              		.loc 1 662 9 view .LVU249
 816 0004 04E0     		b	.L66
 817              	.LVL89:
 818              	.L71:
 663:../Bsp/OLED/GUISlim.c ****     s++;
 664:../Bsp/OLED/GUISlim.c ****     if (c0 > 127) {
 665:../Bsp/OLED/GUISlim.c ****       Len++; s++;
 819              		.loc 1 665 7 is_stmt 1 view .LVU250
 820              		.loc 1 665 10 is_stmt 0 view .LVU251
 821 0006 0130     		adds	r0, r0, #1
 822              	.LVL90:
 823              		.loc 1 665 14 is_stmt 1 view .LVU252
 824              		.loc 1 665 15 is_stmt 0 view .LVU253
 825 0008 03F1020C 		add	ip, r3, #2
 826              	.LVL91:
 827              	.L68:
 666:../Bsp/OLED/GUISlim.c ****     } else {
 667:../Bsp/OLED/GUISlim.c ****       switch (c0) {
 668:../Bsp/OLED/GUISlim.c ****       case '\n': return Len;
 669:../Bsp/OLED/GUISlim.c ****       }
 670:../Bsp/OLED/GUISlim.c ****     }
 671:../Bsp/OLED/GUISlim.c ****     Len++;
 828              		.loc 1 671 5 is_stmt 1 view .LVU254
 829              		.loc 1 671 8 is_stmt 0 view .LVU255
 830 000c 0130     		adds	r0, r0, #1
 831              	.LVL92:
 832              		.loc 1 671 8 view .LVU256
 833 000e 6346     		mov	r3, ip
 834              	.LVL93:
 835              	.L66:
 662:../Bsp/OLED/GUISlim.c ****     s++;
 836              		.loc 1 662 35 is_stmt 1 view .LVU257
 662:../Bsp/OLED/GUISlim.c ****     s++;
 837              		.loc 1 662 14 is_stmt 0 view .LVU258
 838 0010 1A78     		ldrb	r2, [r3]	@ zero_extendqisi2
 839              	.LVL94:
 662:../Bsp/OLED/GUISlim.c ****     s++;
 840              		.loc 1 662 35 view .LVU259
 841 0012 42B1     		cbz	r2, .L65
 662:../Bsp/OLED/GUISlim.c ****     s++;
 842              		.loc 1 662 35 discriminator 1 view .LVU260
 843 0014 8842     		cmp	r0, r1
 844 0016 06DA     		bge	.L65
 663:../Bsp/OLED/GUISlim.c ****     s++;
 845              		.loc 1 663 5 is_stmt 1 view .LVU261
 663:../Bsp/OLED/GUISlim.c ****     s++;
 846              		.loc 1 663 6 is_stmt 0 view .LVU262
 847 0018 03F1010C 		add	ip, r3, #1
 848              	.LVL95:
 664:../Bsp/OLED/GUISlim.c ****       Len++; s++;
 849              		.loc 1 664 5 is_stmt 1 view .LVU263
 664:../Bsp/OLED/GUISlim.c ****       Len++; s++;
 850              		.loc 1 664 8 is_stmt 0 view .LVU264
 851 001c 12F0800F 		tst	r2, #128
 852 0020 F1D1     		bne	.L71
 667:../Bsp/OLED/GUISlim.c ****       case '\n': return Len;
ARM GAS  C:\Users\fish\AppData\Local\Temp\cc4JAs8f.s 			page 30


 853              		.loc 1 667 7 is_stmt 1 view .LVU265
 854 0022 0A2A     		cmp	r2, #10
 855 0024 F2D1     		bne	.L68
 856              	.LVL96:
 857              	.L65:
 672:../Bsp/OLED/GUISlim.c ****   }
 673:../Bsp/OLED/GUISlim.c ****   return Len;
 674:../Bsp/OLED/GUISlim.c **** }
 858              		.loc 1 674 1 is_stmt 0 view .LVU266
 859 0026 7047     		bx	lr
 860              		.cfi_endproc
 861              	.LFE278:
 863              		.section	.text._GetCharCode,"ax",%progbits
 864              		.align	1
 865              		.syntax unified
 866              		.thumb
 867              		.thumb_func
 869              	_GetCharCode:
 870              	.LVL97:
 871              	.LFB280:
 675:../Bsp/OLED/GUISlim.c **** 
 676:../Bsp/OLED/GUISlim.c **** /*********************************************************************
 677:../Bsp/OLED/GUISlim.c **** *
 678:../Bsp/OLED/GUISlim.c **** *       _DispLine_SJIS
 679:../Bsp/OLED/GUISlim.c **** */
 680:../Bsp/OLED/GUISlim.c **** static void _DispLine_SJIS(const char GUI_UNI_PTR *s, int Len) {
 681:../Bsp/OLED/GUISlim.c ****   U8 c0;
 682:../Bsp/OLED/GUISlim.c ****   while (--Len >=0) {
 683:../Bsp/OLED/GUISlim.c ****     c0=*(const U8*)s++;
 684:../Bsp/OLED/GUISlim.c ****     if (c0 > 127) {
 685:../Bsp/OLED/GUISlim.c ****       U8  c1 = *(const U8*)s++;
 686:../Bsp/OLED/GUISlim.c ****       Len--;
 687:../Bsp/OLED/GUISlim.c ****       GL_DispChar (DB2SJIS(c0, c1));
 688:../Bsp/OLED/GUISlim.c ****     } else {
 689:../Bsp/OLED/GUISlim.c ****       GL_DispChar(c0);
 690:../Bsp/OLED/GUISlim.c ****     }
 691:../Bsp/OLED/GUISlim.c ****   }
 692:../Bsp/OLED/GUISlim.c **** }
 693:../Bsp/OLED/GUISlim.c **** ///////////////////////////////////////////////////////////////////////
 694:../Bsp/OLED/GUISlim.c **** 
 695:../Bsp/OLED/GUISlim.c **** static U16 _GetCharCode(const char GUI_UNI_PTR * s) {
 872              		.loc 1 695 53 is_stmt 1 view -0
 873              		.cfi_startproc
 874              		@ args = 0, pretend = 0, frame = 0
 875              		@ frame_needed = 0, uses_anonymous_args = 0
 876              		@ link register save eliminated.
 696:../Bsp/OLED/GUISlim.c ****   return *(const U8 GUI_UNI_PTR *)s;
 877              		.loc 1 696 3 view .LVU268
 697:../Bsp/OLED/GUISlim.c **** }
 878              		.loc 1 697 1 is_stmt 0 view .LVU269
 879 0000 0078     		ldrb	r0, [r0]	@ zero_extendqisi2
 880              	.LVL98:
 881              		.loc 1 697 1 view .LVU270
 882 0002 7047     		bx	lr
 883              		.cfi_endproc
 884              	.LFE280:
 886              		.section	.text._GetCharSize,"ax",%progbits
ARM GAS  C:\Users\fish\AppData\Local\Temp\cc4JAs8f.s 			page 31


 887              		.align	1
 888              		.syntax unified
 889              		.thumb
 890              		.thumb_func
 892              	_GetCharSize:
 893              	.LVL99:
 894              	.LFB281:
 698:../Bsp/OLED/GUISlim.c **** static int _GetCharSize(const char GUI_UNI_PTR * s) {
 895              		.loc 1 698 53 is_stmt 1 view -0
 896              		.cfi_startproc
 897              		@ args = 0, pretend = 0, frame = 0
 898              		@ frame_needed = 0, uses_anonymous_args = 0
 899              		@ link register save eliminated.
 699:../Bsp/OLED/GUISlim.c ****   return 1;
 900              		.loc 1 699 3 view .LVU272
 700:../Bsp/OLED/GUISlim.c **** }
 901              		.loc 1 700 1 is_stmt 0 view .LVU273
 902 0000 0120     		movs	r0, #1
 903              	.LVL100:
 904              		.loc 1 700 1 view .LVU274
 905 0002 7047     		bx	lr
 906              		.cfi_endproc
 907              	.LFE281:
 909              		.section	.text.LCD_GetXSize,"ax",%progbits
 910              		.align	1
 911              		.global	LCD_GetXSize
 912              		.syntax unified
 913              		.thumb
 914              		.thumb_func
 916              	LCD_GetXSize:
 917              	.LFB239:
  12:../Bsp/OLED/GUISlim.c **** int LCD_GetYSize(void)        { return SSD1306_HEIGHT; }
 918              		.loc 1 12 31 is_stmt 1 view -0
 919              		.cfi_startproc
 920              		@ args = 0, pretend = 0, frame = 0
 921              		@ frame_needed = 0, uses_anonymous_args = 0
 922              		@ link register save eliminated.
  12:../Bsp/OLED/GUISlim.c **** int LCD_GetYSize(void)        { return SSD1306_HEIGHT; }
 923              		.loc 1 12 33 view .LVU276
  12:../Bsp/OLED/GUISlim.c **** int LCD_GetYSize(void)        { return SSD1306_HEIGHT; }
 924              		.loc 1 12 55 is_stmt 0 view .LVU277
 925 0000 8020     		movs	r0, #128
 926 0002 7047     		bx	lr
 927              		.cfi_endproc
 928              	.LFE239:
 930              		.section	.text.LCD_GetYSize,"ax",%progbits
 931              		.align	1
 932              		.global	LCD_GetYSize
 933              		.syntax unified
 934              		.thumb
 935              		.thumb_func
 937              	LCD_GetYSize:
 938              	.LFB240:
  13:../Bsp/OLED/GUISlim.c **** int GUI_GetXSize(void)        { return LCD_GetXSize(); }
 939              		.loc 1 13 31 is_stmt 1 view -0
 940              		.cfi_startproc
 941              		@ args = 0, pretend = 0, frame = 0
ARM GAS  C:\Users\fish\AppData\Local\Temp\cc4JAs8f.s 			page 32


 942              		@ frame_needed = 0, uses_anonymous_args = 0
 943              		@ link register save eliminated.
  13:../Bsp/OLED/GUISlim.c **** int GUI_GetXSize(void)        { return LCD_GetXSize(); }
 944              		.loc 1 13 33 view .LVU279
  13:../Bsp/OLED/GUISlim.c **** int GUI_GetXSize(void)        { return LCD_GetXSize(); }
 945              		.loc 1 13 56 is_stmt 0 view .LVU280
 946 0000 4020     		movs	r0, #64
 947 0002 7047     		bx	lr
 948              		.cfi_endproc
 949              	.LFE240:
 951              		.section	.text.GUI_GetXSize,"ax",%progbits
 952              		.align	1
 953              		.global	GUI_GetXSize
 954              		.syntax unified
 955              		.thumb
 956              		.thumb_func
 958              	GUI_GetXSize:
 959              	.LFB241:
  14:../Bsp/OLED/GUISlim.c **** int GUI_GetYSize(void)        { return LCD_GetYSize(); }
 960              		.loc 1 14 31 is_stmt 1 view -0
 961              		.cfi_startproc
 962              		@ args = 0, pretend = 0, frame = 0
 963              		@ frame_needed = 0, uses_anonymous_args = 0
 964 0000 08B5     		push	{r3, lr}
 965              		.cfi_def_cfa_offset 8
 966              		.cfi_offset 3, -8
 967              		.cfi_offset 14, -4
  14:../Bsp/OLED/GUISlim.c **** int GUI_GetYSize(void)        { return LCD_GetYSize(); }
 968              		.loc 1 14 33 view .LVU282
  14:../Bsp/OLED/GUISlim.c **** int GUI_GetYSize(void)        { return LCD_GetYSize(); }
 969              		.loc 1 14 40 is_stmt 0 view .LVU283
 970 0002 FFF7FEFF 		bl	LCD_GetXSize
 971              	.LVL101:
  14:../Bsp/OLED/GUISlim.c **** int GUI_GetYSize(void)        { return LCD_GetYSize(); }
 972              		.loc 1 14 56 view .LVU284
 973 0006 08BD     		pop	{r3, pc}
 974              		.cfi_endproc
 975              	.LFE241:
 977              		.section	.text.GUI_GetYSize,"ax",%progbits
 978              		.align	1
 979              		.global	GUI_GetYSize
 980              		.syntax unified
 981              		.thumb
 982              		.thumb_func
 984              	GUI_GetYSize:
 985              	.LFB242:
  15:../Bsp/OLED/GUISlim.c **** void LCD_GetRect(LCD_RECT *pRect) {
 986              		.loc 1 15 31 is_stmt 1 view -0
 987              		.cfi_startproc
 988              		@ args = 0, pretend = 0, frame = 0
 989              		@ frame_needed = 0, uses_anonymous_args = 0
 990 0000 08B5     		push	{r3, lr}
 991              		.cfi_def_cfa_offset 8
 992              		.cfi_offset 3, -8
 993              		.cfi_offset 14, -4
  15:../Bsp/OLED/GUISlim.c **** void LCD_GetRect(LCD_RECT *pRect) {
 994              		.loc 1 15 33 view .LVU286
ARM GAS  C:\Users\fish\AppData\Local\Temp\cc4JAs8f.s 			page 33


  15:../Bsp/OLED/GUISlim.c **** void LCD_GetRect(LCD_RECT *pRect) {
 995              		.loc 1 15 40 is_stmt 0 view .LVU287
 996 0002 FFF7FEFF 		bl	LCD_GetYSize
 997              	.LVL102:
  15:../Bsp/OLED/GUISlim.c **** void LCD_GetRect(LCD_RECT *pRect) {
 998              		.loc 1 15 56 view .LVU288
 999 0006 08BD     		pop	{r3, pc}
 1000              		.cfi_endproc
 1001              	.LFE242:
 1003              		.section	.text.LCD_GetRect,"ax",%progbits
 1004              		.align	1
 1005              		.global	LCD_GetRect
 1006              		.syntax unified
 1007              		.thumb
 1008              		.thumb_func
 1010              	LCD_GetRect:
 1011              	.LVL103:
 1012              	.LFB243:
  16:../Bsp/OLED/GUISlim.c ****   pRect->x0 = 0;
 1013              		.loc 1 16 35 is_stmt 1 view -0
 1014              		.cfi_startproc
 1015              		@ args = 0, pretend = 0, frame = 0
 1016              		@ frame_needed = 0, uses_anonymous_args = 0
  16:../Bsp/OLED/GUISlim.c ****   pRect->x0 = 0;
 1017              		.loc 1 16 35 is_stmt 0 view .LVU290
 1018 0000 10B5     		push	{r4, lr}
 1019              		.cfi_def_cfa_offset 8
 1020              		.cfi_offset 4, -8
 1021              		.cfi_offset 14, -4
 1022 0002 0446     		mov	r4, r0
  17:../Bsp/OLED/GUISlim.c ****   pRect->y0 = 0;
 1023              		.loc 1 17 3 is_stmt 1 view .LVU291
  17:../Bsp/OLED/GUISlim.c ****   pRect->y0 = 0;
 1024              		.loc 1 17 13 is_stmt 0 view .LVU292
 1025 0004 0023     		movs	r3, #0
 1026 0006 0380     		strh	r3, [r0]	@ movhi
  18:../Bsp/OLED/GUISlim.c ****   pRect->x1 = LCD_GetXSize() - 1;
 1027              		.loc 1 18 3 is_stmt 1 view .LVU293
  18:../Bsp/OLED/GUISlim.c ****   pRect->x1 = LCD_GetXSize() - 1;
 1028              		.loc 1 18 13 is_stmt 0 view .LVU294
 1029 0008 4380     		strh	r3, [r0, #2]	@ movhi
  19:../Bsp/OLED/GUISlim.c ****   pRect->y1 = LCD_GetYSize() - 1;
 1030              		.loc 1 19 3 is_stmt 1 view .LVU295
  19:../Bsp/OLED/GUISlim.c ****   pRect->y1 = LCD_GetYSize() - 1;
 1031              		.loc 1 19 15 is_stmt 0 view .LVU296
 1032 000a FFF7FEFF 		bl	LCD_GetXSize
 1033              	.LVL104:
  19:../Bsp/OLED/GUISlim.c ****   pRect->y1 = LCD_GetYSize() - 1;
 1034              		.loc 1 19 30 discriminator 1 view .LVU297
 1035 000e 0138     		subs	r0, r0, #1
  19:../Bsp/OLED/GUISlim.c ****   pRect->y1 = LCD_GetYSize() - 1;
 1036              		.loc 1 19 13 discriminator 1 view .LVU298
 1037 0010 A080     		strh	r0, [r4, #4]	@ movhi
  20:../Bsp/OLED/GUISlim.c **** }
 1038              		.loc 1 20 3 is_stmt 1 view .LVU299
  20:../Bsp/OLED/GUISlim.c **** }
 1039              		.loc 1 20 15 is_stmt 0 view .LVU300
ARM GAS  C:\Users\fish\AppData\Local\Temp\cc4JAs8f.s 			page 34


 1040 0012 FFF7FEFF 		bl	LCD_GetYSize
 1041              	.LVL105:
  20:../Bsp/OLED/GUISlim.c **** }
 1042              		.loc 1 20 30 discriminator 1 view .LVU301
 1043 0016 0138     		subs	r0, r0, #1
  20:../Bsp/OLED/GUISlim.c **** }
 1044              		.loc 1 20 13 discriminator 1 view .LVU302
 1045 0018 E080     		strh	r0, [r4, #6]	@ movhi
  21:../Bsp/OLED/GUISlim.c **** 
 1046              		.loc 1 21 1 view .LVU303
 1047 001a 10BD     		pop	{r4, pc}
  21:../Bsp/OLED/GUISlim.c **** 
 1048              		.loc 1 21 1 view .LVU304
 1049              		.cfi_endproc
 1050              	.LFE243:
 1052              		.section	.text.GUI_Init,"ax",%progbits
 1053              		.align	1
 1054              		.global	GUI_Init
 1055              		.syntax unified
 1056              		.thumb
 1057              		.thumb_func
 1059              	GUI_Init:
 1060              	.LFB244:
  23:../Bsp/OLED/GUISlim.c ****   GUI_DecChar = '.';
 1061              		.loc 1 23 20 is_stmt 1 view -0
 1062              		.cfi_startproc
 1063              		@ args = 0, pretend = 0, frame = 0
 1064              		@ frame_needed = 0, uses_anonymous_args = 0
 1065 0000 38B5     		push	{r3, r4, r5, lr}
 1066              		.cfi_def_cfa_offset 16
 1067              		.cfi_offset 3, -16
 1068              		.cfi_offset 4, -12
 1069              		.cfi_offset 5, -8
 1070              		.cfi_offset 14, -4
  24:../Bsp/OLED/GUISlim.c **** 	GUI_Context.ClipRect.x0 = 0;
 1071              		.loc 1 24 3 view .LVU306
  24:../Bsp/OLED/GUISlim.c **** 	GUI_Context.ClipRect.x0 = 0;
 1072              		.loc 1 24 15 is_stmt 0 view .LVU307
 1073 0002 0D4B     		ldr	r3, .L84
 1074 0004 2E22     		movs	r2, #46
 1075 0006 1A70     		strb	r2, [r3]
  25:../Bsp/OLED/GUISlim.c **** 	GUI_Context.ClipRect.y0 = 0;
 1076              		.loc 1 25 2 is_stmt 1 view .LVU308
  25:../Bsp/OLED/GUISlim.c **** 	GUI_Context.ClipRect.y0 = 0;
 1077              		.loc 1 25 26 is_stmt 0 view .LVU309
 1078 0008 0C4C     		ldr	r4, .L84+4
 1079 000a 0025     		movs	r5, #0
 1080 000c 2580     		strh	r5, [r4]	@ movhi
  26:../Bsp/OLED/GUISlim.c **** 	GUI_Context.ClipRect.x1 = LCD_GetXSize() - 1;
 1081              		.loc 1 26 2 is_stmt 1 view .LVU310
  26:../Bsp/OLED/GUISlim.c **** 	GUI_Context.ClipRect.x1 = LCD_GetXSize() - 1;
 1082              		.loc 1 26 26 is_stmt 0 view .LVU311
 1083 000e 6580     		strh	r5, [r4, #2]	@ movhi
  27:../Bsp/OLED/GUISlim.c **** 	GUI_Context.ClipRect.y1 = LCD_GetYSize() - 1;
 1084              		.loc 1 27 2 is_stmt 1 view .LVU312
  27:../Bsp/OLED/GUISlim.c **** 	GUI_Context.ClipRect.y1 = LCD_GetYSize() - 1;
 1085              		.loc 1 27 28 is_stmt 0 view .LVU313
ARM GAS  C:\Users\fish\AppData\Local\Temp\cc4JAs8f.s 			page 35


 1086 0010 FFF7FEFF 		bl	LCD_GetXSize
 1087              	.LVL106:
  27:../Bsp/OLED/GUISlim.c **** 	GUI_Context.ClipRect.y1 = LCD_GetYSize() - 1;
 1088              		.loc 1 27 43 discriminator 1 view .LVU314
 1089 0014 0138     		subs	r0, r0, #1
  27:../Bsp/OLED/GUISlim.c **** 	GUI_Context.ClipRect.y1 = LCD_GetYSize() - 1;
 1090              		.loc 1 27 26 discriminator 1 view .LVU315
 1091 0016 A080     		strh	r0, [r4, #4]	@ movhi
  28:../Bsp/OLED/GUISlim.c **** 	GUI_Context.DispPosX = 0;
 1092              		.loc 1 28 2 is_stmt 1 view .LVU316
  28:../Bsp/OLED/GUISlim.c **** 	GUI_Context.DispPosX = 0;
 1093              		.loc 1 28 28 is_stmt 0 view .LVU317
 1094 0018 FFF7FEFF 		bl	LCD_GetYSize
 1095              	.LVL107:
  28:../Bsp/OLED/GUISlim.c **** 	GUI_Context.DispPosX = 0;
 1096              		.loc 1 28 43 discriminator 1 view .LVU318
 1097 001c 0138     		subs	r0, r0, #1
  28:../Bsp/OLED/GUISlim.c **** 	GUI_Context.DispPosX = 0;
 1098              		.loc 1 28 26 discriminator 1 view .LVU319
 1099 001e E080     		strh	r0, [r4, #6]	@ movhi
  29:../Bsp/OLED/GUISlim.c **** 	GUI_Context.DispPosY = 0;
 1100              		.loc 1 29 2 is_stmt 1 view .LVU320
  29:../Bsp/OLED/GUISlim.c **** 	GUI_Context.DispPosY = 0;
 1101              		.loc 1 29 23 is_stmt 0 view .LVU321
 1102 0020 A582     		strh	r5, [r4, #20]	@ movhi
  30:../Bsp/OLED/GUISlim.c **** 	GUI_Context.pAFont = GUI_DEFAULT_FONT;
 1103              		.loc 1 30 2 is_stmt 1 view .LVU322
  30:../Bsp/OLED/GUISlim.c **** 	GUI_Context.pAFont = GUI_DEFAULT_FONT;
 1104              		.loc 1 30 23 is_stmt 0 view .LVU323
 1105 0022 E582     		strh	r5, [r4, #22]	@ movhi
  31:../Bsp/OLED/GUISlim.c **** 	GUI_Context.PenSize = 1;
 1106              		.loc 1 31 2 is_stmt 1 view .LVU324
  31:../Bsp/OLED/GUISlim.c **** 	GUI_Context.PenSize = 1;
 1107              		.loc 1 31 21 is_stmt 0 view .LVU325
 1108 0024 064B     		ldr	r3, .L84+8
 1109 0026 2361     		str	r3, [r4, #16]
  32:../Bsp/OLED/GUISlim.c **** 	GUI_Context.DrawColor = GUI_COLOR_WHITE;
 1110              		.loc 1 32 2 is_stmt 1 view .LVU326
  32:../Bsp/OLED/GUISlim.c **** 	GUI_Context.DrawColor = GUI_COLOR_WHITE;
 1111              		.loc 1 32 22 is_stmt 0 view .LVU327
 1112 0028 0123     		movs	r3, #1
 1113 002a 6372     		strb	r3, [r4, #9]
  33:../Bsp/OLED/GUISlim.c **** 	
 1114              		.loc 1 33 2 is_stmt 1 view .LVU328
  33:../Bsp/OLED/GUISlim.c **** 	
 1115              		.loc 1 33 24 is_stmt 0 view .LVU329
 1116 002c 2377     		strb	r3, [r4, #28]
  35:../Bsp/OLED/GUISlim.c **** 	
 1117              		.loc 1 35 2 is_stmt 1 view .LVU330
 1118 002e FFF7FEFF 		bl	SSD1306_init
 1119              	.LVL108:
  37:../Bsp/OLED/GUISlim.c **** }
 1120              		.loc 1 37 2 view .LVU331
  38:../Bsp/OLED/GUISlim.c **** 
 1121              		.loc 1 38 1 is_stmt 0 view .LVU332
 1122 0032 2846     		mov	r0, r5
 1123 0034 38BD     		pop	{r3, r4, r5, pc}
ARM GAS  C:\Users\fish\AppData\Local\Temp\cc4JAs8f.s 			page 36


 1124              	.L85:
 1125 0036 00BF     		.align	2
 1126              	.L84:
 1127 0038 00000000 		.word	GUI_DecChar
 1128 003c 00000000 		.word	GUI_Context
 1129 0040 00000000 		.word	GUI_Font8_ASCII
 1130              		.cfi_endproc
 1131              	.LFE244:
 1133              		.section	.text.GUI_SetFont,"ax",%progbits
 1134              		.align	1
 1135              		.global	GUI_SetFont
 1136              		.syntax unified
 1137              		.thumb
 1138              		.thumb_func
 1140              	GUI_SetFont:
 1141              	.LVL109:
 1142              	.LFB245:
  40:../Bsp/OLED/GUISlim.c ****   const GUI_FONT GUI_UNI_PTR* pOldFont = GUI_Context.pAFont;
 1143              		.loc 1 40 80 is_stmt 1 view -0
 1144              		.cfi_startproc
 1145              		@ args = 0, pretend = 0, frame = 0
 1146              		@ frame_needed = 0, uses_anonymous_args = 0
 1147              		@ link register save eliminated.
  40:../Bsp/OLED/GUISlim.c ****   const GUI_FONT GUI_UNI_PTR* pOldFont = GUI_Context.pAFont;
 1148              		.loc 1 40 80 is_stmt 0 view .LVU334
 1149 0000 0346     		mov	r3, r0
  41:../Bsp/OLED/GUISlim.c ****   GUI_LOCK();
 1150              		.loc 1 41 3 is_stmt 1 view .LVU335
  41:../Bsp/OLED/GUISlim.c ****   GUI_LOCK();
 1151              		.loc 1 41 31 is_stmt 0 view .LVU336
 1152 0002 034A     		ldr	r2, .L88
 1153 0004 1069     		ldr	r0, [r2, #16]
 1154              	.LVL110:
  42:../Bsp/OLED/GUISlim.c ****   if (pNewFont)
 1155              		.loc 1 42 13 is_stmt 1 view .LVU337
  43:../Bsp/OLED/GUISlim.c ****     GUI_Context.pAFont = pNewFont;
 1156              		.loc 1 43 3 view .LVU338
  43:../Bsp/OLED/GUISlim.c ****     GUI_Context.pAFont = pNewFont;
 1157              		.loc 1 43 6 is_stmt 0 view .LVU339
 1158 0006 1A46     		mov	r2, r3
 1159 0008 0BB1     		cbz	r3, .L86
  44:../Bsp/OLED/GUISlim.c ****   GUI_UNLOCK();
 1160              		.loc 1 44 5 is_stmt 1 view .LVU340
  44:../Bsp/OLED/GUISlim.c ****   GUI_UNLOCK();
 1161              		.loc 1 44 24 is_stmt 0 view .LVU341
 1162 000a 014B     		ldr	r3, .L88
 1163              	.LVL111:
  44:../Bsp/OLED/GUISlim.c ****   GUI_UNLOCK();
 1164              		.loc 1 44 24 view .LVU342
 1165 000c 1A61     		str	r2, [r3, #16]
  45:../Bsp/OLED/GUISlim.c ****   return pOldFont;
 1166              		.loc 1 45 15 is_stmt 1 view .LVU343
  46:../Bsp/OLED/GUISlim.c **** }
 1167              		.loc 1 46 3 view .LVU344
 1168              	.L86:
  47:../Bsp/OLED/GUISlim.c **** const GUI_FONT GUI_UNI_PTR* GUI_GetFont(void) {
 1169              		.loc 1 47 1 is_stmt 0 view .LVU345
ARM GAS  C:\Users\fish\AppData\Local\Temp\cc4JAs8f.s 			page 37


 1170 000e 7047     		bx	lr
 1171              	.L89:
 1172              		.align	2
 1173              	.L88:
 1174 0010 00000000 		.word	GUI_Context
 1175              		.cfi_endproc
 1176              	.LFE245:
 1178              		.section	.text.GUI_GetFont,"ax",%progbits
 1179              		.align	1
 1180              		.global	GUI_GetFont
 1181              		.syntax unified
 1182              		.thumb
 1183              		.thumb_func
 1185              	GUI_GetFont:
 1186              	.LFB246:
  48:../Bsp/OLED/GUISlim.c ****   const GUI_FONT GUI_UNI_PTR * r;
 1187              		.loc 1 48 47 is_stmt 1 view -0
 1188              		.cfi_startproc
 1189              		@ args = 0, pretend = 0, frame = 0
 1190              		@ frame_needed = 0, uses_anonymous_args = 0
 1191              		@ link register save eliminated.
  49:../Bsp/OLED/GUISlim.c ****   GUI_LOCK();
 1192              		.loc 1 49 3 view .LVU347
  50:../Bsp/OLED/GUISlim.c ****   r = GUI_Context.pAFont;
 1193              		.loc 1 50 13 view .LVU348
  51:../Bsp/OLED/GUISlim.c ****   GUI_UNLOCK();
 1194              		.loc 1 51 3 view .LVU349
 1195              	.LVL112:
  52:../Bsp/OLED/GUISlim.c ****   return r;
 1196              		.loc 1 52 15 view .LVU350
  53:../Bsp/OLED/GUISlim.c **** }
 1197              		.loc 1 53 3 view .LVU351
  54:../Bsp/OLED/GUISlim.c **** 
 1198              		.loc 1 54 1 is_stmt 0 view .LVU352
 1199 0000 014B     		ldr	r3, .L91
 1200 0002 1869     		ldr	r0, [r3, #16]
 1201 0004 7047     		bx	lr
 1202              	.L92:
 1203 0006 00BF     		.align	2
 1204              	.L91:
 1205 0008 00000000 		.word	GUI_Context
 1206              		.cfi_endproc
 1207              	.LFE246:
 1209              		.section	.text.detect_encoding_comprehensive,"ax",%progbits
 1210              		.align	1
 1211              		.global	detect_encoding_comprehensive
 1212              		.syntax unified
 1213              		.thumb
 1214              		.thumb_func
 1216              	detect_encoding_comprehensive:
 1217              	.LVL113:
 1218              	.LFB251:
 144:../Bsp/OLED/GUISlim.c ****     if (!str) return -1;
 1219              		.loc 1 144 52 is_stmt 1 view -0
 1220              		.cfi_startproc
 1221              		@ args = 0, pretend = 0, frame = 32
 1222              		@ frame_needed = 0, uses_anonymous_args = 0
ARM GAS  C:\Users\fish\AppData\Local\Temp\cc4JAs8f.s 			page 38


 145:../Bsp/OLED/GUISlim.c ****     
 1223              		.loc 1 145 5 view .LVU354
 145:../Bsp/OLED/GUISlim.c ****     
 1224              		.loc 1 145 8 is_stmt 0 view .LVU355
 1225 0000 0028     		cmp	r0, #0
 1226 0002 00F0BB80 		beq	.L113
 144:../Bsp/OLED/GUISlim.c ****     if (!str) return -1;
 1227              		.loc 1 144 52 view .LVU356
 1228 0006 2DE9F04F 		push	{r4, r5, r6, r7, r8, r9, r10, fp, lr}
 1229              		.cfi_def_cfa_offset 36
 1230              		.cfi_offset 4, -36
 1231              		.cfi_offset 5, -32
 1232              		.cfi_offset 6, -28
 1233              		.cfi_offset 7, -24
 1234              		.cfi_offset 8, -20
 1235              		.cfi_offset 9, -16
 1236              		.cfi_offset 10, -12
 1237              		.cfi_offset 11, -8
 1238              		.cfi_offset 14, -4
 1239 000a 89B0     		sub	sp, sp, #36
 1240              		.cfi_def_cfa_offset 72
 1241 000c 0546     		mov	r5, r0
 147:../Bsp/OLED/GUISlim.c ****     size_t len = strlen((const char*)s);
 1242              		.loc 1 147 5 is_stmt 1 view .LVU357
 1243              	.LVL114:
 148:../Bsp/OLED/GUISlim.c ****     if (len == 0) return 0;
 1244              		.loc 1 148 5 view .LVU358
 148:../Bsp/OLED/GUISlim.c ****     if (len == 0) return 0;
 1245              		.loc 1 148 18 is_stmt 0 view .LVU359
 1246 000e FFF7FEFF 		bl	strlen
 1247              	.LVL115:
 149:../Bsp/OLED/GUISlim.c ****     
 1248              		.loc 1 149 5 is_stmt 1 view .LVU360
 149:../Bsp/OLED/GUISlim.c ****     
 1249              		.loc 1 149 8 is_stmt 0 view .LVU361
 1250 0012 0746     		mov	r7, r0
 1251 0014 0028     		cmp	r0, #0
 1252 0016 00F0B480 		beq	.L114
 151:../Bsp/OLED/GUISlim.c ****     int utf8_score = 0;
 1253              		.loc 1 151 5 is_stmt 1 view .LVU362
 151:../Bsp/OLED/GUISlim.c ****     int utf8_score = 0;
 1254              		.loc 1 151 19 is_stmt 0 view .LVU363
 1255 001a 0023     		movs	r3, #0
 1256 001c 0293     		str	r3, [sp, #8]
 1257 001e 0393     		str	r3, [sp, #12]
 1258 0020 0493     		str	r3, [sp, #16]
 1259 0022 0593     		str	r3, [sp, #20]
 1260 0024 0693     		str	r3, [sp, #24]
 1261 0026 0793     		str	r3, [sp, #28]
 152:../Bsp/OLED/GUISlim.c ****     int gbk_score = 0;
 1262              		.loc 1 152 5 is_stmt 1 view .LVU364
 1263              	.LVL116:
 153:../Bsp/OLED/GUISlim.c ****     
 1264              		.loc 1 153 5 view .LVU365
 155:../Bsp/OLED/GUISlim.c ****     while (i < len) {
 1265              		.loc 1 155 5 view .LVU366
 156:../Bsp/OLED/GUISlim.c ****         if (s[i] <= 0x7F) {
ARM GAS  C:\Users\fish\AppData\Local\Temp\cc4JAs8f.s 			page 39


 1266              		.loc 1 156 5 view .LVU367
 155:../Bsp/OLED/GUISlim.c ****     while (i < len) {
 1267              		.loc 1 155 12 is_stmt 0 view .LVU368
 1268 0028 1C46     		mov	r4, r3
 153:../Bsp/OLED/GUISlim.c ****     
 1269              		.loc 1 153 9 view .LVU369
 1270 002a 9946     		mov	r9, r3
 152:../Bsp/OLED/GUISlim.c ****     int gbk_score = 0;
 1271              		.loc 1 152 9 view .LVU370
 1272 002c 9846     		mov	r8, r3
 1273              	.LVL117:
 1274              	.L95:
 156:../Bsp/OLED/GUISlim.c ****         if (s[i] <= 0x7F) {
 1275              		.loc 1 156 14 is_stmt 1 view .LVU371
 1276 002e BC42     		cmp	r4, r7
 1277 0030 64D2     		bcs	.L131
 1278              	.LBB15:
 157:../Bsp/OLED/GUISlim.c ****             stats.ascii_count++;
 1279              		.loc 1 157 9 view .LVU372
 157:../Bsp/OLED/GUISlim.c ****             stats.ascii_count++;
 1280              		.loc 1 157 14 is_stmt 0 view .LVU373
 1281 0032 05EB040A 		add	r10, r5, r4
 157:../Bsp/OLED/GUISlim.c ****             stats.ascii_count++;
 1282              		.loc 1 157 18 view .LVU374
 1283 0036 2B57     		ldrsb	r3, [r5, r4]
 157:../Bsp/OLED/GUISlim.c ****             stats.ascii_count++;
 1284              		.loc 1 157 12 view .LVU375
 1285 0038 002B     		cmp	r3, #0
 1286 003a 04DB     		blt	.L96
 158:../Bsp/OLED/GUISlim.c ****             i++;
 1287              		.loc 1 158 13 is_stmt 1 view .LVU376
 158:../Bsp/OLED/GUISlim.c ****             i++;
 1288              		.loc 1 158 18 is_stmt 0 view .LVU377
 1289 003c 079B     		ldr	r3, [sp, #28]
 158:../Bsp/OLED/GUISlim.c ****             i++;
 1290              		.loc 1 158 30 view .LVU378
 1291 003e 0133     		adds	r3, r3, #1
 1292 0040 0793     		str	r3, [sp, #28]
 159:../Bsp/OLED/GUISlim.c ****             continue;
 1293              		.loc 1 159 13 is_stmt 1 view .LVU379
 159:../Bsp/OLED/GUISlim.c ****             continue;
 1294              		.loc 1 159 14 is_stmt 0 view .LVU380
 1295 0042 0134     		adds	r4, r4, #1
 1296              	.LVL118:
 160:../Bsp/OLED/GUISlim.c ****         }
 1297              		.loc 1 160 13 is_stmt 1 view .LVU381
 1298 0044 F3E7     		b	.L95
 1299              	.L96:
 163:../Bsp/OLED/GUISlim.c ****         size_t gbk_consumed = 1;
 1300              		.loc 1 163 9 view .LVU382
 163:../Bsp/OLED/GUISlim.c ****         size_t gbk_consumed = 1;
 1301              		.loc 1 163 16 is_stmt 0 view .LVU383
 1302 0046 0123     		movs	r3, #1
 1303 0048 0093     		str	r3, [sp]
 164:../Bsp/OLED/GUISlim.c ****         int is_utf8 = is_valid_utf8_sequence(s + i, len - i, &utf8_consumed);
 1304              		.loc 1 164 9 is_stmt 1 view .LVU384
 164:../Bsp/OLED/GUISlim.c ****         int is_utf8 = is_valid_utf8_sequence(s + i, len - i, &utf8_consumed);
ARM GAS  C:\Users\fish\AppData\Local\Temp\cc4JAs8f.s 			page 40


 1305              		.loc 1 164 16 is_stmt 0 view .LVU385
 1306 004a 0193     		str	r3, [sp, #4]
 165:../Bsp/OLED/GUISlim.c ****         int is_gbk = is_valid_gbk_sequence(s + i, len - i, &gbk_consumed);
 1307              		.loc 1 165 9 is_stmt 1 view .LVU386
 165:../Bsp/OLED/GUISlim.c ****         int is_gbk = is_valid_gbk_sequence(s + i, len - i, &gbk_consumed);
 1308              		.loc 1 165 23 is_stmt 0 view .LVU387
 1309 004c 3E1B     		subs	r6, r7, r4
 1310 004e 6A46     		mov	r2, sp
 1311 0050 3146     		mov	r1, r6
 1312 0052 5046     		mov	r0, r10
 1313 0054 FFF7FEFF 		bl	is_valid_utf8_sequence
 1314              	.LVL119:
 1315 0058 8346     		mov	fp, r0
 1316              	.LVL120:
 166:../Bsp/OLED/GUISlim.c ****         
 1317              		.loc 1 166 9 is_stmt 1 view .LVU388
 166:../Bsp/OLED/GUISlim.c ****         
 1318              		.loc 1 166 22 is_stmt 0 view .LVU389
 1319 005a 01AA     		add	r2, sp, #4
 1320 005c 3146     		mov	r1, r6
 1321 005e 5046     		mov	r0, r10
 1322              	.LVL121:
 166:../Bsp/OLED/GUISlim.c ****         
 1323              		.loc 1 166 22 view .LVU390
 1324 0060 FFF7FEFF 		bl	is_valid_gbk_sequence
 1325              	.LVL122:
 168:../Bsp/OLED/GUISlim.c ****                         stats.both_valid++;
 1326              		.loc 1 168 9 is_stmt 1 view .LVU391
 168:../Bsp/OLED/GUISlim.c ****                         stats.both_valid++;
 1327              		.loc 1 168 12 is_stmt 0 view .LVU392
 1328 0064 BBF1010F 		cmp	fp, #1
 1329 0068 0ED0     		beq	.L132
 182:../Bsp/OLED/GUISlim.c ****                         stats.gbk_only++;
 1330              		.loc 1 182 14 is_stmt 1 view .LVU393
 182:../Bsp/OLED/GUISlim.c ****                         stats.gbk_only++;
 1331              		.loc 1 182 17 is_stmt 0 view .LVU394
 1332 006a 0128     		cmp	r0, #1
 1333 006c 2ED0     		beq	.L133
 186:../Bsp/OLED/GUISlim.c ****                         stats.utf8_invalid++;
 1334              		.loc 1 186 14 is_stmt 1 view .LVU395
 186:../Bsp/OLED/GUISlim.c ****                         stats.utf8_invalid++;
 1335              		.loc 1 186 17 is_stmt 0 view .LVU396
 1336 006e BBF1000F 		cmp	fp, #0
 1337 0072 3BD1     		bne	.L103
 186:../Bsp/OLED/GUISlim.c ****                         stats.utf8_invalid++;
 1338              		.loc 1 186 31 discriminator 1 view .LVU397
 1339 0074 0028     		cmp	r0, #0
 1340 0076 34D1     		bne	.L104
 187:../Bsp/OLED/GUISlim.c ****             stats.gbk_invalid++;
 1341              		.loc 1 187 25 is_stmt 1 view .LVU398
 187:../Bsp/OLED/GUISlim.c ****             stats.gbk_invalid++;
 1342              		.loc 1 187 30 is_stmt 0 view .LVU399
 1343 0078 059B     		ldr	r3, [sp, #20]
 187:../Bsp/OLED/GUISlim.c ****             stats.gbk_invalid++;
 1344              		.loc 1 187 43 view .LVU400
 1345 007a 0133     		adds	r3, r3, #1
 1346 007c 0593     		str	r3, [sp, #20]
ARM GAS  C:\Users\fish\AppData\Local\Temp\cc4JAs8f.s 			page 41


 188:../Bsp/OLED/GUISlim.c ****             i++;
 1347              		.loc 1 188 13 is_stmt 1 view .LVU401
 188:../Bsp/OLED/GUISlim.c ****             i++;
 1348              		.loc 1 188 18 is_stmt 0 view .LVU402
 1349 007e 069B     		ldr	r3, [sp, #24]
 188:../Bsp/OLED/GUISlim.c ****             i++;
 1350              		.loc 1 188 30 view .LVU403
 1351 0080 0133     		adds	r3, r3, #1
 1352 0082 0693     		str	r3, [sp, #24]
 189:../Bsp/OLED/GUISlim.c ****         }
 1353              		.loc 1 189 13 is_stmt 1 view .LVU404
 189:../Bsp/OLED/GUISlim.c ****         }
 1354              		.loc 1 189 14 is_stmt 0 view .LVU405
 1355 0084 0134     		adds	r4, r4, #1
 1356              	.LVL123:
 189:../Bsp/OLED/GUISlim.c ****         }
 1357              		.loc 1 189 14 view .LVU406
 1358 0086 D2E7     		b	.L95
 1359              	.L132:
 168:../Bsp/OLED/GUISlim.c ****                         stats.both_valid++;
 1360              		.loc 1 168 26 discriminator 1 view .LVU407
 1361 0088 0128     		cmp	r0, #1
 1362 008a 07D0     		beq	.L134
 178:../Bsp/OLED/GUISlim.c ****                         stats.utf8_only++;
 1363              		.loc 1 178 14 is_stmt 1 view .LVU408
 179:../Bsp/OLED/GUISlim.c ****             utf8_score += 4;             i += utf8_consumed;
 1364              		.loc 1 179 25 view .LVU409
 179:../Bsp/OLED/GUISlim.c ****             utf8_score += 4;             i += utf8_consumed;
 1365              		.loc 1 179 30 is_stmt 0 view .LVU410
 1366 008c 029B     		ldr	r3, [sp, #8]
 179:../Bsp/OLED/GUISlim.c ****             utf8_score += 4;             i += utf8_consumed;
 1367              		.loc 1 179 40 view .LVU411
 1368 008e 0133     		adds	r3, r3, #1
 1369 0090 0293     		str	r3, [sp, #8]
 180:../Bsp/OLED/GUISlim.c ****         }
 1370              		.loc 1 180 13 is_stmt 1 view .LVU412
 180:../Bsp/OLED/GUISlim.c ****         }
 1371              		.loc 1 180 24 is_stmt 0 view .LVU413
 1372 0092 08F10408 		add	r8, r8, #4
 1373              	.LVL124:
 180:../Bsp/OLED/GUISlim.c ****         }
 1374              		.loc 1 180 42 is_stmt 1 view .LVU414
 180:../Bsp/OLED/GUISlim.c ****         }
 1375              		.loc 1 180 44 is_stmt 0 view .LVU415
 1376 0096 009B     		ldr	r3, [sp]
 1377 0098 1C44     		add	r4, r4, r3
 1378              	.LVL125:
 180:../Bsp/OLED/GUISlim.c ****         }
 1379              		.loc 1 180 44 view .LVU416
 1380 009a C8E7     		b	.L95
 1381              	.L134:
 1382              	.LBB16:
 169:../Bsp/OLED/GUISlim.c ****                         int utf8_freq = get_utf8_char_frequency_score(s + i, utf8_consumed);
 1383              		.loc 1 169 25 is_stmt 1 view .LVU417
 169:../Bsp/OLED/GUISlim.c ****                         int utf8_freq = get_utf8_char_frequency_score(s + i, utf8_consumed);
 1384              		.loc 1 169 30 is_stmt 0 view .LVU418
 1385 009c 049B     		ldr	r3, [sp, #16]
ARM GAS  C:\Users\fish\AppData\Local\Temp\cc4JAs8f.s 			page 42


 169:../Bsp/OLED/GUISlim.c ****                         int utf8_freq = get_utf8_char_frequency_score(s + i, utf8_consumed);
 1386              		.loc 1 169 41 view .LVU419
 1387 009e 0133     		adds	r3, r3, #1
 1388 00a0 0493     		str	r3, [sp, #16]
 170:../Bsp/OLED/GUISlim.c ****             int gbk_freq = get_gbk_char_frequency_score(s + i);
 1389              		.loc 1 170 25 is_stmt 1 view .LVU420
 170:../Bsp/OLED/GUISlim.c ****             int gbk_freq = get_gbk_char_frequency_score(s + i);
 1390              		.loc 1 170 41 is_stmt 0 view .LVU421
 1391 00a2 009E     		ldr	r6, [sp]
 1392 00a4 3146     		mov	r1, r6
 1393 00a6 5046     		mov	r0, r10
 1394              	.LVL126:
 170:../Bsp/OLED/GUISlim.c ****             int gbk_freq = get_gbk_char_frequency_score(s + i);
 1395              		.loc 1 170 41 view .LVU422
 1396 00a8 FFF7FEFF 		bl	get_utf8_char_frequency_score
 1397              	.LVL127:
 1398 00ac 8346     		mov	fp, r0
 1399              	.LVL128:
 171:../Bsp/OLED/GUISlim.c ****             utf8_score += utf8_freq;
 1400              		.loc 1 171 13 is_stmt 1 view .LVU423
 171:../Bsp/OLED/GUISlim.c ****             utf8_score += utf8_freq;
 1401              		.loc 1 171 28 is_stmt 0 view .LVU424
 1402 00ae 5046     		mov	r0, r10
 1403              	.LVL129:
 171:../Bsp/OLED/GUISlim.c ****             utf8_score += utf8_freq;
 1404              		.loc 1 171 28 view .LVU425
 1405 00b0 FFF7FEFF 		bl	get_gbk_char_frequency_score
 1406              	.LVL130:
 172:../Bsp/OLED/GUISlim.c ****             gbk_score += gbk_freq;
 1407              		.loc 1 172 13 is_stmt 1 view .LVU426
 172:../Bsp/OLED/GUISlim.c ****             gbk_score += gbk_freq;
 1408              		.loc 1 172 24 is_stmt 0 view .LVU427
 1409 00b4 D844     		add	r8, r8, fp
 1410              	.LVL131:
 173:../Bsp/OLED/GUISlim.c ****                         if (utf8_consumed == 3 && gbk_consumed == 2) {
 1411              		.loc 1 173 13 is_stmt 1 view .LVU428
 173:../Bsp/OLED/GUISlim.c ****                         if (utf8_consumed == 3 && gbk_consumed == 2) {
 1412              		.loc 1 173 23 is_stmt 0 view .LVU429
 1413 00b6 8144     		add	r9, r9, r0
 1414              	.LVL132:
 174:../Bsp/OLED/GUISlim.c ****                 utf8_score += 2;             }
 1415              		.loc 1 174 25 is_stmt 1 view .LVU430
 174:../Bsp/OLED/GUISlim.c ****                 utf8_score += 2;             }
 1416              		.loc 1 174 28 is_stmt 0 view .LVU431
 1417 00b8 032E     		cmp	r6, #3
 1418 00ba 01D0     		beq	.L135
 1419              	.LVL133:
 1420              	.L100:
 176:../Bsp/OLED/GUISlim.c ****         }
 1421              		.loc 1 176 13 is_stmt 1 view .LVU432
 176:../Bsp/OLED/GUISlim.c ****         }
 1422              		.loc 1 176 15 is_stmt 0 view .LVU433
 1423 00bc 3444     		add	r4, r4, r6
 1424              	.LVL134:
 176:../Bsp/OLED/GUISlim.c ****         }
 1425              		.loc 1 176 15 view .LVU434
 1426              	.LBE16:
ARM GAS  C:\Users\fish\AppData\Local\Temp\cc4JAs8f.s 			page 43


 168:../Bsp/OLED/GUISlim.c ****                         stats.both_valid++;
 1427              		.loc 1 168 42 view .LVU435
 1428 00be B6E7     		b	.L95
 1429              	.L135:
 1430              	.LBB17:
 174:../Bsp/OLED/GUISlim.c ****                 utf8_score += 2;             }
 1431              		.loc 1 174 64 discriminator 1 view .LVU436
 1432 00c0 019B     		ldr	r3, [sp, #4]
 174:../Bsp/OLED/GUISlim.c ****                 utf8_score += 2;             }
 1433              		.loc 1 174 48 discriminator 1 view .LVU437
 1434 00c2 022B     		cmp	r3, #2
 1435 00c4 FAD1     		bne	.L100
 175:../Bsp/OLED/GUISlim.c ****             i += utf8_consumed;
 1436              		.loc 1 175 17 is_stmt 1 view .LVU438
 175:../Bsp/OLED/GUISlim.c ****             i += utf8_consumed;
 1437              		.loc 1 175 28 is_stmt 0 view .LVU439
 1438 00c6 08F10208 		add	r8, r8, #2
 1439              	.LVL135:
 175:../Bsp/OLED/GUISlim.c ****             i += utf8_consumed;
 1440              		.loc 1 175 28 view .LVU440
 1441 00ca F7E7     		b	.L100
 1442              	.LVL136:
 1443              	.L133:
 175:../Bsp/OLED/GUISlim.c ****             i += utf8_consumed;
 1444              		.loc 1 175 28 view .LVU441
 1445              	.LBE17:
 182:../Bsp/OLED/GUISlim.c ****                         stats.gbk_only++;
 1446              		.loc 1 182 30 discriminator 1 view .LVU442
 1447 00cc BBF1010F 		cmp	fp, #1
 1448 00d0 0CD0     		beq	.L103
 183:../Bsp/OLED/GUISlim.c ****             gbk_score += 4;             i += gbk_consumed;
 1449              		.loc 1 183 25 is_stmt 1 view .LVU443
 183:../Bsp/OLED/GUISlim.c ****             gbk_score += 4;             i += gbk_consumed;
 1450              		.loc 1 183 30 is_stmt 0 view .LVU444
 1451 00d2 039B     		ldr	r3, [sp, #12]
 183:../Bsp/OLED/GUISlim.c ****             gbk_score += 4;             i += gbk_consumed;
 1452              		.loc 1 183 39 view .LVU445
 1453 00d4 0133     		adds	r3, r3, #1
 1454 00d6 0393     		str	r3, [sp, #12]
 184:../Bsp/OLED/GUISlim.c ****         }
 1455              		.loc 1 184 13 is_stmt 1 view .LVU446
 184:../Bsp/OLED/GUISlim.c ****         }
 1456              		.loc 1 184 23 is_stmt 0 view .LVU447
 1457 00d8 09F10409 		add	r9, r9, #4
 1458              	.LVL137:
 184:../Bsp/OLED/GUISlim.c ****         }
 1459              		.loc 1 184 41 is_stmt 1 view .LVU448
 184:../Bsp/OLED/GUISlim.c ****         }
 1460              		.loc 1 184 43 is_stmt 0 view .LVU449
 1461 00dc 019B     		ldr	r3, [sp, #4]
 1462 00de 1C44     		add	r4, r4, r3
 1463              	.LVL138:
 184:../Bsp/OLED/GUISlim.c ****         }
 1464              		.loc 1 184 43 view .LVU450
 1465 00e0 A5E7     		b	.L95
 1466              	.L104:
 191:../Bsp/OLED/GUISlim.c ****             stats.utf8_invalid++;
ARM GAS  C:\Users\fish\AppData\Local\Temp\cc4JAs8f.s 			page 44


 1467              		.loc 1 191 14 is_stmt 1 view .LVU451
 192:../Bsp/OLED/GUISlim.c ****             i++;
 1468              		.loc 1 192 13 view .LVU452
 192:../Bsp/OLED/GUISlim.c ****             i++;
 1469              		.loc 1 192 18 is_stmt 0 view .LVU453
 1470 00e2 059B     		ldr	r3, [sp, #20]
 192:../Bsp/OLED/GUISlim.c ****             i++;
 1471              		.loc 1 192 31 view .LVU454
 1472 00e4 0133     		adds	r3, r3, #1
 1473 00e6 0593     		str	r3, [sp, #20]
 193:../Bsp/OLED/GUISlim.c ****         }
 1474              		.loc 1 193 13 is_stmt 1 view .LVU455
 193:../Bsp/OLED/GUISlim.c ****         }
 1475              		.loc 1 193 14 is_stmt 0 view .LVU456
 1476 00e8 0134     		adds	r4, r4, #1
 1477              	.LVL139:
 193:../Bsp/OLED/GUISlim.c ****         }
 1478              		.loc 1 193 14 view .LVU457
 1479 00ea A0E7     		b	.L95
 1480              	.L103:
 195:../Bsp/OLED/GUISlim.c ****             stats.gbk_invalid++;
 1481              		.loc 1 195 14 is_stmt 1 view .LVU458
 195:../Bsp/OLED/GUISlim.c ****             stats.gbk_invalid++;
 1482              		.loc 1 195 17 is_stmt 0 view .LVU459
 1483 00ec 20B9     		cbnz	r0, .L105
 196:../Bsp/OLED/GUISlim.c ****             i++;
 1484              		.loc 1 196 13 is_stmt 1 view .LVU460
 196:../Bsp/OLED/GUISlim.c ****             i++;
 1485              		.loc 1 196 18 is_stmt 0 view .LVU461
 1486 00ee 069B     		ldr	r3, [sp, #24]
 196:../Bsp/OLED/GUISlim.c ****             i++;
 1487              		.loc 1 196 30 view .LVU462
 1488 00f0 0133     		adds	r3, r3, #1
 1489 00f2 0693     		str	r3, [sp, #24]
 197:../Bsp/OLED/GUISlim.c ****         }
 1490              		.loc 1 197 13 is_stmt 1 view .LVU463
 197:../Bsp/OLED/GUISlim.c ****         }
 1491              		.loc 1 197 14 is_stmt 0 view .LVU464
 1492 00f4 0134     		adds	r4, r4, #1
 1493              	.LVL140:
 197:../Bsp/OLED/GUISlim.c ****         }
 1494              		.loc 1 197 14 view .LVU465
 1495 00f6 9AE7     		b	.L95
 1496              	.L105:
 200:../Bsp/OLED/GUISlim.c ****         }
 1497              		.loc 1 200 13 is_stmt 1 view .LVU466
 200:../Bsp/OLED/GUISlim.c ****         }
 1498              		.loc 1 200 14 is_stmt 0 view .LVU467
 1499 00f8 0134     		adds	r4, r4, #1
 1500              	.LVL141:
 200:../Bsp/OLED/GUISlim.c ****         }
 1501              		.loc 1 200 14 view .LVU468
 1502 00fa 98E7     		b	.L95
 1503              	.LVL142:
 1504              	.L131:
 200:../Bsp/OLED/GUISlim.c ****         }
 1505              		.loc 1 200 14 view .LVU469
ARM GAS  C:\Users\fish\AppData\Local\Temp\cc4JAs8f.s 			page 45


 1506              	.LBE15:
 204:../Bsp/OLED/GUISlim.c ****     if (non_ascii == 0) {
 1507              		.loc 1 204 5 is_stmt 1 view .LVU470
 204:../Bsp/OLED/GUISlim.c ****     if (non_ascii == 0) {
 1508              		.loc 1 204 26 is_stmt 0 view .LVU471
 1509 00fc 029A     		ldr	r2, [sp, #8]
 204:../Bsp/OLED/GUISlim.c ****     if (non_ascii == 0) {
 1510              		.loc 1 204 44 view .LVU472
 1511 00fe 0399     		ldr	r1, [sp, #12]
 204:../Bsp/OLED/GUISlim.c ****     if (non_ascii == 0) {
 1512              		.loc 1 204 37 view .LVU473
 1513 0100 5018     		adds	r0, r2, r1
 204:../Bsp/OLED/GUISlim.c ****     if (non_ascii == 0) {
 1514              		.loc 1 204 61 view .LVU474
 1515 0102 049B     		ldr	r3, [sp, #16]
 1516              	.LVL143:
 205:../Bsp/OLED/GUISlim.c ****         return 0;     }
 1517              		.loc 1 205 5 is_stmt 1 view .LVU475
 205:../Bsp/OLED/GUISlim.c ****         return 0;     }
 1518              		.loc 1 205 8 is_stmt 0 view .LVU476
 1519 0104 C018     		adds	r0, r0, r3
 1520              	.LVL144:
 205:../Bsp/OLED/GUISlim.c ****         return 0;     }
 1521              		.loc 1 205 8 view .LVU477
 1522 0106 3DD0     		beq	.L93
 208:../Bsp/OLED/GUISlim.c ****         return 1;     }
 1523              		.loc 1 208 9 is_stmt 1 view .LVU478
 208:../Bsp/OLED/GUISlim.c ****         return 1;     }
 1524              		.loc 1 208 12 is_stmt 0 view .LVU479
 1525 0108 002A     		cmp	r2, #0
 1526 010a 03DD     		ble	.L107
 208:../Bsp/OLED/GUISlim.c ****         return 1;     }
 1527              		.loc 1 208 33 discriminator 1 view .LVU480
 1528 010c 069D     		ldr	r5, [sp, #24]
 1529              	.LVL145:
 208:../Bsp/OLED/GUISlim.c ****         return 1;     }
 1530              		.loc 1 208 33 discriminator 1 view .LVU481
 1531 010e 059C     		ldr	r4, [sp, #20]
 1532              	.LVL146:
 208:../Bsp/OLED/GUISlim.c ****         return 1;     }
 1533              		.loc 1 208 33 discriminator 1 view .LVU482
 1534 0110 A542     		cmp	r5, r4
 1535 0112 3ADC     		bgt	.L115
 1536              	.L107:
 210:../Bsp/OLED/GUISlim.c ****         return 2;     }
 1537              		.loc 1 210 5 is_stmt 1 view .LVU483
 210:../Bsp/OLED/GUISlim.c ****         return 2;     }
 1538              		.loc 1 210 8 is_stmt 0 view .LVU484
 1539 0114 0029     		cmp	r1, #0
 1540 0116 03DD     		ble	.L108
 210:../Bsp/OLED/GUISlim.c ****         return 2;     }
 1541              		.loc 1 210 28 discriminator 1 view .LVU485
 1542 0118 059D     		ldr	r5, [sp, #20]
 1543 011a 069C     		ldr	r4, [sp, #24]
 1544 011c A542     		cmp	r5, r4
 1545 011e 36DC     		bgt	.L116
 1546              	.L108:
ARM GAS  C:\Users\fish\AppData\Local\Temp\cc4JAs8f.s 			page 46


 212:../Bsp/OLED/GUISlim.c ****                 if (utf8_score > gbk_score) {
 1547              		.loc 1 212 9 is_stmt 1 view .LVU486
 212:../Bsp/OLED/GUISlim.c ****                 if (utf8_score > gbk_score) {
 1548              		.loc 1 212 12 is_stmt 0 view .LVU487
 1549 0120 002B     		cmp	r3, #0
 1550 0122 08DD     		ble	.L109
 212:../Bsp/OLED/GUISlim.c ****                 if (utf8_score > gbk_score) {
 1551              		.loc 1 212 34 discriminator 1 view .LVU488
 1552 0124 3AB9     		cbnz	r2, .L109
 212:../Bsp/OLED/GUISlim.c ****                 if (utf8_score > gbk_score) {
 1553              		.loc 1 212 58 discriminator 2 view .LVU489
 1554 0126 31B9     		cbnz	r1, .L109
 213:../Bsp/OLED/GUISlim.c ****             return 1;
 1555              		.loc 1 213 17 is_stmt 1 view .LVU490
 213:../Bsp/OLED/GUISlim.c ****             return 1;
 1556              		.loc 1 213 20 is_stmt 0 view .LVU491
 1557 0128 C845     		cmp	r8, r9
 1558 012a 32DC     		bgt	.L117
 215:../Bsp/OLED/GUISlim.c ****             return 2;
 1559              		.loc 1 215 16 is_stmt 1 view .LVU492
 215:../Bsp/OLED/GUISlim.c ****             return 2;
 1560              		.loc 1 215 19 is_stmt 0 view .LVU493
 1561 012c 01DB     		blt	.L136
 218:../Bsp/OLED/GUISlim.c ****         if (stats.utf8_only > 0 && stats.gbk_only > 0) {
 1562              		.loc 1 218 24 view .LVU494
 1563 012e 0120     		movs	r0, #1
 1564              	.LVL147:
 218:../Bsp/OLED/GUISlim.c ****         if (stats.utf8_only > 0 && stats.gbk_only > 0) {
 1565              		.loc 1 218 24 view .LVU495
 1566 0130 28E0     		b	.L93
 1567              	.LVL148:
 1568              	.L136:
 216:../Bsp/OLED/GUISlim.c ****         }
 1569              		.loc 1 216 20 view .LVU496
 1570 0132 0220     		movs	r0, #2
 1571              	.LVL149:
 216:../Bsp/OLED/GUISlim.c ****         }
 1572              		.loc 1 216 20 view .LVU497
 1573 0134 26E0     		b	.L93
 1574              	.LVL150:
 1575              	.L109:
 219:../Bsp/OLED/GUISlim.c ****                 int mixed_threshold = non_ascii / 5;
 1576              		.loc 1 219 9 is_stmt 1 view .LVU498
 219:../Bsp/OLED/GUISlim.c ****                 int mixed_threshold = non_ascii / 5;
 1577              		.loc 1 219 12 is_stmt 0 view .LVU499
 1578 0136 002A     		cmp	r2, #0
 1579 0138 17DD     		ble	.L110
 219:../Bsp/OLED/GUISlim.c ****                 int mixed_threshold = non_ascii / 5;
 1580              		.loc 1 219 33 discriminator 1 view .LVU500
 1581 013a 0029     		cmp	r1, #0
 1582 013c 15DD     		ble	.L110
 1583              	.LBB18:
 220:../Bsp/OLED/GUISlim.c ****         if (stats.utf8_only > mixed_threshold && stats.gbk_only > mixed_threshold) {
 1584              		.loc 1 220 17 is_stmt 1 view .LVU501
 220:../Bsp/OLED/GUISlim.c ****         if (stats.utf8_only > mixed_threshold && stats.gbk_only > mixed_threshold) {
 1585              		.loc 1 220 21 is_stmt 0 view .LVU502
 1586 013e 1D4C     		ldr	r4, .L137
ARM GAS  C:\Users\fish\AppData\Local\Temp\cc4JAs8f.s 			page 47


 1587 0140 84FB0034 		smull	r3, r4, r4, r0
 1588 0144 C317     		asrs	r3, r0, #31
 1589 0146 C3EB6403 		rsb	r3, r3, r4, asr #1
 1590              	.LVL151:
 221:../Bsp/OLED/GUISlim.c ****             return 3;         }
 1591              		.loc 1 221 9 is_stmt 1 view .LVU503
 221:../Bsp/OLED/GUISlim.c ****             return 3;         }
 1592              		.loc 1 221 12 is_stmt 0 view .LVU504
 1593 014a 9A42     		cmp	r2, r3
 1594 014c 01DD     		ble	.L111
 221:../Bsp/OLED/GUISlim.c ****             return 3;         }
 1595              		.loc 1 221 47 discriminator 1 view .LVU505
 1596 014e 9942     		cmp	r1, r3
 1597 0150 21DC     		bgt	.L119
 1598              	.L111:
 223:../Bsp/OLED/GUISlim.c ****             return 1;
 1599              		.loc 1 223 17 is_stmt 1 view .LVU506
 223:../Bsp/OLED/GUISlim.c ****             return 1;
 1600              		.loc 1 223 20 is_stmt 0 view .LVU507
 1601 0152 B2EB410F 		cmp	r2, r1, lsl #1
 1602 0156 20DC     		bgt	.L120
 225:../Bsp/OLED/GUISlim.c ****             return 2;
 1603              		.loc 1 225 16 is_stmt 1 view .LVU508
 225:../Bsp/OLED/GUISlim.c ****             return 2;
 1604              		.loc 1 225 19 is_stmt 0 view .LVU509
 1605 0158 B1EB420F 		cmp	r1, r2, lsl #1
 1606 015c 1FDC     		bgt	.L121
 228:../Bsp/OLED/GUISlim.c ****     }
 1607              		.loc 1 228 17 is_stmt 1 view .LVU510
 228:../Bsp/OLED/GUISlim.c ****     }
 1608              		.loc 1 228 53 is_stmt 0 view .LVU511
 1609 015e C845     		cmp	r8, r9
 1610 0160 01DD     		ble	.L122
 228:../Bsp/OLED/GUISlim.c ****     }
 1611              		.loc 1 228 53 discriminator 1 view .LVU512
 1612 0162 0120     		movs	r0, #1
 1613              	.LVL152:
 228:../Bsp/OLED/GUISlim.c ****     }
 1614              		.loc 1 228 53 discriminator 1 view .LVU513
 1615 0164 0EE0     		b	.L93
 1616              	.LVL153:
 1617              	.L122:
 228:../Bsp/OLED/GUISlim.c ****     }
 1618              		.loc 1 228 53 discriminator 2 view .LVU514
 1619 0166 0220     		movs	r0, #2
 1620              	.LVL154:
 228:../Bsp/OLED/GUISlim.c ****     }
 1621              		.loc 1 228 53 view .LVU515
 1622 0168 0CE0     		b	.L93
 1623              	.LVL155:
 1624              	.L110:
 228:../Bsp/OLED/GUISlim.c ****     }
 1625              		.loc 1 228 53 view .LVU516
 1626              	.LBE18:
 230:../Bsp/OLED/GUISlim.c ****         return 1;
 1627              		.loc 1 230 9 is_stmt 1 view .LVU517
 230:../Bsp/OLED/GUISlim.c ****         return 1;
ARM GAS  C:\Users\fish\AppData\Local\Temp\cc4JAs8f.s 			page 48


 1628              		.loc 1 230 12 is_stmt 0 view .LVU518
 1629 016a 002A     		cmp	r2, #0
 1630 016c 19DC     		bgt	.L123
 233:../Bsp/OLED/GUISlim.c ****         return 2;
 1631              		.loc 1 233 5 is_stmt 1 view .LVU519
 233:../Bsp/OLED/GUISlim.c ****         return 2;
 1632              		.loc 1 233 8 is_stmt 0 view .LVU520
 1633 016e 0029     		cmp	r1, #0
 1634 0170 19DC     		bgt	.L124
 236:../Bsp/OLED/GUISlim.c ****         return 1;
 1635              		.loc 1 236 9 is_stmt 1 view .LVU521
 236:../Bsp/OLED/GUISlim.c ****         return 1;
 1636              		.loc 1 236 12 is_stmt 0 view .LVU522
 1637 0172 C845     		cmp	r8, r9
 1638 0174 19DC     		bgt	.L125
 238:../Bsp/OLED/GUISlim.c ****         return 2;
 1639              		.loc 1 238 12 is_stmt 1 view .LVU523
 238:../Bsp/OLED/GUISlim.c ****         return 2;
 1640              		.loc 1 238 15 is_stmt 0 view .LVU524
 1641 0176 1ADB     		blt	.L126
 242:../Bsp/OLED/GUISlim.c **** 
 1642              		.loc 1 242 12 view .LVU525
 1643 0178 0120     		movs	r0, #1
 1644              	.LVL156:
 242:../Bsp/OLED/GUISlim.c **** 
 1645              		.loc 1 242 12 view .LVU526
 1646 017a 03E0     		b	.L93
 1647              	.LVL157:
 1648              	.L113:
 1649              		.cfi_def_cfa_offset 0
 1650              		.cfi_restore 4
 1651              		.cfi_restore 5
 1652              		.cfi_restore 6
 1653              		.cfi_restore 7
 1654              		.cfi_restore 8
 1655              		.cfi_restore 9
 1656              		.cfi_restore 10
 1657              		.cfi_restore 11
 1658              		.cfi_restore 14
 145:../Bsp/OLED/GUISlim.c ****     
 1659              		.loc 1 145 22 discriminator 1 view .LVU527
 1660 017c 4FF0FF30 		mov	r0, #-1
 1661              	.LVL158:
 242:../Bsp/OLED/GUISlim.c **** 
 1662              		.loc 1 242 15 view .LVU528
 1663 0180 7047     		bx	lr
 1664              	.LVL159:
 1665              	.L114:
 1666              		.cfi_def_cfa_offset 72
 1667              		.cfi_offset 4, -36
 1668              		.cfi_offset 5, -32
 1669              		.cfi_offset 6, -28
 1670              		.cfi_offset 7, -24
 1671              		.cfi_offset 8, -20
 1672              		.cfi_offset 9, -16
 1673              		.cfi_offset 10, -12
 1674              		.cfi_offset 11, -8
ARM GAS  C:\Users\fish\AppData\Local\Temp\cc4JAs8f.s 			page 49


 1675              		.cfi_offset 14, -4
 149:../Bsp/OLED/GUISlim.c ****     
 1676              		.loc 1 149 26 discriminator 1 view .LVU529
 1677 0182 0020     		movs	r0, #0
 1678              	.LVL160:
 1679              	.L93:
 242:../Bsp/OLED/GUISlim.c **** 
 1680              		.loc 1 242 15 view .LVU530
 1681 0184 09B0     		add	sp, sp, #36
 1682              		.cfi_remember_state
 1683              		.cfi_def_cfa_offset 36
 1684              		@ sp needed
 1685 0186 BDE8F08F 		pop	{r4, r5, r6, r7, r8, r9, r10, fp, pc}
 1686              	.LVL161:
 1687              	.L115:
 1688              		.cfi_restore_state
 209:../Bsp/OLED/GUISlim.c ****     if (stats.gbk_only > 0 && stats.utf8_invalid > stats.gbk_invalid) {
 1689              		.loc 1 209 16 view .LVU531
 1690 018a 0120     		movs	r0, #1
 1691              	.LVL162:
 209:../Bsp/OLED/GUISlim.c ****     if (stats.gbk_only > 0 && stats.utf8_invalid > stats.gbk_invalid) {
 1692              		.loc 1 209 16 view .LVU532
 1693 018c FAE7     		b	.L93
 1694              	.LVL163:
 1695              	.L116:
 211:../Bsp/OLED/GUISlim.c ****         if (stats.both_valid > 0 && stats.utf8_only == 0 && stats.gbk_only == 0) {
 1696              		.loc 1 211 16 view .LVU533
 1697 018e 0220     		movs	r0, #2
 1698              	.LVL164:
 211:../Bsp/OLED/GUISlim.c ****         if (stats.both_valid > 0 && stats.utf8_only == 0 && stats.gbk_only == 0) {
 1699              		.loc 1 211 16 view .LVU534
 1700 0190 F8E7     		b	.L93
 1701              	.LVL165:
 1702              	.L117:
 214:../Bsp/OLED/GUISlim.c ****         } else if (gbk_score > utf8_score) {
 1703              		.loc 1 214 20 view .LVU535
 1704 0192 0120     		movs	r0, #1
 1705              	.LVL166:
 214:../Bsp/OLED/GUISlim.c ****         } else if (gbk_score > utf8_score) {
 1706              		.loc 1 214 20 view .LVU536
 1707 0194 F6E7     		b	.L93
 1708              	.LVL167:
 1709              	.L119:
 1710              	.LBB19:
 222:../Bsp/OLED/GUISlim.c ****                 if (stats.utf8_only > stats.gbk_only * 2) {
 1711              		.loc 1 222 20 view .LVU537
 1712 0196 0320     		movs	r0, #3
 1713              	.LVL168:
 222:../Bsp/OLED/GUISlim.c ****                 if (stats.utf8_only > stats.gbk_only * 2) {
 1714              		.loc 1 222 20 view .LVU538
 1715 0198 F4E7     		b	.L93
 1716              	.LVL169:
 1717              	.L120:
 224:../Bsp/OLED/GUISlim.c ****         } else if (stats.gbk_only > stats.utf8_only * 2) {
 1718              		.loc 1 224 20 view .LVU539
 1719 019a 0120     		movs	r0, #1
 1720              	.LVL170:
ARM GAS  C:\Users\fish\AppData\Local\Temp\cc4JAs8f.s 			page 50


 224:../Bsp/OLED/GUISlim.c ****         } else if (stats.gbk_only > stats.utf8_only * 2) {
 1721              		.loc 1 224 20 view .LVU540
 1722 019c F2E7     		b	.L93
 1723              	.LVL171:
 1724              	.L121:
 226:../Bsp/OLED/GUISlim.c ****         }
 1725              		.loc 1 226 20 view .LVU541
 1726 019e 0220     		movs	r0, #2
 1727              	.LVL172:
 226:../Bsp/OLED/GUISlim.c ****         }
 1728              		.loc 1 226 20 view .LVU542
 1729 01a0 F0E7     		b	.L93
 1730              	.LVL173:
 1731              	.L123:
 226:../Bsp/OLED/GUISlim.c ****         }
 1732              		.loc 1 226 20 view .LVU543
 1733              	.LBE19:
 231:../Bsp/OLED/GUISlim.c ****     }
 1734              		.loc 1 231 16 view .LVU544
 1735 01a2 0120     		movs	r0, #1
 1736              	.LVL174:
 231:../Bsp/OLED/GUISlim.c ****     }
 1737              		.loc 1 231 16 view .LVU545
 1738 01a4 EEE7     		b	.L93
 1739              	.LVL175:
 1740              	.L124:
 234:../Bsp/OLED/GUISlim.c ****     }
 1741              		.loc 1 234 16 view .LVU546
 1742 01a6 0220     		movs	r0, #2
 1743              	.LVL176:
 234:../Bsp/OLED/GUISlim.c ****     }
 1744              		.loc 1 234 16 view .LVU547
 1745 01a8 ECE7     		b	.L93
 1746              	.LVL177:
 1747              	.L125:
 237:../Bsp/OLED/GUISlim.c ****     } else if (gbk_score > utf8_score) {
 1748              		.loc 1 237 16 view .LVU548
 1749 01aa 0120     		movs	r0, #1
 1750              	.LVL178:
 237:../Bsp/OLED/GUISlim.c ****     } else if (gbk_score > utf8_score) {
 1751              		.loc 1 237 16 view .LVU549
 1752 01ac EAE7     		b	.L93
 1753              	.LVL179:
 1754              	.L126:
 239:../Bsp/OLED/GUISlim.c ****     }
 1755              		.loc 1 239 16 view .LVU550
 1756 01ae 0220     		movs	r0, #2
 1757              	.LVL180:
 239:../Bsp/OLED/GUISlim.c ****     }
 1758              		.loc 1 239 16 view .LVU551
 1759 01b0 E8E7     		b	.L93
 1760              	.L138:
 1761 01b2 00BF     		.align	2
 1762              	.L137:
 1763 01b4 67666666 		.word	1717986919
 1764              		.cfi_endproc
 1765              	.LFE251:
ARM GAS  C:\Users\fish\AppData\Local\Temp\cc4JAs8f.s 			page 51


 1767              		.section	.text.detect_encoding_by_sequence,"ax",%progbits
 1768              		.align	1
 1769              		.global	detect_encoding_by_sequence
 1770              		.syntax unified
 1771              		.thumb
 1772              		.thumb_func
 1774              	detect_encoding_by_sequence:
 1775              	.LVL181:
 1776              	.LFB252:
 244:../Bsp/OLED/GUISlim.c ****     return detect_encoding_comprehensive(str);
 1777              		.loc 1 244 50 is_stmt 1 view -0
 1778              		.cfi_startproc
 1779              		@ args = 0, pretend = 0, frame = 0
 1780              		@ frame_needed = 0, uses_anonymous_args = 0
 244:../Bsp/OLED/GUISlim.c ****     return detect_encoding_comprehensive(str);
 1781              		.loc 1 244 50 is_stmt 0 view .LVU553
 1782 0000 08B5     		push	{r3, lr}
 1783              		.cfi_def_cfa_offset 8
 1784              		.cfi_offset 3, -8
 1785              		.cfi_offset 14, -4
 245:../Bsp/OLED/GUISlim.c **** }
 1786              		.loc 1 245 5 is_stmt 1 view .LVU554
 245:../Bsp/OLED/GUISlim.c **** }
 1787              		.loc 1 245 12 is_stmt 0 view .LVU555
 1788 0002 FFF7FEFF 		bl	detect_encoding_comprehensive
 1789              	.LVL182:
 246:../Bsp/OLED/GUISlim.c **** 
 1790              		.loc 1 246 1 view .LVU556
 1791 0006 08BD     		pop	{r3, pc}
 1792              		.cfi_endproc
 1793              	.LFE252:
 1795              		.section	.text.DrawBitLine1BPP,"ax",%progbits
 1796              		.align	1
 1797              		.global	DrawBitLine1BPP
 1798              		.syntax unified
 1799              		.thumb
 1800              		.thumb_func
 1802              	DrawBitLine1BPP:
 1803              	.LVL183:
 1804              	.LFB254:
 281:../Bsp/OLED/GUISlim.c ****   U8 pixels;
 1805              		.loc 1 281 1 is_stmt 1 view -0
 1806              		.cfi_startproc
 1807              		@ args = 4, pretend = 0, frame = 0
 1808              		@ frame_needed = 0, uses_anonymous_args = 0
 281:../Bsp/OLED/GUISlim.c ****   U8 pixels;
 1809              		.loc 1 281 1 is_stmt 0 view .LVU558
 1810 0000 2DE9F843 		push	{r3, r4, r5, r6, r7, r8, r9, lr}
 1811              		.cfi_def_cfa_offset 32
 1812              		.cfi_offset 3, -32
 1813              		.cfi_offset 4, -28
 1814              		.cfi_offset 5, -24
 1815              		.cfi_offset 6, -20
 1816              		.cfi_offset 7, -16
 1817              		.cfi_offset 8, -12
 1818              		.cfi_offset 9, -8
 1819              		.cfi_offset 14, -4
ARM GAS  C:\Users\fish\AppData\Local\Temp\cc4JAs8f.s 			page 52


 1820 0004 0546     		mov	r5, r0
 1821 0006 0E46     		mov	r6, r1
 1822 0008 1746     		mov	r7, r2
 1823 000a 089C     		ldr	r4, [sp, #32]
 282:../Bsp/OLED/GUISlim.c **** 	
 1824              		.loc 1 282 3 is_stmt 1 view .LVU559
 287:../Bsp/OLED/GUISlim.c **** 
 1825              		.loc 1 287 3 view .LVU560
 287:../Bsp/OLED/GUISlim.c **** 
 1826              		.loc 1 287 10 is_stmt 0 view .LVU561
 1827 000c 92F80080 		ldrb	r8, [r2]	@ zero_extendqisi2
 1828              	.LVL184:
 289:../Bsp/OLED/GUISlim.c **** 	case 0:
 1829              		.loc 1 289 2 is_stmt 1 view .LVU562
 289:../Bsp/OLED/GUISlim.c **** 	case 0:
 1830              		.loc 1 289 14 is_stmt 0 view .LVU563
 1831 0010 03F00703 		and	r3, r3, #7
 1832              	.LVL185:
 289:../Bsp/OLED/GUISlim.c **** 	case 0:
 1833              		.loc 1 289 2 view .LVU564
 1834 0014 013B     		subs	r3, r3, #1
 1835 0016 062B     		cmp	r3, #6
 1836 0018 05D8     		bhi	.L168
 1837 001a DFE803F0 		tbb	[pc, r3]
 1838              	.LVL186:
 1839              	.L144:
 1840 001e 0C       		.byte	(.L150-.L144)/2
 1841 001f 19       		.byte	(.L149-.L144)/2
 1842 0020 25       		.byte	(.L148-.L144)/2
 1843 0021 31       		.byte	(.L147-.L144)/2
 1844 0022 3D       		.byte	(.L146-.L144)/2
 1845 0023 49       		.byte	(.L145-.L144)/2
 1846 0024 55       		.byte	(.L143-.L144)/2
 1847 0025 00       		.p2align 1
 1848              	.L168:
 289:../Bsp/OLED/GUISlim.c **** 	case 0:
 1849              		.loc 1 289 2 view .LVU565
 1850 0026 B946     		mov	r9, r7
 1851 0028 5FE0     		b	.L142
 1852              	.LVL187:
 1853              	.L151:
 313:../Bsp/OLED/GUISlim.c ****     if (!--xsize)
 1854              		.loc 1 313 59 discriminator 2 view .LVU566
 1855 002a 4C4B     		ldr	r3, .L177
 1856 002c 1A7F     		ldrb	r2, [r3, #28]	@ zero_extendqisi2
 1857 002e 013A     		subs	r2, r2, #1
 1858 0030 18BF     		it	ne
 1859 0032 0122     		movne	r2, #1
 1860 0034 60E0     		b	.L152
 1861              	.LVL188:
 1862              	.L150:
 317:../Bsp/OLED/GUISlim.c ****     if (!--xsize)
 1863              		.loc 1 317 5 is_stmt 1 view .LVU567
 1864 0036 681C     		adds	r0, r5, #1
 1865 0038 80B2     		uxth	r0, r0
 1866 003a B1B2     		uxth	r1, r6
 1867 003c 18F0400F 		tst	r8, #64
ARM GAS  C:\Users\fish\AppData\Local\Temp\cc4JAs8f.s 			page 53


 1868 0040 60D0     		beq	.L154
 317:../Bsp/OLED/GUISlim.c ****     if (!--xsize)
 1869              		.loc 1 317 5 is_stmt 0 discriminator 1 view .LVU568
 1870 0042 464B     		ldr	r3, .L177
 1871 0044 1A7F     		ldrb	r2, [r3, #28]	@ zero_extendqisi2
 1872              	.L155:
 317:../Bsp/OLED/GUISlim.c ****     if (!--xsize)
 1873              		.loc 1 317 5 discriminator 4 view .LVU569
 1874 0046 FFF7FEFF 		bl	SSD1306_DrawPixel
 1875              	.LVL189:
 318:../Bsp/OLED/GUISlim.c ****       return;
 1876              		.loc 1 318 5 is_stmt 1 view .LVU570
 318:../Bsp/OLED/GUISlim.c ****       return;
 1877              		.loc 1 318 8 is_stmt 0 view .LVU571
 1878 004a 013C     		subs	r4, r4, #1
 1879              	.LVL190:
 318:../Bsp/OLED/GUISlim.c ****       return;
 1880              		.loc 1 318 8 view .LVU572
 1881 004c 00F08480 		beq	.L141
 1882              	.LVL191:
 1883              	.L149:
 321:../Bsp/OLED/GUISlim.c ****     if (!--xsize)
 1884              		.loc 1 321 5 is_stmt 1 view .LVU573
 1885 0050 A81C     		adds	r0, r5, #2
 1886 0052 80B2     		uxth	r0, r0
 1887 0054 B1B2     		uxth	r1, r6
 1888 0056 18F0200F 		tst	r8, #32
 1889 005a 59D0     		beq	.L156
 321:../Bsp/OLED/GUISlim.c ****     if (!--xsize)
 1890              		.loc 1 321 5 is_stmt 0 discriminator 1 view .LVU574
 1891 005c 3F4B     		ldr	r3, .L177
 1892 005e 1A7F     		ldrb	r2, [r3, #28]	@ zero_extendqisi2
 1893              	.L157:
 321:../Bsp/OLED/GUISlim.c ****     if (!--xsize)
 1894              		.loc 1 321 5 discriminator 4 view .LVU575
 1895 0060 FFF7FEFF 		bl	SSD1306_DrawPixel
 1896              	.LVL192:
 322:../Bsp/OLED/GUISlim.c ****       return;
 1897              		.loc 1 322 5 is_stmt 1 view .LVU576
 322:../Bsp/OLED/GUISlim.c ****       return;
 1898              		.loc 1 322 8 is_stmt 0 view .LVU577
 1899 0064 013C     		subs	r4, r4, #1
 1900              	.LVL193:
 322:../Bsp/OLED/GUISlim.c ****       return;
 1901              		.loc 1 322 8 view .LVU578
 1902 0066 77D0     		beq	.L141
 1903              	.LVL194:
 1904              	.L148:
 325:../Bsp/OLED/GUISlim.c ****     if (!--xsize)
 1905              		.loc 1 325 5 is_stmt 1 view .LVU579
 1906 0068 E81C     		adds	r0, r5, #3
 1907 006a 80B2     		uxth	r0, r0
 1908 006c B1B2     		uxth	r1, r6
 1909 006e 18F0100F 		tst	r8, #16
 1910 0072 53D0     		beq	.L158
 325:../Bsp/OLED/GUISlim.c ****     if (!--xsize)
 1911              		.loc 1 325 5 is_stmt 0 discriminator 1 view .LVU580
ARM GAS  C:\Users\fish\AppData\Local\Temp\cc4JAs8f.s 			page 54


 1912 0074 394B     		ldr	r3, .L177
 1913 0076 1A7F     		ldrb	r2, [r3, #28]	@ zero_extendqisi2
 1914              	.L159:
 325:../Bsp/OLED/GUISlim.c ****     if (!--xsize)
 1915              		.loc 1 325 5 discriminator 4 view .LVU581
 1916 0078 FFF7FEFF 		bl	SSD1306_DrawPixel
 1917              	.LVL195:
 326:../Bsp/OLED/GUISlim.c ****       return;
 1918              		.loc 1 326 5 is_stmt 1 view .LVU582
 326:../Bsp/OLED/GUISlim.c ****       return;
 1919              		.loc 1 326 8 is_stmt 0 view .LVU583
 1920 007c 013C     		subs	r4, r4, #1
 1921              	.LVL196:
 326:../Bsp/OLED/GUISlim.c ****       return;
 1922              		.loc 1 326 8 view .LVU584
 1923 007e 6BD0     		beq	.L141
 1924              	.LVL197:
 1925              	.L147:
 329:../Bsp/OLED/GUISlim.c ****     if (!--xsize)
 1926              		.loc 1 329 5 is_stmt 1 view .LVU585
 1927 0080 281D     		adds	r0, r5, #4
 1928 0082 80B2     		uxth	r0, r0
 1929 0084 B1B2     		uxth	r1, r6
 1930 0086 18F0080F 		tst	r8, #8
 1931 008a 4DD0     		beq	.L160
 329:../Bsp/OLED/GUISlim.c ****     if (!--xsize)
 1932              		.loc 1 329 5 is_stmt 0 discriminator 1 view .LVU586
 1933 008c 334B     		ldr	r3, .L177
 1934 008e 1A7F     		ldrb	r2, [r3, #28]	@ zero_extendqisi2
 1935              	.L161:
 329:../Bsp/OLED/GUISlim.c ****     if (!--xsize)
 1936              		.loc 1 329 5 discriminator 4 view .LVU587
 1937 0090 FFF7FEFF 		bl	SSD1306_DrawPixel
 1938              	.LVL198:
 330:../Bsp/OLED/GUISlim.c ****       return;
 1939              		.loc 1 330 5 is_stmt 1 view .LVU588
 330:../Bsp/OLED/GUISlim.c ****       return;
 1940              		.loc 1 330 8 is_stmt 0 view .LVU589
 1941 0094 013C     		subs	r4, r4, #1
 1942              	.LVL199:
 330:../Bsp/OLED/GUISlim.c ****       return;
 1943              		.loc 1 330 8 view .LVU590
 1944 0096 5FD0     		beq	.L141
 1945              	.LVL200:
 1946              	.L146:
 333:../Bsp/OLED/GUISlim.c ****     if (!--xsize)
 1947              		.loc 1 333 5 is_stmt 1 view .LVU591
 1948 0098 681D     		adds	r0, r5, #5
 1949 009a 80B2     		uxth	r0, r0
 1950 009c B1B2     		uxth	r1, r6
 1951 009e 18F0040F 		tst	r8, #4
 1952 00a2 47D0     		beq	.L162
 333:../Bsp/OLED/GUISlim.c ****     if (!--xsize)
 1953              		.loc 1 333 5 is_stmt 0 discriminator 1 view .LVU592
 1954 00a4 2D4B     		ldr	r3, .L177
 1955 00a6 1A7F     		ldrb	r2, [r3, #28]	@ zero_extendqisi2
 1956              	.L163:
ARM GAS  C:\Users\fish\AppData\Local\Temp\cc4JAs8f.s 			page 55


 333:../Bsp/OLED/GUISlim.c ****     if (!--xsize)
 1957              		.loc 1 333 5 discriminator 4 view .LVU593
 1958 00a8 FFF7FEFF 		bl	SSD1306_DrawPixel
 1959              	.LVL201:
 334:../Bsp/OLED/GUISlim.c ****       return;
 1960              		.loc 1 334 5 is_stmt 1 view .LVU594
 334:../Bsp/OLED/GUISlim.c ****       return;
 1961              		.loc 1 334 8 is_stmt 0 view .LVU595
 1962 00ac 013C     		subs	r4, r4, #1
 1963              	.LVL202:
 334:../Bsp/OLED/GUISlim.c ****       return;
 1964              		.loc 1 334 8 view .LVU596
 1965 00ae 53D0     		beq	.L141
 1966              	.LVL203:
 1967              	.L145:
 337:../Bsp/OLED/GUISlim.c ****     if (!--xsize)
 1968              		.loc 1 337 5 is_stmt 1 view .LVU597
 1969 00b0 A81D     		adds	r0, r5, #6
 1970 00b2 80B2     		uxth	r0, r0
 1971 00b4 B1B2     		uxth	r1, r6
 1972 00b6 18F0020F 		tst	r8, #2
 1973 00ba 41D0     		beq	.L164
 337:../Bsp/OLED/GUISlim.c ****     if (!--xsize)
 1974              		.loc 1 337 5 is_stmt 0 discriminator 1 view .LVU598
 1975 00bc 274B     		ldr	r3, .L177
 1976 00be 1A7F     		ldrb	r2, [r3, #28]	@ zero_extendqisi2
 1977              	.L165:
 337:../Bsp/OLED/GUISlim.c ****     if (!--xsize)
 1978              		.loc 1 337 5 discriminator 4 view .LVU599
 1979 00c0 FFF7FEFF 		bl	SSD1306_DrawPixel
 1980              	.LVL204:
 338:../Bsp/OLED/GUISlim.c ****       return;
 1981              		.loc 1 338 5 is_stmt 1 view .LVU600
 338:../Bsp/OLED/GUISlim.c ****       return;
 1982              		.loc 1 338 8 is_stmt 0 view .LVU601
 1983 00c4 013C     		subs	r4, r4, #1
 1984              	.LVL205:
 338:../Bsp/OLED/GUISlim.c ****       return;
 1985              		.loc 1 338 8 view .LVU602
 1986 00c6 47D0     		beq	.L141
 1987              	.LVL206:
 1988              	.L143:
 341:../Bsp/OLED/GUISlim.c ****     if (!--xsize)
 1989              		.loc 1 341 5 is_stmt 1 view .LVU603
 1990 00c8 E81D     		adds	r0, r5, #7
 1991 00ca 80B2     		uxth	r0, r0
 1992 00cc B1B2     		uxth	r1, r6
 1993 00ce 18F0010F 		tst	r8, #1
 1994 00d2 3BD0     		beq	.L166
 341:../Bsp/OLED/GUISlim.c ****     if (!--xsize)
 1995              		.loc 1 341 5 is_stmt 0 discriminator 1 view .LVU604
 1996 00d4 214B     		ldr	r3, .L177
 1997 00d6 1A7F     		ldrb	r2, [r3, #28]	@ zero_extendqisi2
 1998              	.L167:
 341:../Bsp/OLED/GUISlim.c ****     if (!--xsize)
 1999              		.loc 1 341 5 discriminator 4 view .LVU605
 2000 00d8 FFF7FEFF 		bl	SSD1306_DrawPixel
ARM GAS  C:\Users\fish\AppData\Local\Temp\cc4JAs8f.s 			page 56


 2001              	.LVL207:
 342:../Bsp/OLED/GUISlim.c ****       return;
 2002              		.loc 1 342 5 is_stmt 1 view .LVU606
 342:../Bsp/OLED/GUISlim.c ****       return;
 2003              		.loc 1 342 8 is_stmt 0 view .LVU607
 2004 00dc 013C     		subs	r4, r4, #1
 2005              	.LVL208:
 342:../Bsp/OLED/GUISlim.c ****       return;
 2006              		.loc 1 342 8 view .LVU608
 2007 00de 3BD0     		beq	.L141
 344:../Bsp/OLED/GUISlim.c ****     pixels = *(++p);
 2008              		.loc 1 344 5 is_stmt 1 view .LVU609
 344:../Bsp/OLED/GUISlim.c ****     pixels = *(++p);
 2009              		.loc 1 344 6 is_stmt 0 view .LVU610
 2010 00e0 0835     		adds	r5, r5, #8
 2011              	.LVL209:
 345:../Bsp/OLED/GUISlim.c ****     goto WriteBit0;
 2012              		.loc 1 345 5 is_stmt 1 view .LVU611
 345:../Bsp/OLED/GUISlim.c ****     goto WriteBit0;
 2013              		.loc 1 345 12 is_stmt 0 view .LVU612
 2014 00e2 07F10109 		add	r9, r7, #1
 2015              	.LVL210:
 345:../Bsp/OLED/GUISlim.c ****     goto WriteBit0;
 2016              		.loc 1 345 12 view .LVU613
 2017 00e6 97F80180 		ldrb	r8, [r7, #1]	@ zero_extendqisi2
 2018              	.LVL211:
 346:../Bsp/OLED/GUISlim.c **** }
 2019              		.loc 1 346 5 is_stmt 1 view .LVU614
 2020              	.L142:
 313:../Bsp/OLED/GUISlim.c ****     if (!--xsize)
 2021              		.loc 1 313 5 view .LVU615
 2022 00ea A8B2     		uxth	r0, r5
 2023 00ec B1B2     		uxth	r1, r6
 2024 00ee 18F0800F 		tst	r8, #128
 2025 00f2 9AD0     		beq	.L151
 313:../Bsp/OLED/GUISlim.c ****     if (!--xsize)
 2026              		.loc 1 313 5 is_stmt 0 discriminator 1 view .LVU616
 2027 00f4 194B     		ldr	r3, .L177
 2028 00f6 1A7F     		ldrb	r2, [r3, #28]	@ zero_extendqisi2
 2029              	.L152:
 313:../Bsp/OLED/GUISlim.c ****     if (!--xsize)
 2030              		.loc 1 313 5 discriminator 4 view .LVU617
 2031 00f8 FFF7FEFF 		bl	SSD1306_DrawPixel
 2032              	.LVL212:
 314:../Bsp/OLED/GUISlim.c ****       return;
 2033              		.loc 1 314 5 is_stmt 1 view .LVU618
 314:../Bsp/OLED/GUISlim.c ****       return;
 2034              		.loc 1 314 8 is_stmt 0 view .LVU619
 2035 00fc 013C     		subs	r4, r4, #1
 2036              	.LVL213:
 314:../Bsp/OLED/GUISlim.c ****       return;
 2037              		.loc 1 314 8 view .LVU620
 2038 00fe 2BD0     		beq	.L141
 316:../Bsp/OLED/GUISlim.c ****     SSD1306_DrawPixel(x+1, y, (pixels&(1<<6)) ? COLOR_F : COLOR_B);
 2039              		.loc 1 316 3 view .LVU621
 2040 0100 4F46     		mov	r7, r9
 2041 0102 98E7     		b	.L150
ARM GAS  C:\Users\fish\AppData\Local\Temp\cc4JAs8f.s 			page 57


 2042              	.LVL214:
 2043              	.L154:
 317:../Bsp/OLED/GUISlim.c ****     if (!--xsize)
 2044              		.loc 1 317 59 discriminator 2 view .LVU622
 2045 0104 154B     		ldr	r3, .L177
 2046 0106 1A7F     		ldrb	r2, [r3, #28]	@ zero_extendqisi2
 2047 0108 013A     		subs	r2, r2, #1
 2048 010a 18BF     		it	ne
 2049 010c 0122     		movne	r2, #1
 2050 010e 9AE7     		b	.L155
 2051              	.L156:
 321:../Bsp/OLED/GUISlim.c ****     if (!--xsize)
 2052              		.loc 1 321 59 discriminator 2 view .LVU623
 2053 0110 124B     		ldr	r3, .L177
 2054 0112 1A7F     		ldrb	r2, [r3, #28]	@ zero_extendqisi2
 2055 0114 013A     		subs	r2, r2, #1
 2056 0116 18BF     		it	ne
 2057 0118 0122     		movne	r2, #1
 2058 011a A1E7     		b	.L157
 2059              	.L158:
 325:../Bsp/OLED/GUISlim.c ****     if (!--xsize)
 2060              		.loc 1 325 59 discriminator 2 view .LVU624
 2061 011c 0F4B     		ldr	r3, .L177
 2062 011e 1A7F     		ldrb	r2, [r3, #28]	@ zero_extendqisi2
 2063 0120 013A     		subs	r2, r2, #1
 2064 0122 18BF     		it	ne
 2065 0124 0122     		movne	r2, #1
 2066 0126 A7E7     		b	.L159
 2067              	.L160:
 329:../Bsp/OLED/GUISlim.c ****     if (!--xsize)
 2068              		.loc 1 329 59 discriminator 2 view .LVU625
 2069 0128 0C4B     		ldr	r3, .L177
 2070 012a 1A7F     		ldrb	r2, [r3, #28]	@ zero_extendqisi2
 2071 012c 013A     		subs	r2, r2, #1
 2072 012e 18BF     		it	ne
 2073 0130 0122     		movne	r2, #1
 2074 0132 ADE7     		b	.L161
 2075              	.L162:
 333:../Bsp/OLED/GUISlim.c ****     if (!--xsize)
 2076              		.loc 1 333 59 discriminator 2 view .LVU626
 2077 0134 094B     		ldr	r3, .L177
 2078 0136 1A7F     		ldrb	r2, [r3, #28]	@ zero_extendqisi2
 2079 0138 013A     		subs	r2, r2, #1
 2080 013a 18BF     		it	ne
 2081 013c 0122     		movne	r2, #1
 2082 013e B3E7     		b	.L163
 2083              	.L164:
 337:../Bsp/OLED/GUISlim.c ****     if (!--xsize)
 2084              		.loc 1 337 59 discriminator 2 view .LVU627
 2085 0140 064B     		ldr	r3, .L177
 2086 0142 1A7F     		ldrb	r2, [r3, #28]	@ zero_extendqisi2
 2087 0144 013A     		subs	r2, r2, #1
 2088 0146 18BF     		it	ne
 2089 0148 0122     		movne	r2, #1
 2090 014a B9E7     		b	.L165
 2091              	.L166:
 341:../Bsp/OLED/GUISlim.c ****     if (!--xsize)
ARM GAS  C:\Users\fish\AppData\Local\Temp\cc4JAs8f.s 			page 58


 2092              		.loc 1 341 59 discriminator 2 view .LVU628
 2093 014c 034B     		ldr	r3, .L177
 2094 014e 1A7F     		ldrb	r2, [r3, #28]	@ zero_extendqisi2
 2095 0150 013A     		subs	r2, r2, #1
 2096 0152 18BF     		it	ne
 2097 0154 0122     		movne	r2, #1
 2098 0156 BFE7     		b	.L167
 2099              	.LVL215:
 2100              	.L141:
 347:../Bsp/OLED/GUISlim.c **** 
 2101              		.loc 1 347 1 view .LVU629
 2102 0158 BDE8F883 		pop	{r3, r4, r5, r6, r7, r8, r9, pc}
 2103              	.LVL216:
 2104              	.L178:
 347:../Bsp/OLED/GUISlim.c **** 
 2105              		.loc 1 347 1 view .LVU630
 2106              		.align	2
 2107              	.L177:
 2108 015c 00000000 		.word	GUI_Context
 2109              		.cfi_endproc
 2110              	.LFE254:
 2112              		.section	.text.LCD_L0_DrawBitmap1BPP,"ax",%progbits
 2113              		.align	1
 2114              		.global	LCD_L0_DrawBitmap1BPP
 2115              		.syntax unified
 2116              		.thumb
 2117              		.thumb_func
 2119              	LCD_L0_DrawBitmap1BPP:
 2120              	.LVL217:
 2121              	.LFB255:
 350:../Bsp/OLED/GUISlim.c ****   int i;
 2122              		.loc 1 350 59 is_stmt 1 view -0
 2123              		.cfi_startproc
 2124              		@ args = 12, pretend = 0, frame = 0
 2125              		@ frame_needed = 0, uses_anonymous_args = 0
 350:../Bsp/OLED/GUISlim.c ****   int i;
 2126              		.loc 1 350 59 is_stmt 0 view .LVU632
 2127 0000 2DE9F04F 		push	{r4, r5, r6, r7, r8, r9, r10, fp, lr}
 2128              		.cfi_def_cfa_offset 36
 2129              		.cfi_offset 4, -36
 2130              		.cfi_offset 5, -32
 2131              		.cfi_offset 6, -28
 2132              		.cfi_offset 7, -24
 2133              		.cfi_offset 8, -20
 2134              		.cfi_offset 9, -16
 2135              		.cfi_offset 10, -12
 2136              		.cfi_offset 11, -8
 2137              		.cfi_offset 14, -4
 2138 0004 83B0     		sub	sp, sp, #12
 2139              		.cfi_def_cfa_offset 48
 2140 0006 8146     		mov	r9, r0
 2141 0008 8846     		mov	r8, r1
 2142 000a 1746     		mov	r7, r2
 2143 000c 1E46     		mov	r6, r3
 2144 000e DDF830B0 		ldr	fp, [sp, #48]
 2145 0012 0D9D     		ldr	r5, [sp, #52]
 2146 0014 DDF838A0 		ldr	r10, [sp, #56]
ARM GAS  C:\Users\fish\AppData\Local\Temp\cc4JAs8f.s 			page 59


 351:../Bsp/OLED/GUISlim.c **** 	for (i = 0; i < ysize; i++)
 2147              		.loc 1 351 3 is_stmt 1 view .LVU633
 352:../Bsp/OLED/GUISlim.c **** 	{
 2148              		.loc 1 352 2 view .LVU634
 2149              	.LVL218:
 352:../Bsp/OLED/GUISlim.c **** 	{
 2150              		.loc 1 352 9 is_stmt 0 view .LVU635
 2151 0018 0024     		movs	r4, #0
 352:../Bsp/OLED/GUISlim.c **** 	{
 2152              		.loc 1 352 2 view .LVU636
 2153 001a 09E0     		b	.L180
 2154              	.LVL219:
 2155              	.L181:
 354:../Bsp/OLED/GUISlim.c **** 		pData += BytesPerLine;
 2156              		.loc 1 354 3 is_stmt 1 view .LVU637
 2157 001c 0097     		str	r7, [sp]
 2158 001e 5346     		mov	r3, r10
 2159 0020 2A46     		mov	r2, r5
 2160 0022 04EB0801 		add	r1, r4, r8
 2161 0026 4846     		mov	r0, r9
 2162 0028 FFF7FEFF 		bl	DrawBitLine1BPP
 2163              	.LVL220:
 355:../Bsp/OLED/GUISlim.c **** 	}
 2164              		.loc 1 355 3 view .LVU638
 355:../Bsp/OLED/GUISlim.c **** 	}
 2165              		.loc 1 355 9 is_stmt 0 view .LVU639
 2166 002c 5D44     		add	r5, r5, fp
 2167              	.LVL221:
 352:../Bsp/OLED/GUISlim.c **** 	{
 2168              		.loc 1 352 26 is_stmt 1 discriminator 3 view .LVU640
 2169 002e 0134     		adds	r4, r4, #1
 2170              	.LVL222:
 2171              	.L180:
 352:../Bsp/OLED/GUISlim.c **** 	{
 2172              		.loc 1 352 16 discriminator 1 view .LVU641
 2173 0030 B442     		cmp	r4, r6
 2174 0032 F3DB     		blt	.L181
 357:../Bsp/OLED/GUISlim.c **** 
 2175              		.loc 1 357 1 is_stmt 0 view .LVU642
 2176 0034 03B0     		add	sp, sp, #12
 2177              		.cfi_def_cfa_offset 36
 2178              		@ sp needed
 2179 0036 BDE8F08F 		pop	{r4, r5, r6, r7, r8, r9, r10, fp, pc}
 357:../Bsp/OLED/GUISlim.c **** 
 2180              		.loc 1 357 1 view .LVU643
 2181              		.cfi_endproc
 2182              	.LFE255:
 2184              		.section	.text.LCD_DrawBitmap1BPP,"ax",%progbits
 2185              		.align	1
 2186              		.global	LCD_DrawBitmap1BPP
 2187              		.syntax unified
 2188              		.thumb
 2189              		.thumb_func
 2191              	LCD_DrawBitmap1BPP:
 2192              	.LVL223:
 2193              	.LFB256:
 360:../Bsp/OLED/GUISlim.c ****   int x1, y1;
ARM GAS  C:\Users\fish\AppData\Local\Temp\cc4JAs8f.s 			page 60


 2194              		.loc 1 360 62 is_stmt 1 view -0
 2195              		.cfi_startproc
 2196              		@ args = 8, pretend = 0, frame = 0
 2197              		@ frame_needed = 0, uses_anonymous_args = 0
 360:../Bsp/OLED/GUISlim.c ****   int x1, y1;
 2198              		.loc 1 360 62 is_stmt 0 view .LVU645
 2199 0000 70B5     		push	{r4, r5, r6, lr}
 2200              		.cfi_def_cfa_offset 16
 2201              		.cfi_offset 4, -16
 2202              		.cfi_offset 5, -12
 2203              		.cfi_offset 6, -8
 2204              		.cfi_offset 14, -4
 2205 0002 84B0     		sub	sp, sp, #16
 2206              		.cfi_def_cfa_offset 32
 2207 0004 099D     		ldr	r5, [sp, #36]
 361:../Bsp/OLED/GUISlim.c ****   /* Handle the optional Y-magnification */
 2208              		.loc 1 361 3 is_stmt 1 view .LVU646
 363:../Bsp/OLED/GUISlim.c ****   x1 = x0 + xsize - 1;
 2209              		.loc 1 363 3 view .LVU647
 363:../Bsp/OLED/GUISlim.c ****   x1 = x0 + xsize - 1;
 2210              		.loc 1 363 11 is_stmt 0 view .LVU648
 2211 0006 01EB030C 		add	ip, r1, r3
 363:../Bsp/OLED/GUISlim.c ****   x1 = x0 + xsize - 1;
 2212              		.loc 1 363 6 view .LVU649
 2213 000a 0CF1FF3C 		add	ip, ip, #-1
 2214              	.LVL224:
 364:../Bsp/OLED/GUISlim.c **** /*  Handle BITMAP without magnification */
 2215              		.loc 1 364 3 is_stmt 1 view .LVU650
 364:../Bsp/OLED/GUISlim.c **** /*  Handle BITMAP without magnification */
 2216              		.loc 1 364 11 is_stmt 0 view .LVU651
 2217 000e 8418     		adds	r4, r0, r2
 364:../Bsp/OLED/GUISlim.c **** /*  Handle BITMAP without magnification */
 2218              		.loc 1 364 6 view .LVU652
 2219 0010 013C     		subs	r4, r4, #1
 2220              	.LVL225:
 366:../Bsp/OLED/GUISlim.c **** 	/*  Clip y0 (top) */
 2221              		.loc 1 366 2 is_stmt 1 view .LVU653
 368:../Bsp/OLED/GUISlim.c **** 	if (Diff > 0) {
 2222              		.loc 1 368 2 view .LVU654
 368:../Bsp/OLED/GUISlim.c **** 	if (Diff > 0) {
 2223              		.loc 1 368 29 is_stmt 0 view .LVU655
 2224 0012 1F4E     		ldr	r6, .L191
 2225 0014 B6F90260 		ldrsh	r6, [r6, #2]
 368:../Bsp/OLED/GUISlim.c **** 	if (Diff > 0) {
 2226              		.loc 1 368 7 view .LVU656
 2227 0018 A6EB010E 		sub	lr, r6, r1
 2228              	.LVL226:
 369:../Bsp/OLED/GUISlim.c **** 		ysize -= Diff;
 2229              		.loc 1 369 2 is_stmt 1 view .LVU657
 369:../Bsp/OLED/GUISlim.c **** 		ysize -= Diff;
 2230              		.loc 1 369 5 is_stmt 0 view .LVU658
 2231 001c BEF1000F 		cmp	lr, #0
 2232 0020 07DD     		ble	.L184
 370:../Bsp/OLED/GUISlim.c **** 		if (ysize <= 0) {
 2233              		.loc 1 370 3 is_stmt 1 view .LVU659
 370:../Bsp/OLED/GUISlim.c **** 		if (ysize <= 0) {
 2234              		.loc 1 370 9 is_stmt 0 view .LVU660
ARM GAS  C:\Users\fish\AppData\Local\Temp\cc4JAs8f.s 			page 61


 2235 0022 A3EB0E03 		sub	r3, r3, lr
 2236              	.LVL227:
 371:../Bsp/OLED/GUISlim.c **** 			return;
 2237              		.loc 1 371 3 is_stmt 1 view .LVU661
 371:../Bsp/OLED/GUISlim.c **** 			return;
 2238              		.loc 1 371 6 is_stmt 0 view .LVU662
 2239 0026 002B     		cmp	r3, #0
 2240 0028 2EDD     		ble	.L183
 374:../Bsp/OLED/GUISlim.c **** 		pPixel += (unsigned)Diff * (unsigned)BytesPerLine;
 2241              		.loc 1 374 3 is_stmt 1 view .LVU663
 2242              	.LVL228:
 375:../Bsp/OLED/GUISlim.c **** 	}
 2243              		.loc 1 375 3 view .LVU664
 375:../Bsp/OLED/GUISlim.c **** 	}
 2244              		.loc 1 375 10 is_stmt 0 view .LVU665
 2245 002a 0899     		ldr	r1, [sp, #32]
 2246 002c 01FB0E55 		mla	r5, r1, lr, r5
 2247              	.LVL229:
 374:../Bsp/OLED/GUISlim.c **** 		pPixel += (unsigned)Diff * (unsigned)BytesPerLine;
 2248              		.loc 1 374 6 view .LVU666
 2249 0030 3146     		mov	r1, r6
 2250              	.LVL230:
 2251              	.L184:
 378:../Bsp/OLED/GUISlim.c **** 	if (Diff > 0) {
 2252              		.loc 1 378 2 is_stmt 1 view .LVU667
 378:../Bsp/OLED/GUISlim.c **** 	if (Diff > 0) {
 2253              		.loc 1 378 34 is_stmt 0 view .LVU668
 2254 0032 174E     		ldr	r6, .L191
 2255 0034 B6F90660 		ldrsh	r6, [r6, #6]
 378:../Bsp/OLED/GUISlim.c **** 	if (Diff > 0) {
 2256              		.loc 1 378 7 view .LVU669
 2257 0038 ACEB060C 		sub	ip, ip, r6
 2258              	.LVL231:
 379:../Bsp/OLED/GUISlim.c **** 		ysize -= Diff;
 2259              		.loc 1 379 2 is_stmt 1 view .LVU670
 379:../Bsp/OLED/GUISlim.c **** 		ysize -= Diff;
 2260              		.loc 1 379 5 is_stmt 0 view .LVU671
 2261 003c BCF1000F 		cmp	ip, #0
 2262 0040 03DD     		ble	.L186
 380:../Bsp/OLED/GUISlim.c **** 		if (ysize <= 0) {
 2263              		.loc 1 380 3 is_stmt 1 view .LVU672
 380:../Bsp/OLED/GUISlim.c **** 		if (ysize <= 0) {
 2264              		.loc 1 380 9 is_stmt 0 view .LVU673
 2265 0042 A3EB0C03 		sub	r3, r3, ip
 2266              	.LVL232:
 381:../Bsp/OLED/GUISlim.c **** 			return;
 2267              		.loc 1 381 3 is_stmt 1 view .LVU674
 381:../Bsp/OLED/GUISlim.c **** 			return;
 2268              		.loc 1 381 6 is_stmt 0 view .LVU675
 2269 0046 002B     		cmp	r3, #0
 2270 0048 1EDD     		ble	.L183
 2271              	.L186:
 386:../Bsp/OLED/GUISlim.c **** 	if (Diff > 0) {
 2272              		.loc 1 386 2 is_stmt 1 view .LVU676
 386:../Bsp/OLED/GUISlim.c **** 	if (Diff > 0) {
 2273              		.loc 1 386 34 is_stmt 0 view .LVU677
 2274 004a 114E     		ldr	r6, .L191
ARM GAS  C:\Users\fish\AppData\Local\Temp\cc4JAs8f.s 			page 62


 2275 004c B6F90460 		ldrsh	r6, [r6, #4]
 386:../Bsp/OLED/GUISlim.c **** 	if (Diff > 0) {
 2276              		.loc 1 386 7 view .LVU678
 2277 0050 A41B     		subs	r4, r4, r6
 2278              	.LVL233:
 387:../Bsp/OLED/GUISlim.c **** 		xsize -= Diff;
 2279              		.loc 1 387 2 is_stmt 1 view .LVU679
 387:../Bsp/OLED/GUISlim.c **** 		xsize -= Diff;
 2280              		.loc 1 387 5 is_stmt 0 view .LVU680
 2281 0052 002C     		cmp	r4, #0
 2282 0054 00DD     		ble	.L187
 388:../Bsp/OLED/GUISlim.c **** 	}
 2283              		.loc 1 388 3 is_stmt 1 view .LVU681
 388:../Bsp/OLED/GUISlim.c **** 	}
 2284              		.loc 1 388 9 is_stmt 0 view .LVU682
 2285 0056 121B     		subs	r2, r2, r4
 2286              	.LVL234:
 2287              	.L187:
 391:../Bsp/OLED/GUISlim.c **** 	if (x0 < GUI_Context.ClipRect.x0) {
 2288              		.loc 1 391 2 is_stmt 1 view .LVU683
 392:../Bsp/OLED/GUISlim.c **** 		Diff = GUI_Context.ClipRect.x0 - x0;
 2289              		.loc 1 392 2 view .LVU684
 392:../Bsp/OLED/GUISlim.c **** 		Diff = GUI_Context.ClipRect.x0 - x0;
 2290              		.loc 1 392 31 is_stmt 0 view .LVU685
 2291 0058 0D4C     		ldr	r4, .L191
 2292 005a B4F900C0 		ldrsh	ip, [r4]
 392:../Bsp/OLED/GUISlim.c **** 		Diff = GUI_Context.ClipRect.x0 - x0;
 2293              		.loc 1 392 5 view .LVU686
 2294 005e 8445     		cmp	ip, r0
 2295 0060 14DD     		ble	.L189
 393:../Bsp/OLED/GUISlim.c **** 		xsize -= Diff;
 2296              		.loc 1 393 3 is_stmt 1 view .LVU687
 393:../Bsp/OLED/GUISlim.c **** 		xsize -= Diff;
 2297              		.loc 1 393 8 is_stmt 0 view .LVU688
 2298 0062 ACEB000C 		sub	ip, ip, r0
 2299              	.LVL235:
 394:../Bsp/OLED/GUISlim.c **** 		pPixel += (Diff>>3); 
 2300              		.loc 1 394 3 is_stmt 1 view .LVU689
 394:../Bsp/OLED/GUISlim.c **** 		pPixel += (Diff>>3); 
 2301              		.loc 1 394 9 is_stmt 0 view .LVU690
 2302 0066 A2EB0C02 		sub	r2, r2, ip
 2303              	.LVL236:
 395:../Bsp/OLED/GUISlim.c **** 		x0 += (Diff>>3)<<3; 
 2304              		.loc 1 395 3 is_stmt 1 view .LVU691
 395:../Bsp/OLED/GUISlim.c **** 		x0 += (Diff>>3)<<3; 
 2305              		.loc 1 395 10 is_stmt 0 view .LVU692
 2306 006a 05EBEC05 		add	r5, r5, ip, asr #3
 2307              	.LVL237:
 396:../Bsp/OLED/GUISlim.c **** 		Diff &=7;
 2308              		.loc 1 396 3 is_stmt 1 view .LVU693
 396:../Bsp/OLED/GUISlim.c **** 		Diff &=7;
 2309              		.loc 1 396 18 is_stmt 0 view .LVU694
 2310 006e 2CF00704 		bic	r4, ip, #7
 396:../Bsp/OLED/GUISlim.c **** 		Diff &=7;
 2311              		.loc 1 396 6 view .LVU695
 2312 0072 2044     		add	r0, r0, r4
 2313              	.LVL238:
ARM GAS  C:\Users\fish\AppData\Local\Temp\cc4JAs8f.s 			page 63


 397:../Bsp/OLED/GUISlim.c **** 	}
 2314              		.loc 1 397 3 is_stmt 1 view .LVU696
 397:../Bsp/OLED/GUISlim.c **** 	}
 2315              		.loc 1 397 8 is_stmt 0 view .LVU697
 2316 0074 0CF00704 		and	r4, ip, #7
 2317              	.LVL239:
 2318              	.L188:
 399:../Bsp/OLED/GUISlim.c **** 		return;
 2319              		.loc 1 399 2 is_stmt 1 view .LVU698
 399:../Bsp/OLED/GUISlim.c **** 		return;
 2320              		.loc 1 399 5 is_stmt 0 view .LVU699
 2321 0078 002A     		cmp	r2, #0
 2322 007a 05DD     		ble	.L183
 402:../Bsp/OLED/GUISlim.c **** }
 2323              		.loc 1 402 2 is_stmt 1 view .LVU700
 2324 007c 0294     		str	r4, [sp, #8]
 2325 007e 0195     		str	r5, [sp, #4]
 2326 0080 089C     		ldr	r4, [sp, #32]
 2327              	.LVL240:
 402:../Bsp/OLED/GUISlim.c **** }
 2328              		.loc 1 402 2 is_stmt 0 view .LVU701
 2329 0082 0094     		str	r4, [sp]
 2330 0084 FFF7FEFF 		bl	LCD_L0_DrawBitmap1BPP
 2331              	.LVL241:
 2332              	.L183:
 403:../Bsp/OLED/GUISlim.c **** 
 2333              		.loc 1 403 1 view .LVU702
 2334 0088 04B0     		add	sp, sp, #16
 2335              		.cfi_remember_state
 2336              		.cfi_def_cfa_offset 16
 2337              		@ sp needed
 2338 008a 70BD     		pop	{r4, r5, r6, pc}
 2339              	.LVL242:
 2340              	.L189:
 2341              		.cfi_restore_state
 391:../Bsp/OLED/GUISlim.c **** 	if (x0 < GUI_Context.ClipRect.x0) {
 2342              		.loc 1 391 7 view .LVU703
 2343 008c 0024     		movs	r4, #0
 2344 008e F3E7     		b	.L188
 2345              	.L192:
 2346              		.align	2
 2347              	.L191:
 2348 0090 00000000 		.word	GUI_Context
 2349              		.cfi_endproc
 2350              	.LFE256:
 2352              		.section	.text.GUIPROP_DispChar,"ax",%progbits
 2353              		.align	1
 2354              		.global	GUIPROP_DispChar
 2355              		.syntax unified
 2356              		.thumb
 2357              		.thumb_func
 2359              	GUIPROP_DispChar:
 2360              	.LVL243:
 2361              	.LFB257:
 405:../Bsp/OLED/GUISlim.c ****   int BytesPerLine;
 2362              		.loc 1 405 31 is_stmt 1 view -0
 2363              		.cfi_startproc
ARM GAS  C:\Users\fish\AppData\Local\Temp\cc4JAs8f.s 			page 64


 2364              		@ args = 0, pretend = 0, frame = 0
 2365              		@ frame_needed = 0, uses_anonymous_args = 0
 405:../Bsp/OLED/GUISlim.c ****   int BytesPerLine;
 2366              		.loc 1 405 31 is_stmt 0 view .LVU705
 2367 0000 2DE9F041 		push	{r4, r5, r6, r7, r8, lr}
 2368              		.cfi_def_cfa_offset 24
 2369              		.cfi_offset 4, -24
 2370              		.cfi_offset 5, -20
 2371              		.cfi_offset 6, -16
 2372              		.cfi_offset 7, -12
 2373              		.cfi_offset 8, -8
 2374              		.cfi_offset 14, -4
 2375 0004 82B0     		sub	sp, sp, #8
 2376              		.cfi_def_cfa_offset 32
 2377 0006 0446     		mov	r4, r0
 406:../Bsp/OLED/GUISlim.c ****   const GUI_FONT_PROP GUI_UNI_PTR * pProp = GUIPROP_FindChar(GUI_Context.pAFont->p.pProp, c);
 2378              		.loc 1 406 3 is_stmt 1 view .LVU706
 407:../Bsp/OLED/GUISlim.c ****   if (pProp) {
 2379              		.loc 1 407 3 view .LVU707
 407:../Bsp/OLED/GUISlim.c ****   if (pProp) {
 2380              		.loc 1 407 73 is_stmt 0 view .LVU708
 2381 0008 1F4B     		ldr	r3, .L198
 2382 000a 1D69     		ldr	r5, [r3, #16]
 407:../Bsp/OLED/GUISlim.c ****   if (pProp) {
 2383              		.loc 1 407 45 view .LVU709
 2384 000c 0146     		mov	r1, r0
 2385 000e A869     		ldr	r0, [r5, #24]
 2386              	.LVL244:
 407:../Bsp/OLED/GUISlim.c ****   if (pProp) {
 2387              		.loc 1 407 45 view .LVU710
 2388 0010 FFF7FEFF 		bl	GUIPROP_FindChar
 2389              	.LVL245:
 408:../Bsp/OLED/GUISlim.c ****     const GUI_CHARINFO GUI_UNI_PTR * pCharInfo = pProp->paCharInfo+(c-pProp->First);
 2390              		.loc 1 408 3 is_stmt 1 view .LVU711
 408:../Bsp/OLED/GUISlim.c ****     const GUI_CHARINFO GUI_UNI_PTR * pCharInfo = pProp->paCharInfo+(c-pProp->First);
 2391              		.loc 1 408 6 is_stmt 0 view .LVU712
 2392 0014 00B3     		cbz	r0, .L193
 2393              	.LBB20:
 409:../Bsp/OLED/GUISlim.c ****     BytesPerLine = pCharInfo->BytesPerLine;
 2394              		.loc 1 409 5 is_stmt 1 view .LVU713
 409:../Bsp/OLED/GUISlim.c ****     BytesPerLine = pCharInfo->BytesPerLine;
 2395              		.loc 1 409 55 is_stmt 0 view .LVU714
 2396 0016 D0F80480 		ldr	r8, [r0, #4]
 409:../Bsp/OLED/GUISlim.c ****     BytesPerLine = pCharInfo->BytesPerLine;
 2397              		.loc 1 409 76 view .LVU715
 2398 001a 0388     		ldrh	r3, [r0]
 409:../Bsp/OLED/GUISlim.c ****     BytesPerLine = pCharInfo->BytesPerLine;
 2399              		.loc 1 409 70 view .LVU716
 2400 001c E41A     		subs	r4, r4, r3
 2401              	.LVL246:
 409:../Bsp/OLED/GUISlim.c ****     BytesPerLine = pCharInfo->BytesPerLine;
 2402              		.loc 1 409 38 view .LVU717
 2403 001e 08EBC406 		add	r6, r8, r4, lsl #3
 2404              	.LVL247:
 410:../Bsp/OLED/GUISlim.c ****     LCD_DrawBitmap1BPP( GUI_Context.DispPosX, GUI_Context.DispPosY,
 2405              		.loc 1 410 5 is_stmt 1 view .LVU718
 410:../Bsp/OLED/GUISlim.c ****     LCD_DrawBitmap1BPP( GUI_Context.DispPosX, GUI_Context.DispPosY,
ARM GAS  C:\Users\fish\AppData\Local\Temp\cc4JAs8f.s 			page 65


 2406              		.loc 1 410 29 is_stmt 0 view .LVU719
 2407 0022 B178     		ldrb	r1, [r6, #2]	@ zero_extendqisi2
 2408              	.LVL248:
 411:../Bsp/OLED/GUISlim.c **** 												pCharInfo->XSize, GUI_Context.pAFont->YSize,
 2409              		.loc 1 411 5 is_stmt 1 view .LVU720
 411:../Bsp/OLED/GUISlim.c **** 												pCharInfo->XSize, GUI_Context.pAFont->YSize,
 2410              		.loc 1 411 36 is_stmt 0 view .LVU721
 2411 0024 184F     		ldr	r7, .L198
 412:../Bsp/OLED/GUISlim.c **** 												BytesPerLine, pCharInfo->pData);
 2412              		.loc 1 412 22 view .LVU722
 2413 0026 18F83420 		ldrb	r2, [r8, r4, lsl #3]	@ zero_extendqisi2
 412:../Bsp/OLED/GUISlim.c **** 												BytesPerLine, pCharInfo->pData);
 2414              		.loc 1 412 49 view .LVU723
 2415 002a 2B7D     		ldrb	r3, [r5, #20]	@ zero_extendqisi2
 413:../Bsp/OLED/GUISlim.c ****     /* Fill empty pixel lines */
 2416              		.loc 1 413 36 view .LVU724
 2417 002c 7068     		ldr	r0, [r6, #4]
 2418              	.LVL249:
 411:../Bsp/OLED/GUISlim.c **** 												pCharInfo->XSize, GUI_Context.pAFont->YSize,
 2419              		.loc 1 411 5 view .LVU725
 2420 002e 0190     		str	r0, [sp, #4]
 2421 0030 0091     		str	r1, [sp]
 2422 0032 B7F91610 		ldrsh	r1, [r7, #22]
 2423              	.LVL250:
 411:../Bsp/OLED/GUISlim.c **** 												pCharInfo->XSize, GUI_Context.pAFont->YSize,
 2424              		.loc 1 411 5 view .LVU726
 2425 0036 B7F91400 		ldrsh	r0, [r7, #20]
 2426 003a FFF7FEFF 		bl	LCD_DrawBitmap1BPP
 2427              	.LVL251:
 415:../Bsp/OLED/GUISlim.c ****       int YDist = GUI_Context.pAFont->YDist;
 2428              		.loc 1 415 5 is_stmt 1 view .LVU727
 415:../Bsp/OLED/GUISlim.c ****       int YDist = GUI_Context.pAFont->YDist;
 2429              		.loc 1 415 20 is_stmt 0 view .LVU728
 2430 003e 3A69     		ldr	r2, [r7, #16]
 415:../Bsp/OLED/GUISlim.c ****       int YDist = GUI_Context.pAFont->YDist;
 2431              		.loc 1 415 27 view .LVU729
 2432 0040 537D     		ldrb	r3, [r2, #21]	@ zero_extendqisi2
 415:../Bsp/OLED/GUISlim.c ****       int YDist = GUI_Context.pAFont->YDist;
 2433              		.loc 1 415 55 view .LVU730
 2434 0042 117D     		ldrb	r1, [r2, #20]	@ zero_extendqisi2
 415:../Bsp/OLED/GUISlim.c ****       int YDist = GUI_Context.pAFont->YDist;
 2435              		.loc 1 415 8 view .LVU731
 2436 0044 8B42     		cmp	r3, r1
 2437 0046 0AD8     		bhi	.L197
 2438              	.L195:
 423:../Bsp/OLED/GUISlim.c ****   }
 2439              		.loc 1 423 5 is_stmt 1 view .LVU732
 423:../Bsp/OLED/GUISlim.c ****   }
 2440              		.loc 1 423 16 is_stmt 0 view .LVU733
 2441 0048 0F4B     		ldr	r3, .L198
 2442 004a 9A8A     		ldrh	r2, [r3, #20]
 423:../Bsp/OLED/GUISlim.c ****   }
 2443              		.loc 1 423 38 view .LVU734
 2444 004c 7078     		ldrb	r0, [r6, #1]	@ zero_extendqisi2
 423:../Bsp/OLED/GUISlim.c ****   }
 2445              		.loc 1 423 59 view .LVU735
 2446 004e 1969     		ldr	r1, [r3, #16]
ARM GAS  C:\Users\fish\AppData\Local\Temp\cc4JAs8f.s 			page 66


 423:../Bsp/OLED/GUISlim.c ****   }
 2447              		.loc 1 423 66 view .LVU736
 2448 0050 897D     		ldrb	r1, [r1, #22]	@ zero_extendqisi2
 423:../Bsp/OLED/GUISlim.c ****   }
 2449              		.loc 1 423 26 view .LVU737
 2450 0052 00FB0122 		mla	r2, r0, r1, r2
 2451 0056 9A82     		strh	r2, [r3, #20]	@ movhi
 2452              	.LVL252:
 2453              	.L193:
 423:../Bsp/OLED/GUISlim.c ****   }
 2454              		.loc 1 423 26 view .LVU738
 2455              	.LBE20:
 425:../Bsp/OLED/GUISlim.c **** 
 2456              		.loc 1 425 1 view .LVU739
 2457 0058 02B0     		add	sp, sp, #8
 2458              		.cfi_remember_state
 2459              		.cfi_def_cfa_offset 24
 2460              		@ sp needed
 2461 005a BDE8F081 		pop	{r4, r5, r6, r7, r8, pc}
 2462              	.LVL253:
 2463              	.L197:
 2464              		.cfi_restore_state
 2465              	.LBB22:
 2466              	.LBB21:
 416:../Bsp/OLED/GUISlim.c ****       int YSize = GUI_Context.pAFont->YSize;
 2467              		.loc 1 416 7 is_stmt 1 view .LVU740
 417:../Bsp/OLED/GUISlim.c ****         SSD1306_DrawFilledRectangle(GUI_Context.DispPosX, 
 2468              		.loc 1 417 7 view .LVU741
 418:../Bsp/OLED/GUISlim.c ****                      GUI_Context.DispPosY + YSize, 
 2469              		.loc 1 418 9 view .LVU742
 418:../Bsp/OLED/GUISlim.c ****                      GUI_Context.DispPosY + YSize, 
 2470              		.loc 1 418 48 is_stmt 0 view .LVU743
 2471 005e 3D46     		mov	r5, r7
 2472 0060 B7F91400 		ldrsh	r0, [r7, #20]
 418:../Bsp/OLED/GUISlim.c ****                      GUI_Context.DispPosY + YSize, 
 2473              		.loc 1 418 9 view .LVU744
 2474 0064 80B2     		uxth	r0, r0
 419:../Bsp/OLED/GUISlim.c ****                      GUI_Context.DispPosX + pCharInfo->XSize, 
 2475              		.loc 1 419 33 view .LVU745
 2476 0066 FF8A     		ldrh	r7, [r7, #22]
 420:../Bsp/OLED/GUISlim.c ****                      GUI_Context.DispPosY + YDist, COLOR_B);
 2477              		.loc 1 420 54 view .LVU746
 2478 0068 18F83420 		ldrb	r2, [r8, r4, lsl #3]	@ zero_extendqisi2
 421:../Bsp/OLED/GUISlim.c ****     }
 2479              		.loc 1 421 52 view .LVU747
 2480 006c 2C7F     		ldrb	r4, [r5, #28]	@ zero_extendqisi2
 418:../Bsp/OLED/GUISlim.c ****                      GUI_Context.DispPosY + YSize, 
 2481              		.loc 1 418 9 view .LVU748
 2482 006e 3B44     		add	r3, r3, r7
 2483              	.LVL254:
 418:../Bsp/OLED/GUISlim.c ****                      GUI_Context.DispPosY + YSize, 
 2484              		.loc 1 418 9 view .LVU749
 2485 0070 0244     		add	r2, r2, r0
 2486 0072 3944     		add	r1, r1, r7
 2487              	.LVL255:
 418:../Bsp/OLED/GUISlim.c ****                      GUI_Context.DispPosY + YSize, 
 2488              		.loc 1 418 9 view .LVU750
ARM GAS  C:\Users\fish\AppData\Local\Temp\cc4JAs8f.s 			page 67


 2489 0074 013C     		subs	r4, r4, #1
 2490 0076 18BF     		it	ne
 2491 0078 0124     		movne	r4, #1
 2492 007a 0094     		str	r4, [sp]
 2493              	.LVL256:
 418:../Bsp/OLED/GUISlim.c ****                      GUI_Context.DispPosY + YSize, 
 2494              		.loc 1 418 9 view .LVU751
 2495 007c 9BB2     		uxth	r3, r3
 2496 007e 92B2     		uxth	r2, r2
 2497 0080 89B2     		uxth	r1, r1
 2498 0082 FFF7FEFF 		bl	SSD1306_DrawFilledRectangle
 2499              	.LVL257:
 2500 0086 DFE7     		b	.L195
 2501              	.L199:
 2502              		.align	2
 2503              	.L198:
 2504 0088 00000000 		.word	GUI_Context
 2505              	.LBE21:
 2506              	.LBE22:
 2507              		.cfi_endproc
 2508              	.LFE257:
 2510              		.section	.text.GUIPROP_GetCharDistX,"ax",%progbits
 2511              		.align	1
 2512              		.global	GUIPROP_GetCharDistX
 2513              		.syntax unified
 2514              		.thumb
 2515              		.thumb_func
 2517              	GUIPROP_GetCharDistX:
 2518              	.LVL258:
 2519              	.LFB258:
 431:../Bsp/OLED/GUISlim.c ****   const GUI_FONT_PROP GUI_UNI_PTR * pProp = GUIPROP_FindChar(GUI_Context.pAFont->p.pProp, c);
 2520              		.loc 1 431 34 is_stmt 1 view -0
 2521              		.cfi_startproc
 2522              		@ args = 0, pretend = 0, frame = 0
 2523              		@ frame_needed = 0, uses_anonymous_args = 0
 431:../Bsp/OLED/GUISlim.c ****   const GUI_FONT_PROP GUI_UNI_PTR * pProp = GUIPROP_FindChar(GUI_Context.pAFont->p.pProp, c);
 2524              		.loc 1 431 34 is_stmt 0 view .LVU753
 2525 0000 38B5     		push	{r3, r4, r5, lr}
 2526              		.cfi_def_cfa_offset 16
 2527              		.cfi_offset 3, -16
 2528              		.cfi_offset 4, -12
 2529              		.cfi_offset 5, -8
 2530              		.cfi_offset 14, -4
 2531 0002 0446     		mov	r4, r0
 432:../Bsp/OLED/GUISlim.c ****   return (pProp) ? (pProp->paCharInfo+(c-pProp->First))->XSize * GUI_Context.pAFont->XMag : 0;
 2532              		.loc 1 432 3 is_stmt 1 view .LVU754
 432:../Bsp/OLED/GUISlim.c ****   return (pProp) ? (pProp->paCharInfo+(c-pProp->First))->XSize * GUI_Context.pAFont->XMag : 0;
 2533              		.loc 1 432 73 is_stmt 0 view .LVU755
 2534 0004 084B     		ldr	r3, .L204
 2535 0006 1D69     		ldr	r5, [r3, #16]
 432:../Bsp/OLED/GUISlim.c ****   return (pProp) ? (pProp->paCharInfo+(c-pProp->First))->XSize * GUI_Context.pAFont->XMag : 0;
 2536              		.loc 1 432 45 view .LVU756
 2537 0008 0146     		mov	r1, r0
 2538 000a A869     		ldr	r0, [r5, #24]
 2539              	.LVL259:
 432:../Bsp/OLED/GUISlim.c ****   return (pProp) ? (pProp->paCharInfo+(c-pProp->First))->XSize * GUI_Context.pAFont->XMag : 0;
 2540              		.loc 1 432 45 view .LVU757
ARM GAS  C:\Users\fish\AppData\Local\Temp\cc4JAs8f.s 			page 68


 2541 000c FFF7FEFF 		bl	GUIPROP_FindChar
 2542              	.LVL260:
 433:../Bsp/OLED/GUISlim.c **** }
 2543              		.loc 1 433 3 is_stmt 1 view .LVU758
 433:../Bsp/OLED/GUISlim.c **** }
 2544              		.loc 1 433 91 is_stmt 0 view .LVU759
 2545 0010 40B1     		cbz	r0, .L202
 433:../Bsp/OLED/GUISlim.c **** }
 2546              		.loc 1 433 26 discriminator 1 view .LVU760
 2547 0012 4268     		ldr	r2, [r0, #4]
 433:../Bsp/OLED/GUISlim.c **** }
 2548              		.loc 1 433 47 discriminator 1 view .LVU761
 2549 0014 0388     		ldrh	r3, [r0]
 433:../Bsp/OLED/GUISlim.c **** }
 2550              		.loc 1 433 41 discriminator 1 view .LVU762
 2551 0016 E41A     		subs	r4, r4, r3
 2552              	.LVL261:
 433:../Bsp/OLED/GUISlim.c **** }
 2553              		.loc 1 433 56 discriminator 1 view .LVU763
 2554 0018 12F83400 		ldrb	r0, [r2, r4, lsl #3]	@ zero_extendqisi2
 2555              	.LVL262:
 433:../Bsp/OLED/GUISlim.c **** }
 2556              		.loc 1 433 84 discriminator 1 view .LVU764
 2557 001c AB7D     		ldrb	r3, [r5, #22]	@ zero_extendqisi2
 433:../Bsp/OLED/GUISlim.c **** }
 2558              		.loc 1 433 91 discriminator 1 view .LVU765
 2559 001e 03FB00F0 		mul	r0, r3, r0
 2560              	.L200:
 434:../Bsp/OLED/GUISlim.c **** 
 2561              		.loc 1 434 1 view .LVU766
 2562 0022 38BD     		pop	{r3, r4, r5, pc}
 2563              	.LVL263:
 2564              	.L202:
 433:../Bsp/OLED/GUISlim.c **** }
 2565              		.loc 1 433 91 discriminator 2 view .LVU767
 2566 0024 0020     		movs	r0, #0
 2567              	.LVL264:
 433:../Bsp/OLED/GUISlim.c **** }
 2568              		.loc 1 433 91 view .LVU768
 2569 0026 FCE7     		b	.L200
 2570              	.L205:
 2571              		.align	2
 2572              	.L204:
 2573 0028 00000000 		.word	GUI_Context
 2574              		.cfi_endproc
 2575              	.LFE258:
 2577              		.section	.text.GUIPROP_GetFontInfo,"ax",%progbits
 2578              		.align	1
 2579              		.global	GUIPROP_GetFontInfo
 2580              		.syntax unified
 2581              		.thumb
 2582              		.thumb_func
 2584              	GUIPROP_GetFontInfo:
 2585              	.LVL265:
 2586              	.LFB259:
 440:../Bsp/OLED/GUISlim.c ****   pfi->Flags = GUI_FONTINFO_FLAG_PROP;
 2587              		.loc 1 440 81 is_stmt 1 view -0
ARM GAS  C:\Users\fish\AppData\Local\Temp\cc4JAs8f.s 			page 69


 2588              		.cfi_startproc
 2589              		@ args = 0, pretend = 0, frame = 0
 2590              		@ frame_needed = 0, uses_anonymous_args = 0
 2591              		@ link register save eliminated.
 441:../Bsp/OLED/GUISlim.c **** }
 2592              		.loc 1 441 3 view .LVU770
 441:../Bsp/OLED/GUISlim.c **** }
 2593              		.loc 1 441 14 is_stmt 0 view .LVU771
 2594 0000 0123     		movs	r3, #1
 2595 0002 0B80     		strh	r3, [r1]	@ movhi
 442:../Bsp/OLED/GUISlim.c **** 
 2596              		.loc 1 442 1 view .LVU772
 2597 0004 7047     		bx	lr
 2598              		.cfi_endproc
 2599              	.LFE259:
 2601              		.section	.text.GUIPROP_IsInFont,"ax",%progbits
 2602              		.align	1
 2603              		.global	GUIPROP_IsInFont
 2604              		.syntax unified
 2605              		.thumb
 2606              		.thumb_func
 2608              	GUIPROP_IsInFont:
 2609              	.LVL266:
 2610              	.LFB260:
 448:../Bsp/OLED/GUISlim.c ****   const GUI_FONT_PROP GUI_UNI_PTR * pProp = GUIPROP_FindChar(pFont->p.pProp, c);
 2611              		.loc 1 448 66 is_stmt 1 view -0
 2612              		.cfi_startproc
 2613              		@ args = 0, pretend = 0, frame = 0
 2614              		@ frame_needed = 0, uses_anonymous_args = 0
 448:../Bsp/OLED/GUISlim.c ****   const GUI_FONT_PROP GUI_UNI_PTR * pProp = GUIPROP_FindChar(pFont->p.pProp, c);
 2615              		.loc 1 448 66 is_stmt 0 view .LVU774
 2616 0000 08B5     		push	{r3, lr}
 2617              		.cfi_def_cfa_offset 8
 2618              		.cfi_offset 3, -8
 2619              		.cfi_offset 14, -4
 449:../Bsp/OLED/GUISlim.c ****   return (pProp==NULL) ? 0 : 1;
 2620              		.loc 1 449 3 is_stmt 1 view .LVU775
 449:../Bsp/OLED/GUISlim.c ****   return (pProp==NULL) ? 0 : 1;
 2621              		.loc 1 449 45 is_stmt 0 view .LVU776
 2622 0002 8069     		ldr	r0, [r0, #24]
 2623              	.LVL267:
 449:../Bsp/OLED/GUISlim.c ****   return (pProp==NULL) ? 0 : 1;
 2624              		.loc 1 449 45 view .LVU777
 2625 0004 FFF7FEFF 		bl	GUIPROP_FindChar
 2626              	.LVL268:
 450:../Bsp/OLED/GUISlim.c **** }
 2627              		.loc 1 450 3 is_stmt 1 view .LVU778
 451:../Bsp/OLED/GUISlim.c **** 
 2628              		.loc 1 451 1 is_stmt 0 view .LVU779
 2629 0008 0038     		subs	r0, r0, #0
 451:../Bsp/OLED/GUISlim.c **** 
 2630              		.loc 1 451 1 view .LVU780
 2631 000a 18BF     		it	ne
 2632 000c 0120     		movne	r0, #1
 2633              	.LVL269:
 451:../Bsp/OLED/GUISlim.c **** 
 2634              		.loc 1 451 1 view .LVU781
ARM GAS  C:\Users\fish\AppData\Local\Temp\cc4JAs8f.s 			page 70


 2635 000e 08BD     		pop	{r3, pc}
 2636              		.cfi_endproc
 2637              	.LFE260:
 2639              		.section	.text.GUI_GetFontDistY,"ax",%progbits
 2640              		.align	1
 2641              		.global	GUI_GetFontDistY
 2642              		.syntax unified
 2643              		.thumb
 2644              		.thumb_func
 2646              	GUI_GetFontDistY:
 2647              	.LFB261:
 457:../Bsp/OLED/GUISlim.c ****   int r;
 2648              		.loc 1 457 28 is_stmt 1 view -0
 2649              		.cfi_startproc
 2650              		@ args = 0, pretend = 0, frame = 0
 2651              		@ frame_needed = 0, uses_anonymous_args = 0
 2652              		@ link register save eliminated.
 458:../Bsp/OLED/GUISlim.c ****   GUI_LOCK();
 2653              		.loc 1 458 3 view .LVU783
 459:../Bsp/OLED/GUISlim.c ****   r = GUI_Context.pAFont->YDist;
 2654              		.loc 1 459 13 view .LVU784
 460:../Bsp/OLED/GUISlim.c ****   GUI_UNLOCK();
 2655              		.loc 1 460 3 view .LVU785
 460:../Bsp/OLED/GUISlim.c ****   GUI_UNLOCK();
 2656              		.loc 1 460 18 is_stmt 0 view .LVU786
 2657 0000 014B     		ldr	r3, .L210
 2658 0002 1B69     		ldr	r3, [r3, #16]
 2659              	.LVL270:
 461:../Bsp/OLED/GUISlim.c ****   return r;
 2660              		.loc 1 461 15 is_stmt 1 view .LVU787
 462:../Bsp/OLED/GUISlim.c **** }
 2661              		.loc 1 462 3 view .LVU788
 463:../Bsp/OLED/GUISlim.c **** 
 2662              		.loc 1 463 1 is_stmt 0 view .LVU789
 2663 0004 587D     		ldrb	r0, [r3, #21]	@ zero_extendqisi2
 2664              	.LVL271:
 463:../Bsp/OLED/GUISlim.c **** 
 2665              		.loc 1 463 1 view .LVU790
 2666 0006 7047     		bx	lr
 2667              	.L211:
 2668              		.align	2
 2669              	.L210:
 2670 0008 00000000 		.word	GUI_Context
 2671              		.cfi_endproc
 2672              	.LFE261:
 2674              		.section	.text.GUI_GetCharDistX,"ax",%progbits
 2675              		.align	1
 2676              		.global	GUI_GetCharDistX
 2677              		.syntax unified
 2678              		.thumb
 2679              		.thumb_func
 2681              	GUI_GetCharDistX:
 2682              	.LVL272:
 2683              	.LFB262:
 469:../Bsp/OLED/GUISlim.c ****   int r;
 2684              		.loc 1 469 29 is_stmt 1 view -0
 2685              		.cfi_startproc
ARM GAS  C:\Users\fish\AppData\Local\Temp\cc4JAs8f.s 			page 71


 2686              		@ args = 0, pretend = 0, frame = 0
 2687              		@ frame_needed = 0, uses_anonymous_args = 0
 469:../Bsp/OLED/GUISlim.c ****   int r;
 2688              		.loc 1 469 29 is_stmt 0 view .LVU792
 2689 0000 08B5     		push	{r3, lr}
 2690              		.cfi_def_cfa_offset 8
 2691              		.cfi_offset 3, -8
 2692              		.cfi_offset 14, -4
 470:../Bsp/OLED/GUISlim.c ****   GUI_LOCK();
 2693              		.loc 1 470 3 is_stmt 1 view .LVU793
 471:../Bsp/OLED/GUISlim.c ****   r = GUI_Context.pAFont->pfGetCharDistX(c);
 2694              		.loc 1 471 13 view .LVU794
 472:../Bsp/OLED/GUISlim.c ****   GUI_UNLOCK();
 2695              		.loc 1 472 3 view .LVU795
 472:../Bsp/OLED/GUISlim.c ****   GUI_UNLOCK();
 2696              		.loc 1 472 18 is_stmt 0 view .LVU796
 2697 0002 024B     		ldr	r3, .L214
 2698 0004 1B69     		ldr	r3, [r3, #16]
 472:../Bsp/OLED/GUISlim.c ****   GUI_UNLOCK();
 2699              		.loc 1 472 25 view .LVU797
 2700 0006 5B68     		ldr	r3, [r3, #4]
 472:../Bsp/OLED/GUISlim.c ****   GUI_UNLOCK();
 2701              		.loc 1 472 7 view .LVU798
 2702 0008 9847     		blx	r3
 2703              	.LVL273:
 473:../Bsp/OLED/GUISlim.c ****   return r;
 2704              		.loc 1 473 15 is_stmt 1 view .LVU799
 474:../Bsp/OLED/GUISlim.c **** }
 2705              		.loc 1 474 3 view .LVU800
 475:../Bsp/OLED/GUISlim.c **** 
 2706              		.loc 1 475 1 is_stmt 0 view .LVU801
 2707 000a 08BD     		pop	{r3, pc}
 2708              	.L215:
 2709              		.align	2
 2710              	.L214:
 2711 000c 00000000 		.word	GUI_Context
 2712              		.cfi_endproc
 2713              	.LFE262:
 2715              		.section	.text._GetLineDistX_SJIS,"ax",%progbits
 2716              		.align	1
 2717              		.syntax unified
 2718              		.thumb
 2719              		.thumb_func
 2721              	_GetLineDistX_SJIS:
 2722              	.LVL274:
 2723              	.LFB277:
 631:../Bsp/OLED/GUISlim.c ****   int Dist =0;
 2724              		.loc 1 631 67 is_stmt 1 view -0
 2725              		.cfi_startproc
 2726              		@ args = 0, pretend = 0, frame = 0
 2727              		@ frame_needed = 0, uses_anonymous_args = 0
 631:../Bsp/OLED/GUISlim.c ****   int Dist =0;
 2728              		.loc 1 631 67 is_stmt 0 view .LVU803
 2729 0000 2DE9F041 		push	{r4, r5, r6, r7, r8, lr}
 2730              		.cfi_def_cfa_offset 24
 2731              		.cfi_offset 4, -24
 2732              		.cfi_offset 5, -20
ARM GAS  C:\Users\fish\AppData\Local\Temp\cc4JAs8f.s 			page 72


 2733              		.cfi_offset 6, -16
 2734              		.cfi_offset 7, -12
 2735              		.cfi_offset 8, -8
 2736              		.cfi_offset 14, -4
 632:../Bsp/OLED/GUISlim.c ****   if (s) {
 2737              		.loc 1 632 3 is_stmt 1 view .LVU804
 2738              	.LVL275:
 633:../Bsp/OLED/GUISlim.c ****     U8 c0;
 2739              		.loc 1 633 3 view .LVU805
 633:../Bsp/OLED/GUISlim.c ****     U8 c0;
 2740              		.loc 1 633 6 is_stmt 0 view .LVU806
 2741 0004 18B1     		cbz	r0, .L224
 2742 0006 0C46     		mov	r4, r1
 2743 0008 0546     		mov	r5, r0
 632:../Bsp/OLED/GUISlim.c ****   if (s) {
 2744              		.loc 1 632 7 view .LVU807
 2745 000a 0026     		movs	r6, #0
 2746 000c 0BE0     		b	.L217
 2747              	.L224:
 632:../Bsp/OLED/GUISlim.c ****   if (s) {
 2748              		.loc 1 632 7 view .LVU808
 2749 000e 0026     		movs	r6, #0
 2750              	.LVL276:
 2751              	.L216:
 647:../Bsp/OLED/GUISlim.c **** 
 2752              		.loc 1 647 1 view .LVU809
 2753 0010 3046     		mov	r0, r6
 2754 0012 BDE8F081 		pop	{r4, r5, r6, r7, r8, pc}
 2755              	.LVL277:
 2756              	.L225:
 2757              	.LBB23:
 2758              	.LBB24:
 638:../Bsp/OLED/GUISlim.c ****         Len--;
 2759              		.loc 1 638 9 is_stmt 1 view .LVU810
 638:../Bsp/OLED/GUISlim.c ****         Len--;
 2760              		.loc 1 638 19 is_stmt 0 view .LVU811
 2761 0016 0235     		adds	r5, r5, #2
 2762              	.LVL278:
 639:../Bsp/OLED/GUISlim.c ****         Dist += GUI_GetCharDistX(DB2SJIS(c0, c1));
 2763              		.loc 1 639 9 is_stmt 1 view .LVU812
 639:../Bsp/OLED/GUISlim.c ****         Dist += GUI_GetCharDistX(DB2SJIS(c0, c1));
 2764              		.loc 1 639 12 is_stmt 0 view .LVU813
 2765 0018 023C     		subs	r4, r4, #2
 2766              	.LVL279:
 640:../Bsp/OLED/GUISlim.c ****       } else {
 2767              		.loc 1 640 9 is_stmt 1 view .LVU814
 640:../Bsp/OLED/GUISlim.c ****       } else {
 2768              		.loc 1 640 17 is_stmt 0 view .LVU815
 2769 001a 3978     		ldrb	r1, [r7]	@ zero_extendqisi2
 2770 001c FFF7FEFF 		bl	DB2SJIS
 2771              	.LVL280:
 640:../Bsp/OLED/GUISlim.c ****       } else {
 2772              		.loc 1 640 17 discriminator 1 view .LVU816
 2773 0020 FFF7FEFF 		bl	GUI_GetCharDistX
 2774              	.LVL281:
 640:../Bsp/OLED/GUISlim.c ****       } else {
 2775              		.loc 1 640 14 discriminator 2 view .LVU817
ARM GAS  C:\Users\fish\AppData\Local\Temp\cc4JAs8f.s 			page 73


 2776 0024 0644     		add	r6, r6, r0
 2777              	.LVL282:
 2778              	.L217:
 640:../Bsp/OLED/GUISlim.c ****       } else {
 2779              		.loc 1 640 14 discriminator 2 view .LVU818
 2780              	.LBE24:
 635:../Bsp/OLED/GUISlim.c ****       s++; Len--;
 2781              		.loc 1 635 37 is_stmt 1 view .LVU819
 635:../Bsp/OLED/GUISlim.c ****       s++; Len--;
 2782              		.loc 1 635 16 is_stmt 0 view .LVU820
 2783 0026 2878     		ldrb	r0, [r5]	@ zero_extendqisi2
 2784              	.LVL283:
 635:../Bsp/OLED/GUISlim.c ****       s++; Len--;
 2785              		.loc 1 635 37 view .LVU821
 2786 0028 0028     		cmp	r0, #0
 2787 002a F1D0     		beq	.L216
 635:../Bsp/OLED/GUISlim.c ****       s++; Len--;
 2788              		.loc 1 635 37 discriminator 1 view .LVU822
 2789 002c 002C     		cmp	r4, #0
 2790 002e EFDB     		blt	.L216
 636:../Bsp/OLED/GUISlim.c ****       if (c0 > 127) {
 2791              		.loc 1 636 7 is_stmt 1 view .LVU823
 636:../Bsp/OLED/GUISlim.c ****       if (c0 > 127) {
 2792              		.loc 1 636 8 is_stmt 0 view .LVU824
 2793 0030 6F1C     		adds	r7, r5, #1
 2794              	.LVL284:
 636:../Bsp/OLED/GUISlim.c ****       if (c0 > 127) {
 2795              		.loc 1 636 12 is_stmt 1 view .LVU825
 636:../Bsp/OLED/GUISlim.c ****       if (c0 > 127) {
 2796              		.loc 1 636 15 is_stmt 0 view .LVU826
 2797 0032 04F1FF38 		add	r8, r4, #-1
 2798              	.LVL285:
 637:../Bsp/OLED/GUISlim.c ****         U8  c1 = *(const U8*)s++;
 2799              		.loc 1 637 7 is_stmt 1 view .LVU827
 637:../Bsp/OLED/GUISlim.c ****         U8  c1 = *(const U8*)s++;
 2800              		.loc 1 637 10 is_stmt 0 view .LVU828
 2801 0036 10F0800F 		tst	r0, #128
 2802 003a ECD1     		bne	.L225
 642:../Bsp/OLED/GUISlim.c ****       }
 2803              		.loc 1 642 9 is_stmt 1 view .LVU829
 642:../Bsp/OLED/GUISlim.c ****       }
 2804              		.loc 1 642 17 is_stmt 0 view .LVU830
 2805 003c FFF7FEFF 		bl	GUI_GetCharDistX
 2806              	.LVL286:
 642:../Bsp/OLED/GUISlim.c ****       }
 2807              		.loc 1 642 14 discriminator 1 view .LVU831
 2808 0040 0644     		add	r6, r6, r0
 2809              	.LVL287:
 636:../Bsp/OLED/GUISlim.c ****       if (c0 > 127) {
 2810              		.loc 1 636 15 view .LVU832
 2811 0042 4446     		mov	r4, r8
 636:../Bsp/OLED/GUISlim.c ****       if (c0 > 127) {
 2812              		.loc 1 636 8 view .LVU833
 2813 0044 3D46     		mov	r5, r7
 2814 0046 EEE7     		b	.L217
 2815              	.LBE23:
 2816              		.cfi_endproc
ARM GAS  C:\Users\fish\AppData\Local\Temp\cc4JAs8f.s 			page 74


 2817              	.LFE277:
 2819              		.section	.text.GUI_DispNextLine,"ax",%progbits
 2820              		.align	1
 2821              		.global	GUI_DispNextLine
 2822              		.syntax unified
 2823              		.thumb
 2824              		.thumb_func
 2826              	GUI_DispNextLine:
 2827              	.LFB263:
 477:../Bsp/OLED/GUISlim.c ****   GUI_LOCK();
 2828              		.loc 1 477 29 is_stmt 1 view -0
 2829              		.cfi_startproc
 2830              		@ args = 0, pretend = 0, frame = 0
 2831              		@ frame_needed = 0, uses_anonymous_args = 0
 2832 0000 08B5     		push	{r3, lr}
 2833              		.cfi_def_cfa_offset 8
 2834              		.cfi_offset 3, -8
 2835              		.cfi_offset 14, -4
 478:../Bsp/OLED/GUISlim.c ****   GUI_Context.DispPosY += GUI_GetFontDistY();
 2836              		.loc 1 478 13 view .LVU835
 479:../Bsp/OLED/GUISlim.c ****   GUI_UNLOCK();
 2837              		.loc 1 479 3 view .LVU836
 479:../Bsp/OLED/GUISlim.c ****   GUI_UNLOCK();
 2838              		.loc 1 479 27 is_stmt 0 view .LVU837
 2839 0002 FFF7FEFF 		bl	GUI_GetFontDistY
 2840              	.LVL288:
 479:../Bsp/OLED/GUISlim.c ****   GUI_UNLOCK();
 2841              		.loc 1 479 14 discriminator 1 view .LVU838
 2842 0006 024A     		ldr	r2, .L228
 2843 0008 D38A     		ldrh	r3, [r2, #22]
 479:../Bsp/OLED/GUISlim.c ****   GUI_UNLOCK();
 2844              		.loc 1 479 24 discriminator 1 view .LVU839
 2845 000a 0344     		add	r3, r3, r0
 2846 000c D382     		strh	r3, [r2, #22]	@ movhi
 480:../Bsp/OLED/GUISlim.c **** }
 2847              		.loc 1 480 15 is_stmt 1 view .LVU840
 481:../Bsp/OLED/GUISlim.c **** 
 2848              		.loc 1 481 1 is_stmt 0 view .LVU841
 2849 000e 08BD     		pop	{r3, pc}
 2850              	.L229:
 2851              		.align	2
 2852              	.L228:
 2853 0010 00000000 		.word	GUI_Context
 2854              		.cfi_endproc
 2855              	.LFE263:
 2857              		.section	.text.GL_DispChar,"ax",%progbits
 2858              		.align	1
 2859              		.global	GL_DispChar
 2860              		.syntax unified
 2861              		.thumb
 2862              		.thumb_func
 2864              	GL_DispChar:
 2865              	.LVL289:
 2866              	.LFB264:
 487:../Bsp/OLED/GUISlim.c ****   /* check for control characters */
 2867              		.loc 1 487 25 is_stmt 1 view -0
 2868              		.cfi_startproc
ARM GAS  C:\Users\fish\AppData\Local\Temp\cc4JAs8f.s 			page 75


 2869              		@ args = 0, pretend = 0, frame = 0
 2870              		@ frame_needed = 0, uses_anonymous_args = 0
 487:../Bsp/OLED/GUISlim.c ****   /* check for control characters */
 2871              		.loc 1 487 25 is_stmt 0 view .LVU843
 2872 0000 08B5     		push	{r3, lr}
 2873              		.cfi_def_cfa_offset 8
 2874              		.cfi_offset 3, -8
 2875              		.cfi_offset 14, -4
 489:../Bsp/OLED/GUISlim.c ****     GUI_DispNextLine();
 2876              		.loc 1 489 3 is_stmt 1 view .LVU844
 489:../Bsp/OLED/GUISlim.c ****     GUI_DispNextLine();
 2877              		.loc 1 489 6 is_stmt 0 view .LVU845
 2878 0002 0A28     		cmp	r0, #10
 2879 0004 06D0     		beq	.L234
 492:../Bsp/OLED/GUISlim.c ****       GUI_LOCK();
 2880              		.loc 1 492 5 is_stmt 1 view .LVU846
 492:../Bsp/OLED/GUISlim.c ****       GUI_LOCK();
 2881              		.loc 1 492 8 is_stmt 0 view .LVU847
 2882 0006 0D28     		cmp	r0, #13
 2883 0008 03D0     		beq	.L230
 493:../Bsp/OLED/GUISlim.c ****       GUI_Context.pAFont->pfDispChar(c);
 2884              		.loc 1 493 17 is_stmt 1 view .LVU848
 494:../Bsp/OLED/GUISlim.c ****       GUI_UNLOCK();
 2885              		.loc 1 494 7 view .LVU849
 494:../Bsp/OLED/GUISlim.c ****       GUI_UNLOCK();
 2886              		.loc 1 494 18 is_stmt 0 view .LVU850
 2887 000a 044B     		ldr	r3, .L235
 2888 000c 1B69     		ldr	r3, [r3, #16]
 494:../Bsp/OLED/GUISlim.c ****       GUI_UNLOCK();
 2889              		.loc 1 494 25 view .LVU851
 2890 000e 1B68     		ldr	r3, [r3]
 494:../Bsp/OLED/GUISlim.c ****       GUI_UNLOCK();
 2891              		.loc 1 494 7 view .LVU852
 2892 0010 9847     		blx	r3
 2893              	.LVL290:
 495:../Bsp/OLED/GUISlim.c ****     }
 2894              		.loc 1 495 19 is_stmt 1 view .LVU853
 2895              	.L230:
 498:../Bsp/OLED/GUISlim.c **** 
 2896              		.loc 1 498 1 is_stmt 0 view .LVU854
 2897 0012 08BD     		pop	{r3, pc}
 2898              	.LVL291:
 2899              	.L234:
 490:../Bsp/OLED/GUISlim.c ****   } else {
 2900              		.loc 1 490 5 is_stmt 1 view .LVU855
 2901 0014 FFF7FEFF 		bl	GUI_DispNextLine
 2902              	.LVL292:
 490:../Bsp/OLED/GUISlim.c ****   } else {
 2903              		.loc 1 490 5 is_stmt 0 view .LVU856
 2904 0018 FBE7     		b	.L230
 2905              	.L236:
 2906 001a 00BF     		.align	2
 2907              	.L235:
 2908 001c 00000000 		.word	GUI_Context
 2909              		.cfi_endproc
 2910              	.LFE264:
 2912              		.section	.text._DispLine_SJIS,"ax",%progbits
ARM GAS  C:\Users\fish\AppData\Local\Temp\cc4JAs8f.s 			page 76


 2913              		.align	1
 2914              		.syntax unified
 2915              		.thumb
 2916              		.thumb_func
 2918              	_DispLine_SJIS:
 2919              	.LVL293:
 2920              	.LFB279:
 680:../Bsp/OLED/GUISlim.c ****   U8 c0;
 2921              		.loc 1 680 64 is_stmt 1 view -0
 2922              		.cfi_startproc
 2923              		@ args = 0, pretend = 0, frame = 0
 2924              		@ frame_needed = 0, uses_anonymous_args = 0
 680:../Bsp/OLED/GUISlim.c ****   U8 c0;
 2925              		.loc 1 680 64 is_stmt 0 view .LVU858
 2926 0000 F8B5     		push	{r3, r4, r5, r6, r7, lr}
 2927              		.cfi_def_cfa_offset 24
 2928              		.cfi_offset 3, -24
 2929              		.cfi_offset 4, -20
 2930              		.cfi_offset 5, -16
 2931              		.cfi_offset 6, -12
 2932              		.cfi_offset 7, -8
 2933              		.cfi_offset 14, -4
 2934 0002 0646     		mov	r6, r0
 2935 0004 0C46     		mov	r4, r1
 681:../Bsp/OLED/GUISlim.c ****   while (--Len >=0) {
 2936              		.loc 1 681 3 is_stmt 1 view .LVU859
 682:../Bsp/OLED/GUISlim.c ****     c0=*(const U8*)s++;
 2937              		.loc 1 682 3 view .LVU860
 682:../Bsp/OLED/GUISlim.c ****     c0=*(const U8*)s++;
 2938              		.loc 1 682 9 is_stmt 0 view .LVU861
 2939 0006 06E0     		b	.L238
 2940              	.LVL294:
 2941              	.L244:
 2942              	.LBB25:
 685:../Bsp/OLED/GUISlim.c ****       Len--;
 2943              		.loc 1 685 7 is_stmt 1 view .LVU862
 685:../Bsp/OLED/GUISlim.c ****       Len--;
 2944              		.loc 1 685 17 is_stmt 0 view .LVU863
 2945 0008 0236     		adds	r6, r6, #2
 2946              	.LVL295:
 686:../Bsp/OLED/GUISlim.c ****       GL_DispChar (DB2SJIS(c0, c1));
 2947              		.loc 1 686 7 is_stmt 1 view .LVU864
 686:../Bsp/OLED/GUISlim.c ****       GL_DispChar (DB2SJIS(c0, c1));
 2948              		.loc 1 686 10 is_stmt 0 view .LVU865
 2949 000a 023C     		subs	r4, r4, #2
 2950              	.LVL296:
 687:../Bsp/OLED/GUISlim.c ****     } else {
 2951              		.loc 1 687 7 is_stmt 1 view .LVU866
 2952 000c 2978     		ldrb	r1, [r5]	@ zero_extendqisi2
 2953 000e FFF7FEFF 		bl	DB2SJIS
 2954              	.LVL297:
 687:../Bsp/OLED/GUISlim.c ****     } else {
 2955              		.loc 1 687 7 is_stmt 0 discriminator 1 view .LVU867
 2956 0012 FFF7FEFF 		bl	GL_DispChar
 2957              	.LVL298:
 2958              	.L238:
 687:../Bsp/OLED/GUISlim.c ****     } else {
ARM GAS  C:\Users\fish\AppData\Local\Temp\cc4JAs8f.s 			page 77


 2959              		.loc 1 687 7 discriminator 1 view .LVU868
 2960              	.LBE25:
 682:../Bsp/OLED/GUISlim.c ****     c0=*(const U8*)s++;
 2961              		.loc 1 682 16 is_stmt 1 view .LVU869
 682:../Bsp/OLED/GUISlim.c ****     c0=*(const U8*)s++;
 2962              		.loc 1 682 16 is_stmt 0 view .LVU870
 2963 0016 671E     		subs	r7, r4, #1
 2964              	.LVL299:
 682:../Bsp/OLED/GUISlim.c ****     c0=*(const U8*)s++;
 2965              		.loc 1 682 16 view .LVU871
 2966 0018 0AD4     		bmi	.L243
 683:../Bsp/OLED/GUISlim.c ****     if (c0 > 127) {
 2967              		.loc 1 683 5 is_stmt 1 view .LVU872
 683:../Bsp/OLED/GUISlim.c ****     if (c0 > 127) {
 2968              		.loc 1 683 9 is_stmt 0 view .LVU873
 2969 001a 3546     		mov	r5, r6
 2970              	.LVL300:
 683:../Bsp/OLED/GUISlim.c ****     if (c0 > 127) {
 2971              		.loc 1 683 7 view .LVU874
 2972 001c 15F8010B 		ldrb	r0, [r5], #1	@ zero_extendqisi2
 2973              	.LVL301:
 684:../Bsp/OLED/GUISlim.c ****       U8  c1 = *(const U8*)s++;
 2974              		.loc 1 684 5 is_stmt 1 view .LVU875
 684:../Bsp/OLED/GUISlim.c ****       U8  c1 = *(const U8*)s++;
 2975              		.loc 1 684 8 is_stmt 0 view .LVU876
 2976 0020 10F0800F 		tst	r0, #128
 2977 0024 F0D1     		bne	.L244
 689:../Bsp/OLED/GUISlim.c ****     }
 2978              		.loc 1 689 7 is_stmt 1 view .LVU877
 2979 0026 FFF7FEFF 		bl	GL_DispChar
 2980              	.LVL302:
 682:../Bsp/OLED/GUISlim.c ****     c0=*(const U8*)s++;
 2981              		.loc 1 682 16 is_stmt 0 view .LVU878
 2982 002a 3C46     		mov	r4, r7
 683:../Bsp/OLED/GUISlim.c ****     if (c0 > 127) {
 2983              		.loc 1 683 9 view .LVU879
 2984 002c 2E46     		mov	r6, r5
 2985 002e F2E7     		b	.L238
 2986              	.LVL303:
 2987              	.L243:
 692:../Bsp/OLED/GUISlim.c **** ///////////////////////////////////////////////////////////////////////
 2988              		.loc 1 692 1 view .LVU880
 2989 0030 F8BD     		pop	{r3, r4, r5, r6, r7, pc}
 692:../Bsp/OLED/GUISlim.c **** ///////////////////////////////////////////////////////////////////////
 2990              		.loc 1 692 1 view .LVU881
 2991              		.cfi_endproc
 2992              	.LFE279:
 2994              		.section	.text._DispLine,"ax",%progbits
 2995              		.align	1
 2996              		.syntax unified
 2997              		.thumb
 2998              		.thumb_func
 3000              	_DispLine:
 3001              	.LVL304:
 3002              	.LFB287:
 701:../Bsp/OLED/GUISlim.c **** int GUI_UC_GetCharSize(const char GUI_UNI_PTR * s) {
 702:../Bsp/OLED/GUISlim.c ****   int r;
ARM GAS  C:\Users\fish\AppData\Local\Temp\cc4JAs8f.s 			page 78


 703:../Bsp/OLED/GUISlim.c ****   GUI_LOCK();
 704:../Bsp/OLED/GUISlim.c ****   r =  _GetCharSize(s);
 705:../Bsp/OLED/GUISlim.c ****   GUI_UNLOCK();
 706:../Bsp/OLED/GUISlim.c ****   return r;
 707:../Bsp/OLED/GUISlim.c **** }
 708:../Bsp/OLED/GUISlim.c **** 
 709:../Bsp/OLED/GUISlim.c **** U16 GUI_UC_GetCharCode(const char GUI_UNI_PTR * s) {
 710:../Bsp/OLED/GUISlim.c ****   U16 r;
 711:../Bsp/OLED/GUISlim.c ****   GUI_LOCK();
 712:../Bsp/OLED/GUISlim.c ****   r =  _GetCharCode(s);
 713:../Bsp/OLED/GUISlim.c ****   GUI_UNLOCK();
 714:../Bsp/OLED/GUISlim.c ****   return r;
 715:../Bsp/OLED/GUISlim.c **** }
 716:../Bsp/OLED/GUISlim.c **** 
 717:../Bsp/OLED/GUISlim.c **** U16 GUI_UC__GetCharCodeInc(const char GUI_UNI_PTR ** ps) {
 718:../Bsp/OLED/GUISlim.c ****   const char GUI_UNI_PTR * s;
 719:../Bsp/OLED/GUISlim.c ****   U16 r;
 720:../Bsp/OLED/GUISlim.c ****   s   = *ps;
 721:../Bsp/OLED/GUISlim.c ****   r   = _GetCharCode(s);
 722:../Bsp/OLED/GUISlim.c ****   s  += _GetCharSize(s);
 723:../Bsp/OLED/GUISlim.c ****   *ps = s;
 724:../Bsp/OLED/GUISlim.c ****   return r;
 725:../Bsp/OLED/GUISlim.c **** }
 726:../Bsp/OLED/GUISlim.c **** int GUI_UC__NumChars2NumBytes(const char GUI_UNI_PTR * s, int NumChars) {
 727:../Bsp/OLED/GUISlim.c ****   int CharSize, NumBytes = 0;
 728:../Bsp/OLED/GUISlim.c ****   while (NumChars--) {
 729:../Bsp/OLED/GUISlim.c ****     CharSize = _GetCharSize(s);
 730:../Bsp/OLED/GUISlim.c ****     s += CharSize;    
 731:../Bsp/OLED/GUISlim.c ****     NumBytes += CharSize;
 732:../Bsp/OLED/GUISlim.c ****   }
 733:../Bsp/OLED/GUISlim.c ****   return NumBytes;
 734:../Bsp/OLED/GUISlim.c **** }
 735:../Bsp/OLED/GUISlim.c **** int GUI_UC__NumBytes2NumChars(const char GUI_UNI_PTR * s, int NumBytes) {
 736:../Bsp/OLED/GUISlim.c ****   int CharSize, Chars = 0, Bytes = 0;
 737:../Bsp/OLED/GUISlim.c ****   while (NumBytes > Bytes) {
 738:../Bsp/OLED/GUISlim.c ****     CharSize = _GetCharSize(s + Bytes);
 739:../Bsp/OLED/GUISlim.c ****     Bytes += CharSize;
 740:../Bsp/OLED/GUISlim.c ****     Chars++;
 741:../Bsp/OLED/GUISlim.c ****   }
 742:../Bsp/OLED/GUISlim.c ****   return Chars;
 743:../Bsp/OLED/GUISlim.c **** }
 744:../Bsp/OLED/GUISlim.c **** 
 745:../Bsp/OLED/GUISlim.c **** /*********************************************************************
 746:../Bsp/OLED/GUISlim.c **** *
 747:../Bsp/OLED/GUISlim.c **** *       _DispLine
 748:../Bsp/OLED/GUISlim.c **** */
 749:../Bsp/OLED/GUISlim.c **** static void _DispLine(const char GUI_UNI_PTR *s, int MaxNumChars, const GUI_RECT *pRect) {
 3003              		.loc 1 749 90 is_stmt 1 view -0
 3004              		.cfi_startproc
 3005              		@ args = 0, pretend = 0, frame = 0
 3006              		@ frame_needed = 0, uses_anonymous_args = 0
 3007              		.loc 1 749 90 is_stmt 0 view .LVU883
 3008 0000 08B5     		push	{r3, lr}
 3009              		.cfi_def_cfa_offset 8
 3010              		.cfi_offset 3, -8
 3011              		.cfi_offset 14, -4
 750:../Bsp/OLED/GUISlim.c ****   /* Check if we have anything to do at all ... */
ARM GAS  C:\Users\fish\AppData\Local\Temp\cc4JAs8f.s 			page 79


 751:../Bsp/OLED/GUISlim.c **** 	_DispLine_SJIS(s, MaxNumChars);
 3012              		.loc 1 751 2 is_stmt 1 view .LVU884
 3013 0002 FFF7FEFF 		bl	_DispLine_SJIS
 3014              	.LVL305:
 752:../Bsp/OLED/GUISlim.c **** }
 3015              		.loc 1 752 1 is_stmt 0 view .LVU885
 3016 0006 08BD     		pop	{r3, pc}
 3017              		.cfi_endproc
 3018              	.LFE287:
 3020              		.section	.text.GUI_GetYAdjust,"ax",%progbits
 3021              		.align	1
 3022              		.global	GUI_GetYAdjust
 3023              		.syntax unified
 3024              		.thumb
 3025              		.thumb_func
 3027              	GUI_GetYAdjust:
 3028              	.LFB265:
 509:../Bsp/OLED/GUISlim.c ****   int r = 0;
 3029              		.loc 1 509 26 is_stmt 1 view -0
 3030              		.cfi_startproc
 3031              		@ args = 0, pretend = 0, frame = 0
 3032              		@ frame_needed = 0, uses_anonymous_args = 0
 3033              		@ link register save eliminated.
 510:../Bsp/OLED/GUISlim.c ****   GUI_LOCK();
 3034              		.loc 1 510 3 view .LVU887
 3035              	.LVL306:
 511:../Bsp/OLED/GUISlim.c ****   switch (GUI_Context.TextAlign & GUI_TA_VERTICAL) {
 3036              		.loc 1 511 13 view .LVU888
 512:../Bsp/OLED/GUISlim.c **** 	case GUI_TA_BOTTOM:
 3037              		.loc 1 512 3 view .LVU889
 512:../Bsp/OLED/GUISlim.c **** 	case GUI_TA_BOTTOM:
 3038              		.loc 1 512 22 is_stmt 0 view .LVU890
 3039 0000 0D4B     		ldr	r3, .L252
 3040 0002 B3F91A30 		ldrsh	r3, [r3, #26]
 3041 0006 03F00C03 		and	r3, r3, #12
 512:../Bsp/OLED/GUISlim.c **** 	case GUI_TA_BOTTOM:
 3042              		.loc 1 512 3 view .LVU891
 3043 000a 082B     		cmp	r3, #8
 3044 000c 0DD0     		beq	.L248
 3045 000e 0C2B     		cmp	r3, #12
 3046 0010 06D0     		beq	.L249
 3047 0012 042B     		cmp	r3, #4
 3048 0014 0ED1     		bne	.L251
 514:../Bsp/OLED/GUISlim.c ****     break;
 3049              		.loc 1 514 3 is_stmt 1 view .LVU892
 514:../Bsp/OLED/GUISlim.c ****     break;
 3050              		.loc 1 514 18 is_stmt 0 view .LVU893
 3051 0016 084B     		ldr	r3, .L252
 3052 0018 1B69     		ldr	r3, [r3, #16]
 514:../Bsp/OLED/GUISlim.c ****     break;
 3053              		.loc 1 514 25 view .LVU894
 3054 001a 187D     		ldrb	r0, [r3, #20]	@ zero_extendqisi2
 514:../Bsp/OLED/GUISlim.c ****     break;
 3055              		.loc 1 514 5 view .LVU895
 3056 001c 0138     		subs	r0, r0, #1
 3057              	.LVL307:
 515:../Bsp/OLED/GUISlim.c **** 	case GUI_TA_VCENTER:
ARM GAS  C:\Users\fish\AppData\Local\Temp\cc4JAs8f.s 			page 80


 3058              		.loc 1 515 5 is_stmt 1 view .LVU896
 3059 001e 7047     		bx	lr
 3060              	.LVL308:
 3061              	.L249:
 517:../Bsp/OLED/GUISlim.c ****     break;
 3062              		.loc 1 517 3 view .LVU897
 517:../Bsp/OLED/GUISlim.c ****     break;
 3063              		.loc 1 517 18 is_stmt 0 view .LVU898
 3064 0020 054B     		ldr	r3, .L252
 3065 0022 1B69     		ldr	r3, [r3, #16]
 517:../Bsp/OLED/GUISlim.c ****     break;
 3066              		.loc 1 517 25 view .LVU899
 3067 0024 187D     		ldrb	r0, [r3, #20]	@ zero_extendqisi2
 517:../Bsp/OLED/GUISlim.c ****     break;
 3068              		.loc 1 517 33 view .LVU900
 3069 0026 4008     		lsrs	r0, r0, #1
 3070              	.LVL309:
 518:../Bsp/OLED/GUISlim.c **** 	case GUI_TA_BASELINE:
 3071              		.loc 1 518 5 is_stmt 1 view .LVU901
 3072 0028 7047     		bx	lr
 3073              	.LVL310:
 3074              	.L248:
 520:../Bsp/OLED/GUISlim.c **** 	}
 3075              		.loc 1 520 3 view .LVU902
 520:../Bsp/OLED/GUISlim.c **** 	}
 3076              		.loc 1 520 18 is_stmt 0 view .LVU903
 3077 002a 034B     		ldr	r3, .L252
 3078 002c 1B69     		ldr	r3, [r3, #16]
 520:../Bsp/OLED/GUISlim.c **** 	}
 3079              		.loc 1 520 25 view .LVU904
 3080 002e 187D     		ldrb	r0, [r3, #20]	@ zero_extendqisi2
 520:../Bsp/OLED/GUISlim.c **** 	}
 3081              		.loc 1 520 33 view .LVU905
 3082 0030 4008     		lsrs	r0, r0, #1
 3083              	.LVL311:
 520:../Bsp/OLED/GUISlim.c **** 	}
 3084              		.loc 1 520 33 view .LVU906
 3085 0032 7047     		bx	lr
 3086              	.LVL312:
 3087              	.L251:
 512:../Bsp/OLED/GUISlim.c **** 	case GUI_TA_BOTTOM:
 3088              		.loc 1 512 3 view .LVU907
 3089 0034 0020     		movs	r0, #0
 522:../Bsp/OLED/GUISlim.c ****   return r;
 3090              		.loc 1 522 15 is_stmt 1 view .LVU908
 523:../Bsp/OLED/GUISlim.c **** }
 3091              		.loc 1 523 3 view .LVU909
 524:../Bsp/OLED/GUISlim.c **** 
 3092              		.loc 1 524 1 is_stmt 0 view .LVU910
 3093 0036 7047     		bx	lr
 3094              	.L253:
 3095              		.align	2
 3096              	.L252:
 3097 0038 00000000 		.word	GUI_Context
 3098              		.cfi_endproc
 3099              	.LFE265:
 3101              		.section	.text.GUI_GotoY,"ax",%progbits
ARM GAS  C:\Users\fish\AppData\Local\Temp\cc4JAs8f.s 			page 81


 3102              		.align	1
 3103              		.global	GUI_GotoY
 3104              		.syntax unified
 3105              		.thumb
 3106              		.thumb_func
 3108              	GUI_GotoY:
 3109              	.LVL313:
 3110              	.LFB268:
 548:../Bsp/OLED/GUISlim.c ****   char r;
 3111              		.loc 1 548 23 is_stmt 1 view -0
 3112              		.cfi_startproc
 3113              		@ args = 0, pretend = 0, frame = 0
 3114              		@ frame_needed = 0, uses_anonymous_args = 0
 548:../Bsp/OLED/GUISlim.c ****   char r;
 3115              		.loc 1 548 23 is_stmt 0 view .LVU912
 3116 0000 08B5     		push	{r3, lr}
 3117              		.cfi_def_cfa_offset 8
 3118              		.cfi_offset 3, -8
 3119              		.cfi_offset 14, -4
 549:../Bsp/OLED/GUISlim.c ****   GUI_LOCK();
 3120              		.loc 1 549 3 is_stmt 1 view .LVU913
 550:../Bsp/OLED/GUISlim.c ****   r = _GotoY(y);
 3121              		.loc 1 550 13 view .LVU914
 551:../Bsp/OLED/GUISlim.c ****   GUI_UNLOCK();
 3122              		.loc 1 551 3 view .LVU915
 551:../Bsp/OLED/GUISlim.c ****   GUI_UNLOCK();
 3123              		.loc 1 551 7 is_stmt 0 view .LVU916
 3124 0002 FFF7FEFF 		bl	_GotoY
 3125              	.LVL314:
 552:../Bsp/OLED/GUISlim.c ****   return r;
 3126              		.loc 1 552 15 is_stmt 1 view .LVU917
 553:../Bsp/OLED/GUISlim.c **** }
 3127              		.loc 1 553 3 view .LVU918
 554:../Bsp/OLED/GUISlim.c **** 
 3128              		.loc 1 554 1 is_stmt 0 view .LVU919
 3129 0006 08BD     		pop	{r3, pc}
 3130              		.cfi_endproc
 3131              	.LFE268:
 3133              		.section	.text.GUI_GotoX,"ax",%progbits
 3134              		.align	1
 3135              		.global	GUI_GotoX
 3136              		.syntax unified
 3137              		.thumb
 3138              		.thumb_func
 3140              	GUI_GotoX:
 3141              	.LVL315:
 3142              	.LFB269:
 560:../Bsp/OLED/GUISlim.c ****   char r;
 3143              		.loc 1 560 23 is_stmt 1 view -0
 3144              		.cfi_startproc
 3145              		@ args = 0, pretend = 0, frame = 0
 3146              		@ frame_needed = 0, uses_anonymous_args = 0
 560:../Bsp/OLED/GUISlim.c ****   char r;
 3147              		.loc 1 560 23 is_stmt 0 view .LVU921
 3148 0000 08B5     		push	{r3, lr}
 3149              		.cfi_def_cfa_offset 8
 3150              		.cfi_offset 3, -8
ARM GAS  C:\Users\fish\AppData\Local\Temp\cc4JAs8f.s 			page 82


 3151              		.cfi_offset 14, -4
 561:../Bsp/OLED/GUISlim.c ****   GUI_LOCK();
 3152              		.loc 1 561 3 is_stmt 1 view .LVU922
 562:../Bsp/OLED/GUISlim.c ****   r = _GotoX(x);
 3153              		.loc 1 562 13 view .LVU923
 563:../Bsp/OLED/GUISlim.c ****   GUI_UNLOCK();
 3154              		.loc 1 563 3 view .LVU924
 563:../Bsp/OLED/GUISlim.c ****   GUI_UNLOCK();
 3155              		.loc 1 563 7 is_stmt 0 view .LVU925
 3156 0002 FFF7FEFF 		bl	_GotoX
 3157              	.LVL316:
 564:../Bsp/OLED/GUISlim.c ****   return r;
 3158              		.loc 1 564 15 is_stmt 1 view .LVU926
 565:../Bsp/OLED/GUISlim.c **** }
 3159              		.loc 1 565 3 view .LVU927
 566:../Bsp/OLED/GUISlim.c **** 
 3160              		.loc 1 566 1 is_stmt 0 view .LVU928
 3161 0006 08BD     		pop	{r3, pc}
 3162              		.cfi_endproc
 3163              	.LFE269:
 3165              		.section	.text.GUI_GotoXY,"ax",%progbits
 3166              		.align	1
 3167              		.global	GUI_GotoXY
 3168              		.syntax unified
 3169              		.thumb
 3170              		.thumb_func
 3172              	GUI_GotoXY:
 3173              	.LVL317:
 3174              	.LFB270:
 572:../Bsp/OLED/GUISlim.c ****   char r;
 3175              		.loc 1 572 31 is_stmt 1 view -0
 3176              		.cfi_startproc
 3177              		@ args = 0, pretend = 0, frame = 0
 3178              		@ frame_needed = 0, uses_anonymous_args = 0
 572:../Bsp/OLED/GUISlim.c ****   char r;
 3179              		.loc 1 572 31 is_stmt 0 view .LVU930
 3180 0000 38B5     		push	{r3, r4, r5, lr}
 3181              		.cfi_def_cfa_offset 16
 3182              		.cfi_offset 3, -16
 3183              		.cfi_offset 4, -12
 3184              		.cfi_offset 5, -8
 3185              		.cfi_offset 14, -4
 3186 0002 0D46     		mov	r5, r1
 573:../Bsp/OLED/GUISlim.c ****   GUI_LOCK();
 3187              		.loc 1 573 3 is_stmt 1 view .LVU931
 574:../Bsp/OLED/GUISlim.c ****   r  = _GotoX(x);
 3188              		.loc 1 574 13 view .LVU932
 575:../Bsp/OLED/GUISlim.c ****   r |= _GotoY(y);
 3189              		.loc 1 575 3 view .LVU933
 575:../Bsp/OLED/GUISlim.c ****   r |= _GotoY(y);
 3190              		.loc 1 575 8 is_stmt 0 view .LVU934
 3191 0004 FFF7FEFF 		bl	_GotoX
 3192              	.LVL318:
 575:../Bsp/OLED/GUISlim.c ****   r |= _GotoY(y);
 3193              		.loc 1 575 8 view .LVU935
 3194 0008 0446     		mov	r4, r0
 3195              	.LVL319:
ARM GAS  C:\Users\fish\AppData\Local\Temp\cc4JAs8f.s 			page 83


 576:../Bsp/OLED/GUISlim.c ****   GUI_UNLOCK();
 3196              		.loc 1 576 3 is_stmt 1 view .LVU936
 576:../Bsp/OLED/GUISlim.c ****   GUI_UNLOCK();
 3197              		.loc 1 576 8 is_stmt 0 view .LVU937
 3198 000a 2846     		mov	r0, r5
 3199 000c FFF7FEFF 		bl	_GotoY
 3200              	.LVL320:
 576:../Bsp/OLED/GUISlim.c ****   GUI_UNLOCK();
 3201              		.loc 1 576 5 discriminator 1 view .LVU938
 3202 0010 2043     		orrs	r0, r0, r4
 3203              	.LVL321:
 577:../Bsp/OLED/GUISlim.c ****   return r;
 3204              		.loc 1 577 15 is_stmt 1 view .LVU939
 578:../Bsp/OLED/GUISlim.c **** }
 3205              		.loc 1 578 3 view .LVU940
 579:../Bsp/OLED/GUISlim.c **** 
 3206              		.loc 1 579 1 is_stmt 0 view .LVU941
 3207 0012 C0B2     		uxtb	r0, r0
 579:../Bsp/OLED/GUISlim.c **** 
 3208              		.loc 1 579 1 view .LVU942
 3209 0014 38BD     		pop	{r3, r4, r5, pc}
 579:../Bsp/OLED/GUISlim.c **** 
 3210              		.loc 1 579 1 view .LVU943
 3211              		.cfi_endproc
 3212              	.LFE270:
 3214              		.section	.text.GUI_ClearRect,"ax",%progbits
 3215              		.align	1
 3216              		.global	GUI_ClearRect
 3217              		.syntax unified
 3218              		.thumb
 3219              		.thumb_func
 3221              	GUI_ClearRect:
 3222              	.LVL322:
 3223              	.LFB271:
 581:../Bsp/OLED/GUISlim.c ****   GUI_LOCK();
 3224              		.loc 1 581 52 is_stmt 1 view -0
 3225              		.cfi_startproc
 3226              		@ args = 0, pretend = 0, frame = 0
 3227              		@ frame_needed = 0, uses_anonymous_args = 0
 581:../Bsp/OLED/GUISlim.c ****   GUI_LOCK();
 3228              		.loc 1 581 52 is_stmt 0 view .LVU945
 3229 0000 10B5     		push	{r4, lr}
 3230              		.cfi_def_cfa_offset 8
 3231              		.cfi_offset 4, -8
 3232              		.cfi_offset 14, -4
 3233 0002 82B0     		sub	sp, sp, #8
 3234              		.cfi_def_cfa_offset 16
 582:../Bsp/OLED/GUISlim.c ****   SSD1306_DrawFilledRectangle(x0,y0,x1,y1, GUI_COLOR_BLACK);
 3235              		.loc 1 582 13 is_stmt 1 view .LVU946
 583:../Bsp/OLED/GUISlim.c ****   GUI_UNLOCK();
 3236              		.loc 1 583 3 view .LVU947
 3237 0004 0024     		movs	r4, #0
 3238 0006 0094     		str	r4, [sp]
 3239 0008 9BB2     		uxth	r3, r3
 3240              	.LVL323:
 583:../Bsp/OLED/GUISlim.c ****   GUI_UNLOCK();
 3241              		.loc 1 583 3 is_stmt 0 view .LVU948
ARM GAS  C:\Users\fish\AppData\Local\Temp\cc4JAs8f.s 			page 84


 3242 000a 92B2     		uxth	r2, r2
 3243              	.LVL324:
 583:../Bsp/OLED/GUISlim.c ****   GUI_UNLOCK();
 3244              		.loc 1 583 3 view .LVU949
 3245 000c 89B2     		uxth	r1, r1
 3246              	.LVL325:
 583:../Bsp/OLED/GUISlim.c ****   GUI_UNLOCK();
 3247              		.loc 1 583 3 view .LVU950
 3248 000e 80B2     		uxth	r0, r0
 3249              	.LVL326:
 583:../Bsp/OLED/GUISlim.c ****   GUI_UNLOCK();
 3250              		.loc 1 583 3 view .LVU951
 3251 0010 FFF7FEFF 		bl	SSD1306_DrawFilledRectangle
 3252              	.LVL327:
 584:../Bsp/OLED/GUISlim.c **** }
 3253              		.loc 1 584 15 is_stmt 1 view .LVU952
 585:../Bsp/OLED/GUISlim.c **** 
 3254              		.loc 1 585 1 is_stmt 0 view .LVU953
 3255 0014 02B0     		add	sp, sp, #8
 3256              		.cfi_def_cfa_offset 8
 3257              		@ sp needed
 3258 0016 10BD     		pop	{r4, pc}
 3259              		.cfi_endproc
 3260              	.LFE271:
 3262              		.section	.text.GUI_Clear,"ax",%progbits
 3263              		.align	1
 3264              		.global	GUI_Clear
 3265              		.syntax unified
 3266              		.thumb
 3267              		.thumb_func
 3269              	GUI_Clear:
 3270              	.LFB272:
 587:../Bsp/OLED/GUISlim.c ****   GUI_GotoXY(0,0);     /* Reset text cursor to upper left */
 3271              		.loc 1 587 22 is_stmt 1 view -0
 3272              		.cfi_startproc
 3273              		@ args = 0, pretend = 0, frame = 0
 3274              		@ frame_needed = 0, uses_anonymous_args = 0
 3275 0000 10B5     		push	{r4, lr}
 3276              		.cfi_def_cfa_offset 8
 3277              		.cfi_offset 4, -8
 3278              		.cfi_offset 14, -4
 588:../Bsp/OLED/GUISlim.c ****   GUI_ClearRect(0, 0, GUI_GetXSize(), GUI_GetYSize());
 3279              		.loc 1 588 3 view .LVU955
 3280 0002 0021     		movs	r1, #0
 3281 0004 0846     		mov	r0, r1
 3282 0006 FFF7FEFF 		bl	GUI_GotoXY
 3283              	.LVL328:
 589:../Bsp/OLED/GUISlim.c **** }
 3284              		.loc 1 589 3 view .LVU956
 3285 000a FFF7FEFF 		bl	GUI_GetXSize
 3286              	.LVL329:
 3287 000e 0446     		mov	r4, r0
 589:../Bsp/OLED/GUISlim.c **** }
 3288              		.loc 1 589 3 is_stmt 0 discriminator 1 view .LVU957
 3289 0010 FFF7FEFF 		bl	GUI_GetYSize
 3290              	.LVL330:
 3291 0014 0346     		mov	r3, r0
ARM GAS  C:\Users\fish\AppData\Local\Temp\cc4JAs8f.s 			page 85


 589:../Bsp/OLED/GUISlim.c **** }
 3292              		.loc 1 589 3 discriminator 2 view .LVU958
 3293 0016 2246     		mov	r2, r4
 3294 0018 0021     		movs	r1, #0
 3295 001a 0846     		mov	r0, r1
 3296 001c FFF7FEFF 		bl	GUI_ClearRect
 3297              	.LVL331:
 590:../Bsp/OLED/GUISlim.c **** 
 3298              		.loc 1 590 1 view .LVU959
 3299 0020 10BD     		pop	{r4, pc}
 3300              		.cfi_endproc
 3301              	.LFE272:
 3303              		.section	.text.GUI_DispCEOL,"ax",%progbits
 3304              		.align	1
 3305              		.global	GUI_DispCEOL
 3306              		.syntax unified
 3307              		.thumb
 3308              		.thumb_func
 3310              	GUI_DispCEOL:
 3311              	.LFB273:
 592:../Bsp/OLED/GUISlim.c ****   int y = GUI_Context.DispPosY - GUI_GetYAdjust();
 3312              		.loc 1 592 25 is_stmt 1 view -0
 3313              		.cfi_startproc
 3314              		@ args = 0, pretend = 0, frame = 0
 3315              		@ frame_needed = 0, uses_anonymous_args = 0
 3316 0000 38B5     		push	{r3, r4, r5, lr}
 3317              		.cfi_def_cfa_offset 16
 3318              		.cfi_offset 3, -16
 3319              		.cfi_offset 4, -12
 3320              		.cfi_offset 5, -8
 3321              		.cfi_offset 14, -4
 593:../Bsp/OLED/GUISlim.c ****   GUI_ClearRect(GUI_Context.DispPosX, y, 4000,             /* Max pos x */
 3322              		.loc 1 593 3 view .LVU961
 593:../Bsp/OLED/GUISlim.c ****   GUI_ClearRect(GUI_Context.DispPosX, y, 4000,             /* Max pos x */
 3323              		.loc 1 593 22 is_stmt 0 view .LVU962
 3324 0002 084D     		ldr	r5, .L266
 3325 0004 B5F91640 		ldrsh	r4, [r5, #22]
 593:../Bsp/OLED/GUISlim.c ****   GUI_ClearRect(GUI_Context.DispPosX, y, 4000,             /* Max pos x */
 3326              		.loc 1 593 34 view .LVU963
 3327 0008 FFF7FEFF 		bl	GUI_GetYAdjust
 3328              	.LVL332:
 593:../Bsp/OLED/GUISlim.c ****   GUI_ClearRect(GUI_Context.DispPosX, y, 4000,             /* Max pos x */
 3329              		.loc 1 593 7 discriminator 1 view .LVU964
 3330 000c 211A     		subs	r1, r4, r0
 3331              	.LVL333:
 594:../Bsp/OLED/GUISlim.c ****                 y + GUI_Context.pAFont->YDist - 1);
 3332              		.loc 1 594 3 is_stmt 1 view .LVU965
 595:../Bsp/OLED/GUISlim.c **** }
 3333              		.loc 1 595 32 is_stmt 0 view .LVU966
 3334 000e 2B69     		ldr	r3, [r5, #16]
 595:../Bsp/OLED/GUISlim.c **** }
 3335              		.loc 1 595 39 view .LVU967
 3336 0010 5B7D     		ldrb	r3, [r3, #21]	@ zero_extendqisi2
 595:../Bsp/OLED/GUISlim.c **** }
 3337              		.loc 1 595 19 view .LVU968
 3338 0012 0B44     		add	r3, r3, r1
 594:../Bsp/OLED/GUISlim.c ****                 y + GUI_Context.pAFont->YDist - 1);
ARM GAS  C:\Users\fish\AppData\Local\Temp\cc4JAs8f.s 			page 86


 3339              		.loc 1 594 3 view .LVU969
 3340 0014 013B     		subs	r3, r3, #1
 3341 0016 4FF47A62 		mov	r2, #4000
 3342 001a B5F91400 		ldrsh	r0, [r5, #20]
 3343 001e FFF7FEFF 		bl	GUI_ClearRect
 3344              	.LVL334:
 596:../Bsp/OLED/GUISlim.c **** 
 3345              		.loc 1 596 1 view .LVU970
 3346 0022 38BD     		pop	{r3, r4, r5, pc}
 3347              	.L267:
 596:../Bsp/OLED/GUISlim.c **** 
 3348              		.loc 1 596 1 view .LVU971
 3349              		.align	2
 3350              	.L266:
 3351 0024 00000000 		.word	GUI_Context
 3352              		.cfi_endproc
 3353              	.LFE273:
 3355              		.section	.text.GUI_DispChar,"ax",%progbits
 3356              		.align	1
 3357              		.global	GUI_DispChar
 3358              		.syntax unified
 3359              		.thumb
 3360              		.thumb_func
 3362              	GUI_DispChar:
 3363              	.LVL335:
 3364              	.LFB274:
 598:../Bsp/OLED/GUISlim.c ****   GUI_LOCK();
 3365              		.loc 1 598 26 is_stmt 1 view -0
 3366              		.cfi_startproc
 3367              		@ args = 0, pretend = 0, frame = 0
 3368              		@ frame_needed = 0, uses_anonymous_args = 0
 598:../Bsp/OLED/GUISlim.c ****   GUI_LOCK();
 3369              		.loc 1 598 26 is_stmt 0 view .LVU973
 3370 0000 08B5     		push	{r3, lr}
 3371              		.cfi_def_cfa_offset 8
 3372              		.cfi_offset 3, -8
 3373              		.cfi_offset 14, -4
 599:../Bsp/OLED/GUISlim.c ****   GL_DispChar(c);
 3374              		.loc 1 599 13 is_stmt 1 view .LVU974
 600:../Bsp/OLED/GUISlim.c ****   GUI_UNLOCK();
 3375              		.loc 1 600 3 view .LVU975
 3376 0002 FFF7FEFF 		bl	GL_DispChar
 3377              	.LVL336:
 601:../Bsp/OLED/GUISlim.c **** }
 3378              		.loc 1 601 15 view .LVU976
 602:../Bsp/OLED/GUISlim.c **** 
 3379              		.loc 1 602 1 is_stmt 0 view .LVU977
 3380 0006 08BD     		pop	{r3, pc}
 3381              		.cfi_endproc
 3382              	.LFE274:
 3384              		.section	.text.GUI_DispCharAt,"ax",%progbits
 3385              		.align	1
 3386              		.global	GUI_DispCharAt
 3387              		.syntax unified
 3388              		.thumb
 3389              		.thumb_func
 3391              	GUI_DispCharAt:
ARM GAS  C:\Users\fish\AppData\Local\Temp\cc4JAs8f.s 			page 87


 3392              	.LVL337:
 3393              	.LFB275:
 604:../Bsp/OLED/GUISlim.c ****   GUI_LOCK();
 3394              		.loc 1 604 44 is_stmt 1 view -0
 3395              		.cfi_startproc
 3396              		@ args = 0, pretend = 0, frame = 0
 3397              		@ frame_needed = 0, uses_anonymous_args = 0
 604:../Bsp/OLED/GUISlim.c ****   GUI_LOCK();
 3398              		.loc 1 604 44 is_stmt 0 view .LVU979
 3399 0000 08B5     		push	{r3, lr}
 3400              		.cfi_def_cfa_offset 8
 3401              		.cfi_offset 3, -8
 3402              		.cfi_offset 14, -4
 605:../Bsp/OLED/GUISlim.c ****   GUI_Context.DispPosX = x;
 3403              		.loc 1 605 13 is_stmt 1 view .LVU980
 606:../Bsp/OLED/GUISlim.c ****   GUI_Context.DispPosY = y;
 3404              		.loc 1 606 3 view .LVU981
 606:../Bsp/OLED/GUISlim.c ****   GUI_Context.DispPosY = y;
 3405              		.loc 1 606 24 is_stmt 0 view .LVU982
 3406 0002 034B     		ldr	r3, .L272
 3407 0004 9982     		strh	r1, [r3, #20]	@ movhi
 607:../Bsp/OLED/GUISlim.c **** 	GL_DispChar(c);
 3408              		.loc 1 607 3 is_stmt 1 view .LVU983
 607:../Bsp/OLED/GUISlim.c **** 	GL_DispChar(c);
 3409              		.loc 1 607 24 is_stmt 0 view .LVU984
 3410 0006 DA82     		strh	r2, [r3, #22]	@ movhi
 608:../Bsp/OLED/GUISlim.c ****   GUI_UNLOCK();
 3411              		.loc 1 608 2 is_stmt 1 view .LVU985
 3412 0008 FFF7FEFF 		bl	GL_DispChar
 3413              	.LVL338:
 609:../Bsp/OLED/GUISlim.c **** }
 3414              		.loc 1 609 15 view .LVU986
 610:../Bsp/OLED/GUISlim.c **** 
 3415              		.loc 1 610 1 is_stmt 0 view .LVU987
 3416 000c 08BD     		pop	{r3, pc}
 3417              	.L273:
 3418 000e 00BF     		.align	2
 3419              	.L272:
 3420 0010 00000000 		.word	GUI_Context
 3421              		.cfi_endproc
 3422              	.LFE275:
 3424              		.section	.text.GUI_UC_GetCharSize,"ax",%progbits
 3425              		.align	1
 3426              		.global	GUI_UC_GetCharSize
 3427              		.syntax unified
 3428              		.thumb
 3429              		.thumb_func
 3431              	GUI_UC_GetCharSize:
 3432              	.LVL339:
 3433              	.LFB282:
 701:../Bsp/OLED/GUISlim.c ****   int r;
 3434              		.loc 1 701 52 is_stmt 1 view -0
 3435              		.cfi_startproc
 3436              		@ args = 0, pretend = 0, frame = 0
 3437              		@ frame_needed = 0, uses_anonymous_args = 0
 701:../Bsp/OLED/GUISlim.c ****   int r;
 3438              		.loc 1 701 52 is_stmt 0 view .LVU989
ARM GAS  C:\Users\fish\AppData\Local\Temp\cc4JAs8f.s 			page 88


 3439 0000 08B5     		push	{r3, lr}
 3440              		.cfi_def_cfa_offset 8
 3441              		.cfi_offset 3, -8
 3442              		.cfi_offset 14, -4
 702:../Bsp/OLED/GUISlim.c ****   GUI_LOCK();
 3443              		.loc 1 702 3 is_stmt 1 view .LVU990
 703:../Bsp/OLED/GUISlim.c ****   r =  _GetCharSize(s);
 3444              		.loc 1 703 13 view .LVU991
 704:../Bsp/OLED/GUISlim.c ****   GUI_UNLOCK();
 3445              		.loc 1 704 3 view .LVU992
 704:../Bsp/OLED/GUISlim.c ****   GUI_UNLOCK();
 3446              		.loc 1 704 8 is_stmt 0 view .LVU993
 3447 0002 FFF7FEFF 		bl	_GetCharSize
 3448              	.LVL340:
 705:../Bsp/OLED/GUISlim.c ****   return r;
 3449              		.loc 1 705 15 is_stmt 1 view .LVU994
 706:../Bsp/OLED/GUISlim.c **** }
 3450              		.loc 1 706 3 view .LVU995
 707:../Bsp/OLED/GUISlim.c **** 
 3451              		.loc 1 707 1 is_stmt 0 view .LVU996
 3452 0006 08BD     		pop	{r3, pc}
 3453              		.cfi_endproc
 3454              	.LFE282:
 3456              		.section	.text.GUI_UC_GetCharCode,"ax",%progbits
 3457              		.align	1
 3458              		.global	GUI_UC_GetCharCode
 3459              		.syntax unified
 3460              		.thumb
 3461              		.thumb_func
 3463              	GUI_UC_GetCharCode:
 3464              	.LVL341:
 3465              	.LFB283:
 709:../Bsp/OLED/GUISlim.c ****   U16 r;
 3466              		.loc 1 709 52 is_stmt 1 view -0
 3467              		.cfi_startproc
 3468              		@ args = 0, pretend = 0, frame = 0
 3469              		@ frame_needed = 0, uses_anonymous_args = 0
 709:../Bsp/OLED/GUISlim.c ****   U16 r;
 3470              		.loc 1 709 52 is_stmt 0 view .LVU998
 3471 0000 08B5     		push	{r3, lr}
 3472              		.cfi_def_cfa_offset 8
 3473              		.cfi_offset 3, -8
 3474              		.cfi_offset 14, -4
 710:../Bsp/OLED/GUISlim.c ****   GUI_LOCK();
 3475              		.loc 1 710 3 is_stmt 1 view .LVU999
 711:../Bsp/OLED/GUISlim.c ****   r =  _GetCharCode(s);
 3476              		.loc 1 711 13 view .LVU1000
 712:../Bsp/OLED/GUISlim.c ****   GUI_UNLOCK();
 3477              		.loc 1 712 3 view .LVU1001
 712:../Bsp/OLED/GUISlim.c ****   GUI_UNLOCK();
 3478              		.loc 1 712 8 is_stmt 0 view .LVU1002
 3479 0002 FFF7FEFF 		bl	_GetCharCode
 3480              	.LVL342:
 713:../Bsp/OLED/GUISlim.c ****   return r;
 3481              		.loc 1 713 15 is_stmt 1 view .LVU1003
 714:../Bsp/OLED/GUISlim.c **** }
 3482              		.loc 1 714 3 view .LVU1004
ARM GAS  C:\Users\fish\AppData\Local\Temp\cc4JAs8f.s 			page 89


 715:../Bsp/OLED/GUISlim.c **** 
 3483              		.loc 1 715 1 is_stmt 0 view .LVU1005
 3484 0006 08BD     		pop	{r3, pc}
 3485              		.cfi_endproc
 3486              	.LFE283:
 3488              		.section	.text.GUI_UC__GetCharCodeInc,"ax",%progbits
 3489              		.align	1
 3490              		.global	GUI_UC__GetCharCodeInc
 3491              		.syntax unified
 3492              		.thumb
 3493              		.thumb_func
 3495              	GUI_UC__GetCharCodeInc:
 3496              	.LVL343:
 3497              	.LFB284:
 717:../Bsp/OLED/GUISlim.c ****   const char GUI_UNI_PTR * s;
 3498              		.loc 1 717 58 is_stmt 1 view -0
 3499              		.cfi_startproc
 3500              		@ args = 0, pretend = 0, frame = 0
 3501              		@ frame_needed = 0, uses_anonymous_args = 0
 717:../Bsp/OLED/GUISlim.c ****   const char GUI_UNI_PTR * s;
 3502              		.loc 1 717 58 is_stmt 0 view .LVU1007
 3503 0000 70B5     		push	{r4, r5, r6, lr}
 3504              		.cfi_def_cfa_offset 16
 3505              		.cfi_offset 4, -16
 3506              		.cfi_offset 5, -12
 3507              		.cfi_offset 6, -8
 3508              		.cfi_offset 14, -4
 3509 0002 0546     		mov	r5, r0
 718:../Bsp/OLED/GUISlim.c ****   U16 r;
 3510              		.loc 1 718 3 is_stmt 1 view .LVU1008
 719:../Bsp/OLED/GUISlim.c ****   s   = *ps;
 3511              		.loc 1 719 3 view .LVU1009
 720:../Bsp/OLED/GUISlim.c ****   r   = _GetCharCode(s);
 3512              		.loc 1 720 3 view .LVU1010
 720:../Bsp/OLED/GUISlim.c ****   r   = _GetCharCode(s);
 3513              		.loc 1 720 7 is_stmt 0 view .LVU1011
 3514 0004 0468     		ldr	r4, [r0]
 3515              	.LVL344:
 721:../Bsp/OLED/GUISlim.c ****   s  += _GetCharSize(s);
 3516              		.loc 1 721 3 is_stmt 1 view .LVU1012
 721:../Bsp/OLED/GUISlim.c ****   s  += _GetCharSize(s);
 3517              		.loc 1 721 9 is_stmt 0 view .LVU1013
 3518 0006 2046     		mov	r0, r4
 3519              	.LVL345:
 721:../Bsp/OLED/GUISlim.c ****   s  += _GetCharSize(s);
 3520              		.loc 1 721 9 view .LVU1014
 3521 0008 FFF7FEFF 		bl	_GetCharCode
 3522              	.LVL346:
 3523 000c 0646     		mov	r6, r0
 3524              	.LVL347:
 722:../Bsp/OLED/GUISlim.c ****   *ps = s;
 3525              		.loc 1 722 3 is_stmt 1 view .LVU1015
 722:../Bsp/OLED/GUISlim.c ****   *ps = s;
 3526              		.loc 1 722 9 is_stmt 0 view .LVU1016
 3527 000e 2046     		mov	r0, r4
 3528 0010 FFF7FEFF 		bl	_GetCharSize
 3529              	.LVL348:
ARM GAS  C:\Users\fish\AppData\Local\Temp\cc4JAs8f.s 			page 90


 722:../Bsp/OLED/GUISlim.c ****   *ps = s;
 3530              		.loc 1 722 6 discriminator 1 view .LVU1017
 3531 0014 0444     		add	r4, r4, r0
 3532              	.LVL349:
 723:../Bsp/OLED/GUISlim.c ****   return r;
 3533              		.loc 1 723 3 is_stmt 1 view .LVU1018
 723:../Bsp/OLED/GUISlim.c ****   return r;
 3534              		.loc 1 723 7 is_stmt 0 view .LVU1019
 3535 0016 2C60     		str	r4, [r5]
 724:../Bsp/OLED/GUISlim.c **** }
 3536              		.loc 1 724 3 is_stmt 1 view .LVU1020
 725:../Bsp/OLED/GUISlim.c **** int GUI_UC__NumChars2NumBytes(const char GUI_UNI_PTR * s, int NumChars) {
 3537              		.loc 1 725 1 is_stmt 0 view .LVU1021
 3538 0018 3046     		mov	r0, r6
 3539 001a 70BD     		pop	{r4, r5, r6, pc}
 725:../Bsp/OLED/GUISlim.c **** int GUI_UC__NumChars2NumBytes(const char GUI_UNI_PTR * s, int NumChars) {
 3540              		.loc 1 725 1 view .LVU1022
 3541              		.cfi_endproc
 3542              	.LFE284:
 3544              		.section	.text.GUI_UC__NumChars2NumBytes,"ax",%progbits
 3545              		.align	1
 3546              		.global	GUI_UC__NumChars2NumBytes
 3547              		.syntax unified
 3548              		.thumb
 3549              		.thumb_func
 3551              	GUI_UC__NumChars2NumBytes:
 3552              	.LVL350:
 3553              	.LFB285:
 726:../Bsp/OLED/GUISlim.c ****   int CharSize, NumBytes = 0;
 3554              		.loc 1 726 73 is_stmt 1 view -0
 3555              		.cfi_startproc
 3556              		@ args = 0, pretend = 0, frame = 0
 3557              		@ frame_needed = 0, uses_anonymous_args = 0
 726:../Bsp/OLED/GUISlim.c ****   int CharSize, NumBytes = 0;
 3558              		.loc 1 726 73 is_stmt 0 view .LVU1024
 3559 0000 70B5     		push	{r4, r5, r6, lr}
 3560              		.cfi_def_cfa_offset 16
 3561              		.cfi_offset 4, -16
 3562              		.cfi_offset 5, -12
 3563              		.cfi_offset 6, -8
 3564              		.cfi_offset 14, -4
 3565 0002 0446     		mov	r4, r0
 727:../Bsp/OLED/GUISlim.c ****   while (NumChars--) {
 3566              		.loc 1 727 3 is_stmt 1 view .LVU1025
 3567              	.LVL351:
 728:../Bsp/OLED/GUISlim.c ****     CharSize = _GetCharSize(s);
 3568              		.loc 1 728 3 view .LVU1026
 727:../Bsp/OLED/GUISlim.c ****   while (NumChars--) {
 3569              		.loc 1 727 17 is_stmt 0 view .LVU1027
 3570 0004 0025     		movs	r5, #0
 728:../Bsp/OLED/GUISlim.c ****     CharSize = _GetCharSize(s);
 3571              		.loc 1 728 9 view .LVU1028
 3572 0006 05E0     		b	.L281
 3573              	.LVL352:
 3574              	.L282:
 729:../Bsp/OLED/GUISlim.c ****     s += CharSize;    
 3575              		.loc 1 729 5 is_stmt 1 view .LVU1029
ARM GAS  C:\Users\fish\AppData\Local\Temp\cc4JAs8f.s 			page 91


 729:../Bsp/OLED/GUISlim.c ****     s += CharSize;    
 3576              		.loc 1 729 16 is_stmt 0 view .LVU1030
 3577 0008 2046     		mov	r0, r4
 3578 000a FFF7FEFF 		bl	_GetCharSize
 3579              	.LVL353:
 730:../Bsp/OLED/GUISlim.c ****     NumBytes += CharSize;
 3580              		.loc 1 730 5 is_stmt 1 view .LVU1031
 730:../Bsp/OLED/GUISlim.c ****     NumBytes += CharSize;
 3581              		.loc 1 730 7 is_stmt 0 view .LVU1032
 3582 000e 0444     		add	r4, r4, r0
 3583              	.LVL354:
 731:../Bsp/OLED/GUISlim.c ****   }
 3584              		.loc 1 731 5 is_stmt 1 view .LVU1033
 731:../Bsp/OLED/GUISlim.c ****   }
 3585              		.loc 1 731 14 is_stmt 0 view .LVU1034
 3586 0010 0544     		add	r5, r5, r0
 3587              	.LVL355:
 728:../Bsp/OLED/GUISlim.c ****     CharSize = _GetCharSize(s);
 3588              		.loc 1 728 18 view .LVU1035
 3589 0012 3146     		mov	r1, r6
 3590              	.LVL356:
 3591              	.L281:
 728:../Bsp/OLED/GUISlim.c ****     CharSize = _GetCharSize(s);
 3592              		.loc 1 728 10 is_stmt 1 view .LVU1036
 728:../Bsp/OLED/GUISlim.c ****     CharSize = _GetCharSize(s);
 3593              		.loc 1 728 18 is_stmt 0 view .LVU1037
 3594 0014 4E1E     		subs	r6, r1, #1
 3595              	.LVL357:
 728:../Bsp/OLED/GUISlim.c ****     CharSize = _GetCharSize(s);
 3596              		.loc 1 728 10 view .LVU1038
 3597 0016 0029     		cmp	r1, #0
 3598 0018 F6D1     		bne	.L282
 733:../Bsp/OLED/GUISlim.c **** }
 3599              		.loc 1 733 3 is_stmt 1 view .LVU1039
 734:../Bsp/OLED/GUISlim.c **** int GUI_UC__NumBytes2NumChars(const char GUI_UNI_PTR * s, int NumBytes) {
 3600              		.loc 1 734 1 is_stmt 0 view .LVU1040
 3601 001a 2846     		mov	r0, r5
 3602 001c 70BD     		pop	{r4, r5, r6, pc}
 734:../Bsp/OLED/GUISlim.c **** int GUI_UC__NumBytes2NumChars(const char GUI_UNI_PTR * s, int NumBytes) {
 3603              		.loc 1 734 1 view .LVU1041
 3604              		.cfi_endproc
 3605              	.LFE285:
 3607              		.section	.text.GUI_UC__NumBytes2NumChars,"ax",%progbits
 3608              		.align	1
 3609              		.global	GUI_UC__NumBytes2NumChars
 3610              		.syntax unified
 3611              		.thumb
 3612              		.thumb_func
 3614              	GUI_UC__NumBytes2NumChars:
 3615              	.LVL358:
 3616              	.LFB286:
 735:../Bsp/OLED/GUISlim.c ****   int CharSize, Chars = 0, Bytes = 0;
 3617              		.loc 1 735 73 is_stmt 1 view -0
 3618              		.cfi_startproc
 3619              		@ args = 0, pretend = 0, frame = 0
 3620              		@ frame_needed = 0, uses_anonymous_args = 0
 735:../Bsp/OLED/GUISlim.c ****   int CharSize, Chars = 0, Bytes = 0;
ARM GAS  C:\Users\fish\AppData\Local\Temp\cc4JAs8f.s 			page 92


 3621              		.loc 1 735 73 is_stmt 0 view .LVU1043
 3622 0000 F8B5     		push	{r3, r4, r5, r6, r7, lr}
 3623              		.cfi_def_cfa_offset 24
 3624              		.cfi_offset 3, -24
 3625              		.cfi_offset 4, -20
 3626              		.cfi_offset 5, -16
 3627              		.cfi_offset 6, -12
 3628              		.cfi_offset 7, -8
 3629              		.cfi_offset 14, -4
 3630 0002 0746     		mov	r7, r0
 3631 0004 0E46     		mov	r6, r1
 736:../Bsp/OLED/GUISlim.c ****   while (NumBytes > Bytes) {
 3632              		.loc 1 736 3 is_stmt 1 view .LVU1044
 3633              	.LVL359:
 737:../Bsp/OLED/GUISlim.c ****     CharSize = _GetCharSize(s + Bytes);
 3634              		.loc 1 737 3 view .LVU1045
 736:../Bsp/OLED/GUISlim.c ****   while (NumBytes > Bytes) {
 3635              		.loc 1 736 28 is_stmt 0 view .LVU1046
 3636 0006 0024     		movs	r4, #0
 736:../Bsp/OLED/GUISlim.c ****   while (NumBytes > Bytes) {
 3637              		.loc 1 736 17 view .LVU1047
 3638 0008 2546     		mov	r5, r4
 737:../Bsp/OLED/GUISlim.c ****     CharSize = _GetCharSize(s + Bytes);
 3639              		.loc 1 737 9 view .LVU1048
 3640 000a 04E0     		b	.L285
 3641              	.LVL360:
 3642              	.L286:
 738:../Bsp/OLED/GUISlim.c ****     Bytes += CharSize;
