ARM GAS  C:\Users\fish\AppData\Local\Temp\cc4JAs8f.s 			page 1


   1              		.cpu cortex-m4
   2              		.arch armv7e-m
   3              		.fpu fpv4-sp-d16
   4              		.eabi_attribute 27, 1
   5              		.eabi_attribute 28, 1
   6              		.eabi_attribute 20, 1
   7              		.eabi_attribute 21, 1
   8              		.eabi_attribute 23, 3
   9              		.eabi_attribute 24, 1
  10              		.eabi_attribute 25, 1
  11              		.eabi_attribute 26, 1
  12              		.eabi_attribute 30, 1
  13              		.eabi_attribute 34, 1
  14              		.eabi_attribute 18, 4
  15              		.file	"GUISlim.c"
  16              		.text
  17              	.Ltext0:
  18              		.cfi_sections	.debug_frame
  19              		.file 1 "../Bsp/OLED/GUISlim.c"
  20              		.section	.text.is_valid_utf8_sequence,"ax",%progbits
  21              		.align	1
  22              		.syntax unified
  23              		.thumb
  24              		.thumb_func
  26              	is_valid_utf8_sequence:
  27              	.LVL0:
  28              	.LFB247:
   1:../Bsp/OLED/GUISlim.c **** 
   2:../Bsp/OLED/GUISlim.c **** #include <stddef.h>           /* needed for definition of NULL */
   3:../Bsp/OLED/GUISlim.c **** #include "GUI.h"
   4:../Bsp/OLED/GUISlim.c **** #include "ssd1306.h"
   5:../Bsp/OLED/GUISlim.c **** 
   6:../Bsp/OLED/GUISlim.c **** GUI_CONTEXT GUI_Context;
   7:../Bsp/OLED/GUISlim.c **** char GUI_DecChar;
   8:../Bsp/OLED/GUISlim.c **** 
   9:../Bsp/OLED/GUISlim.c **** char* utf8_string_to_gbk_with_table(const char* utf8_str);
  10:../Bsp/OLED/GUISlim.c **** char* mixed_string_to_gbk(const char* str);
  11:../Bsp/OLED/GUISlim.c **** 
  12:../Bsp/OLED/GUISlim.c **** int LCD_GetXSize(void)        { return SSD1306_WIDTH; }
  13:../Bsp/OLED/GUISlim.c **** int LCD_GetYSize(void)        { return SSD1306_HEIGHT; }
  14:../Bsp/OLED/GUISlim.c **** int GUI_GetXSize(void)        { return LCD_GetXSize(); }
  15:../Bsp/OLED/GUISlim.c **** int GUI_GetYSize(void)        { return LCD_GetYSize(); }
  16:../Bsp/OLED/GUISlim.c **** void LCD_GetRect(LCD_RECT *pRect) {
  17:../Bsp/OLED/GUISlim.c ****   pRect->x0 = 0;
  18:../Bsp/OLED/GUISlim.c ****   pRect->y0 = 0;
  19:../Bsp/OLED/GUISlim.c ****   pRect->x1 = LCD_GetXSize() - 1;
  20:../Bsp/OLED/GUISlim.c ****   pRect->y1 = LCD_GetYSize() - 1;
  21:../Bsp/OLED/GUISlim.c **** }
  22:../Bsp/OLED/GUISlim.c **** 
  23:../Bsp/OLED/GUISlim.c **** int GUI_Init(void) {
  24:../Bsp/OLED/GUISlim.c ****   GUI_DecChar = '.';
  25:../Bsp/OLED/GUISlim.c **** 	GUI_Context.ClipRect.x0 = 0;
  26:../Bsp/OLED/GUISlim.c **** 	GUI_Context.ClipRect.y0 = 0;
  27:../Bsp/OLED/GUISlim.c **** 	GUI_Context.ClipRect.x1 = LCD_GetXSize() - 1;
  28:../Bsp/OLED/GUISlim.c **** 	GUI_Context.ClipRect.y1 = LCD_GetYSize() - 1;
  29:../Bsp/OLED/GUISlim.c **** 	GUI_Context.DispPosX = 0;
  30:../Bsp/OLED/GUISlim.c **** 	GUI_Context.DispPosY = 0;
ARM GAS  C:\Users\fish\AppData\Local\Temp\cc4JAs8f.s 			page 2


  31:../Bsp/OLED/GUISlim.c **** 	GUI_Context.pAFont = GUI_DEFAULT_FONT;
  32:../Bsp/OLED/GUISlim.c **** 	GUI_Context.PenSize = 1;
  33:../Bsp/OLED/GUISlim.c **** 	GUI_Context.DrawColor = GUI_COLOR_WHITE;
  34:../Bsp/OLED/GUISlim.c **** 	
  35:../Bsp/OLED/GUISlim.c **** 	SSD1306_init(); //初始化OLED
  36:../Bsp/OLED/GUISlim.c **** 	
  37:../Bsp/OLED/GUISlim.c **** 	return 0;
  38:../Bsp/OLED/GUISlim.c **** }
  39:../Bsp/OLED/GUISlim.c **** 
  40:../Bsp/OLED/GUISlim.c **** const GUI_FONT GUI_UNI_PTR* GUI_SetFont(const GUI_FONT GUI_UNI_PTR * pNewFont) {
  41:../Bsp/OLED/GUISlim.c ****   const GUI_FONT GUI_UNI_PTR* pOldFont = GUI_Context.pAFont;
  42:../Bsp/OLED/GUISlim.c ****   GUI_LOCK();
  43:../Bsp/OLED/GUISlim.c ****   if (pNewFont)
  44:../Bsp/OLED/GUISlim.c ****     GUI_Context.pAFont = pNewFont;
  45:../Bsp/OLED/GUISlim.c ****   GUI_UNLOCK();
  46:../Bsp/OLED/GUISlim.c ****   return pOldFont;
  47:../Bsp/OLED/GUISlim.c **** }
  48:../Bsp/OLED/GUISlim.c **** const GUI_FONT GUI_UNI_PTR* GUI_GetFont(void) {
  49:../Bsp/OLED/GUISlim.c ****   const GUI_FONT GUI_UNI_PTR * r;
  50:../Bsp/OLED/GUISlim.c ****   GUI_LOCK();
  51:../Bsp/OLED/GUISlim.c ****   r = GUI_Context.pAFont;
  52:../Bsp/OLED/GUISlim.c ****   GUI_UNLOCK();
  53:../Bsp/OLED/GUISlim.c ****   return r;
  54:../Bsp/OLED/GUISlim.c **** }
  55:../Bsp/OLED/GUISlim.c **** 
  56:../Bsp/OLED/GUISlim.c **** 
  57:../Bsp/OLED/GUISlim.c **** typedef struct {
  58:../Bsp/OLED/GUISlim.c ****     int utf8_only;       int gbk_only;        int both_valid;       int utf8_invalid;     int gbk_i
  59:../Bsp/OLED/GUISlim.c **** 
  60:../Bsp/OLED/GUISlim.c **** static int is_valid_utf8_sequence(const unsigned char* s, size_t len, size_t* consumed) {
  29              		.loc 1 60 89 view -0
  30              		.cfi_startproc
  31              		@ args = 0, pretend = 0, frame = 0
  32              		@ frame_needed = 0, uses_anonymous_args = 0
  61:../Bsp/OLED/GUISlim.c ****     *consumed = 1;
  33              		.loc 1 61 5 view .LVU1
  34              		.loc 1 61 15 is_stmt 0 view .LVU2
  35 0000 0123     		movs	r3, #1
  36 0002 1360     		str	r3, [r2]
  62:../Bsp/OLED/GUISlim.c ****         if (s[0] <= 0x7F) {
  37              		.loc 1 62 9 is_stmt 1 view .LVU3
  38              		.loc 1 62 14 is_stmt 0 view .LVU4
  39 0004 0378     		ldrb	r3, [r0]	@ zero_extendqisi2
  40              		.loc 1 62 18 view .LVU5
  41 0006 90F900C0 		ldrsb	ip, [r0]
  42              		.loc 1 62 12 view .LVU6
  43 000a BCF1000F 		cmp	ip, #0
  44 000e 75DA     		bge	.L5
  63:../Bsp/OLED/GUISlim.c ****         return -1;     }
  64:../Bsp/OLED/GUISlim.c ****         if ((s[0] & 0x80) == 0x00) {
  45              		.loc 1 64 9 is_stmt 1 view .LVU7
  65:../Bsp/OLED/GUISlim.c ****         return -1;     }
  66:../Bsp/OLED/GUISlim.c ****         if ((s[0] & 0xE0) == 0xC0) {
  46              		.loc 1 66 9 view .LVU8
  47              		.loc 1 66 12 is_stmt 0 view .LVU9
  48 0010 03F0E00C 		and	ip, r3, #224
  49 0014 BCF1C00F 		cmp	ip, #192
ARM GAS  C:\Users\fish\AppData\Local\Temp\cc4JAs8f.s 			page 3


  50 0018 0BD0     		beq	.L26
  67:../Bsp/OLED/GUISlim.c ****         if (len < 2) return 0;
  68:../Bsp/OLED/GUISlim.c ****         if ((s[1] & 0xC0) != 0x80) return 0;
  69:../Bsp/OLED/GUISlim.c ****                 unsigned int code_point = ((s[0] & 0x1F) << 6) | (s[1] & 0x3F);
  70:../Bsp/OLED/GUISlim.c ****         if (code_point < 0x80) return 0;          if (code_point > 0x7FF) return 0;                
  71:../Bsp/OLED/GUISlim.c ****         return 1;
  72:../Bsp/OLED/GUISlim.c ****     }
  73:../Bsp/OLED/GUISlim.c ****         if ((s[0] & 0xF0) == 0xE0) {
  51              		.loc 1 73 9 is_stmt 1 view .LVU10
  52              		.loc 1 73 12 is_stmt 0 view .LVU11
  53 001a 03F0F00C 		and	ip, r3, #240
  54 001e BCF1E00F 		cmp	ip, #224
  55 0022 19D0     		beq	.L27
  74:../Bsp/OLED/GUISlim.c ****         if (len < 3) return 0;
  75:../Bsp/OLED/GUISlim.c ****         if ((s[1] & 0xC0) != 0x80) return 0;
  76:../Bsp/OLED/GUISlim.c ****         if ((s[2] & 0xC0) != 0x80) return 0;
  77:../Bsp/OLED/GUISlim.c ****                 unsigned int code_point = ((s[0] & 0x0F) << 12) | 
  78:../Bsp/OLED/GUISlim.c ****                                  ((s[1] & 0x3F) << 6) | 
  79:../Bsp/OLED/GUISlim.c ****                                  (s[2] & 0x3F);
  80:../Bsp/OLED/GUISlim.c ****                 if (code_point < 0x800) return 0;          if (code_point >= 0xD800 && code_point <
  81:../Bsp/OLED/GUISlim.c ****         return 1;
  82:../Bsp/OLED/GUISlim.c ****     }
  83:../Bsp/OLED/GUISlim.c ****         if ((s[0] & 0xF8) == 0xF0) {
  56              		.loc 1 83 9 is_stmt 1 view .LVU12
  57              		.loc 1 83 12 is_stmt 0 view .LVU13
  58 0024 03F0F80C 		and	ip, r3, #248
  59 0028 BCF1F00F 		cmp	ip, #240
  60 002c 37D0     		beq	.L28
  84:../Bsp/OLED/GUISlim.c ****         if (len < 4) return 0;
  85:../Bsp/OLED/GUISlim.c ****         if ((s[1] & 0xC0) != 0x80) return 0;
  86:../Bsp/OLED/GUISlim.c ****         if ((s[2] & 0xC0) != 0x80) return 0;
  87:../Bsp/OLED/GUISlim.c ****         if ((s[3] & 0xC0) != 0x80) return 0;
  88:../Bsp/OLED/GUISlim.c ****                 unsigned int code_point = ((s[0] & 0x07) << 18) | 
  89:../Bsp/OLED/GUISlim.c ****                                  ((s[1] & 0x3F) << 12) | 
  90:../Bsp/OLED/GUISlim.c ****                                  ((s[2] & 0x3F) << 6) | 
  91:../Bsp/OLED/GUISlim.c ****                                  (s[3] & 0x3F);
  92:../Bsp/OLED/GUISlim.c ****                 if (code_point < 0x10000) return 0;          if (code_point > 0x10FFFF) return 0;  
  93:../Bsp/OLED/GUISlim.c ****         return 1;
  94:../Bsp/OLED/GUISlim.c ****     }
  95:../Bsp/OLED/GUISlim.c ****         return 0;
  61              		.loc 1 95 16 view .LVU14
  62 002e 0020     		movs	r0, #0
  63              	.LVL1:
  64              		.loc 1 95 16 view .LVU15
  65 0030 7047     		bx	lr
  66              	.LVL2:
  67              	.L26:
  68              	.LBB2:
  67:../Bsp/OLED/GUISlim.c ****         if ((s[1] & 0xC0) != 0x80) return 0;
  69              		.loc 1 67 9 is_stmt 1 view .LVU16
  67:../Bsp/OLED/GUISlim.c ****         if ((s[1] & 0xC0) != 0x80) return 0;
  70              		.loc 1 67 12 is_stmt 0 view .LVU17
  71 0032 0129     		cmp	r1, #1
  72 0034 65D9     		bls	.L6
  68:../Bsp/OLED/GUISlim.c ****                 unsigned int code_point = ((s[0] & 0x1F) << 6) | (s[1] & 0x3F);
  73              		.loc 1 68 9 is_stmt 1 view .LVU18
  68:../Bsp/OLED/GUISlim.c ****                 unsigned int code_point = ((s[0] & 0x1F) << 6) | (s[1] & 0x3F);
ARM GAS  C:\Users\fish\AppData\Local\Temp\cc4JAs8f.s 			page 4


  74              		.loc 1 68 15 is_stmt 0 view .LVU19
  75 0036 4178     		ldrb	r1, [r0, #1]	@ zero_extendqisi2
  76              	.LVL3:
  68:../Bsp/OLED/GUISlim.c ****                 unsigned int code_point = ((s[0] & 0x1F) << 6) | (s[1] & 0x3F);
  77              		.loc 1 68 12 view .LVU20
  78 0038 01F0C000 		and	r0, r1, #192
  79              	.LVL4:
  68:../Bsp/OLED/GUISlim.c ****                 unsigned int code_point = ((s[0] & 0x1F) << 6) | (s[1] & 0x3F);
  80              		.loc 1 68 12 view .LVU21
  81 003c 8028     		cmp	r0, #128
  82 003e 62D1     		bne	.L7
  69:../Bsp/OLED/GUISlim.c ****         if (code_point < 0x80) return 0;          if (code_point > 0x7FF) return 0;                
  83              		.loc 1 69 17 is_stmt 1 view .LVU22
  69:../Bsp/OLED/GUISlim.c ****         if (code_point < 0x80) return 0;          if (code_point > 0x7FF) return 0;                
  84              		.loc 1 69 58 is_stmt 0 view .LVU23
  85 0040 9B01     		lsls	r3, r3, #6
  86 0042 03F4F863 		and	r3, r3, #1984
  69:../Bsp/OLED/GUISlim.c ****         if (code_point < 0x80) return 0;          if (code_point > 0x7FF) return 0;                
  87              		.loc 1 69 72 view .LVU24
  88 0046 01F03F01 		and	r1, r1, #63
  69:../Bsp/OLED/GUISlim.c ****         if (code_point < 0x80) return 0;          if (code_point > 0x7FF) return 0;                
  89              		.loc 1 69 64 view .LVU25
  90 004a 0B43     		orrs	r3, r3, r1
  91              	.LVL5:
  70:../Bsp/OLED/GUISlim.c ****         return 1;
  92              		.loc 1 70 9 is_stmt 1 view .LVU26
  70:../Bsp/OLED/GUISlim.c ****         return 1;
  93              		.loc 1 70 12 is_stmt 0 view .LVU27
  94 004c 7F2B     		cmp	r3, #127
  95 004e 5CD9     		bls	.L8
  70:../Bsp/OLED/GUISlim.c ****         return 1;
  96              		.loc 1 70 51 is_stmt 1 discriminator 2 view .LVU28
  70:../Bsp/OLED/GUISlim.c ****         return 1;
  97              		.loc 1 70 102 discriminator 4 view .LVU29
  70:../Bsp/OLED/GUISlim.c ****         return 1;
  98              		.loc 1 70 112 is_stmt 0 discriminator 4 view .LVU30
  99 0050 0223     		movs	r3, #2
 100              	.LVL6:
  70:../Bsp/OLED/GUISlim.c ****         return 1;
 101              		.loc 1 70 112 discriminator 4 view .LVU31
 102 0052 1360     		str	r3, [r2]
 103              	.LVL7:
  71:../Bsp/OLED/GUISlim.c ****     }
 104              		.loc 1 71 9 is_stmt 1 view .LVU32
  71:../Bsp/OLED/GUISlim.c ****     }
 105              		.loc 1 71 16 is_stmt 0 view .LVU33
 106 0054 0120     		movs	r0, #1
 107 0056 7047     		bx	lr
 108              	.LVL8:
 109              	.L27:
  71:../Bsp/OLED/GUISlim.c ****     }
 110              		.loc 1 71 16 view .LVU34
 111              	.LBE2:
 112              	.LBB3:
  74:../Bsp/OLED/GUISlim.c ****         if ((s[1] & 0xC0) != 0x80) return 0;
 113              		.loc 1 74 9 is_stmt 1 view .LVU35
  74:../Bsp/OLED/GUISlim.c ****         if ((s[1] & 0xC0) != 0x80) return 0;
ARM GAS  C:\Users\fish\AppData\Local\Temp\cc4JAs8f.s 			page 5


 114              		.loc 1 74 12 is_stmt 0 view .LVU36
 115 0058 0229     		cmp	r1, #2
 116 005a 58D9     		bls	.L9
  75:../Bsp/OLED/GUISlim.c ****         if ((s[2] & 0xC0) != 0x80) return 0;
 117              		.loc 1 75 9 is_stmt 1 view .LVU37
  75:../Bsp/OLED/GUISlim.c ****         if ((s[2] & 0xC0) != 0x80) return 0;
 118              		.loc 1 75 15 is_stmt 0 view .LVU38
 119 005c 4178     		ldrb	r1, [r0, #1]	@ zero_extendqisi2
 120              	.LVL9:
  75:../Bsp/OLED/GUISlim.c ****         if ((s[2] & 0xC0) != 0x80) return 0;
 121              		.loc 1 75 12 view .LVU39
 122 005e 01F0C00C 		and	ip, r1, #192
 123 0062 BCF1800F 		cmp	ip, #128
 124 0066 54D1     		bne	.L10
  76:../Bsp/OLED/GUISlim.c ****                 unsigned int code_point = ((s[0] & 0x0F) << 12) | 
 125              		.loc 1 76 9 is_stmt 1 view .LVU40
  76:../Bsp/OLED/GUISlim.c ****                 unsigned int code_point = ((s[0] & 0x0F) << 12) | 
 126              		.loc 1 76 15 is_stmt 0 view .LVU41
 127 0068 8078     		ldrb	r0, [r0, #2]	@ zero_extendqisi2
 128              	.LVL10:
  76:../Bsp/OLED/GUISlim.c ****                 unsigned int code_point = ((s[0] & 0x0F) << 12) | 
 129              		.loc 1 76 12 view .LVU42
 130 006a 00F0C00C 		and	ip, r0, #192
 131 006e BCF1800F 		cmp	ip, #128
 132 0072 50D1     		bne	.L11
  77:../Bsp/OLED/GUISlim.c ****                                  ((s[1] & 0x3F) << 6) | 
 133              		.loc 1 77 17 is_stmt 1 view .LVU43
  77:../Bsp/OLED/GUISlim.c ****                                  ((s[1] & 0x3F) << 6) | 
 134              		.loc 1 77 58 is_stmt 0 view .LVU44
 135 0074 1B03     		lsls	r3, r3, #12
 136 0076 9BB2     		uxth	r3, r3
  78:../Bsp/OLED/GUISlim.c ****                                  (s[2] & 0x3F);
 137              		.loc 1 78 49 view .LVU45
 138 0078 8901     		lsls	r1, r1, #6
 139 007a 01F47C61 		and	r1, r1, #4032
  77:../Bsp/OLED/GUISlim.c ****                                  ((s[1] & 0x3F) << 6) | 
 140              		.loc 1 77 65 view .LVU46
 141 007e 0B43     		orrs	r3, r3, r1
  79:../Bsp/OLED/GUISlim.c ****                 if (code_point < 0x800) return 0;          if (code_point >= 0xD800 && code_point <
 142              		.loc 1 79 40 view .LVU47
 143 0080 00F03F00 		and	r0, r0, #63
  78:../Bsp/OLED/GUISlim.c ****                                  (s[2] & 0x3F);
 144              		.loc 1 78 55 view .LVU48
 145 0084 0343     		orrs	r3, r3, r0
 146              	.LVL11:
  80:../Bsp/OLED/GUISlim.c ****         return 1;
 147              		.loc 1 80 17 is_stmt 1 view .LVU49
  80:../Bsp/OLED/GUISlim.c ****         return 1;
 148              		.loc 1 80 20 is_stmt 0 view .LVU50
 149 0086 B3F5006F 		cmp	r3, #2048
 150 008a 46D3     		bcc	.L12
  80:../Bsp/OLED/GUISlim.c ****         return 1;
 151              		.loc 1 80 60 is_stmt 1 discriminator 2 view .LVU51
  80:../Bsp/OLED/GUISlim.c ****         return 1;
 152              		.loc 1 80 85 is_stmt 0 discriminator 2 view .LVU52
 153 008c A3F55843 		sub	r3, r3, #55296
 154              	.LVL12:
ARM GAS  C:\Users\fish\AppData\Local\Temp\cc4JAs8f.s 			page 6


  80:../Bsp/OLED/GUISlim.c ****         return 1;
 155              		.loc 1 80 63 discriminator 2 view .LVU53
 156 0090 B3F5006F 		cmp	r3, #2048
 157 0094 43D3     		bcc	.L13
  80:../Bsp/OLED/GUISlim.c ****         return 1;
 158              		.loc 1 80 181 is_stmt 1 discriminator 6 view .LVU54
  80:../Bsp/OLED/GUISlim.c ****         return 1;
 159              		.loc 1 80 191 is_stmt 0 discriminator 6 view .LVU55
 160 0096 0323     		movs	r3, #3
 161              	.LVL13:
  80:../Bsp/OLED/GUISlim.c ****         return 1;
 162              		.loc 1 80 191 discriminator 6 view .LVU56
 163 0098 1360     		str	r3, [r2]
 164              	.LVL14:
  81:../Bsp/OLED/GUISlim.c ****     }
 165              		.loc 1 81 9 is_stmt 1 view .LVU57
  81:../Bsp/OLED/GUISlim.c ****     }
 166              		.loc 1 81 16 is_stmt 0 view .LVU58
 167 009a 0120     		movs	r0, #1
 168 009c 7047     		bx	lr
 169              	.LVL15:
 170              	.L28:
  81:../Bsp/OLED/GUISlim.c ****     }
 171              		.loc 1 81 16 view .LVU59
 172              	.LBE3:
 173              	.LBB4:
  84:../Bsp/OLED/GUISlim.c ****         if ((s[1] & 0xC0) != 0x80) return 0;
 174              		.loc 1 84 9 is_stmt 1 view .LVU60
  84:../Bsp/OLED/GUISlim.c ****         if ((s[1] & 0xC0) != 0x80) return 0;
 175              		.loc 1 84 12 is_stmt 0 view .LVU61
 176 009e 0329     		cmp	r1, #3
 177 00a0 3FD9     		bls	.L16
  85:../Bsp/OLED/GUISlim.c ****         if ((s[2] & 0xC0) != 0x80) return 0;
 178              		.loc 1 85 9 is_stmt 1 view .LVU62
  85:../Bsp/OLED/GUISlim.c ****         if ((s[2] & 0xC0) != 0x80) return 0;
 179              		.loc 1 85 15 is_stmt 0 view .LVU63
 180 00a2 4178     		ldrb	r1, [r0, #1]	@ zero_extendqisi2
 181              	.LVL16:
  85:../Bsp/OLED/GUISlim.c ****         if ((s[2] & 0xC0) != 0x80) return 0;
 182              		.loc 1 85 12 view .LVU64
 183 00a4 01F0C00C 		and	ip, r1, #192
 184 00a8 BCF1800F 		cmp	ip, #128
 185 00ac 3BD1     		bne	.L17
 186              	.LBE4:
  60:../Bsp/OLED/GUISlim.c ****     *consumed = 1;
 187              		.loc 1 60 89 view .LVU65
 188 00ae 00B5     		push	{lr}
 189              		.cfi_def_cfa_offset 4
 190              		.cfi_offset 14, -4
 191              	.LBB5:
  86:../Bsp/OLED/GUISlim.c ****         if ((s[3] & 0xC0) != 0x80) return 0;
 192              		.loc 1 86 9 is_stmt 1 view .LVU66
  86:../Bsp/OLED/GUISlim.c ****         if ((s[3] & 0xC0) != 0x80) return 0;
 193              		.loc 1 86 15 is_stmt 0 view .LVU67
 194 00b0 90F802C0 		ldrb	ip, [r0, #2]	@ zero_extendqisi2
  86:../Bsp/OLED/GUISlim.c ****         if ((s[3] & 0xC0) != 0x80) return 0;
 195              		.loc 1 86 12 view .LVU68
ARM GAS  C:\Users\fish\AppData\Local\Temp\cc4JAs8f.s 			page 7


 196 00b4 0CF0C00E 		and	lr, ip, #192
 197 00b8 BEF1800F 		cmp	lr, #128
 198 00bc 35D1     		bne	.L18
  87:../Bsp/OLED/GUISlim.c ****                 unsigned int code_point = ((s[0] & 0x07) << 18) | 
 199              		.loc 1 87 9 is_stmt 1 view .LVU69
  87:../Bsp/OLED/GUISlim.c ****                 unsigned int code_point = ((s[0] & 0x07) << 18) | 
 200              		.loc 1 87 15 is_stmt 0 view .LVU70
 201 00be C078     		ldrb	r0, [r0, #3]	@ zero_extendqisi2
 202              	.LVL17:
  87:../Bsp/OLED/GUISlim.c ****                 unsigned int code_point = ((s[0] & 0x07) << 18) | 
 203              		.loc 1 87 12 view .LVU71
 204 00c0 00F0C00E 		and	lr, r0, #192
 205 00c4 BEF1800F 		cmp	lr, #128
 206 00c8 32D1     		bne	.L19
  88:../Bsp/OLED/GUISlim.c ****                                  ((s[1] & 0x3F) << 12) | 
 207              		.loc 1 88 17 is_stmt 1 view .LVU72
  88:../Bsp/OLED/GUISlim.c ****                                  ((s[1] & 0x3F) << 12) | 
 208              		.loc 1 88 58 is_stmt 0 view .LVU73
 209 00ca 9B04     		lsls	r3, r3, #18
 210 00cc 03F4E013 		and	r3, r3, #1835008
  89:../Bsp/OLED/GUISlim.c ****                                  ((s[2] & 0x3F) << 6) | 
 211              		.loc 1 89 49 view .LVU74
 212 00d0 0903     		lsls	r1, r1, #12
 213 00d2 01F47C31 		and	r1, r1, #258048
  88:../Bsp/OLED/GUISlim.c ****                                  ((s[1] & 0x3F) << 12) | 
 214              		.loc 1 88 65 view .LVU75
 215 00d6 0B43     		orrs	r3, r3, r1
  90:../Bsp/OLED/GUISlim.c ****                                  (s[3] & 0x3F);
 216              		.loc 1 90 49 view .LVU76
 217 00d8 4FEA8C11 		lsl	r1, ip, #6
 218 00dc 01F47C61 		and	r1, r1, #4032
  89:../Bsp/OLED/GUISlim.c ****                                  ((s[2] & 0x3F) << 6) | 
 219              		.loc 1 89 56 view .LVU77
 220 00e0 0B43     		orrs	r3, r3, r1
  91:../Bsp/OLED/GUISlim.c ****                 if (code_point < 0x10000) return 0;          if (code_point > 0x10FFFF) return 0;  
 221              		.loc 1 91 40 view .LVU78
 222 00e2 00F03F00 		and	r0, r0, #63
  90:../Bsp/OLED/GUISlim.c ****                                  (s[3] & 0x3F);
 223              		.loc 1 90 55 view .LVU79
 224 00e6 0343     		orrs	r3, r3, r0
 225              	.LVL18:
  92:../Bsp/OLED/GUISlim.c ****         return 1;
 226              		.loc 1 92 17 is_stmt 1 view .LVU80
  92:../Bsp/OLED/GUISlim.c ****         return 1;
 227              		.loc 1 92 20 is_stmt 0 view .LVU81
 228 00e8 B3F5803F 		cmp	r3, #65536
 229 00ec 22D3     		bcc	.L20
  92:../Bsp/OLED/GUISlim.c ****         return 1;
 230              		.loc 1 92 62 is_stmt 1 discriminator 2 view .LVU82
  92:../Bsp/OLED/GUISlim.c ****         return 1;
 231              		.loc 1 92 65 is_stmt 0 discriminator 2 view .LVU83
 232 00ee B3F5881F 		cmp	r3, #1114112
 233 00f2 21D2     		bcs	.L21
  92:../Bsp/OLED/GUISlim.c ****         return 1;
 234              		.loc 1 92 116 is_stmt 1 discriminator 4 view .LVU84
  92:../Bsp/OLED/GUISlim.c ****         return 1;
 235              		.loc 1 92 126 is_stmt 0 discriminator 4 view .LVU85
ARM GAS  C:\Users\fish\AppData\Local\Temp\cc4JAs8f.s 			page 8


 236 00f4 0423     		movs	r3, #4
 237              	.LVL19:
  92:../Bsp/OLED/GUISlim.c ****         return 1;
 238              		.loc 1 92 126 discriminator 4 view .LVU86
 239 00f6 1360     		str	r3, [r2]
 240              	.LVL20:
  93:../Bsp/OLED/GUISlim.c ****     }
 241              		.loc 1 93 9 is_stmt 1 view .LVU87
  93:../Bsp/OLED/GUISlim.c ****     }
 242              		.loc 1 93 16 is_stmt 0 view .LVU88
 243 00f8 0120     		movs	r0, #1
 244 00fa 17E0     		b	.L1
 245              	.LVL21:
 246              	.L5:
 247              		.cfi_def_cfa_offset 0
 248              		.cfi_restore 14
  93:../Bsp/OLED/GUISlim.c ****     }
 249              		.loc 1 93 16 view .LVU89
 250              	.LBE5:
  63:../Bsp/OLED/GUISlim.c ****         if ((s[0] & 0x80) == 0x00) {
 251              		.loc 1 63 16 view .LVU90
 252 00fc 4FF0FF30 		mov	r0, #-1
 253              	.LVL22:
  63:../Bsp/OLED/GUISlim.c ****         if ((s[0] & 0x80) == 0x00) {
 254              		.loc 1 63 16 view .LVU91
 255 0100 7047     		bx	lr
 256              	.LVL23:
 257              	.L6:
 258              	.LBB6:
  67:../Bsp/OLED/GUISlim.c ****         if ((s[1] & 0xC0) != 0x80) return 0;
 259              		.loc 1 67 29 discriminator 1 view .LVU92
 260 0102 0020     		movs	r0, #0
 261              	.LVL24:
  67:../Bsp/OLED/GUISlim.c ****         if ((s[1] & 0xC0) != 0x80) return 0;
 262              		.loc 1 67 29 discriminator 1 view .LVU93
 263 0104 7047     		bx	lr
 264              	.LVL25:
 265              	.L7:
  68:../Bsp/OLED/GUISlim.c ****                 unsigned int code_point = ((s[0] & 0x1F) << 6) | (s[1] & 0x3F);
 266              		.loc 1 68 43 discriminator 1 view .LVU94
 267 0106 0020     		movs	r0, #0
 268 0108 7047     		bx	lr
 269              	.LVL26:
 270              	.L8:
  70:../Bsp/OLED/GUISlim.c ****         return 1;
 271              		.loc 1 70 39 discriminator 1 view .LVU95
 272 010a 0020     		movs	r0, #0
 273 010c 7047     		bx	lr
 274              	.LVL27:
 275              	.L9:
  70:../Bsp/OLED/GUISlim.c ****         return 1;
 276              		.loc 1 70 39 discriminator 1 view .LVU96
 277              	.LBE6:
 278              	.LBB7:
  74:../Bsp/OLED/GUISlim.c ****         if ((s[1] & 0xC0) != 0x80) return 0;
 279              		.loc 1 74 29 discriminator 1 view .LVU97
 280 010e 0020     		movs	r0, #0
ARM GAS  C:\Users\fish\AppData\Local\Temp\cc4JAs8f.s 			page 9


 281              	.LVL28:
  74:../Bsp/OLED/GUISlim.c ****         if ((s[1] & 0xC0) != 0x80) return 0;
 282              		.loc 1 74 29 discriminator 1 view .LVU98
 283 0110 7047     		bx	lr
 284              	.LVL29:
 285              	.L10:
  75:../Bsp/OLED/GUISlim.c ****         if ((s[2] & 0xC0) != 0x80) return 0;
 286              		.loc 1 75 43 discriminator 1 view .LVU99
 287 0112 0020     		movs	r0, #0
 288              	.LVL30:
  75:../Bsp/OLED/GUISlim.c ****         if ((s[2] & 0xC0) != 0x80) return 0;
 289              		.loc 1 75 43 discriminator 1 view .LVU100
 290 0114 7047     		bx	lr
 291              	.L11:
  76:../Bsp/OLED/GUISlim.c ****                 unsigned int code_point = ((s[0] & 0x0F) << 12) | 
 292              		.loc 1 76 43 discriminator 1 view .LVU101
 293 0116 0020     		movs	r0, #0
 294 0118 7047     		bx	lr
 295              	.LVL31:
 296              	.L12:
  80:../Bsp/OLED/GUISlim.c ****         return 1;
 297              		.loc 1 80 48 discriminator 1 view .LVU102
 298 011a 0020     		movs	r0, #0
 299 011c 7047     		bx	lr
 300              	.LVL32:
 301              	.L13:
  80:../Bsp/OLED/GUISlim.c ****         return 1;
 302              		.loc 1 80 117 discriminator 3 view .LVU103
 303 011e 0020     		movs	r0, #0
 304 0120 7047     		bx	lr
 305              	.LVL33:
 306              	.L16:
  80:../Bsp/OLED/GUISlim.c ****         return 1;
 307              		.loc 1 80 117 discriminator 3 view .LVU104
 308              	.LBE7:
 309              	.LBB8:
  84:../Bsp/OLED/GUISlim.c ****         if ((s[1] & 0xC0) != 0x80) return 0;
 310              		.loc 1 84 29 discriminator 1 view .LVU105
 311 0122 0020     		movs	r0, #0
 312              	.LVL34:
  84:../Bsp/OLED/GUISlim.c ****         if ((s[1] & 0xC0) != 0x80) return 0;
 313              		.loc 1 84 29 discriminator 1 view .LVU106
 314 0124 7047     		bx	lr
 315              	.LVL35:
 316              	.L17:
  85:../Bsp/OLED/GUISlim.c ****         if ((s[2] & 0xC0) != 0x80) return 0;
 317              		.loc 1 85 43 discriminator 1 view .LVU107
 318 0126 0020     		movs	r0, #0
 319              	.LVL36:
  85:../Bsp/OLED/GUISlim.c ****         if ((s[2] & 0xC0) != 0x80) return 0;
 320              		.loc 1 85 43 discriminator 1 view .LVU108
 321              	.LBE8:
  96:../Bsp/OLED/GUISlim.c **** }
 322              		.loc 1 96 1 view .LVU109
 323 0128 7047     		bx	lr
 324              	.LVL37:
 325              	.L18:
ARM GAS  C:\Users\fish\AppData\Local\Temp\cc4JAs8f.s 			page 10


 326              		.cfi_def_cfa_offset 4
 327              		.cfi_offset 14, -4
 328              	.LBB9:
  86:../Bsp/OLED/GUISlim.c ****         if ((s[3] & 0xC0) != 0x80) return 0;
 329              		.loc 1 86 43 discriminator 1 view .LVU110
 330 012a 0020     		movs	r0, #0
 331              	.LVL38:
 332              	.L1:
  86:../Bsp/OLED/GUISlim.c ****         if ((s[3] & 0xC0) != 0x80) return 0;
 333              		.loc 1 86 43 discriminator 1 view .LVU111
 334              	.LBE9:
 335              		.loc 1 96 1 view .LVU112
 336 012c 5DF804FB 		ldr	pc, [sp], #4
 337              	.L19:
 338              	.LBB10:
  87:../Bsp/OLED/GUISlim.c ****                 unsigned int code_point = ((s[0] & 0x07) << 18) | 
 339              		.loc 1 87 43 discriminator 1 view .LVU113
 340 0130 0020     		movs	r0, #0
 341 0132 FBE7     		b	.L1
 342              	.LVL39:
 343              	.L20:
  92:../Bsp/OLED/GUISlim.c ****         return 1;
 344              		.loc 1 92 50 discriminator 1 view .LVU114
 345 0134 0020     		movs	r0, #0
 346 0136 F9E7     		b	.L1
 347              	.L21:
  92:../Bsp/OLED/GUISlim.c ****         return 1;
 348              		.loc 1 92 96 discriminator 3 view .LVU115
 349 0138 0020     		movs	r0, #0
 350 013a F7E7     		b	.L1
 351              	.LBE10:
 352              		.cfi_endproc
 353              	.LFE247:
 355              		.section	.text.is_valid_gbk_sequence,"ax",%progbits
 356              		.align	1
 357              		.syntax unified
 358              		.thumb
 359              		.thumb_func
 361              	is_valid_gbk_sequence:
 362              	.LVL40:
 363              	.LFB248:
  97:../Bsp/OLED/GUISlim.c **** 
  98:../Bsp/OLED/GUISlim.c **** static int is_valid_gbk_sequence(const unsigned char* s, size_t len, size_t* consumed) {
 364              		.loc 1 98 88 is_stmt 1 view -0
 365              		.cfi_startproc
 366              		@ args = 0, pretend = 0, frame = 0
 367              		@ frame_needed = 0, uses_anonymous_args = 0
 368              		@ link register save eliminated.
  99:../Bsp/OLED/GUISlim.c ****     *consumed = 1;
 369              		.loc 1 99 5 view .LVU117
 370              		.loc 1 99 15 is_stmt 0 view .LVU118
 371 0000 0123     		movs	r3, #1
 372 0002 1360     		str	r3, [r2]
 100:../Bsp/OLED/GUISlim.c ****         if (s[0] <= 0x80) {
 373              		.loc 1 100 9 is_stmt 1 view .LVU119
 374              		.loc 1 100 14 is_stmt 0 view .LVU120
 375 0004 0378     		ldrb	r3, [r0]	@ zero_extendqisi2
ARM GAS  C:\Users\fish\AppData\Local\Temp\cc4JAs8f.s 			page 11


 376              		.loc 1 100 12 view .LVU121
 377 0006 802B     		cmp	r3, #128
 378 0008 13D9     		bls	.L32
 101:../Bsp/OLED/GUISlim.c ****         return -1;     }
 102:../Bsp/OLED/GUISlim.c ****         if (s[0] >= 0x81 && s[0] <= 0xFE) {
 379              		.loc 1 102 9 is_stmt 1 view .LVU122
 380              		.loc 1 102 26 is_stmt 0 view .LVU123
 381 000a 7F33     		adds	r3, r3, #127
 382 000c DBB2     		uxtb	r3, r3
 383              		.loc 1 102 12 view .LVU124
 384 000e 7D2B     		cmp	r3, #125
 385 0010 12D8     		bhi	.L33
 386              	.LBB11:
 103:../Bsp/OLED/GUISlim.c ****         if (len < 2) return 0;                  unsigned char second = s[1];
 387              		.loc 1 103 9 is_stmt 1 view .LVU125
 388              		.loc 1 103 12 is_stmt 0 view .LVU126
 389 0012 0129     		cmp	r1, #1
 390 0014 12D9     		bls	.L34
 391              		.loc 1 103 49 is_stmt 1 discriminator 2 view .LVU127
 392              		.loc 1 103 63 is_stmt 0 discriminator 2 view .LVU128
 393 0016 4178     		ldrb	r1, [r0, #1]	@ zero_extendqisi2
 394              	.LVL41:
 104:../Bsp/OLED/GUISlim.c ****         if ((second >= 0x40 && second <= 0x7E) || 
 395              		.loc 1 104 9 is_stmt 1 view .LVU129
 396              		.loc 1 104 29 is_stmt 0 view .LVU130
 397 0018 A1F14003 		sub	r3, r1, #64
 398 001c DBB2     		uxtb	r3, r3
 399              		.loc 1 104 12 view .LVU131
 400 001e 3E2B     		cmp	r3, #62
 401 0020 03D9     		bls	.L31
 105:../Bsp/OLED/GUISlim.c ****             (second >= 0x80 && second <= 0xFE)) {
 402              		.loc 1 105 29 view .LVU132
 403 0022 81F08001 		eor	r1, r1, #128
 404              	.LVL42:
 104:../Bsp/OLED/GUISlim.c ****         if ((second >= 0x40 && second <= 0x7E) || 
 405              		.loc 1 104 48 discriminator 1 view .LVU133
 406 0026 7E29     		cmp	r1, #126
 407 0028 0AD8     		bhi	.L35
 408              	.LVL43:
 409              	.L31:
 106:../Bsp/OLED/GUISlim.c ****             *consumed = 2;
 410              		.loc 1 106 13 is_stmt 1 view .LVU134
 411              		.loc 1 106 23 is_stmt 0 view .LVU135
 412 002a 0223     		movs	r3, #2
 413 002c 1360     		str	r3, [r2]
 414              	.LVL44:
 107:../Bsp/OLED/GUISlim.c ****             return 1;
 415              		.loc 1 107 13 is_stmt 1 view .LVU136
 416              		.loc 1 107 20 is_stmt 0 view .LVU137
 417 002e 0120     		movs	r0, #1
 418              	.LVL45:
 419              		.loc 1 107 20 view .LVU138
 420 0030 7047     		bx	lr
 421              	.LVL46:
 422              	.L32:
 423              		.loc 1 107 20 view .LVU139
 424              	.LBE11:
ARM GAS  C:\Users\fish\AppData\Local\Temp\cc4JAs8f.s 			page 12


 101:../Bsp/OLED/GUISlim.c ****         if (s[0] >= 0x81 && s[0] <= 0xFE) {
 425              		.loc 1 101 16 view .LVU140
 426 0032 4FF0FF30 		mov	r0, #-1
 427              	.LVL47:
 101:../Bsp/OLED/GUISlim.c ****         if (s[0] >= 0x81 && s[0] <= 0xFE) {
 428              		.loc 1 101 16 view .LVU141
 429 0036 7047     		bx	lr
 430              	.LVL48:
 431              	.L33:
 108:../Bsp/OLED/GUISlim.c ****         }
 109:../Bsp/OLED/GUISlim.c ****         return 0;      }
 110:../Bsp/OLED/GUISlim.c ****         return 0;
 432              		.loc 1 110 16 view .LVU142
 433 0038 0020     		movs	r0, #0
 434              	.LVL49:
 435              		.loc 1 110 16 view .LVU143
 436 003a 7047     		bx	lr
 437              	.LVL50:
 438              	.L34:
 439              	.LBB12:
 103:../Bsp/OLED/GUISlim.c ****         if ((second >= 0x40 && second <= 0x7E) || 
 440              		.loc 1 103 29 discriminator 1 view .LVU144
 441 003c 0020     		movs	r0, #0
 442              	.LVL51:
 103:../Bsp/OLED/GUISlim.c ****         if ((second >= 0x40 && second <= 0x7E) || 
 443              		.loc 1 103 29 discriminator 1 view .LVU145
 444 003e 7047     		bx	lr
 445              	.LVL52:
 446              	.L35:
 109:../Bsp/OLED/GUISlim.c ****         return 0;
 447              		.loc 1 109 16 view .LVU146
 448 0040 0020     		movs	r0, #0
 449              	.LVL53:
 109:../Bsp/OLED/GUISlim.c ****         return 0;
 450              		.loc 1 109 16 view .LVU147
 451              	.LBE12:
 111:../Bsp/OLED/GUISlim.c **** }
 452              		.loc 1 111 1 view .LVU148
 453 0042 7047     		bx	lr
 454              		.cfi_endproc
 455              	.LFE248:
 457              		.section	.text.get_gbk_char_frequency_score,"ax",%progbits
 458              		.align	1
 459              		.syntax unified
 460              		.thumb
 461              		.thumb_func
 463              	get_gbk_char_frequency_score:
 464              	.LVL54:
 465              	.LFB249:
 112:../Bsp/OLED/GUISlim.c **** 
 113:../Bsp/OLED/GUISlim.c **** static int get_gbk_char_frequency_score(const unsigned char* s) {
 466              		.loc 1 113 65 is_stmt 1 view -0
 467              		.cfi_startproc
 468              		@ args = 0, pretend = 0, frame = 0
 469              		@ frame_needed = 0, uses_anonymous_args = 0
 470              		@ link register save eliminated.
 114:../Bsp/OLED/GUISlim.c ****     if (s[0] >= 0xB0 && s[0] <= 0xD7) {
ARM GAS  C:\Users\fish\AppData\Local\Temp\cc4JAs8f.s 			page 13


 471              		.loc 1 114 5 view .LVU150
 472              		.loc 1 114 10 is_stmt 0 view .LVU151
 473 0000 0378     		ldrb	r3, [r0]	@ zero_extendqisi2
 474              		.loc 1 114 22 view .LVU152
 475 0002 03F15002 		add	r2, r3, #80
 476 0006 D2B2     		uxtb	r2, r2
 477              		.loc 1 114 8 view .LVU153
 478 0008 272A     		cmp	r2, #39
 479 000a 04D8     		bhi	.L37
 115:../Bsp/OLED/GUISlim.c ****         if (s[1] >= 0xA1 && s[1] <= 0xFE) {
 480              		.loc 1 115 9 is_stmt 1 view .LVU154
 481              		.loc 1 115 14 is_stmt 0 view .LVU155
 482 000c 4278     		ldrb	r2, [r0, #1]	@ zero_extendqisi2
 483              		.loc 1 115 26 view .LVU156
 484 000e 5F32     		adds	r2, r2, #95
 485 0010 D2B2     		uxtb	r2, r2
 486              		.loc 1 115 12 view .LVU157
 487 0012 5D2A     		cmp	r2, #93
 488 0014 14D9     		bls	.L40
 489              	.L37:
 116:../Bsp/OLED/GUISlim.c ****             return 3;         }
 117:../Bsp/OLED/GUISlim.c ****     }
 118:../Bsp/OLED/GUISlim.c ****     if (s[0] >= 0xD8 && s[0] <= 0xF7) {
 490              		.loc 1 118 5 is_stmt 1 view .LVU158
 491              		.loc 1 118 22 is_stmt 0 view .LVU159
 492 0016 03F12802 		add	r2, r3, #40
 493 001a D2B2     		uxtb	r2, r2
 494              		.loc 1 118 8 view .LVU160
 495 001c 1F2A     		cmp	r2, #31
 496 001e 04D8     		bhi	.L39
 119:../Bsp/OLED/GUISlim.c ****         if (s[1] >= 0xA1 && s[1] <= 0xFE) {
 497              		.loc 1 119 9 is_stmt 1 view .LVU161
 498              		.loc 1 119 14 is_stmt 0 view .LVU162
 499 0020 4278     		ldrb	r2, [r0, #1]	@ zero_extendqisi2
 500              		.loc 1 119 26 view .LVU163
 501 0022 5F32     		adds	r2, r2, #95
 502 0024 D2B2     		uxtb	r2, r2
 503              		.loc 1 119 12 view .LVU164
 504 0026 5D2A     		cmp	r2, #93
 505 0028 0CD9     		bls	.L41
 506              	.L39:
 120:../Bsp/OLED/GUISlim.c ****             return 3;         }
 121:../Bsp/OLED/GUISlim.c ****     }
 122:../Bsp/OLED/GUISlim.c ****         if (s[0] >= 0x81 && s[0] <= 0xA0) {
 507              		.loc 1 122 9 is_stmt 1 view .LVU165
 508              		.loc 1 122 26 is_stmt 0 view .LVU166
 509 002a 03F17F02 		add	r2, r3, #127
 510 002e D2B2     		uxtb	r2, r2
 511              		.loc 1 122 12 view .LVU167
 512 0030 1F2A     		cmp	r2, #31
 513 0032 09D9     		bls	.L42
 123:../Bsp/OLED/GUISlim.c ****         return 1;     }
 124:../Bsp/OLED/GUISlim.c ****     if (s[0] >= 0xAA && s[0] <= 0xFE) {
 514              		.loc 1 124 5 is_stmt 1 view .LVU168
 515              		.loc 1 124 22 is_stmt 0 view .LVU169
 516 0034 5633     		adds	r3, r3, #86
 517 0036 DBB2     		uxtb	r3, r3
ARM GAS  C:\Users\fish\AppData\Local\Temp\cc4JAs8f.s 			page 14


 518              		.loc 1 124 8 view .LVU170
 519 0038 542B     		cmp	r3, #84
 520 003a 07D9     		bls	.L43
 125:../Bsp/OLED/GUISlim.c ****         return 1;     }
 126:../Bsp/OLED/GUISlim.c ****         return 2;
 521              		.loc 1 126 16 view .LVU171
 522 003c 0220     		movs	r0, #2
 523              	.LVL55:
 524              		.loc 1 126 16 view .LVU172
 525 003e 7047     		bx	lr
 526              	.LVL56:
 527              	.L40:
 116:../Bsp/OLED/GUISlim.c ****     }
 528              		.loc 1 116 20 view .LVU173
 529 0040 0320     		movs	r0, #3
 530              	.LVL57:
 116:../Bsp/OLED/GUISlim.c ****     }
 531              		.loc 1 116 20 view .LVU174
 532 0042 7047     		bx	lr
 533              	.LVL58:
 534              	.L41:
 120:../Bsp/OLED/GUISlim.c ****     }
 535              		.loc 1 120 20 view .LVU175
 536 0044 0320     		movs	r0, #3
 537              	.LVL59:
 120:../Bsp/OLED/GUISlim.c ****     }
 538              		.loc 1 120 20 view .LVU176
 539 0046 7047     		bx	lr
 540              	.LVL60:
 541              	.L42:
 123:../Bsp/OLED/GUISlim.c ****     if (s[0] >= 0xAA && s[0] <= 0xFE) {
 542              		.loc 1 123 16 view .LVU177
 543 0048 0120     		movs	r0, #1
 544              	.LVL61:
 123:../Bsp/OLED/GUISlim.c ****     if (s[0] >= 0xAA && s[0] <= 0xFE) {
 545              		.loc 1 123 16 view .LVU178
 546 004a 7047     		bx	lr
 547              	.LVL62:
 548              	.L43:
 125:../Bsp/OLED/GUISlim.c ****         return 2;
 549              		.loc 1 125 16 view .LVU179
 550 004c 0120     		movs	r0, #1
 551              	.LVL63:
 127:../Bsp/OLED/GUISlim.c **** }
 552              		.loc 1 127 1 view .LVU180
 553 004e 7047     		bx	lr
 554              		.cfi_endproc
 555              	.LFE249:
 557              		.section	.text.get_utf8_char_frequency_score,"ax",%progbits
 558              		.align	1
 559              		.syntax unified
 560              		.thumb
 561              		.thumb_func
 563              	get_utf8_char_frequency_score:
 564              	.LVL64:
 565              	.LFB250:
 128:../Bsp/OLED/GUISlim.c **** 
ARM GAS  C:\Users\fish\AppData\Local\Temp\cc4JAs8f.s 			page 15


 129:../Bsp/OLED/GUISlim.c **** static int get_utf8_char_frequency_score(const unsigned char* s, size_t len) {
 566              		.loc 1 129 78 is_stmt 1 view -0
 567              		.cfi_startproc
 568              		@ args = 0, pretend = 0, frame = 0
 569              		@ frame_needed = 0, uses_anonymous_args = 0
 570              		@ link register save eliminated.
 130:../Bsp/OLED/GUISlim.c ****     if (len == 3 && (s[0] & 0xF0) == 0xE0) {
 571              		.loc 1 130 5 view .LVU182
 572              		.loc 1 130 8 is_stmt 0 view .LVU183
 573 0000 0329     		cmp	r1, #3
 574 0002 01D0     		beq	.L51
 131:../Bsp/OLED/GUISlim.c ****         unsigned int code_point = ((s[0] & 0x0F) << 12) | 
 132:../Bsp/OLED/GUISlim.c ****                          ((s[1] & 0x3F) << 6) | 
 133:../Bsp/OLED/GUISlim.c ****                          (s[2] & 0x3F);
 134:../Bsp/OLED/GUISlim.c ****                 if (code_point >= 0x4E00 && code_point <= 0x9FFF) {
 135:../Bsp/OLED/GUISlim.c ****             return 3;         }
 136:../Bsp/OLED/GUISlim.c ****         if (code_point >= 0x3400 && code_point <= 0x4DBF) {
 137:../Bsp/OLED/GUISlim.c ****             return 2;         }
 138:../Bsp/OLED/GUISlim.c ****         if (code_point >= 0x3000 && code_point <= 0x303F) {
 139:../Bsp/OLED/GUISlim.c ****             return 2;         }
 140:../Bsp/OLED/GUISlim.c ****     }
 141:../Bsp/OLED/GUISlim.c ****     return 1;
 575              		.loc 1 141 12 view .LVU184
 576 0004 0120     		movs	r0, #1
 577              	.LVL65:
 578              		.loc 1 141 12 view .LVU185
 579 0006 7047     		bx	lr
 580              	.LVL66:
 581              	.L51:
 130:../Bsp/OLED/GUISlim.c ****     if (len == 3 && (s[0] & 0xF0) == 0xE0) {
 582              		.loc 1 130 23 discriminator 1 view .LVU186
 583 0008 0378     		ldrb	r3, [r0]	@ zero_extendqisi2
 130:../Bsp/OLED/GUISlim.c ****     if (len == 3 && (s[0] & 0xF0) == 0xE0) {
 584              		.loc 1 130 18 discriminator 1 view .LVU187
 585 000a 03F0F002 		and	r2, r3, #240
 586 000e E02A     		cmp	r2, #224
 587 0010 01D0     		beq	.L52
 588              		.loc 1 141 12 view .LVU188
 589 0012 0120     		movs	r0, #1
 590              	.LVL67:
 591              		.loc 1 141 12 view .LVU189
 592 0014 7047     		bx	lr
 593              	.LVL68:
 594              	.L52:
 595              	.LBB13:
 131:../Bsp/OLED/GUISlim.c ****         unsigned int code_point = ((s[0] & 0x0F) << 12) | 
 596              		.loc 1 131 9 is_stmt 1 view .LVU190
 131:../Bsp/OLED/GUISlim.c ****         unsigned int code_point = ((s[0] & 0x0F) << 12) | 
 597              		.loc 1 131 50 is_stmt 0 view .LVU191
 598 0016 1B03     		lsls	r3, r3, #12
 599 0018 9BB2     		uxth	r3, r3
 132:../Bsp/OLED/GUISlim.c ****                          (s[2] & 0x3F);
 600              		.loc 1 132 29 view .LVU192
 601 001a 4278     		ldrb	r2, [r0, #1]	@ zero_extendqisi2
 132:../Bsp/OLED/GUISlim.c ****                          (s[2] & 0x3F);
 602              		.loc 1 132 41 view .LVU193
 603 001c 9201     		lsls	r2, r2, #6
ARM GAS  C:\Users\fish\AppData\Local\Temp\cc4JAs8f.s 			page 16


 604 001e 02F47C62 		and	r2, r2, #4032
 131:../Bsp/OLED/GUISlim.c ****         unsigned int code_point = ((s[0] & 0x0F) << 12) | 
 605              		.loc 1 131 57 view .LVU194
 606 0022 1343     		orrs	r3, r3, r2
 133:../Bsp/OLED/GUISlim.c ****                 if (code_point >= 0x4E00 && code_point <= 0x9FFF) {
 607              		.loc 1 133 28 view .LVU195
 608 0024 8278     		ldrb	r2, [r0, #2]	@ zero_extendqisi2
 133:../Bsp/OLED/GUISlim.c ****                 if (code_point >= 0x4E00 && code_point <= 0x9FFF) {
 609              		.loc 1 133 32 view .LVU196
 610 0026 02F03F02 		and	r2, r2, #63
 132:../Bsp/OLED/GUISlim.c ****                          (s[2] & 0x3F);
 611              		.loc 1 132 47 view .LVU197
 612 002a 1343     		orrs	r3, r3, r2
 613              	.LVL69:
 134:../Bsp/OLED/GUISlim.c ****             return 3;         }
 614              		.loc 1 134 17 is_stmt 1 view .LVU198
 134:../Bsp/OLED/GUISlim.c ****             return 3;         }
 615              		.loc 1 134 42 is_stmt 0 view .LVU199
 616 002c A3F59C42 		sub	r2, r3, #19968
 134:../Bsp/OLED/GUISlim.c ****             return 3;         }
 617              		.loc 1 134 20 view .LVU200
 618 0030 B2F5A44F 		cmp	r2, #20992
 619 0034 0AD3     		bcc	.L48
 136:../Bsp/OLED/GUISlim.c ****             return 2;         }
 620              		.loc 1 136 9 is_stmt 1 view .LVU201
 136:../Bsp/OLED/GUISlim.c ****             return 2;         }
 621              		.loc 1 136 34 is_stmt 0 view .LVU202
 622 0036 A3F55052 		sub	r2, r3, #13312
 136:../Bsp/OLED/GUISlim.c ****             return 2;         }
 623              		.loc 1 136 12 view .LVU203
 624 003a B2F5CE5F 		cmp	r2, #6592
 625 003e 07D3     		bcc	.L49
 138:../Bsp/OLED/GUISlim.c ****             return 2;         }
 626              		.loc 1 138 9 is_stmt 1 view .LVU204
 138:../Bsp/OLED/GUISlim.c ****             return 2;         }
 627              		.loc 1 138 34 is_stmt 0 view .LVU205
 628 0040 A3F54053 		sub	r3, r3, #12288
 629              	.LVL70:
 138:../Bsp/OLED/GUISlim.c ****             return 2;         }
 630              		.loc 1 138 12 view .LVU206
 631 0044 3F2B     		cmp	r3, #63
 632 0046 05D9     		bls	.L50
 633              	.LBE13:
 634              		.loc 1 141 12 view .LVU207
 635 0048 0120     		movs	r0, #1
 636              	.LVL71:
 637              		.loc 1 141 12 view .LVU208
 638 004a 7047     		bx	lr
 639              	.LVL72:
 640              	.L48:
 641              	.LBB14:
 135:../Bsp/OLED/GUISlim.c ****         if (code_point >= 0x3400 && code_point <= 0x4DBF) {
 642              		.loc 1 135 20 view .LVU209
 643 004c 0320     		movs	r0, #3
 644              	.LVL73:
 135:../Bsp/OLED/GUISlim.c ****         if (code_point >= 0x3400 && code_point <= 0x4DBF) {
 645              		.loc 1 135 20 view .LVU210
ARM GAS  C:\Users\fish\AppData\Local\Temp\cc4JAs8f.s 			page 17


 646 004e 7047     		bx	lr
 647              	.LVL74:
 648              	.L49:
 137:../Bsp/OLED/GUISlim.c ****         if (code_point >= 0x3000 && code_point <= 0x303F) {
 649              		.loc 1 137 20 view .LVU211
 650 0050 0220     		movs	r0, #2
 651              	.LVL75:
 137:../Bsp/OLED/GUISlim.c ****         if (code_point >= 0x3000 && code_point <= 0x303F) {
 652              		.loc 1 137 20 view .LVU212
 653 0052 7047     		bx	lr
 654              	.LVL76:
 655              	.L50:
 139:../Bsp/OLED/GUISlim.c ****     }
 656              		.loc 1 139 20 view .LVU213
 657 0054 0220     		movs	r0, #2
 658              	.LVL77:
 139:../Bsp/OLED/GUISlim.c ****     }
 659              		.loc 1 139 20 view .LVU214
 660              	.LBE14:
 142:../Bsp/OLED/GUISlim.c **** }
 661              		.loc 1 142 1 view .LVU215
 662 0056 7047     		bx	lr
 663              		.cfi_endproc
 664              	.LFE250:
 666              		.section	.text.GUIPROP_FindChar,"ax",%progbits
 667              		.align	1
 668              		.syntax unified
 669              		.thumb
 670              		.thumb_func
 672              	GUIPROP_FindChar:
 673              	.LVL78:
 674              	.LFB253:
 143:../Bsp/OLED/GUISlim.c **** 
 144:../Bsp/OLED/GUISlim.c **** int detect_encoding_comprehensive(const char* str) {
 145:../Bsp/OLED/GUISlim.c ****     if (!str) return -1;
 146:../Bsp/OLED/GUISlim.c ****     
 147:../Bsp/OLED/GUISlim.c ****     const unsigned char* s = (const unsigned char*)str;
 148:../Bsp/OLED/GUISlim.c ****     size_t len = strlen((const char*)s);
 149:../Bsp/OLED/GUISlim.c ****     if (len == 0) return 0;
 150:../Bsp/OLED/GUISlim.c ****     
 151:../Bsp/OLED/GUISlim.c ****     EncodingStats stats = {0, 0, 0, 0, 0, 0};
 152:../Bsp/OLED/GUISlim.c ****     int utf8_score = 0;
 153:../Bsp/OLED/GUISlim.c ****     int gbk_score = 0;
 154:../Bsp/OLED/GUISlim.c ****     
 155:../Bsp/OLED/GUISlim.c ****     size_t i = 0;
 156:../Bsp/OLED/GUISlim.c ****     while (i < len) {
 157:../Bsp/OLED/GUISlim.c ****         if (s[i] <= 0x7F) {
 158:../Bsp/OLED/GUISlim.c ****             stats.ascii_count++;
 159:../Bsp/OLED/GUISlim.c ****             i++;
 160:../Bsp/OLED/GUISlim.c ****             continue;
 161:../Bsp/OLED/GUISlim.c ****         }
 162:../Bsp/OLED/GUISlim.c ****         
 163:../Bsp/OLED/GUISlim.c ****         size_t utf8_consumed = 1;
 164:../Bsp/OLED/GUISlim.c ****         size_t gbk_consumed = 1;
 165:../Bsp/OLED/GUISlim.c ****         int is_utf8 = is_valid_utf8_sequence(s + i, len - i, &utf8_consumed);
 166:../Bsp/OLED/GUISlim.c ****         int is_gbk = is_valid_gbk_sequence(s + i, len - i, &gbk_consumed);
 167:../Bsp/OLED/GUISlim.c ****         
ARM GAS  C:\Users\fish\AppData\Local\Temp\cc4JAs8f.s 			page 18


 168:../Bsp/OLED/GUISlim.c ****         if (is_utf8 == 1 && is_gbk == 1) {
 169:../Bsp/OLED/GUISlim.c ****                         stats.both_valid++;
 170:../Bsp/OLED/GUISlim.c ****                         int utf8_freq = get_utf8_char_frequency_score(s + i, utf8_consumed);
 171:../Bsp/OLED/GUISlim.c ****             int gbk_freq = get_gbk_char_frequency_score(s + i);
 172:../Bsp/OLED/GUISlim.c ****             utf8_score += utf8_freq;
 173:../Bsp/OLED/GUISlim.c ****             gbk_score += gbk_freq;
 174:../Bsp/OLED/GUISlim.c ****                         if (utf8_consumed == 3 && gbk_consumed == 2) {
 175:../Bsp/OLED/GUISlim.c ****                 utf8_score += 2;             }
 176:../Bsp/OLED/GUISlim.c ****             i += utf8_consumed;
 177:../Bsp/OLED/GUISlim.c ****         }
 178:../Bsp/OLED/GUISlim.c ****         else if (is_utf8 == 1 && is_gbk != 1) {
 179:../Bsp/OLED/GUISlim.c ****                         stats.utf8_only++;
 180:../Bsp/OLED/GUISlim.c ****             utf8_score += 4;             i += utf8_consumed;
 181:../Bsp/OLED/GUISlim.c ****         }
 182:../Bsp/OLED/GUISlim.c ****         else if (is_gbk == 1 && is_utf8 != 1) {
 183:../Bsp/OLED/GUISlim.c ****                         stats.gbk_only++;
 184:../Bsp/OLED/GUISlim.c ****             gbk_score += 4;             i += gbk_consumed;
 185:../Bsp/OLED/GUISlim.c ****         }
 186:../Bsp/OLED/GUISlim.c ****         else if (is_utf8 == 0 && is_gbk == 0) {
 187:../Bsp/OLED/GUISlim.c ****                         stats.utf8_invalid++;
 188:../Bsp/OLED/GUISlim.c ****             stats.gbk_invalid++;
 189:../Bsp/OLED/GUISlim.c ****             i++;
 190:../Bsp/OLED/GUISlim.c ****         }
 191:../Bsp/OLED/GUISlim.c ****         else if (is_utf8 == 0) {
 192:../Bsp/OLED/GUISlim.c ****             stats.utf8_invalid++;
 193:../Bsp/OLED/GUISlim.c ****             i++;
 194:../Bsp/OLED/GUISlim.c ****         }
 195:../Bsp/OLED/GUISlim.c ****         else if (is_gbk == 0) {
 196:../Bsp/OLED/GUISlim.c ****             stats.gbk_invalid++;
 197:../Bsp/OLED/GUISlim.c ****             i++;
 198:../Bsp/OLED/GUISlim.c ****         }
 199:../Bsp/OLED/GUISlim.c ****         else {
 200:../Bsp/OLED/GUISlim.c ****             i++;
 201:../Bsp/OLED/GUISlim.c ****         }
 202:../Bsp/OLED/GUISlim.c ****     }
 203:../Bsp/OLED/GUISlim.c ****     
 204:../Bsp/OLED/GUISlim.c ****     int non_ascii = stats.utf8_only + stats.gbk_only + stats.both_valid;
 205:../Bsp/OLED/GUISlim.c ****     if (non_ascii == 0) {
 206:../Bsp/OLED/GUISlim.c ****         return 0;     }
 207:../Bsp/OLED/GUISlim.c ****     
 208:../Bsp/OLED/GUISlim.c ****         if (stats.utf8_only > 0 && stats.gbk_invalid > stats.utf8_invalid) {
 209:../Bsp/OLED/GUISlim.c ****         return 1;     }
 210:../Bsp/OLED/GUISlim.c ****     if (stats.gbk_only > 0 && stats.utf8_invalid > stats.gbk_invalid) {
 211:../Bsp/OLED/GUISlim.c ****         return 2;     }
 212:../Bsp/OLED/GUISlim.c ****         if (stats.both_valid > 0 && stats.utf8_only == 0 && stats.gbk_only == 0) {
 213:../Bsp/OLED/GUISlim.c ****                 if (utf8_score > gbk_score) {
 214:../Bsp/OLED/GUISlim.c ****             return 1;
 215:../Bsp/OLED/GUISlim.c ****         } else if (gbk_score > utf8_score) {
 216:../Bsp/OLED/GUISlim.c ****             return 2;
 217:../Bsp/OLED/GUISlim.c ****         }
 218:../Bsp/OLED/GUISlim.c ****                 return 1;     }
 219:../Bsp/OLED/GUISlim.c ****         if (stats.utf8_only > 0 && stats.gbk_only > 0) {
 220:../Bsp/OLED/GUISlim.c ****                 int mixed_threshold = non_ascii / 5;
 221:../Bsp/OLED/GUISlim.c ****         if (stats.utf8_only > mixed_threshold && stats.gbk_only > mixed_threshold) {
 222:../Bsp/OLED/GUISlim.c ****             return 3;         }
 223:../Bsp/OLED/GUISlim.c ****                 if (stats.utf8_only > stats.gbk_only * 2) {
 224:../Bsp/OLED/GUISlim.c ****             return 1;
ARM GAS  C:\Users\fish\AppData\Local\Temp\cc4JAs8f.s 			page 19


 225:../Bsp/OLED/GUISlim.c ****         } else if (stats.gbk_only > stats.utf8_only * 2) {
 226:../Bsp/OLED/GUISlim.c ****             return 2;
 227:../Bsp/OLED/GUISlim.c ****         }
 228:../Bsp/OLED/GUISlim.c ****                 return (utf8_score > gbk_score) ? 1 : 2;
 229:../Bsp/OLED/GUISlim.c ****     }
 230:../Bsp/OLED/GUISlim.c ****         if (stats.utf8_only > 0) {
 231:../Bsp/OLED/GUISlim.c ****         return 1;
 232:../Bsp/OLED/GUISlim.c ****     }
 233:../Bsp/OLED/GUISlim.c ****     if (stats.gbk_only > 0) {
 234:../Bsp/OLED/GUISlim.c ****         return 2;
 235:../Bsp/OLED/GUISlim.c ****     }
 236:../Bsp/OLED/GUISlim.c ****         if (utf8_score > gbk_score) {
 237:../Bsp/OLED/GUISlim.c ****         return 1;
 238:../Bsp/OLED/GUISlim.c ****     } else if (gbk_score > utf8_score) {
 239:../Bsp/OLED/GUISlim.c ****         return 2;
 240:../Bsp/OLED/GUISlim.c ****     }
 241:../Bsp/OLED/GUISlim.c ****     
 242:../Bsp/OLED/GUISlim.c ****     return 1; }
 243:../Bsp/OLED/GUISlim.c **** 
 244:../Bsp/OLED/GUISlim.c **** int detect_encoding_by_sequence(const char* str) {
 245:../Bsp/OLED/GUISlim.c ****     return detect_encoding_comprehensive(str);
 246:../Bsp/OLED/GUISlim.c **** }
 247:../Bsp/OLED/GUISlim.c **** 
 248:../Bsp/OLED/GUISlim.c **** /*********************************************************************
 249:../Bsp/OLED/GUISlim.c **** *
 250:../Bsp/OLED/GUISlim.c **** *       Static code
 251:../Bsp/OLED/GUISlim.c **** *
 252:../Bsp/OLED/GUISlim.c **** **********************************************************************
 253:../Bsp/OLED/GUISlim.c **** */
 254:../Bsp/OLED/GUISlim.c **** /*********************************************************************
 255:../Bsp/OLED/GUISlim.c **** *
 256:../Bsp/OLED/GUISlim.c **** *       GUIPROP_FindChar
 257:../Bsp/OLED/GUISlim.c **** */
 258:../Bsp/OLED/GUISlim.c **** static const GUI_FONT_PROP GUI_UNI_PTR * GUIPROP_FindChar(const GUI_FONT_PROP GUI_UNI_PTR* pProp, U
 675              		.loc 1 258 107 is_stmt 1 view -0
 676              		.cfi_startproc
 677              		@ args = 0, pretend = 0, frame = 0
 678              		@ frame_needed = 0, uses_anonymous_args = 0
 679              		@ link register save eliminated.
 259:../Bsp/OLED/GUISlim.c ****   for (; pProp; pProp = pProp->pNext) {
 680              		.loc 1 259 3 view .LVU217
 681 0000 00E0     		b	.L54
 682              	.L55:
 683              		.loc 1 259 23 view .LVU218
 684 0002 8068     		ldr	r0, [r0, #8]
 685              	.LVL79:
 686              	.L54:
 687              		.loc 1 259 10 discriminator 1 view .LVU219
 688 0004 28B1     		cbz	r0, .L56
 260:../Bsp/OLED/GUISlim.c ****     if ((c>=pProp->First) && (c<=pProp->Last))
 689              		.loc 1 260 5 view .LVU220
 690              		.loc 1 260 18 is_stmt 0 view .LVU221
 691 0006 0388     		ldrh	r3, [r0]
 692              		.loc 1 260 8 view .LVU222
 693 0008 8B42     		cmp	r3, r1
 694 000a FAD8     		bhi	.L55
 695              		.loc 1 260 39 discriminator 1 view .LVU223
ARM GAS  C:\Users\fish\AppData\Local\Temp\cc4JAs8f.s 			page 20


 696 000c 4388     		ldrh	r3, [r0, #2]
 697              		.loc 1 260 27 discriminator 1 view .LVU224
 698 000e 8B42     		cmp	r3, r1
 699 0010 F7D3     		bcc	.L55
 700              	.L56:
 261:../Bsp/OLED/GUISlim.c ****       break;
 262:../Bsp/OLED/GUISlim.c ****   }
 263:../Bsp/OLED/GUISlim.c ****   return pProp;
 701              		.loc 1 263 3 is_stmt 1 view .LVU225
 264:../Bsp/OLED/GUISlim.c **** }
 702              		.loc 1 264 1 is_stmt 0 view .LVU226
 703 0012 7047     		bx	lr
 704              		.cfi_endproc
 705              	.LFE253:
 707              		.section	.text._GotoY,"ax",%progbits
 708              		.align	1
 709              		.syntax unified
 710              		.thumb
 711              		.thumb_func
 713              	_GotoY:
 714              	.LVL80:
 715              	.LFB266:
 265:../Bsp/OLED/GUISlim.c **** 
 266:../Bsp/OLED/GUISlim.c **** /*********************************************************************
 267:../Bsp/OLED/GUISlim.c **** *
 268:../Bsp/OLED/GUISlim.c **** *       Public code
 269:../Bsp/OLED/GUISlim.c **** *
 270:../Bsp/OLED/GUISlim.c **** **********************************************************************
 271:../Bsp/OLED/GUISlim.c **** */
 272:../Bsp/OLED/GUISlim.c **** /*********************************************************************
 273:../Bsp/OLED/GUISlim.c **** *
 274:../Bsp/OLED/GUISlim.c **** *       GUIPROP_DispChar
 275:../Bsp/OLED/GUISlim.c **** *
 276:../Bsp/OLED/GUISlim.c **** * Purpose:
 277:../Bsp/OLED/GUISlim.c **** *   This is the routine that displays a character. It is used by all
 278:../Bsp/OLED/GUISlim.c **** *   other routines which display characters as a subroutine.
 279:../Bsp/OLED/GUISlim.c **** */
 280:../Bsp/OLED/GUISlim.c **** void DrawBitLine1BPP(int x, int y, U8 const*p, int Diff, int xsize)
 281:../Bsp/OLED/GUISlim.c **** {
 282:../Bsp/OLED/GUISlim.c ****   U8 pixels;
 283:../Bsp/OLED/GUISlim.c **** 	
 284:../Bsp/OLED/GUISlim.c **** /*
 285:../Bsp/OLED/GUISlim.c **** // Jump to right entry point
 286:../Bsp/OLED/GUISlim.c **** */
 287:../Bsp/OLED/GUISlim.c ****   pixels = *p;
 288:../Bsp/OLED/GUISlim.c **** 
 289:../Bsp/OLED/GUISlim.c **** 	switch (Diff&7) {
 290:../Bsp/OLED/GUISlim.c **** 	case 0:
 291:../Bsp/OLED/GUISlim.c **** 		goto WriteBit0;
 292:../Bsp/OLED/GUISlim.c **** 	case 1:
 293:../Bsp/OLED/GUISlim.c **** 		goto WriteBit1;
 294:../Bsp/OLED/GUISlim.c **** 	case 2:
 295:../Bsp/OLED/GUISlim.c **** 		goto WriteBit2;
 296:../Bsp/OLED/GUISlim.c **** 	case 3:
 297:../Bsp/OLED/GUISlim.c **** 		goto WriteBit3;
 298:../Bsp/OLED/GUISlim.c **** 	case 4:
 299:../Bsp/OLED/GUISlim.c **** 		goto WriteBit4;
ARM GAS  C:\Users\fish\AppData\Local\Temp\cc4JAs8f.s 			page 21


 300:../Bsp/OLED/GUISlim.c **** 	case 5:
 301:../Bsp/OLED/GUISlim.c **** 		goto WriteBit5;
 302:../Bsp/OLED/GUISlim.c **** 	case 6:
 303:../Bsp/OLED/GUISlim.c **** 		goto WriteBit6;
 304:../Bsp/OLED/GUISlim.c **** 	case 7:
 305:../Bsp/OLED/GUISlim.c **** 		goto WriteBit7;
 306:../Bsp/OLED/GUISlim.c **** 	}
 307:../Bsp/OLED/GUISlim.c **** 
 308:../Bsp/OLED/GUISlim.c **** /*
 309:../Bsp/OLED/GUISlim.c ****         Write without transparency
 310:../Bsp/OLED/GUISlim.c **** */
 311:../Bsp/OLED/GUISlim.c **** 
 312:../Bsp/OLED/GUISlim.c ****   WriteBit0:
 313:../Bsp/OLED/GUISlim.c ****     SSD1306_DrawPixel(x+0, y, (pixels&(1<<7)) ? COLOR_F : COLOR_B);
 314:../Bsp/OLED/GUISlim.c ****     if (!--xsize)
 315:../Bsp/OLED/GUISlim.c ****       return;
 316:../Bsp/OLED/GUISlim.c ****   WriteBit1:
 317:../Bsp/OLED/GUISlim.c ****     SSD1306_DrawPixel(x+1, y, (pixels&(1<<6)) ? COLOR_F : COLOR_B);
 318:../Bsp/OLED/GUISlim.c ****     if (!--xsize)
 319:../Bsp/OLED/GUISlim.c ****       return;
 320:../Bsp/OLED/GUISlim.c ****   WriteBit2:
 321:../Bsp/OLED/GUISlim.c ****     SSD1306_DrawPixel(x+2, y, (pixels&(1<<5)) ? COLOR_F : COLOR_B);
 322:../Bsp/OLED/GUISlim.c ****     if (!--xsize)
 323:../Bsp/OLED/GUISlim.c ****       return;
 324:../Bsp/OLED/GUISlim.c ****   WriteBit3:
 325:../Bsp/OLED/GUISlim.c ****     SSD1306_DrawPixel(x+3, y, (pixels&(1<<4)) ? COLOR_F : COLOR_B);
 326:../Bsp/OLED/GUISlim.c ****     if (!--xsize)
 327:../Bsp/OLED/GUISlim.c ****       return;
 328:../Bsp/OLED/GUISlim.c ****   WriteBit4:
 329:../Bsp/OLED/GUISlim.c ****     SSD1306_DrawPixel(x+4, y, (pixels&(1<<3)) ? COLOR_F : COLOR_B);
 330:../Bsp/OLED/GUISlim.c ****     if (!--xsize)
 331:../Bsp/OLED/GUISlim.c ****       return;
 332:../Bsp/OLED/GUISlim.c ****   WriteBit5:
 333:../Bsp/OLED/GUISlim.c ****     SSD1306_DrawPixel(x+5, y, (pixels&(1<<2)) ? COLOR_F : COLOR_B);
 334:../Bsp/OLED/GUISlim.c ****     if (!--xsize)
 335:../Bsp/OLED/GUISlim.c ****       return;
 336:../Bsp/OLED/GUISlim.c ****   WriteBit6:
 337:../Bsp/OLED/GUISlim.c ****     SSD1306_DrawPixel(x+6, y, (pixels&(1<<1)) ? COLOR_F : COLOR_B);
 338:../Bsp/OLED/GUISlim.c ****     if (!--xsize)
 339:../Bsp/OLED/GUISlim.c ****       return;
 340:../Bsp/OLED/GUISlim.c ****   WriteBit7:
 341:../Bsp/OLED/GUISlim.c ****     SSD1306_DrawPixel(x+7, y, (pixels&(1<<0)) ? COLOR_F : COLOR_B);
 342:../Bsp/OLED/GUISlim.c ****     if (!--xsize)
 343:../Bsp/OLED/GUISlim.c ****       return;
 344:../Bsp/OLED/GUISlim.c ****     x+=8;
 345:../Bsp/OLED/GUISlim.c ****     pixels = *(++p);
 346:../Bsp/OLED/GUISlim.c ****     goto WriteBit0;
 347:../Bsp/OLED/GUISlim.c **** }
 348:../Bsp/OLED/GUISlim.c **** 
 349:../Bsp/OLED/GUISlim.c **** void LCD_L0_DrawBitmap1BPP(	int x0, int y0, int xsize, int ysize,
 350:../Bsp/OLED/GUISlim.c **** 														int BytesPerLine, const U8* pData, int Diff){
 351:../Bsp/OLED/GUISlim.c ****   int i;
 352:../Bsp/OLED/GUISlim.c **** 	for (i = 0; i < ysize; i++)
 353:../Bsp/OLED/GUISlim.c **** 	{
 354:../Bsp/OLED/GUISlim.c **** 		DrawBitLine1BPP(x0, i+y0, pData, Diff, xsize);
 355:../Bsp/OLED/GUISlim.c **** 		pData += BytesPerLine;
 356:../Bsp/OLED/GUISlim.c **** 	}
ARM GAS  C:\Users\fish\AppData\Local\Temp\cc4JAs8f.s 			page 22


 357:../Bsp/OLED/GUISlim.c **** }
 358:../Bsp/OLED/GUISlim.c **** 
 359:../Bsp/OLED/GUISlim.c **** void LCD_DrawBitmap1BPP(	int x0, int y0, int xsize, int ysize, 
 360:../Bsp/OLED/GUISlim.c **** 													int BytesPerLine, const U8 GUI_UNI_PTR * pPixel){
 361:../Bsp/OLED/GUISlim.c ****   int x1, y1;
 362:../Bsp/OLED/GUISlim.c ****   /* Handle the optional Y-magnification */
 363:../Bsp/OLED/GUISlim.c ****   y1 = y0 + ysize - 1;
 364:../Bsp/OLED/GUISlim.c ****   x1 = x0 + xsize - 1;
 365:../Bsp/OLED/GUISlim.c **** /*  Handle BITMAP without magnification */
 366:../Bsp/OLED/GUISlim.c **** 	int Diff;
 367:../Bsp/OLED/GUISlim.c **** 	/*  Clip y0 (top) */
 368:../Bsp/OLED/GUISlim.c **** 	Diff = GUI_Context.ClipRect.y0 - y0;
 369:../Bsp/OLED/GUISlim.c **** 	if (Diff > 0) {
 370:../Bsp/OLED/GUISlim.c **** 		ysize -= Diff;
 371:../Bsp/OLED/GUISlim.c **** 		if (ysize <= 0) {
 372:../Bsp/OLED/GUISlim.c **** 			return;
 373:../Bsp/OLED/GUISlim.c **** 		}
 374:../Bsp/OLED/GUISlim.c **** 		y0 = GUI_Context.ClipRect.y0;
 375:../Bsp/OLED/GUISlim.c **** 		pPixel += (unsigned)Diff * (unsigned)BytesPerLine;
 376:../Bsp/OLED/GUISlim.c **** 	}
 377:../Bsp/OLED/GUISlim.c **** 	/*  Clip y1 (bottom) */
 378:../Bsp/OLED/GUISlim.c **** 	Diff = y1 - GUI_Context.ClipRect.y1;
 379:../Bsp/OLED/GUISlim.c **** 	if (Diff > 0) {
 380:../Bsp/OLED/GUISlim.c **** 		ysize -= Diff;
 381:../Bsp/OLED/GUISlim.c **** 		if (ysize <= 0) {
 382:../Bsp/OLED/GUISlim.c **** 			return;
 383:../Bsp/OLED/GUISlim.c **** 		}
 384:../Bsp/OLED/GUISlim.c **** 	}
 385:../Bsp/OLED/GUISlim.c **** 	/*        Clip right side    */
 386:../Bsp/OLED/GUISlim.c **** 	Diff = x1 - GUI_Context.ClipRect.x1;
 387:../Bsp/OLED/GUISlim.c **** 	if (Diff > 0) {
 388:../Bsp/OLED/GUISlim.c **** 		xsize -= Diff;
 389:../Bsp/OLED/GUISlim.c **** 	}
 390:../Bsp/OLED/GUISlim.c **** 	/*        Clip left side ... (The difficult side ...)    */
 391:../Bsp/OLED/GUISlim.c **** 	Diff = 0;
 392:../Bsp/OLED/GUISlim.c **** 	if (x0 < GUI_Context.ClipRect.x0) {
 393:../Bsp/OLED/GUISlim.c **** 		Diff = GUI_Context.ClipRect.x0 - x0;
 394:../Bsp/OLED/GUISlim.c **** 		xsize -= Diff;
 395:../Bsp/OLED/GUISlim.c **** 		pPixel += (Diff>>3); 
 396:../Bsp/OLED/GUISlim.c **** 		x0 += (Diff>>3)<<3; 
 397:../Bsp/OLED/GUISlim.c **** 		Diff &=7;
 398:../Bsp/OLED/GUISlim.c **** 	}
 399:../Bsp/OLED/GUISlim.c **** 	if (xsize <=0) {
 400:../Bsp/OLED/GUISlim.c **** 		return;
 401:../Bsp/OLED/GUISlim.c **** 	}
 402:../Bsp/OLED/GUISlim.c **** 	LCD_L0_DrawBitmap1BPP(x0, y0, xsize, ysize, BytesPerLine, pPixel, Diff);
 403:../Bsp/OLED/GUISlim.c **** }
 404:../Bsp/OLED/GUISlim.c **** 
 405:../Bsp/OLED/GUISlim.c **** void GUIPROP_DispChar(U16P c) {
 406:../Bsp/OLED/GUISlim.c ****   int BytesPerLine;
 407:../Bsp/OLED/GUISlim.c ****   const GUI_FONT_PROP GUI_UNI_PTR * pProp = GUIPROP_FindChar(GUI_Context.pAFont->p.pProp, c);
 408:../Bsp/OLED/GUISlim.c ****   if (pProp) {
 409:../Bsp/OLED/GUISlim.c ****     const GUI_CHARINFO GUI_UNI_PTR * pCharInfo = pProp->paCharInfo+(c-pProp->First);
 410:../Bsp/OLED/GUISlim.c ****     BytesPerLine = pCharInfo->BytesPerLine;
 411:../Bsp/OLED/GUISlim.c ****     LCD_DrawBitmap1BPP( GUI_Context.DispPosX, GUI_Context.DispPosY,
 412:../Bsp/OLED/GUISlim.c **** 												pCharInfo->XSize, GUI_Context.pAFont->YSize,
 413:../Bsp/OLED/GUISlim.c **** 												BytesPerLine, pCharInfo->pData);
ARM GAS  C:\Users\fish\AppData\Local\Temp\cc4JAs8f.s 			page 23


 414:../Bsp/OLED/GUISlim.c ****     /* Fill empty pixel lines */
 415:../Bsp/OLED/GUISlim.c ****     if (GUI_Context.pAFont->YDist > GUI_Context.pAFont->YSize) {
 416:../Bsp/OLED/GUISlim.c ****       int YDist = GUI_Context.pAFont->YDist;
 417:../Bsp/OLED/GUISlim.c ****       int YSize = GUI_Context.pAFont->YSize;
 418:../Bsp/OLED/GUISlim.c ****         SSD1306_DrawFilledRectangle(GUI_Context.DispPosX, 
 419:../Bsp/OLED/GUISlim.c ****                      GUI_Context.DispPosY + YSize, 
 420:../Bsp/OLED/GUISlim.c ****                      GUI_Context.DispPosX + pCharInfo->XSize, 
 421:../Bsp/OLED/GUISlim.c ****                      GUI_Context.DispPosY + YDist, COLOR_B);
 422:../Bsp/OLED/GUISlim.c ****     }
 423:../Bsp/OLED/GUISlim.c ****     GUI_Context.DispPosX += pCharInfo->XDist * GUI_Context.pAFont->XMag;
 424:../Bsp/OLED/GUISlim.c ****   }
 425:../Bsp/OLED/GUISlim.c **** }
 426:../Bsp/OLED/GUISlim.c **** 
 427:../Bsp/OLED/GUISlim.c **** /*********************************************************************
 428:../Bsp/OLED/GUISlim.c **** *
 429:../Bsp/OLED/GUISlim.c **** *       GUIPROP_GetCharDistX
 430:../Bsp/OLED/GUISlim.c **** */
 431:../Bsp/OLED/GUISlim.c **** int GUIPROP_GetCharDistX(U16P c) {
 432:../Bsp/OLED/GUISlim.c ****   const GUI_FONT_PROP GUI_UNI_PTR * pProp = GUIPROP_FindChar(GUI_Context.pAFont->p.pProp, c);
 433:../Bsp/OLED/GUISlim.c ****   return (pProp) ? (pProp->paCharInfo+(c-pProp->First))->XSize * GUI_Context.pAFont->XMag : 0;
 434:../Bsp/OLED/GUISlim.c **** }
 435:../Bsp/OLED/GUISlim.c **** 
 436:../Bsp/OLED/GUISlim.c **** /*********************************************************************
 437:../Bsp/OLED/GUISlim.c **** *
 438:../Bsp/OLED/GUISlim.c **** *       GUIPROP_GetFontInfo
 439:../Bsp/OLED/GUISlim.c **** */
 440:../Bsp/OLED/GUISlim.c **** void GUIPROP_GetFontInfo(const GUI_FONT GUI_UNI_PTR * pFont, GUI_FONTINFO* pfi) {
 441:../Bsp/OLED/GUISlim.c ****   pfi->Flags = GUI_FONTINFO_FLAG_PROP;
 442:../Bsp/OLED/GUISlim.c **** }
 443:../Bsp/OLED/GUISlim.c **** 
 444:../Bsp/OLED/GUISlim.c **** /*********************************************************************
 445:../Bsp/OLED/GUISlim.c **** *
 446:../Bsp/OLED/GUISlim.c **** *       GUIPROP_IsInFont
 447:../Bsp/OLED/GUISlim.c **** */
 448:../Bsp/OLED/GUISlim.c **** char GUIPROP_IsInFont(const GUI_FONT GUI_UNI_PTR * pFont, U16 c) {
 449:../Bsp/OLED/GUISlim.c ****   const GUI_FONT_PROP GUI_UNI_PTR * pProp = GUIPROP_FindChar(pFont->p.pProp, c);
 450:../Bsp/OLED/GUISlim.c ****   return (pProp==NULL) ? 0 : 1;
 451:../Bsp/OLED/GUISlim.c **** }
 452:../Bsp/OLED/GUISlim.c **** 
 453:../Bsp/OLED/GUISlim.c **** /*********************************************************************
 454:../Bsp/OLED/GUISlim.c **** *
 455:../Bsp/OLED/GUISlim.c **** *       GUI_GetFontDistY
 456:../Bsp/OLED/GUISlim.c **** */
 457:../Bsp/OLED/GUISlim.c **** int GUI_GetFontDistY(void) {
 458:../Bsp/OLED/GUISlim.c ****   int r;
 459:../Bsp/OLED/GUISlim.c ****   GUI_LOCK();
 460:../Bsp/OLED/GUISlim.c ****   r = GUI_Context.pAFont->YDist;
 461:../Bsp/OLED/GUISlim.c ****   GUI_UNLOCK();
 462:../Bsp/OLED/GUISlim.c ****   return r;
 463:../Bsp/OLED/GUISlim.c **** }
 464:../Bsp/OLED/GUISlim.c **** 
 465:../Bsp/OLED/GUISlim.c **** /*********************************************************************
 466:../Bsp/OLED/GUISlim.c **** *
 467:../Bsp/OLED/GUISlim.c **** *       GUI_GetCharDistX
 468:../Bsp/OLED/GUISlim.c **** */
 469:../Bsp/OLED/GUISlim.c **** int GUI_GetCharDistX(U16 c) {
 470:../Bsp/OLED/GUISlim.c ****   int r;
ARM GAS  C:\Users\fish\AppData\Local\Temp\cc4JAs8f.s 			page 24


 471:../Bsp/OLED/GUISlim.c ****   GUI_LOCK();
 472:../Bsp/OLED/GUISlim.c ****   r = GUI_Context.pAFont->pfGetCharDistX(c);
 473:../Bsp/OLED/GUISlim.c ****   GUI_UNLOCK();
 474:../Bsp/OLED/GUISlim.c ****   return r;
 475:../Bsp/OLED/GUISlim.c **** }
 476:../Bsp/OLED/GUISlim.c **** 
 477:../Bsp/OLED/GUISlim.c **** void GUI_DispNextLine(void) {
 478:../Bsp/OLED/GUISlim.c ****   GUI_LOCK();
 479:../Bsp/OLED/GUISlim.c ****   GUI_Context.DispPosY += GUI_GetFontDistY();
 480:../Bsp/OLED/GUISlim.c ****   GUI_UNLOCK();
 481:../Bsp/OLED/GUISlim.c **** }
 482:../Bsp/OLED/GUISlim.c **** 
 483:../Bsp/OLED/GUISlim.c **** /*********************************************************************
 484:../Bsp/OLED/GUISlim.c **** *
 485:../Bsp/OLED/GUISlim.c **** *       GL_DispChar
 486:../Bsp/OLED/GUISlim.c **** */
 487:../Bsp/OLED/GUISlim.c **** void GL_DispChar(U16 c) {
 488:../Bsp/OLED/GUISlim.c ****   /* check for control characters */
 489:../Bsp/OLED/GUISlim.c ****   if (c == '\n') {
 490:../Bsp/OLED/GUISlim.c ****     GUI_DispNextLine();
 491:../Bsp/OLED/GUISlim.c ****   } else {
 492:../Bsp/OLED/GUISlim.c ****     if (c != '\r') {
 493:../Bsp/OLED/GUISlim.c ****       GUI_LOCK();
 494:../Bsp/OLED/GUISlim.c ****       GUI_Context.pAFont->pfDispChar(c);
 495:../Bsp/OLED/GUISlim.c ****       GUI_UNLOCK();
 496:../Bsp/OLED/GUISlim.c ****     }
 497:../Bsp/OLED/GUISlim.c ****   }
 498:../Bsp/OLED/GUISlim.c **** }
 499:../Bsp/OLED/GUISlim.c **** 
 500:../Bsp/OLED/GUISlim.c **** /*********************************************************************
 501:../Bsp/OLED/GUISlim.c **** *
 502:../Bsp/OLED/GUISlim.c **** *       GUI_GetYAdjust
 503:../Bsp/OLED/GUISlim.c **** *
 504:../Bsp/OLED/GUISlim.c **** * Returns adjustment in vertical (Y) direction
 505:../Bsp/OLED/GUISlim.c **** *
 506:../Bsp/OLED/GUISlim.c **** * Note: The return value needs to be subtracted from
 507:../Bsp/OLED/GUISlim.c **** *       the y-position of the character.
 508:../Bsp/OLED/GUISlim.c **** */
 509:../Bsp/OLED/GUISlim.c **** int GUI_GetYAdjust(void) {
 510:../Bsp/OLED/GUISlim.c ****   int r = 0;
 511:../Bsp/OLED/GUISlim.c ****   GUI_LOCK();
 512:../Bsp/OLED/GUISlim.c ****   switch (GUI_Context.TextAlign & GUI_TA_VERTICAL) {
 513:../Bsp/OLED/GUISlim.c **** 	case GUI_TA_BOTTOM:
 514:../Bsp/OLED/GUISlim.c **** 		r = GUI_Context.pAFont->YSize - 1;
 515:../Bsp/OLED/GUISlim.c ****     break;
 516:../Bsp/OLED/GUISlim.c **** 	case GUI_TA_VCENTER:
 517:../Bsp/OLED/GUISlim.c **** 		r = GUI_Context.pAFont->YSize / 2;
 518:../Bsp/OLED/GUISlim.c ****     break;
 519:../Bsp/OLED/GUISlim.c **** 	case GUI_TA_BASELINE:
 520:../Bsp/OLED/GUISlim.c **** 		r = GUI_Context.pAFont->YSize / 2;
 521:../Bsp/OLED/GUISlim.c **** 	}
 522:../Bsp/OLED/GUISlim.c ****   GUI_UNLOCK();
 523:../Bsp/OLED/GUISlim.c ****   return r;
 524:../Bsp/OLED/GUISlim.c **** }
 525:../Bsp/OLED/GUISlim.c **** 
 526:../Bsp/OLED/GUISlim.c **** /*********************************************************************
 527:../Bsp/OLED/GUISlim.c **** *
ARM GAS  C:\Users\fish\AppData\Local\Temp\cc4JAs8f.s 			page 25


 528:../Bsp/OLED/GUISlim.c **** *       _GotoY
 529:../Bsp/OLED/GUISlim.c **** */
 530:../Bsp/OLED/GUISlim.c **** static char _GotoY(int y) {
 716              		.loc 1 530 27 is_stmt 1 view -0
 717              		.cfi_startproc
 718              		@ args = 0, pretend = 0, frame = 0
 719              		@ frame_needed = 0, uses_anonymous_args = 0
 720              		@ link register save eliminated.
 531:../Bsp/OLED/GUISlim.c ****   GUI_Context.DispPosY = y;
 721              		.loc 1 531 3 view .LVU228
 722              		.loc 1 531 24 is_stmt 0 view .LVU229
 723 0000 014B     		ldr	r3, .L59
 724 0002 D882     		strh	r0, [r3, #22]	@ movhi
 532:../Bsp/OLED/GUISlim.c ****   return 0;
 725              		.loc 1 532 3 is_stmt 1 view .LVU230
 533:../Bsp/OLED/GUISlim.c **** }
 726              		.loc 1 533 1 is_stmt 0 view .LVU231
 727 0004 0020     		movs	r0, #0
 728              	.LVL81:
 729              		.loc 1 533 1 view .LVU232
 730 0006 7047     		bx	lr
 731              	.L60:
 732              		.align	2
 733              	.L59:
 734 0008 00000000 		.word	GUI_Context
 735              		.cfi_endproc
 736              	.LFE266:
 738              		.section	.text._GotoX,"ax",%progbits
 739              		.align	1
 740              		.syntax unified
 741              		.thumb
 742              		.thumb_func
 744              	_GotoX:
 745              	.LVL82:
 746              	.LFB267:
 534:../Bsp/OLED/GUISlim.c **** 
 535:../Bsp/OLED/GUISlim.c **** /*********************************************************************
 536:../Bsp/OLED/GUISlim.c **** *
 537:../Bsp/OLED/GUISlim.c **** *       _GotoX
 538:../Bsp/OLED/GUISlim.c **** */
 539:../Bsp/OLED/GUISlim.c **** static char _GotoX(int x) {
 747              		.loc 1 539 27 is_stmt 1 view -0
 748              		.cfi_startproc
 749              		@ args = 0, pretend = 0, frame = 0
 750              		@ frame_needed = 0, uses_anonymous_args = 0
 751              		@ link register save eliminated.
 540:../Bsp/OLED/GUISlim.c ****   GUI_Context.DispPosX = x;
 752              		.loc 1 540 3 view .LVU234
 753              		.loc 1 540 24 is_stmt 0 view .LVU235
 754 0000 014B     		ldr	r3, .L62
 755 0002 9882     		strh	r0, [r3, #20]	@ movhi
 541:../Bsp/OLED/GUISlim.c ****   return 0;
 756              		.loc 1 541 3 is_stmt 1 view .LVU236
 542:../Bsp/OLED/GUISlim.c **** }
 757              		.loc 1 542 1 is_stmt 0 view .LVU237
 758 0004 0020     		movs	r0, #0
 759              	.LVL83:
ARM GAS  C:\Users\fish\AppData\Local\Temp\cc4JAs8f.s 			page 26


 760              		.loc 1 542 1 view .LVU238
 761 0006 7047     		bx	lr
 762              	.L63:
 763              		.align	2
 764              	.L62:
 765 0008 00000000 		.word	GUI_Context
 766              		.cfi_endproc
 767              	.LFE267:
 769              		.section	.text.DB2SJIS,"ax",%progbits
 770              		.align	1
 771              		.syntax unified
 772              		.thumb
 773              		.thumb_func
 775              	DB2SJIS:
 776              	.LVL84:
 777              	.LFB276:
 543:../Bsp/OLED/GUISlim.c **** 
 544:../Bsp/OLED/GUISlim.c **** /*********************************************************************
 545:../Bsp/OLED/GUISlim.c **** *
 546:../Bsp/OLED/GUISlim.c **** *       GUI_GotoY
 547:../Bsp/OLED/GUISlim.c **** */
 548:../Bsp/OLED/GUISlim.c **** char GUI_GotoY(int y) {
 549:../Bsp/OLED/GUISlim.c ****   char r;
 550:../Bsp/OLED/GUISlim.c ****   GUI_LOCK();
 551:../Bsp/OLED/GUISlim.c ****   r = _GotoY(y);
 552:../Bsp/OLED/GUISlim.c ****   GUI_UNLOCK();
 553:../Bsp/OLED/GUISlim.c ****   return r;
 554:../Bsp/OLED/GUISlim.c **** }
 555:../Bsp/OLED/GUISlim.c **** 
 556:../Bsp/OLED/GUISlim.c **** /*********************************************************************
 557:../Bsp/OLED/GUISlim.c **** *
 558:../Bsp/OLED/GUISlim.c **** *       GUI_GotoX
 559:../Bsp/OLED/GUISlim.c **** */
 560:../Bsp/OLED/GUISlim.c **** char GUI_GotoX(int x) {
 561:../Bsp/OLED/GUISlim.c ****   char r;
 562:../Bsp/OLED/GUISlim.c ****   GUI_LOCK();
 563:../Bsp/OLED/GUISlim.c ****   r = _GotoX(x);
 564:../Bsp/OLED/GUISlim.c ****   GUI_UNLOCK();
 565:../Bsp/OLED/GUISlim.c ****   return r;
 566:../Bsp/OLED/GUISlim.c **** }
 567:../Bsp/OLED/GUISlim.c **** 
 568:../Bsp/OLED/GUISlim.c **** /*********************************************************************
 569:../Bsp/OLED/GUISlim.c **** *
 570:../Bsp/OLED/GUISlim.c **** *       GUI_GotoXY
 571:../Bsp/OLED/GUISlim.c **** */
 572:../Bsp/OLED/GUISlim.c **** char GUI_GotoXY(int x, int y) {
 573:../Bsp/OLED/GUISlim.c ****   char r;
 574:../Bsp/OLED/GUISlim.c ****   GUI_LOCK();
 575:../Bsp/OLED/GUISlim.c ****   r  = _GotoX(x);
 576:../Bsp/OLED/GUISlim.c ****   r |= _GotoY(y);
 577:../Bsp/OLED/GUISlim.c ****   GUI_UNLOCK();
 578:../Bsp/OLED/GUISlim.c ****   return r;
 579:../Bsp/OLED/GUISlim.c **** }
 580:../Bsp/OLED/GUISlim.c **** 
 581:../Bsp/OLED/GUISlim.c **** void GUI_ClearRect(int x0, int y0, int x1, int y1) {
 582:../Bsp/OLED/GUISlim.c ****   GUI_LOCK();
 583:../Bsp/OLED/GUISlim.c ****   SSD1306_DrawFilledRectangle(x0,y0,x1,y1, GUI_COLOR_BLACK);
ARM GAS  C:\Users\fish\AppData\Local\Temp\cc4JAs8f.s 			page 27


 584:../Bsp/OLED/GUISlim.c ****   GUI_UNLOCK();
 585:../Bsp/OLED/GUISlim.c **** }
 586:../Bsp/OLED/GUISlim.c **** 
 587:../Bsp/OLED/GUISlim.c **** void GUI_Clear(void) {
 588:../Bsp/OLED/GUISlim.c ****   GUI_GotoXY(0,0);     /* Reset text cursor to upper left */
 589:../Bsp/OLED/GUISlim.c ****   GUI_ClearRect(0, 0, GUI_GetXSize(), GUI_GetYSize());
 590:../Bsp/OLED/GUISlim.c **** }
 591:../Bsp/OLED/GUISlim.c **** 
 592:../Bsp/OLED/GUISlim.c **** void GUI_DispCEOL(void) {
 593:../Bsp/OLED/GUISlim.c ****   int y = GUI_Context.DispPosY - GUI_GetYAdjust();
 594:../Bsp/OLED/GUISlim.c ****   GUI_ClearRect(GUI_Context.DispPosX, y, 4000,             /* Max pos x */
 595:../Bsp/OLED/GUISlim.c ****                 y + GUI_Context.pAFont->YDist - 1);
 596:../Bsp/OLED/GUISlim.c **** }
 597:../Bsp/OLED/GUISlim.c **** 
 598:../Bsp/OLED/GUISlim.c **** void GUI_DispChar(U16 c) {
 599:../Bsp/OLED/GUISlim.c ****   GUI_LOCK();
 600:../Bsp/OLED/GUISlim.c ****   GL_DispChar(c);
 601:../Bsp/OLED/GUISlim.c ****   GUI_UNLOCK();
 602:../Bsp/OLED/GUISlim.c **** }
 603:../Bsp/OLED/GUISlim.c **** 
 604:../Bsp/OLED/GUISlim.c **** void GUI_DispCharAt(U16 c, I16P x, I16P y) {
 605:../Bsp/OLED/GUISlim.c ****   GUI_LOCK();
 606:../Bsp/OLED/GUISlim.c ****   GUI_Context.DispPosX = x;
 607:../Bsp/OLED/GUISlim.c ****   GUI_Context.DispPosY = y;
 608:../Bsp/OLED/GUISlim.c **** 	GL_DispChar(c);
 609:../Bsp/OLED/GUISlim.c ****   GUI_UNLOCK();
 610:../Bsp/OLED/GUISlim.c **** }
 611:../Bsp/OLED/GUISlim.c **** 
 612:../Bsp/OLED/GUISlim.c **** ///////////////////////////////////////////////////////////////////////
 613:../Bsp/OLED/GUISlim.c **** /*********************************************************************
 614:../Bsp/OLED/GUISlim.c **** *
 615:../Bsp/OLED/GUISlim.c **** *       Static code
 616:../Bsp/OLED/GUISlim.c **** *
 617:../Bsp/OLED/GUISlim.c **** **********************************************************************
 618:../Bsp/OLED/GUISlim.c **** */
 619:../Bsp/OLED/GUISlim.c **** /*********************************************************************
 620:../Bsp/OLED/GUISlim.c **** *
 621:../Bsp/OLED/GUISlim.c **** *       DB2SJIS
 622:../Bsp/OLED/GUISlim.c **** */
 623:../Bsp/OLED/GUISlim.c **** static U16 DB2SJIS(U8 Byte0, U8 Byte1) {
 778              		.loc 1 623 40 is_stmt 1 view -0
 779              		.cfi_startproc
 780              		@ args = 0, pretend = 0, frame = 0
 781              		@ frame_needed = 0, uses_anonymous_args = 0
 782              		@ link register save eliminated.
 624:../Bsp/OLED/GUISlim.c ****   return Byte1 | (((U16)Byte0)<<8);
 783              		.loc 1 624 3 view .LVU240
 625:../Bsp/OLED/GUISlim.c **** }
 784              		.loc 1 625 1 is_stmt 0 view .LVU241
 785 0000 41EA0020 		orr	r0, r1, r0, lsl #8
 786              	.LVL85:
 787              		.loc 1 625 1 view .LVU242
 788 0004 7047     		bx	lr
 789              		.cfi_endproc
 790              	.LFE276:
 792              		.section	.text._GetLineLen_SJIS,"ax",%progbits
 793              		.align	1
ARM GAS  C:\Users\fish\AppData\Local\Temp\cc4JAs8f.s 			page 28


 794              		.syntax unified
 795              		.thumb
 796              		.thumb_func
 798              	_GetLineLen_SJIS:
 799              	.LVL86:
 800              	.LFB278:
 626:../Bsp/OLED/GUISlim.c **** 
 627:../Bsp/OLED/GUISlim.c **** /*********************************************************************
 628:../Bsp/OLED/GUISlim.c **** *
 629:../Bsp/OLED/GUISlim.c **** *       _GetLineDistX_SJIS
 630:../Bsp/OLED/GUISlim.c **** */
 631:../Bsp/OLED/GUISlim.c **** static int _GetLineDistX_SJIS(const char GUI_UNI_PTR *s, int Len) {
 632:../Bsp/OLED/GUISlim.c ****   int Dist =0;
 633:../Bsp/OLED/GUISlim.c ****   if (s) {
 634:../Bsp/OLED/GUISlim.c ****     U8 c0;
 635:../Bsp/OLED/GUISlim.c ****     while (((c0=*(const U8*)s) !=0) && Len >=0) {
 636:../Bsp/OLED/GUISlim.c ****       s++; Len--;
 637:../Bsp/OLED/GUISlim.c ****       if (c0 > 127) {
 638:../Bsp/OLED/GUISlim.c ****         U8  c1 = *(const U8*)s++;
 639:../Bsp/OLED/GUISlim.c ****         Len--;
 640:../Bsp/OLED/GUISlim.c ****         Dist += GUI_GetCharDistX(DB2SJIS(c0, c1));
 641:../Bsp/OLED/GUISlim.c ****       } else {
 642:../Bsp/OLED/GUISlim.c ****         Dist += GUI_GetCharDistX(c0);
 643:../Bsp/OLED/GUISlim.c ****       }
 644:../Bsp/OLED/GUISlim.c ****     }
 645:../Bsp/OLED/GUISlim.c ****   }
 646:../Bsp/OLED/GUISlim.c ****   return Dist;
 647:../Bsp/OLED/GUISlim.c **** }
 648:../Bsp/OLED/GUISlim.c **** 
 649:../Bsp/OLED/GUISlim.c **** /*********************************************************************
 650:../Bsp/OLED/GUISlim.c **** *
 651:../Bsp/OLED/GUISlim.c **** *       _GetLineLen_SJIS
 652:../Bsp/OLED/GUISlim.c **** * Purpose:
 653:../Bsp/OLED/GUISlim.c **** *   Returns the number of characters in a string.
 654:../Bsp/OLED/GUISlim.c **** *
 655:../Bsp/OLED/GUISlim.c **** * NOTE:
 656:../Bsp/OLED/GUISlim.c **** *   The return value can be used as offset into the
 657:../Bsp/OLED/GUISlim.c **** *   string, which means that double characters count double
 658:../Bsp/OLED/GUISlim.c **** */
 659:../Bsp/OLED/GUISlim.c **** static int _GetLineLen_SJIS(const char GUI_UNI_PTR *s, int MaxLen) {
 801              		.loc 1 659 68 is_stmt 1 view -0
 802              		.cfi_startproc
 803              		@ args = 0, pretend = 0, frame = 0
 804              		@ frame_needed = 0, uses_anonymous_args = 0
 805              		@ link register save eliminated.
 806              		.loc 1 659 68 is_stmt 0 view .LVU244
 807 0000 0346     		mov	r3, r0
 660:../Bsp/OLED/GUISlim.c ****   int Len =0;
 808              		.loc 1 660 3 is_stmt 1 view .LVU245
 809              	.LVL87:
 661:../Bsp/OLED/GUISlim.c ****   U8 c0;
 810              		.loc 1 661 3 view .LVU246
 662:../Bsp/OLED/GUISlim.c ****   while (((c0=*(const U8*)s) !=0) && Len < MaxLen) {
 811              		.loc 1 662 3 view .LVU247
 660:../Bsp/OLED/GUISlim.c ****   int Len =0;
 812              		.loc 1 660 7 is_stmt 0 view .LVU248
 813 0002 0020     		movs	r0, #0
ARM GAS  C:\Users\fish\AppData\Local\Temp\cc4JAs8f.s 			page 29


 814              	.LVL88:
 815              		.loc 1 662 9 view .LVU249
 816 0004 04E0     		b	.L66
 817              	.LVL89:
 818              	.L71:
 663:../Bsp/OLED/GUISlim.c ****     s++;
 664:../Bsp/OLED/GUISlim.c ****     if (c0 > 127) {
 665:../Bsp/OLED/GUISlim.c ****       Len++; s++;
 819              		.loc 1 665 7 is_stmt 1 view .LVU250
 820              		.loc 1 665 10 is_stmt 0 view .LVU251
 821 0006 0130     		adds	r0, r0, #1
 822              	.LVL90:
 823              		.loc 1 665 14 is_stmt 1 view .LVU252
 824              		.loc 1 665 15 is_stmt 0 view .LVU253
 825 0008 03F1020C 		add	ip, r3, #2
 826              	.LVL91:
 827              	.L68:
 666:../Bsp/OLED/GUISlim.c ****     } else {
 667:../Bsp/OLED/GUISlim.c ****       switch (c0) {
 668:../Bsp/OLED/GUISlim.c ****       case '\n': return Len;
 669:../Bsp/OLED/GUISlim.c ****       }
 670:../Bsp/OLED/GUISlim.c ****     }
 671:../Bsp/OLED/GUISlim.c ****     Len++;
 828              		.loc 1 671 5 is_stmt 1 view .LVU254
 829              		.loc 1 671 8 is_stmt 0 view .LVU255
 830 000c 0130     		adds	r0, r0, #1
 831              	.LVL92:
 832              		.loc 1 671 8 view .LVU256
 833 000e 6346     		mov	r3, ip
 834              	.LVL93:
 835              	.L66:
 662:../Bsp/OLED/GUISlim.c ****     s++;
 836              		.loc 1 662 35 is_stmt 1 view .LVU257
 662:../Bsp/OLED/GUISlim.c ****     s++;
 837              		.loc 1 662 14 is_stmt 0 view .LVU258
 838 0010 1A78     		ldrb	r2, [r3]	@ zero_extendqisi2
 839              	.LVL94:
 662:../Bsp/OLED/GUISlim.c ****     s++;
 840              		.loc 1 662 35 view .LVU259
 841 0012 42B1     		cbz	r2, .L65
 662:../Bsp/OLED/GUISlim.c ****     s++;
 842              		.loc 1 662 35 discriminator 1 view .LVU260
 843 0014 8842     		cmp	r0, r1
 844 0016 06DA     		bge	.L65
 663:../Bsp/OLED/GUISlim.c ****     s++;
 845              		.loc 1 663 5 is_stmt 1 view .LVU261
 663:../Bsp/OLED/GUISlim.c ****     s++;
 846              		.loc 1 663 6 is_stmt 0 view .LVU262
 847 0018 03F1010C 		add	ip, r3, #1
 848              	.LVL95:
 664:../Bsp/OLED/GUISlim.c ****       Len++; s++;
 849              		.loc 1 664 5 is_stmt 1 view .LVU263
 664:../Bsp/OLED/GUISlim.c ****       Len++; s++;
 850              		.loc 1 664 8 is_stmt 0 view .LVU264
 851 001c 12F0800F 		tst	r2, #128
 852 0020 F1D1     		bne	.L71
 667:../Bsp/OLED/GUISlim.c ****       case '\n': return Len;
ARM GAS  C:\Users\fish\AppData\Local\Temp\cc4JAs8f.s 			page 30


 853              		.loc 1 667 7 is_stmt 1 view .LVU265
 854 0022 0A2A     		cmp	r2, #10
 855 0024 F2D1     		bne	.L68
 856              	.LVL96:
 857              	.L65:
 672:../Bsp/OLED/GUISlim.c ****   }
 673:../Bsp/OLED/GUISlim.c ****   return Len;
 674:../Bsp/OLED/GUISlim.c **** }
 858              		.loc 1 674 1 is_stmt 0 view .LVU266
 859 0026 7047     		bx	lr
 860              		.cfi_endproc
 861              	.LFE278:
 863              		.section	.text._GetCharCode,"ax",%progbits
 864              		.align	1
 865              		.syntax unified
 866              		.thumb
 867              		.thumb_func
 869              	_GetCharCode:
 870              	.LVL97:
 871              	.LFB280:
 675:../Bsp/OLED/GUISlim.c **** 
 676:../Bsp/OLED/GUISlim.c **** /*********************************************************************
 677:../Bsp/OLED/GUISlim.c **** *
 678:../Bsp/OLED/GUISlim.c **** *       _DispLine_SJIS
 679:../Bsp/OLED/GUISlim.c **** */
 680:../Bsp/OLED/GUISlim.c **** static void _DispLine_SJIS(const char GUI_UNI_PTR *s, int Len) {
 681:../Bsp/OLED/GUISlim.c ****   U8 c0;
 682:../Bsp/OLED/GUISlim.c ****   while (--Len >=0) {
 683:../Bsp/OLED/GUISlim.c ****     c0=*(const U8*)s++;
 684:../Bsp/OLED/GUISlim.c ****     if (c0 > 127) {
 685:../Bsp/OLED/GUISlim.c ****       U8  c1 = *(const U8*)s++;
 686:../Bsp/OLED/GUISlim.c ****       Len--;
 687:../Bsp/OLED/GUISlim.c ****       GL_DispChar (DB2SJIS(c0, c1));
 688:../Bsp/OLED/GUISlim.c ****     } else {
 689:../Bsp/OLED/GUISlim.c ****       GL_DispChar(c0);
 690:../Bsp/OLED/GUISlim.c ****     }
 691:../Bsp/OLED/GUISlim.c ****   }
 692:../Bsp/OLED/GUISlim.c **** }
 693:../Bsp/OLED/GUISlim.c **** ///////////////////////////////////////////////////////////////////////
 694:../Bsp/OLED/GUISlim.c **** 
 695:../Bsp/OLED/GUISlim.c **** static U16 _GetCharCode(const char GUI_UNI_PTR * s) {
 872              		.loc 1 695 53 is_stmt 1 view -0
 873              		.cfi_startproc
 874              		@ args = 0, pretend = 0, frame = 0
 875              		@ frame_needed = 0, uses_anonymous_args = 0
 876              		@ link register save eliminated.
 696:../Bsp/OLED/GUISlim.c ****   return *(const U8 GUI_UNI_PTR *)s;
 877              		.loc 1 696 3 view .LVU268
 697:../Bsp/OLED/GUISlim.c **** }
 878              		.loc 1 697 1 is_stmt 0 view .LVU269
 879 0000 0078     		ldrb	r0, [r0]	@ zero_extendqisi2
 880              	.LVL98:
 881              		.loc 1 697 1 view .LVU270
 882 0002 7047     		bx	lr
 883              		.cfi_endproc
 884              	.LFE280:
 886              		.section	.text._GetCharSize,"ax",%progbits
ARM GAS  C:\Users\fish\AppData\Local\Temp\cc4JAs8f.s 			page 31


 887              		.align	1
 888              		.syntax unified
 889              		.thumb
 890              		.thumb_func
 892              	_GetCharSize:
 893              	.LVL99:
 894              	.LFB281:
 698:../Bsp/OLED/GUISlim.c **** static int _GetCharSize(const char GUI_UNI_PTR * s) {
 895              		.loc 1 698 53 is_stmt 1 view -0
 896              		.cfi_startproc
 897              		@ args = 0, pretend = 0, frame = 0
 898              		@ frame_needed = 0, uses_anonymous_args = 0
 899              		@ link register save eliminated.
 699:../Bsp/OLED/GUISlim.c ****   return 1;
 900              		.loc 1 699 3 view .LVU272
 700:../Bsp/OLED/GUISlim.c **** }
 901              		.loc 1 700 1 is_stmt 0 view .LVU273
 902 0000 0120     		movs	r0, #1
 903              	.LVL100:
 904              		.loc 1 700 1 view .LVU274
 905 0002 7047     		bx	lr
 906              		.cfi_endproc
 907              	.LFE281:
 909              		.section	.text.LCD_GetXSize,"ax",%progbits
 910              		.align	1
 911              		.global	LCD_GetXSize
 912              		.syntax unified
 913              		.thumb
 914              		.thumb_func
 916              	LCD_GetXSize:
 917              	.LFB239:
  12:../Bsp/OLED/GUISlim.c **** int LCD_GetYSize(void)        { return SSD1306_HEIGHT; }
 918              		.loc 1 12 31 is_stmt 1 view -0
 919              		.cfi_startproc
 920              		@ args = 0, pretend = 0, frame = 0
 921              		@ frame_needed = 0, uses_anonymous_args = 0
 922              		@ link register save eliminated.
  12:../Bsp/OLED/GUISlim.c **** int LCD_GetYSize(void)        { return SSD1306_HEIGHT; }
 923              		.loc 1 12 33 view .LVU276
  12:../Bsp/OLED/GUISlim.c **** int LCD_GetYSize(void)        { return SSD1306_HEIGHT; }
 924              		.loc 1 12 55 is_stmt 0 view .LVU277
 925 0000 8020     		movs	r0, #128
 926 0002 7047     		bx	lr
 927              		.cfi_endproc
 928              	.LFE239:
 930              		.section	.text.LCD_GetYSize,"ax",%progbits
 931              		.align	1
 932              		.global	LCD_GetYSize
 933              		.syntax unified
 934              		.thumb
 935              		.thumb_func
 937              	LCD_GetYSize:
 938              	.LFB240:
  13:../Bsp/OLED/GUISlim.c **** int GUI_GetXSize(void)        { return LCD_GetXSize(); }
 939              		.loc 1 13 31 is_stmt 1 view -0
 940              		.cfi_startproc
 941              		@ args = 0, pretend = 0, frame = 0
ARM GAS  C:\Users\fish\AppData\Local\Temp\cc4JAs8f.s 			page 32


 942              		@ frame_needed = 0, uses_anonymous_args = 0
 943              		@ link register save eliminated.
  13:../Bsp/OLED/GUISlim.c **** int GUI_GetXSize(void)        { return LCD_GetXSize(); }
 944              		.loc 1 13 33 view .LVU279
  13:../Bsp/OLED/GUISlim.c **** int GUI_GetXSize(void)        { return LCD_GetXSize(); }
 945              		.loc 1 13 56 is_stmt 0 view .LVU280
 946 0000 4020     		movs	r0, #64
 947 0002 7047     		bx	lr
 948              		.cfi_endproc
 949              	.LFE240:
 951              		.section	.text.GUI_GetXSize,"ax",%progbits
 952              		.align	1
 953              		.global	GUI_GetXSize
 954              		.syntax unified
 955              		.thumb
 956              		.thumb_func
 958              	GUI_GetXSize:
 959              	.LFB241:
  14:../Bsp/OLED/GUISlim.c **** int GUI_GetYSize(void)        { return LCD_GetYSize(); }
 960              		.loc 1 14 31 is_stmt 1 view -0
 961              		.cfi_startproc
 962              		@ args = 0, pretend = 0, frame = 0
 963              		@ frame_needed = 0, uses_anonymous_args = 0
 964 0000 08B5     		push	{r3, lr}
 965              		.cfi_def_cfa_offset 8
 966              		.cfi_offset 3, -8
 967              		.cfi_offset 14, -4
  14:../Bsp/OLED/GUISlim.c **** int GUI_GetYSize(void)        { return LCD_GetYSize(); }
 968              		.loc 1 14 33 view .LVU282
  14:../Bsp/OLED/GUISlim.c **** int GUI_GetYSize(void)        { return LCD_GetYSize(); }
 969              		.loc 1 14 40 is_stmt 0 view .LVU283
 970 0002 FFF7FEFF 		bl	LCD_GetXSize
 971              	.LVL101:
  14:../Bsp/OLED/GUISlim.c **** int GUI_GetYSize(void)        { return LCD_GetYSize(); }
 972              		.loc 1 14 56 view .LVU284
 973 0006 08BD     		pop	{r3, pc}
 974              		.cfi_endproc
 975              	.LFE241:
 977              		.section	.text.GUI_GetYSize,"ax",%progbits
 978              		.align	1
 979              		.global	GUI_GetYSize
 980              		.syntax unified
 981              		.thumb
 982              		.thumb_func
 984              	GUI_GetYSize:
 985              	.LFB242:
  15:../Bsp/OLED/GUISlim.c **** void LCD_GetRect(LCD_RECT *pRect) {
 986              		.loc 1 15 31 is_stmt 1 view -0
 987              		.cfi_startproc
 988              		@ args = 0, pretend = 0, frame = 0
 989              		@ frame_needed = 0, uses_anonymous_args = 0
 990 0000 08B5     		push	{r3, lr}
 991              		.cfi_def_cfa_offset 8
 992              		.cfi_offset 3, -8
 993              		.cfi_offset 14, -4
  15:../Bsp/OLED/GUISlim.c **** void LCD_GetRect(LCD_RECT *pRect) {
 994              		.loc 1 15 33 view .LVU286
ARM GAS  C:\Users\fish\AppData\Local\Temp\cc4JAs8f.s 			page 33


  15:../Bsp/OLED/GUISlim.c **** void LCD_GetRect(LCD_RECT *pRect) {
 995              		.loc 1 15 40 is_stmt 0 view .LVU287
 996 0002 FFF7FEFF 		bl	LCD_GetYSize
 997              	.LVL102:
  15:../Bsp/OLED/GUISlim.c **** void LCD_GetRect(LCD_RECT *pRect) {
 998              		.loc 1 15 56 view .LVU288
 999 0006 08BD     		pop	{r3, pc}
 1000              		.cfi_endproc
 1001              	.LFE242:
 1003              		.section	.text.LCD_GetRect,"ax",%progbits
 1004              		.align	1
 1005              		.global	LCD_GetRect
 1006              		.syntax unified
 1007              		.thumb
 1008              		.thumb_func
 1010              	LCD_GetRect:
 1011              	.LVL103:
 1012              	.LFB243:
  16:../Bsp/OLED/GUISlim.c ****   pRect->x0 = 0;
 1013              		.loc 1 16 35 is_stmt 1 view -0
 1014              		.cfi_startproc
 1015              		@ args = 0, pretend = 0, frame = 0
 1016              		@ frame_needed = 0, uses_anonymous_args = 0
  16:../Bsp/OLED/GUISlim.c ****   pRect->x0 = 0;
 1017              		.loc 1 16 35 is_stmt 0 view .LVU290
 1018 0000 10B5     		push	{r4, lr}
 1019              		.cfi_def_cfa_offset 8
 1020              		.cfi_offset 4, -8
 1021              		.cfi_offset 14, -4
 1022 0002 0446     		mov	r4, r0
  17:../Bsp/OLED/GUISlim.c ****   pRect->y0 = 0;
 1023              		.loc 1 17 3 is_stmt 1 view .LVU291
  17:../Bsp/OLED/GUISlim.c ****   pRect->y0 = 0;
 1024              		.loc 1 17 13 is_stmt 0 view .LVU292
 1025 0004 0023     		movs	r3, #0
 1026 0006 0380     		strh	r3, [r0]	@ movhi
  18:../Bsp/OLED/GUISlim.c ****   pRect->x1 = LCD_GetXSize() - 1;
 1027              		.loc 1 18 3 is_stmt 1 view .LVU293
  18:../Bsp/OLED/GUISlim.c ****   pRect->x1 = LCD_GetXSize() - 1;
 1028              		.loc 1 18 13 is_stmt 0 view .LVU294
 1029 0008 4380     		strh	r3, [r0, #2]	@ movhi
  19:../Bsp/OLED/GUISlim.c ****   pRect->y1 = LCD_GetYSize() - 1;
 1030              		.loc 1 19 3 is_stmt 1 view .LVU295
  19:../Bsp/OLED/GUISlim.c ****   pRect->y1 = LCD_GetYSize() - 1;
 1031              		.loc 1 19 15 is_stmt 0 view .LVU296
 1032 000a FFF7FEFF 		bl	LCD_GetXSize
 1033              	.LVL104:
  19:../Bsp/OLED/GUISlim.c ****   pRect->y1 = LCD_GetYSize() - 1;
 1034              		.loc 1 19 30 discriminator 1 view .LVU297
 1035 000e 0138     		subs	r0, r0, #1
  19:../Bsp/OLED/GUISlim.c ****   pRect->y1 = LCD_GetYSize() - 1;
 1036              		.loc 1 19 13 discriminator 1 view .LVU298
 1037 0010 A080     		strh	r0, [r4, #4]	@ movhi
  20:../Bsp/OLED/GUISlim.c **** }
 1038              		.loc 1 20 3 is_stmt 1 view .LVU299
  20:../Bsp/OLED/GUISlim.c **** }
 1039              		.loc 1 20 15 is_stmt 0 view .LVU300
ARM GAS  C:\Users\fish\AppData\Local\Temp\cc4JAs8f.s 			page 34


 1040 0012 FFF7FEFF 		bl	LCD_GetYSize
 1041              	.LVL105:
  20:../Bsp/OLED/GUISlim.c **** }
 1042              		.loc 1 20 30 discriminator 1 view .LVU301
 1043 0016 0138     		subs	r0, r0, #1
  20:../Bsp/OLED/GUISlim.c **** }
 1044              		.loc 1 20 13 discriminator 1 view .LVU302
 1045 0018 E080     		strh	r0, [r4, #6]	@ movhi
  21:../Bsp/OLED/GUISlim.c **** 
 1046              		.loc 1 21 1 view .LVU303
 1047 001a 10BD     		pop	{r4, pc}
  21:../Bsp/OLED/GUISlim.c **** 
 1048              		.loc 1 21 1 view .LVU304
 1049              		.cfi_endproc
 1050              	.LFE243:
 1052              		.section	.text.GUI_Init,"ax",%progbits
 1053              		.align	1
 1054              		.global	GUI_Init
 1055              		.syntax unified
 1056              		.thumb
 1057              		.thumb_func
 1059              	GUI_Init:
 1060              	.LFB244:
  23:../Bsp/OLED/GUISlim.c ****   GUI_DecChar = '.';
 1061              		.loc 1 23 20 is_stmt 1 view -0
 1062              		.cfi_startproc
 1063              		@ args = 0, pretend = 0, frame = 0
 1064              		@ frame_needed = 0, uses_anonymous_args = 0
 1065 0000 38B5     		push	{r3, r4, r5, lr}
 1066              		.cfi_def_cfa_offset 16
 1067              		.cfi_offset 3, -16
 1068              		.cfi_offset 4, -12
 1069              		.cfi_offset 5, -8
 1070              		.cfi_offset 14, -4
  24:../Bsp/OLED/GUISlim.c **** 	GUI_Context.ClipRect.x0 = 0;
 1071              		.loc 1 24 3 view .LVU306
  24:../Bsp/OLED/GUISlim.c **** 	GUI_Context.ClipRect.x0 = 0;
 1072              		.loc 1 24 15 is_stmt 0 view .LVU307
 1073 0002 0D4B     		ldr	r3, .L84
 1074 0004 2E22     		movs	r2, #46
 1075 0006 1A70     		strb	r2, [r3]
  25:../Bsp/OLED/GUISlim.c **** 	GUI_Context.ClipRect.y0 = 0;
 1076              		.loc 1 25 2 is_stmt 1 view .LVU308
  25:../Bsp/OLED/GUISlim.c **** 	GUI_Context.ClipRect.y0 = 0;
 1077              		.loc 1 25 26 is_stmt 0 view .LVU309
 1078 0008 0C4C     		ldr	r4, .L84+4
 1079 000a 0025     		movs	r5, #0
 1080 000c 2580     		strh	r5, [r4]	@ movhi
  26:../Bsp/OLED/GUISlim.c **** 	GUI_Context.ClipRect.x1 = LCD_GetXSize() - 1;
 1081              		.loc 1 26 2 is_stmt 1 view .LVU310
  26:../Bsp/OLED/GUISlim.c **** 	GUI_Context.ClipRect.x1 = LCD_GetXSize() - 1;
 1082              		.loc 1 26 26 is_stmt 0 view .LVU311
 1083 000e 6580     		strh	r5, [r4, #2]	@ movhi
  27:../Bsp/OLED/GUISlim.c **** 	GUI_Context.ClipRect.y1 = LCD_GetYSize() - 1;
 1084              		.loc 1 27 2 is_stmt 1 view .LVU312
  27:../Bsp/OLED/GUISlim.c **** 	GUI_Context.ClipRect.y1 = LCD_GetYSize() - 1;
 1085              		.loc 1 27 28 is_stmt 0 view .LVU313
ARM GAS  C:\Users\fish\AppData\Local\Temp\cc4JAs8f.s 			page 35


 1086 0010 FFF7FEFF 		bl	LCD_GetXSize
 1087              	.LVL106:
  27:../Bsp/OLED/GUISlim.c **** 	GUI_Context.ClipRect.y1 = LCD_GetYSize() - 1;
 1088              		.loc 1 27 43 discriminator 1 view .LVU314
 1089 0014 0138     		subs	r0, r0, #1
  27:../Bsp/OLED/GUISlim.c **** 	GUI_Context.ClipRect.y1 = LCD_GetYSize() - 1;
 1090              		.loc 1 27 26 discriminator 1 view .LVU315
 1091 0016 A080     		strh	r0, [r4, #4]	@ movhi
  28:../Bsp/OLED/GUISlim.c **** 	GUI_Context.DispPosX = 0;
 1092              		.loc 1 28 2 is_stmt 1 view .LVU316
  28:../Bsp/OLED/GUISlim.c **** 	GUI_Context.DispPosX = 0;
 1093              		.loc 1 28 28 is_stmt 0 view .LVU317
 1094 0018 FFF7FEFF 		bl	LCD_GetYSize
 1095              	.LVL107:
  28:../Bsp/OLED/GUISlim.c **** 	GUI_Context.DispPosX = 0;
 1096              		.loc 1 28 43 discriminator 1 view .LVU318
 1097 001c 0138     		subs	r0, r0, #1
  28:../Bsp/OLED/GUISlim.c **** 	GUI_Context.DispPosX = 0;
 1098              		.loc 1 28 26 discriminator 1 view .LVU319
 1099 001e E080     		strh	r0, [r4, #6]	@ movhi
  29:../Bsp/OLED/GUISlim.c **** 	GUI_Context.DispPosY = 0;
 1100              		.loc 1 29 2 is_stmt 1 view .LVU320
  29:../Bsp/OLED/GUISlim.c **** 	GUI_Context.DispPosY = 0;
 1101              		.loc 1 29 23 is_stmt 0 view .LVU321
 1102 0020 A582     		strh	r5, [r4, #20]	@ movhi
  30:../Bsp/OLED/GUISlim.c **** 	GUI_Context.pAFont = GUI_DEFAULT_FONT;
 1103              		.loc 1 30 2 is_stmt 1 view .LVU322
  30:../Bsp/OLED/GUISlim.c **** 	GUI_Context.pAFont = GUI_DEFAULT_FONT;
 1104              		.loc 1 30 23 is_stmt 0 view .LVU323
 1105 0022 E582     		strh	r5, [r4, #22]	@ movhi
  31:../Bsp/OLED/GUISlim.c **** 	GUI_Context.PenSize = 1;
 1106              		.loc 1 31 2 is_stmt 1 view .LVU324
  31:../Bsp/OLED/GUISlim.c **** 	GUI_Context.PenSize = 1;
 1107              		.loc 1 31 21 is_stmt 0 view .LVU325
 1108 0024 064B     		ldr	r3, .L84+8
 1109 0026 2361     		str	r3, [r4, #16]
  32:../Bsp/OLED/GUISlim.c **** 	GUI_Context.DrawColor = GUI_COLOR_WHITE;
 1110              		.loc 1 32 2 is_stmt 1 view .LVU326
  32:../Bsp/OLED/GUISlim.c **** 	GUI_Context.DrawColor = GUI_COLOR_WHITE;
 1111              		.loc 1 32 22 is_stmt 0 view .LVU327
 1112 0028 0123     		movs	r3, #1
 1113 002a 6372     		strb	r3, [r4, #9]
  33:../Bsp/OLED/GUISlim.c **** 	
 1114              		.loc 1 33 2 is_stmt 1 view .LVU328
  33:../Bsp/OLED/GUISlim.c **** 	
 1115              		.loc 1 33 24 is_stmt 0 view .LVU329
 1116 002c 2377     		strb	r3, [r4, #28]
  35:../Bsp/OLED/GUISlim.c **** 	
 1117              		.loc 1 35 2 is_stmt 1 view .LVU330
 1118 002e FFF7FEFF 		bl	SSD1306_init
 1119              	.LVL108:
  37:../Bsp/OLED/GUISlim.c **** }
 1120              		.loc 1 37 2 view .LVU331
  38:../Bsp/OLED/GUISlim.c **** 
 1121              		.loc 1 38 1 is_stmt 0 view .LVU332
 1122 0032 2846     		mov	r0, r5
 1123 0034 38BD     		pop	{r3, r4, r5, pc}
ARM GAS  C:\Users\fish\AppData\Local\Temp\cc4JAs8f.s 			page 36


 1124              	.L85:
 1125 0036 00BF     		.align	2
 1126              	.L84:
 1127 0038 00000000 		.word	GUI_DecChar
 1128 003c 00000000 		.word	GUI_Context
 1129 0040 00000000 		.word	GUI_Font8_ASCII
 1130              		.cfi_endproc
 1131              	.LFE244:
 1133              		.section	.text.GUI_SetFont,"ax",%progbits
 1134              		.align	1
 1135              		.global	GUI_SetFont
 1136              		.syntax unified
 1137              		.thumb
 1138              		.thumb_func
 1140              	GUI_SetFont:
 1141              	.LVL109:
 1142              	.LFB245:
  40:../Bsp/OLED/GUISlim.c ****   const GUI_FONT GUI_UNI_PTR* pOldFont = GUI_Context.pAFont;
 1143              		.loc 1 40 80 is_stmt 1 view -0
 1144              		.cfi_startproc
 1145              		@ args = 0, pretend = 0, frame = 0
 1146              		@ frame_needed = 0, uses_anonymous_args = 0
 1147              		@ link register save eliminated.
  40:../Bsp/OLED/GUISlim.c ****   const GUI_FONT GUI_UNI_PTR* pOldFont = GUI_Context.pAFont;
 1148              		.loc 1 40 80 is_stmt 0 view .LVU334
 1149 0000 0346     		mov	r3, r0
  41:../Bsp/OLED/GUISlim.c ****   GUI_LOCK();
 1150              		.loc 1 41 3 is_stmt 1 view .LVU335
  41:../Bsp/OLED/GUISlim.c ****   GUI_LOCK();
 1151              		.loc 1 41 31 is_stmt 0 view .LVU336
 1152 0002 034A     		ldr	r2, .L88
 1153 0004 1069     		ldr	r0, [r2, #16]
 1154              	.LVL110:
  42:../Bsp/OLED/GUISlim.c ****   if (pNewFont)
 1155              		.loc 1 42 13 is_stmt 1 view .LVU337
  43:../Bsp/OLED/GUISlim.c ****     GUI_Context.pAFont = pNewFont;
 1156              		.loc 1 43 3 view .LVU338
  43:../Bsp/OLED/GUISlim.c ****     GUI_Context.pAFont = pNewFont;
 1157              		.loc 1 43 6 is_stmt 0 view .LVU339
 1158 0006 1A46     		mov	r2, r3
 1159 0008 0BB1     		cbz	r3, .L86
  44:../Bsp/OLED/GUISlim.c ****   GUI_UNLOCK();
 1160              		.loc 1 44 5 is_stmt 1 view .LVU340
  44:../Bsp/OLED/GUISlim.c ****   GUI_UNLOCK();
 1161              		.loc 1 44 24 is_stmt 0 view .LVU341
 1162 000a 014B     		ldr	r3, .L88
 1163              	.LVL111:
  44:../Bsp/OLED/GUISlim.c ****   GUI_UNLOCK();
 1164              		.loc 1 44 24 view .LVU342
 1165 000c 1A61     		str	r2, [r3, #16]
  45:../Bsp/OLED/GUISlim.c ****   return pOldFont;
 1166              		.loc 1 45 15 is_stmt 1 view .LVU343
  46:../Bsp/OLED/GUISlim.c **** }
 1167              		.loc 1 46 3 view .LVU344
 1168              	.L86:
  47:../Bsp/OLED/GUISlim.c **** const GUI_FONT GUI_UNI_PTR* GUI_GetFont(void) {
 1169              		.loc 1 47 1 is_stmt 0 view .LVU345
ARM GAS  C:\Users\fish\AppData\Local\Temp\cc4JAs8f.s 			page 37


 1170 000e 7047     		bx	lr
 1171              	.L89:
 1172              		.align	2
 1173              	.L88:
 1174 0010 00000000 		.word	GUI_Context
 1175              		.cfi_endproc
 1176              	.LFE245:
 1178              		.section	.text.GUI_GetFont,"ax",%progbits
 1179              		.align	1
 1180              		.global	GUI_GetFont
 1181              		.syntax unified
 1182              		.thumb
 1183              		.thumb_func
 1185              	GUI_GetFont:
 1186              	.LFB246:
  48:../Bsp/OLED/GUISlim.c ****   const GUI_FONT GUI_UNI_PTR * r;
 1187              		.loc 1 48 47 is_stmt 1 view -0
 1188              		.cfi_startproc
 1189              		@ args = 0, pretend = 0, frame = 0
 1190              		@ frame_needed = 0, uses_anonymous_args = 0
 1191              		@ link register save eliminated.
  49:../Bsp/OLED/GUISlim.c ****   GUI_LOCK();
 1192              		.loc 1 49 3 view .LVU347
  50:../Bsp/OLED/GUISlim.c ****   r = GUI_Context.pAFont;
 1193              		.loc 1 50 13 view .LVU348
  51:../Bsp/OLED/GUISlim.c ****   GUI_UNLOCK();
 1194              		.loc 1 51 3 view .LVU349
 1195              	.LVL112:
  52:../Bsp/OLED/GUISlim.c ****   return r;
 1196              		.loc 1 52 15 view .LVU350
  53:../Bsp/OLED/GUISlim.c **** }
 1197              		.loc 1 53 3 view .LVU351
  54:../Bsp/OLED/GUISlim.c **** 
 1198              		.loc 1 54 1 is_stmt 0 view .LVU352
 1199 0000 014B     		ldr	r3, .L91
 1200 0002 1869     		ldr	r0, [r3, #16]
 1201 0004 7047     		bx	lr
 1202              	.L92:
 1203 0006 00BF     		.align	2
 1204              	.L91:
 1205 0008 00000000 		.word	GUI_Context
 1206              		.cfi_endproc
 1207              	.LFE246:
 1209              		.section	.text.detect_encoding_comprehensive,"ax",%progbits
 1210              		.align	1
 1211              		.global	detect_encoding_comprehensive
 1212              		.syntax unified
 1213              		.thumb
 1214              		.thumb_func
 1216              	detect_encoding_comprehensive:
 1217              	.LVL113:
 1218              	.LFB251:
 144:../Bsp/OLED/GUISlim.c ****     if (!str) return -1;
 1219              		.loc 1 144 52 is_stmt 1 view -0
 1220              		.cfi_startproc
 1221              		@ args = 0, pretend = 0, frame = 32
 1222              		@ frame_needed = 0, uses_anonymous_args = 0
ARM GAS  C:\Users\fish\AppData\Local\Temp\cc4JAs8f.s 			page 38


 145:../Bsp/OLED/GUISlim.c ****     
 1223              		.loc 1 145 5 view .LVU354
 145:../Bsp/OLED/GUISlim.c ****     
 1224              		.loc 1 145 8 is_stmt 0 view .LVU355
 1225 0000 0028     		cmp	r0, #0
 1226 0002 00F0BB80 		beq	.L113
 144:../Bsp/OLED/GUISlim.c ****     if (!str) return -1;
 1227              		.loc 1 144 52 view .LVU356
 1228 0006 2DE9F04F 		push	{r4, r5, r6, r7, r8, r9, r10, fp, lr}
 1229              		.cfi_def_cfa_offset 36
 1230              		.cfi_offset 4, -36
 1231              		.cfi_offset 5, -32
 1232              		.cfi_offset 6, -28
 1233              		.cfi_offset 7, -24
 1234              		.cfi_offset 8, -20
 1235              		.cfi_offset 9, -16
 1236              		.cfi_offset 10, -12
 1237              		.cfi_offset 11, -8
 1238              		.cfi_offset 14, -4
 1239 000a 89B0     		sub	sp, sp, #36
 1240              		.cfi_def_cfa_offset 72
 1241 000c 0546     		mov	r5, r0
 147:../Bsp/OLED/GUISlim.c ****     size_t len = strlen((const char*)s);
 1242              		.loc 1 147 5 is_stmt 1 view .LVU357
 1243              	.LVL114:
 148:../Bsp/OLED/GUISlim.c ****     if (len == 0) return 0;
 1244              		.loc 1 148 5 view .LVU358
 148:../Bsp/OLED/GUISlim.c ****     if (len == 0) return 0;
 1245              		.loc 1 148 18 is_stmt 0 view .LVU359
 1246 000e FFF7FEFF 		bl	strlen
 1247              	.LVL115:
 149:../Bsp/OLED/GUISlim.c ****     
 1248              		.loc 1 149 5 is_stmt 1 view .LVU360
 149:../Bsp/OLED/GUISlim.c ****     
 1249              		.loc 1 149 8 is_stmt 0 view .LVU361
 1250 0012 0746     		mov	r7, r0
 1251 0014 0028     		cmp	r0, #0
 1252 0016 00F0B480 		beq	.L114
 151:../Bsp/OLED/GUISlim.c ****     int utf8_score = 0;
 1253              		.loc 1 151 5 is_stmt 1 view .LVU362
 151:../Bsp/OLED/GUISlim.c ****     int utf8_score = 0;
 1254              		.loc 1 151 19 is_stmt 0 view .LVU363
 1255 001a 0023     		movs	r3, #0
 1256 001c 0293     		str	r3, [sp, #8]
 1257 001e 0393     		str	r3, [sp, #12]
 1258 0020 0493     		str	r3, [sp, #16]
 1259 0022 0593     		str	r3, [sp, #20]
 1260 0024 0693     		str	r3, [sp, #24]
 1261 0026 0793     		str	r3, [sp, #28]
 152:../Bsp/OLED/GUISlim.c ****     int gbk_score = 0;
 1262              		.loc 1 152 5 is_stmt 1 view .LVU364
 1263              	.LVL116:
 153:../Bsp/OLED/GUISlim.c ****     
 1264              		.loc 1 153 5 view .LVU365
 155:../Bsp/OLED/GUISlim.c ****     while (i < len) {
 1265              		.loc 1 155 5 view .LVU366
 156:../Bsp/OLED/GUISlim.c ****         if (s[i] <= 0x7F) {
ARM GAS  C:\Users\fish\AppData\Local\Temp\cc4JAs8f.s 			page 39


 1266              		.loc 1 156 5 view .LVU367
 155:../Bsp/OLED/GUISlim.c ****     while (i < len) {
 1267              		.loc 1 155 12 is_stmt 0 view .LVU368
 1268 0028 1C46     		mov	r4, r3
 153:../Bsp/OLED/GUISlim.c ****     
 1269              		.loc 1 153 9 view .LVU369
 1270 002a 9946     		mov	r9, r3
 152:../Bsp/OLED/GUISlim.c ****     int gbk_score = 0;
 1271              		.loc 1 152 9 view .LVU370
 1272 002c 9846     		mov	r8, r3
 1273              	.LVL117:
 1274              	.L95:
 156:../Bsp/OLED/GUISlim.c ****         if (s[i] <= 0x7F) {
 1275              		.loc 1 156 14 is_stmt 1 view .LVU371
 1276 002e BC42     		cmp	r4, r7
 1277 0030 64D2     		bcs	.L131
 1278              	.LBB15:
 157:../Bsp/OLED/GUISlim.c ****             stats.ascii_count++;
 1279              		.loc 1 157 9 view .LVU372
 157:../Bsp/OLED/GUISlim.c ****             stats.ascii_count++;
 1280              		.loc 1 157 14 is_stmt 0 view .LVU373
 1281 0032 05EB040A 		add	r10, r5, r4
 157:../Bsp/OLED/GUISlim.c ****             stats.ascii_count++;
 1282              		.loc 1 157 18 view .LVU374
 1283 0036 2B57     		ldrsb	r3, [r5, r4]
 157:../Bsp/OLED/GUISlim.c ****             stats.ascii_count++;
 1284              		.loc 1 157 12 view .LVU375
 1285 0038 002B     		cmp	r3, #0
 1286 003a 04DB     		blt	.L96
 158:../Bsp/OLED/GUISlim.c ****             i++;
 1287              		.loc 1 158 13 is_stmt 1 view .LVU376
 158:../Bsp/OLED/GUISlim.c ****             i++;
 1288              		.loc 1 158 18 is_stmt 0 view .LVU377
 1289 003c 079B     		ldr	r3, [sp, #28]
 158:../Bsp/OLED/GUISlim.c ****             i++;
 1290              		.loc 1 158 30 view .LVU378
 1291 003e 0133     		adds	r3, r3, #1
 1292 0040 0793     		str	r3, [sp, #28]
 159:../Bsp/OLED/GUISlim.c ****             continue;
 1293              		.loc 1 159 13 is_stmt 1 view .LVU379
 159:../Bsp/OLED/GUISlim.c ****             continue;
 1294              		.loc 1 159 14 is_stmt 0 view .LVU380
 1295 0042 0134     		adds	r4, r4, #1
 1296              	.LVL118:
 160:../Bsp/OLED/GUISlim.c ****         }
 1297              		.loc 1 160 13 is_stmt 1 view .LVU381
 1298 0044 F3E7     		b	.L95
 1299              	.L96:
 163:../Bsp/OLED/GUISlim.c ****         size_t gbk_consumed = 1;
 1300              		.loc 1 163 9 view .LVU382
 163:../Bsp/OLED/GUISlim.c ****         size_t gbk_consumed = 1;
 1301              		.loc 1 163 16 is_stmt 0 view .LVU383
 1302 0046 0123     		movs	r3, #1
 1303 0048 0093     		str	r3, [sp]
 164:../Bsp/OLED/GUISlim.c ****         int is_utf8 = is_valid_utf8_sequence(s + i, len - i, &utf8_consumed);
 1304              		.loc 1 164 9 is_stmt 1 view .LVU384
 164:../Bsp/OLED/GUISlim.c ****         int is_utf8 = is_valid_utf8_sequence(s + i, len - i, &utf8_consumed);
ARM GAS  C:\Users\fish\AppData\Local\Temp\cc4JAs8f.s 			page 40


 1305              		.loc 1 164 16 is_stmt 0 view .LVU385
 1306 004a 0193     		str	r3, [sp, #4]
 165:../Bsp/OLED/GUISlim.c ****         int is_gbk = is_valid_gbk_sequence(s + i, len - i, &gbk_consumed);
 1307              		.loc 1 165 9 is_stmt 1 view .LVU386
 165:../Bsp/OLED/GUISlim.c ****         int is_gbk = is_valid_gbk_sequence(s + i, len - i, &gbk_consumed);
 1308              		.loc 1 165 23 is_stmt 0 view .LVU387
 1309 004c 3E1B     		subs	r6, r7, r4
 1310 004e 6A46     		mov	r2, sp
 1311 0050 3146     		mov	r1, r6
 1312 0052 5046     		mov	r0, r10
 1313 0054 FFF7FEFF 		bl	is_valid_utf8_sequence
 1314              	.LVL119:
 1315 0058 8346     		mov	fp, r0
 1316              	.LVL120:
 166:../Bsp/OLED/GUISlim.c ****         
 1317              		.loc 1 166 9 is_stmt 1 view .LVU388
 166:../Bsp/OLED/GUISlim.c ****         
 1318              		.loc 1 166 22 is_stmt 0 view .LVU389
 1319 005a 01AA     		add	r2, sp, #4
 1320 005c 3146     		mov	r1, r6
 1321 005e 5046     		mov	r0, r10
 1322              	.LVL121:
 166:../Bsp/OLED/GUISlim.c ****         
 1323              		.loc 1 166 22 view .LVU390
 1324 0060 FFF7FEFF 		bl	is_valid_gbk_sequence
 1325              	.LVL122:
 168:../Bsp/OLED/GUISlim.c ****                         stats.both_valid++;
 1326              		.loc 1 168 9 is_stmt 1 view .LVU391
 168:../Bsp/OLED/GUISlim.c ****                         stats.both_valid++;
 1327              		.loc 1 168 12 is_stmt 0 view .LVU392
 1328 0064 BBF1010F 		cmp	fp, #1
 1329 0068 0ED0     		beq	.L132
 182:../Bsp/OLED/GUISlim.c ****                         stats.gbk_only++;
 1330              		.loc 1 182 14 is_stmt 1 view .LVU393
 182:../Bsp/OLED/GUISlim.c ****                         stats.gbk_only++;
 1331              		.loc 1 182 17 is_stmt 0 view .LVU394
 1332 006a 0128     		cmp	r0, #1
 1333 006c 2ED0     		beq	.L133
 186:../Bsp/OLED/GUISlim.c ****                         stats.utf8_invalid++;
 1334              		.loc 1 186 14 is_stmt 1 view .LVU395
 186:../Bsp/OLED/GUISlim.c ****                         stats.utf8_invalid++;
 1335              		.loc 1 186 17 is_stmt 0 view .LVU396
 1336 006e BBF1000F 		cmp	fp, #0
 1337 0072 3BD1     		bne	.L103
 186:../Bsp/OLED/GUISlim.c ****                         stats.utf8_invalid++;
 1338              		.loc 1 186 31 discriminator 1 view .LVU397
 1339 0074 0028     		cmp	r0, #0
 1340 0076 34D1     		bne	.L104
 187:../Bsp/OLED/GUISlim.c ****             stats.gbk_invalid++;
 1341              		.loc 1 187 25 is_stmt 1 view .LVU398
 187:../Bsp/OLED/GUISlim.c ****             stats.gbk_invalid++;
 1342              		.loc 1 187 30 is_stmt 0 view .LVU399
 1343 0078 059B     		ldr	r3, [sp, #20]
 187:../Bsp/OLED/GUISlim.c ****             stats.gbk_invalid++;
 1344              		.loc 1 187 43 view .LVU400
 1345 007a 0133     		adds	r3, r3, #1
 1346 007c 0593     		str	r3, [sp, #20]
ARM GAS  C:\Users\fish\AppData\Local\Temp\cc4JAs8f.s 			page 41


 188:../Bsp/OLED/GUISlim.c ****             i++;
 1347              		.loc 1 188 13 is_stmt 1 view .LVU401
 188:../Bsp/OLED/GUISlim.c ****             i++;
 1348              		.loc 1 188 18 is_stmt 0 view .LVU402
 1349 007e 069B     		ldr	r3, [sp, #24]
 188:../Bsp/OLED/GUISlim.c ****             i++;
 1350              		.loc 1 188 30 view .LVU403
 1351 0080 0133     		adds	r3, r3, #1
 1352 0082 0693     		str	r3, [sp, #24]
 189:../Bsp/OLED/GUISlim.c ****         }
 1353              		.loc 1 189 13 is_stmt 1 view .LVU404
 189:../Bsp/OLED/GUISlim.c ****         }
 1354              		.loc 1 189 14 is_stmt 0 view .LVU405
 1355 0084 0134     		adds	r4, r4, #1
 1356              	.LVL123:
 189:../Bsp/OLED/GUISlim.c ****         }
 1357              		.loc 1 189 14 view .LVU406
 1358 0086 D2E7     		b	.L95
 1359              	.L132:
 168:../Bsp/OLED/GUISlim.c ****                         stats.both_valid++;
 1360              		.loc 1 168 26 discriminator 1 view .LVU407
 1361 0088 0128     		cmp	r0, #1
 1362 008a 07D0     		beq	.L134
 178:../Bsp/OLED/GUISlim.c ****                         stats.utf8_only++;
 1363              		.loc 1 178 14 is_stmt 1 view .LVU408
 179:../Bsp/OLED/GUISlim.c ****             utf8_score += 4;             i += utf8_consumed;
 1364              		.loc 1 179 25 view .LVU409
 179:../Bsp/OLED/GUISlim.c ****             utf8_score += 4;             i += utf8_consumed;
 1365              		.loc 1 179 30 is_stmt 0 view .LVU410
 1366 008c 029B     		ldr	r3, [sp, #8]
 179:../Bsp/OLED/GUISlim.c ****             utf8_score += 4;             i += utf8_consumed;
 1367              		.loc 1 179 40 view .LVU411
 1368 008e 0133     		adds	r3, r3, #1
 1369 0090 0293     		str	r3, [sp, #8]
 180:../Bsp/OLED/GUISlim.c ****         }
 1370              		.loc 1 180 13 is_stmt 1 view .LVU412
 180:../Bsp/OLED/GUISlim.c ****         }
 1371              		.loc 1 180 24 is_stmt 0 view .LVU413
 1372 0092 08F10408 		add	r8, r8, #4
 1373              	.LVL124:
 180:../Bsp/OLED/GUISlim.c ****         }
 1374              		.loc 1 180 42 is_stmt 1 view .LVU414
 180:../Bsp/OLED/GUISlim.c ****         }
 1375              		.loc 1 180 44 is_stmt 0 view .LVU415
 1376 0096 009B     		ldr	r3, [sp]
 1377 0098 1C44     		add	r4, r4, r3
 1378              	.LVL125:
 180:../Bsp/OLED/GUISlim.c ****         }
 1379              		.loc 1 180 44 view .LVU416
 1380 009a C8E7     		b	.L95
 1381              	.L134:
 1382              	.LBB16:
 169:../Bsp/OLED/GUISlim.c ****                         int utf8_freq = get_utf8_char_frequency_score(s + i, utf8_consumed);
 1383              		.loc 1 169 25 is_stmt 1 view .LVU417
 169:../Bsp/OLED/GUISlim.c ****                         int utf8_freq = get_utf8_char_frequency_score(s + i, utf8_consumed);
 1384              		.loc 1 169 30 is_stmt 0 view .LVU418
 1385 009c 049B     		ldr	r3, [sp, #16]
ARM GAS  C:\Users\fish\AppData\Local\Temp\cc4JAs8f.s 			page 42


 169:../Bsp/OLED/GUISlim.c ****                         int utf8_freq = get_utf8_char_frequency_score(s + i, utf8_consumed);
 1386              		.loc 1 169 41 view .LVU419
 1387 009e 0133     		adds	r3, r3, #1
 1388 00a0 0493     		str	r3, [sp, #16]
 170:../Bsp/OLED/GUISlim.c ****             int gbk_freq = get_gbk_char_frequency_score(s + i);
 1389              		.loc 1 170 25 is_stmt 1 view .LVU420
 170:../Bsp/OLED/GUISlim.c ****             int gbk_freq = get_gbk_char_frequency_score(s + i);
 1390              		.loc 1 170 41 is_stmt 0 view .LVU421
 1391 00a2 009E     		ldr	r6, [sp]
 1392 00a4 3146     		mov	r1, r6
 1393 00a6 5046     		mov	r0, r10
 1394              	.LVL126:
 170:../Bsp/OLED/GUISlim.c ****             int gbk_freq = get_gbk_char_frequency_score(s + i);
 1395              		.loc 1 170 41 view .LVU422
 1396 00a8 FFF7FEFF 		bl	get_utf8_char_frequency_score
 1397              	.LVL127:
 1398 00ac 8346     		mov	fp, r0
 1399              	.LVL128:
 171:../Bsp/OLED/GUISlim.c ****             utf8_score += utf8_freq;
 1400              		.loc 1 171 13 is_stmt 1 view .LVU423
 171:../Bsp/OLED/GUISlim.c ****             utf8_score += utf8_freq;
 1401              		.loc 1 171 28 is_stmt 0 view .LVU424
 1402 00ae 5046     		mov	r0, r10
 1403              	.LVL129:
 171:../Bsp/OLED/GUISlim.c ****             utf8_score += utf8_freq;
 1404              		.loc 1 171 28 view .LVU425
 1405 00b0 FFF7FEFF 		bl	get_gbk_char_frequency_score
 1406              	.LVL130:
 172:../Bsp/OLED/GUISlim.c ****             gbk_score += gbk_freq;
 1407              		.loc 1 172 13 is_stmt 1 view .LVU426
 172:../Bsp/OLED/GUISlim.c ****             gbk_score += gbk_freq;
 1408              		.loc 1 172 24 is_stmt 0 view .LVU427
 1409 00b4 D844     		add	r8, r8, fp
 1410              	.LVL131:
 173:../Bsp/OLED/GUISlim.c ****                         if (utf8_consumed == 3 && gbk_consumed == 2) {
 1411              		.loc 1 173 13 is_stmt 1 view .LVU428
 173:../Bsp/OLED/GUISlim.c ****                         if (utf8_consumed == 3 && gbk_consumed == 2) {
 1412              		.loc 1 173 23 is_stmt 0 view .LVU429
 1413 00b6 8144     		add	r9, r9, r0
 1414              	.LVL132:
 174:../Bsp/OLED/GUISlim.c ****                 utf8_score += 2;             }
 1415              		.loc 1 174 25 is_stmt 1 view .LVU430
 174:../Bsp/OLED/GUISlim.c ****                 utf8_score += 2;             }
 1416              		.loc 1 174 28 is_stmt 0 view .LVU431
 1417 00b8 032E     		cmp	r6, #3
 1418 00ba 01D0     		beq	.L135
 1419              	.LVL133:
 1420              	.L100:
 176:../Bsp/OLED/GUISlim.c ****         }
 1421              		.loc 1 176 13 is_stmt 1 view .LVU432
 176:../Bsp/OLED/GUISlim.c ****         }
 1422              		.loc 1 176 15 is_stmt 0 view .LVU433
 1423 00bc 3444     		add	r4, r4, r6
 1424              	.LVL134:
 176:../Bsp/OLED/GUISlim.c ****         }
 1425              		.loc 1 176 15 view .LVU434
 1426              	.LBE16:
ARM GAS  C:\Users\fish\AppData\Local\Temp\cc4JAs8f.s 			page 43


 168:../Bsp/OLED/GUISlim.c ****                         stats.both_valid++;
 1427              		.loc 1 168 42 view .LVU435
 1428 00be B6E7     		b	.L95
 1429              	.L135:
 1430              	.LBB17:
 174:../Bsp/OLED/GUISlim.c ****                 utf8_score += 2;             }
 1431              		.loc 1 174 64 discriminator 1 view .LVU436
 1432 00c0 019B     		ldr	r3, [sp, #4]
 174:../Bsp/OLED/GUISlim.c ****                 utf8_score += 2;             }
 1433              		.loc 1 174 48 discriminator 1 view .LVU437
 1434 00c2 022B     		cmp	r3, #2
 1435 00c4 FAD1     		bne	.L100
 175:../Bsp/OLED/GUISlim.c ****             i += utf8_consumed;
 1436              		.loc 1 175 17 is_stmt 1 view .LVU438
 175:../Bsp/OLED/GUISlim.c ****             i += utf8_consumed;
 1437              		.loc 1 175 28 is_stmt 0 view .LVU439
 1438 00c6 08F10208 		add	r8, r8, #2
 1439              	.LVL135:
 175:../Bsp/OLED/GUISlim.c ****             i += utf8_consumed;
 1440              		.loc 1 175 28 view .LVU440
 1441 00ca F7E7     		b	.L100
 1442              	.LVL136:
 1443              	.L133:
 175:../Bsp/OLED/GUISlim.c ****             i += utf8_consumed;
 1444              		.loc 1 175 28 view .LVU441
 1445              	.LBE17:
 182:../Bsp/OLED/GUISlim.c ****                         stats.gbk_only++;
 1446              		.loc 1 182 30 discriminator 1 view .LVU442
 1447 00cc BBF1010F 		cmp	fp, #1
 1448 00d0 0CD0     		beq	.L103
 183:../Bsp/OLED/GUISlim.c ****             gbk_score += 4;             i += gbk_consumed;
 1449              		.loc 1 183 25 is_stmt 1 view .LVU443
 183:../Bsp/OLED/GUISlim.c ****             gbk_score += 4;             i += gbk_consumed;
 1450              		.loc 1 183 30 is_stmt 0 view .LVU444
 1451 00d2 039B     		ldr	r3, [sp, #12]
 183:../Bsp/OLED/GUISlim.c ****             gbk_score += 4;             i += gbk_consumed;
 1452              		.loc 1 183 39 view .LVU445
 1453 00d4 0133     		adds	r3, r3, #1
 1454 00d6 0393     		str	r3, [sp, #12]
 184:../Bsp/OLED/GUISlim.c ****         }
 1455              		.loc 1 184 13 is_stmt 1 view .LVU446
 184:../Bsp/OLED/GUISlim.c ****         }
 1456              		.loc 1 184 23 is_stmt 0 view .LVU447
 1457 00d8 09F10409 		add	r9, r9, #4
 1458              	.LVL137:
 184:../Bsp/OLED/GUISlim.c ****         }
 1459              		.loc 1 184 41 is_stmt 1 view .LVU448
 184:../Bsp/OLED/GUISlim.c ****         }
 1460              		.loc 1 184 43 is_stmt 0 view .LVU449
 1461 00dc 019B     		ldr	r3, [sp, #4]
 1462 00de 1C44     		add	r4, r4, r3
 1463              	.LVL138:
 184:../Bsp/OLED/GUISlim.c ****         }
 1464              		.loc 1 184 43 view .LVU450
 1465 00e0 A5E7     		b	.L95
 1466              	.L104:
 191:../Bsp/OLED/GUISlim.c ****             stats.utf8_invalid++;
ARM GAS  C:\Users\fish\AppData\Local\Temp\cc4JAs8f.s 			page 44


 1467              		.loc 1 191 14 is_stmt 1 view .LVU451
 192:../Bsp/OLED/GUISlim.c ****             i++;
 1468              		.loc 1 192 13 view .LVU452
 192:../Bsp/OLED/GUISlim.c ****             i++;
 1469              		.loc 1 192 18 is_stmt 0 view .LVU453
 1470 00e2 059B     		ldr	r3, [sp, #20]
 192:../Bsp/OLED/GUISlim.c ****             i++;
 1471              		.loc 1 192 31 view .LVU454
 1472 00e4 0133     		adds	r3, r3, #1
 1473 00e6 0593     		str	r3, [sp, #20]
 193:../Bsp/OLED/GUISlim.c ****         }
 1474              		.loc 1 193 13 is_stmt 1 view .LVU455
 193:../Bsp/OLED/GUISlim.c ****         }
 1475              		.loc 1 193 14 is_stmt 0 view .LVU456
 1476 00e8 0134     		adds	r4, r4, #1
 1477              	.LVL139:
 193:../Bsp/OLED/GUISlim.c ****         }
 1478              		.loc 1 193 14 view .LVU457
 1479 00ea A0E7     		b	.L95
 1480              	.L103:
 195:../Bsp/OLED/GUISlim.c ****             stats.gbk_invalid++;
 1481              		.loc 1 195 14 is_stmt 1 view .LVU458
 195:../Bsp/OLED/GUISlim.c ****             stats.gbk_invalid++;
 1482              		.loc 1 195 17 is_stmt 0 view .LVU459
 1483 00ec 20B9     		cbnz	r0, .L105
 196:../Bsp/OLED/GUISlim.c ****             i++;
 1484              		.loc 1 196 13 is_stmt 1 view .LVU460
 196:../Bsp/OLED/GUISlim.c ****             i++;
 1485              		.loc 1 196 18 is_stmt 0 view .LVU461
 1486 00ee 069B     		ldr	r3, [sp, #24]
 196:../Bsp/OLED/GUISlim.c ****             i++;
 1487              		.loc 1 196 30 view .LVU462
 1488 00f0 0133     		adds	r3, r3, #1
 1489 00f2 0693     		str	r3, [sp, #24]
 197:../Bsp/OLED/GUISlim.c ****         }
 1490              		.loc 1 197 13 is_stmt 1 view .LVU463
 197:../Bsp/OLED/GUISlim.c ****         }
 1491              		.loc 1 197 14 is_stmt 0 view .LVU464
 1492 00f4 0134     		adds	r4, r4, #1
 1493              	.LVL140:
 197:../Bsp/OLED/GUISlim.c ****         }
 1494              		.loc 1 197 14 view .LVU465
 1495 00f6 9AE7     		b	.L95
 1496              	.L105:
 200:../Bsp/OLED/GUISlim.c ****         }
 1497              		.loc 1 200 13 is_stmt 1 view .LVU466
 200:../Bsp/OLED/GUISlim.c ****         }
 1498              		.loc 1 200 14 is_stmt 0 view .LVU467
 1499 00f8 0134     		adds	r4, r4, #1
 1500              	.LVL141:
 200:../Bsp/OLED/GUISlim.c ****         }
 1501              		.loc 1 200 14 view .LVU468
 1502 00fa 98E7     		b	.L95
 1503              	.LVL142:
 1504              	.L131:
 200:../Bsp/OLED/GUISlim.c ****         }
 1505              		.loc 1 200 14 view .LVU469
ARM GAS  C:\Users\fish\AppData\Local\Temp\cc4JAs8f.s 			page 45


 1506              	.LBE15:
 204:../Bsp/OLED/GUISlim.c ****     if (non_ascii == 0) {
 1507              		.loc 1 204 5 is_stmt 1 view .LVU470
 204:../Bsp/OLED/GUISlim.c ****     if (non_ascii == 0) {
 1508              		.loc 1 204 26 is_stmt 0 view .LVU471
 1509 00fc 029A     		ldr	r2, [sp, #8]
 204:../Bsp/OLED/GUISlim.c ****     if (non_ascii == 0) {
 1510              		.loc 1 204 44 view .LVU472
 1511 00fe 0399     		ldr	r1, [sp, #12]
 204:../Bsp/OLED/GUISlim.c ****     if (non_ascii == 0) {
 1512              		.loc 1 204 37 view .LVU473
 1513 0100 5018     		adds	r0, r2, r1
 204:../Bsp/OLED/GUISlim.c ****     if (non_ascii == 0) {
 1514              		.loc 1 204 61 view .LVU474
 1515 0102 049B     		ldr	r3, [sp, #16]
 1516              	.LVL143:
 205:../Bsp/OLED/GUISlim.c ****         return 0;     }
 1517              		.loc 1 205 5 is_stmt 1 view .LVU475
 205:../Bsp/OLED/GUISlim.c ****         return 0;     }
 1518              		.loc 1 205 8 is_stmt 0 view .LVU476
 1519 0104 C018     		adds	r0, r0, r3
 1520              	.LVL144:
 205:../Bsp/OLED/GUISlim.c ****         return 0;     }
 1521              		.loc 1 205 8 view .LVU477
 1522 0106 3DD0     		beq	.L93
 208:../Bsp/OLED/GUISlim.c ****         return 1;     }
 1523              		.loc 1 208 9 is_stmt 1 view .LVU478
 208:../Bsp/OLED/GUISlim.c ****         return 1;     }
 1524              		.loc 1 208 12 is_stmt 0 view .LVU479
 1525 0108 002A     		cmp	r2, #0
 1526 010a 03DD     		ble	.L107
 208:../Bsp/OLED/GUISlim.c ****         return 1;     }
 1527              		.loc 1 208 33 discriminator 1 view .LVU480
 1528 010c 069D     		ldr	r5, [sp, #24]
 1529              	.LVL145:
 208:../Bsp/OLED/GUISlim.c ****         return 1;     }
 1530              		.loc 1 208 33 discriminator 1 view .LVU481
 1531 010e 059C     		ldr	r4, [sp, #20]
 1532              	.LVL146:
 208:../Bsp/OLED/GUISlim.c ****         return 1;     }
 1533              		.loc 1 208 33 discriminator 1 view .LVU482
 1534 0110 A542     		cmp	r5, r4
 1535 0112 3ADC     		bgt	.L115
 1536              	.L107:
 210:../Bsp/OLED/GUISlim.c ****         return 2;     }
 1537              		.loc 1 210 5 is_stmt 1 view .LVU483
 210:../Bsp/OLED/GUISlim.c ****         return 2;     }
 1538              		.loc 1 210 8 is_stmt 0 view .LVU484
 1539 0114 0029     		cmp	r1, #0
 1540 0116 03DD     		ble	.L108
 210:../Bsp/OLED/GUISlim.c ****         return 2;     }
 1541              		.loc 1 210 28 discriminator 1 view .LVU485
 1542 0118 059D     		ldr	r5, [sp, #20]
 1543 011a 069C     		ldr	r4, [sp, #24]
 1544 011c A542     		cmp	r5, r4
 1545 011e 36DC     		bgt	.L116
 1546              	.L108:
ARM GAS  C:\Users\fish\AppData\Local\Temp\cc4JAs8f.s 			page 46


 212:../Bsp/OLED/GUISlim.c ****                 if (utf8_score > gbk_score) {
 1547              		.loc 1 212 9 is_stmt 1 view .LVU486
 212:../Bsp/OLED/GUISlim.c ****                 if (utf8_score > gbk_score) {
 1548              		.loc 1 212 12 is_stmt 0 view .LVU487
 1549 0120 002B     		cmp	r3, #0
 1550 0122 08DD     		ble	.L109
 212:../Bsp/OLED/GUISlim.c ****                 if (utf8_score > gbk_score) {
 1551              		.loc 1 212 34 discriminator 1 view .LVU488
 1552 0124 3AB9     		cbnz	r2, .L109
 212:../Bsp/OLED/GUISlim.c ****                 if (utf8_score > gbk_score) {
 1553              		.loc 1 212 58 discriminator 2 view .LVU489
 1554 0126 31B9     		cbnz	r1, .L109
 213:../Bsp/OLED/GUISlim.c ****             return 1;
 1555              		.loc 1 213 17 is_stmt 1 view .LVU490
 213:../Bsp/OLED/GUISlim.c ****             return 1;
 1556              		.loc 1 213 20 is_stmt 0 view .LVU491
 1557 0128 C845     		cmp	r8, r9
 1558 012a 32DC     		bgt	.L117
 215:../Bsp/OLED/GUISlim.c ****             return 2;
 1559              		.loc 1 215 16 is_stmt 1 view .LVU492
 215:../Bsp/OLED/GUISlim.c ****             return 2;
 1560              		.loc 1 215 19 is_stmt 0 view .LVU493
 1561 012c 01DB     		blt	.L136
 218:../Bsp/OLED/GUISlim.c ****         if (stats.utf8_only > 0 && stats.gbk_only > 0) {
 1562              		.loc 1 218 24 view .LVU494
 1563 012e 0120     		movs	r0, #1
 1564              	.LVL147:
 218:../Bsp/OLED/GUISlim.c ****         if (stats.utf8_only > 0 && stats.gbk_only > 0) {
 1565              		.loc 1 218 24 view .LVU495
 1566 0130 28E0     		b	.L93
 1567              	.LVL148:
 1568              	.L136:
 216:../Bsp/OLED/GUISlim.c ****         }
 1569              		.loc 1 216 20 view .LVU496
 1570 0132 0220     		movs	r0, #2
 1571              	.LVL149:
 216:../Bsp/OLED/GUISlim.c ****         }
 1572              		.loc 1 216 20 view .LVU497
 1573 0134 26E0     		b	.L93
 1574              	.LVL150:
 1575              	.L109:
 219:../Bsp/OLED/GUISlim.c ****                 int mixed_threshold = non_ascii / 5;
 1576              		.loc 1 219 9 is_stmt 1 view .LVU498
 219:../Bsp/OLED/GUISlim.c ****                 int mixed_threshold = non_ascii / 5;
 1577              		.loc 1 219 12 is_stmt 0 view .LVU499
 1578 0136 002A     		cmp	r2, #0
 1579 0138 17DD     		ble	.L110
 219:../Bsp/OLED/GUISlim.c ****                 int mixed_threshold = non_ascii / 5;
 1580              		.loc 1 219 33 discriminator 1 view .LVU500
 1581 013a 0029     		cmp	r1, #0
 1582 013c 15DD     		ble	.L110
 1583              	.LBB18:
 220:../Bsp/OLED/GUISlim.c ****         if (stats.utf8_only > mixed_threshold && stats.gbk_only > mixed_threshold) {
 1584              		.loc 1 220 17 is_stmt 1 view .LVU501
 220:../Bsp/OLED/GUISlim.c ****         if (stats.utf8_only > mixed_threshold && stats.gbk_only > mixed_threshold) {
 1585              		.loc 1 220 21 is_stmt 0 view .LVU502
 1586 013e 1D4C     		ldr	r4, .L137
ARM GAS  C:\Users\fish\AppData\Local\Temp\cc4JAs8f.s 			page 47


 1587 0140 84FB0034 		smull	r3, r4, r4, r0
 1588 0144 C317     		asrs	r3, r0, #31
 1589 0146 C3EB6403 		rsb	r3, r3, r4, asr #1
 1590              	.LVL151:
 221:../Bsp/OLED/GUISlim.c ****             return 3;         }
 1591              		.loc 1 221 9 is_stmt 1 view .LVU503
 221:../Bsp/OLED/GUISlim.c ****             return 3;         }
 1592              		.loc 1 221 12 is_stmt 0 view .LVU504
 1593 014a 9A42     		cmp	r2, r3
 1594 014c 01DD     		ble	.L111
 221:../Bsp/OLED/GUISlim.c ****             return 3;         }
 1595              		.loc 1 221 47 discriminator 1 view .LVU505
 1596 014e 9942     		cmp	r1, r3
 1597 0150 21DC     		bgt	.L119
 1598              	.L111:
 223:../Bsp/OLED/GUISlim.c ****             return 1;
 1599              		.loc 1 223 17 is_stmt 1 view .LVU506
 223:../Bsp/OLED/GUISlim.c ****             return 1;
 1600              		.loc 1 223 20 is_stmt 0 view .LVU507
 1601 0152 B2EB410F 		cmp	r2, r1, lsl #1
 1602 0156 20DC     		bgt	.L120
 225:../Bsp/OLED/GUISlim.c ****             return 2;
 1603              		.loc 1 225 16 is_stmt 1 view .LVU508
 225:../Bsp/OLED/GUISlim.c ****             return 2;
 1604              		.loc 1 225 19 is_stmt 0 view .LVU509
 1605 0158 B1EB420F 		cmp	r1, r2, lsl #1
 1606 015c 1FDC     		bgt	.L121
 228:../Bsp/OLED/GUISlim.c ****     }
 1607              		.loc 1 228 17 is_stmt 1 view .LVU510
 228:../Bsp/OLED/GUISlim.c ****     }
 1608              		.loc 1 228 53 is_stmt 0 view .LVU511
 1609 015e C845     		cmp	r8, r9
 1610 0160 01DD     		ble	.L122
 228:../Bsp/OLED/GUISlim.c ****     }
 1611              		.loc 1 228 53 discriminator 1 view .LVU512
 1612 0162 0120     		movs	r0, #1
 1613              	.LVL152:
 228:../Bsp/OLED/GUISlim.c ****     }
 1614              		.loc 1 228 53 discriminator 1 view .LVU513
 1615 0164 0EE0     		b	.L93
 1616              	.LVL153:
 1617              	.L122:
 228:../Bsp/OLED/GUISlim.c ****     }
 1618              		.loc 1 228 53 discriminator 2 view .LVU514
 1619 0166 0220     		movs	r0, #2
 1620              	.LVL154:
 228:../Bsp/OLED/GUISlim.c ****     }
 1621              		.loc 1 228 53 view .LVU515
 1622 0168 0CE0     		b	.L93
 1623              	.LVL155:
 1624              	.L110:
 228:../Bsp/OLED/GUISlim.c ****     }
 1625              		.loc 1 228 53 view .LVU516
 1626              	.LBE18:
 230:../Bsp/OLED/GUISlim.c ****         return 1;
 1627              		.loc 1 230 9 is_stmt 1 view .LVU517
 230:../Bsp/OLED/GUISlim.c ****         return 1;
ARM GAS  C:\Users\fish\AppData\Local\Temp\cc4JAs8f.s 			page 48


 1628              		.loc 1 230 12 is_stmt 0 view .LVU518
 1629 016a 002A     		cmp	r2, #0
 1630 016c 19DC     		bgt	.L123
 233:../Bsp/OLED/GUISlim.c ****         return 2;
 1631              		.loc 1 233 5 is_stmt 1 view .LVU519
 233:../Bsp/OLED/GUISlim.c ****         return 2;
 1632              		.loc 1 233 8 is_stmt 0 view .LVU520
 1633 016e 0029     		cmp	r1, #0
 1634 0170 19DC     		bgt	.L124
 236:../Bsp/OLED/GUISlim.c ****         return 1;
 1635              		.loc 1 236 9 is_stmt 1 view .LVU521
 236:../Bsp/OLED/GUISlim.c ****         return 1;
 1636              		.loc 1 236 12 is_stmt 0 view .LVU522
 1637 0172 C845     		cmp	r8, r9
 1638 0174 19DC     		bgt	.L125
 238:../Bsp/OLED/GUISlim.c ****         return 2;
 1639              		.loc 1 238 12 is_stmt 1 view .LVU523
 238:../Bsp/OLED/GUISlim.c ****         return 2;
 1640              		.loc 1 238 15 is_stmt 0 view .LVU524
 1641 0176 1ADB     		blt	.L126
 242:../Bsp/OLED/GUISlim.c **** 
 1642              		.loc 1 242 12 view .LVU525
 1643 0178 0120     		movs	r0, #1
 1644              	.LVL156:
 242:../Bsp/OLED/GUISlim.c **** 
 1645              		.loc 1 242 12 view .LVU526
 1646 017a 03E0     		b	.L93
 1647              	.LVL157:
 1648              	.L113:
 1649              		.cfi_def_cfa_offset 0
 1650              		.cfi_restore 4
 1651              		.cfi_restore 5
 1652              		.cfi_restore 6
 1653              		.cfi_restore 7
 1654              		.cfi_restore 8
 1655              		.cfi_restore 9
 1656              		.cfi_restore 10
 1657              		.cfi_restore 11
 1658              		.cfi_restore 14
 145:../Bsp/OLED/GUISlim.c ****     
 1659              		.loc 1 145 22 discriminator 1 view .LVU527
 1660 017c 4FF0FF30 		mov	r0, #-1
 1661              	.LVL158:
 242:../Bsp/OLED/GUISlim.c **** 
 1662              		.loc 1 242 15 view .LVU528
 1663 0180 7047     		bx	lr
 1664              	.LVL159:
 1665              	.L114:
 1666              		.cfi_def_cfa_offset 72
 1667              		.cfi_offset 4, -36
 1668              		.cfi_offset 5, -32
 1669              		.cfi_offset 6, -28
 1670              		.cfi_offset 7, -24
 1671              		.cfi_offset 8, -20
 1672              		.cfi_offset 9, -16
 1673              		.cfi_offset 10, -12
 1674              		.cfi_offset 11, -8
ARM GAS  C:\Users\fish\AppData\Local\Temp\cc4JAs8f.s 			page 49


 1675              		.cfi_offset 14, -4
 149:../Bsp/OLED/GUISlim.c ****     
 1676              		.loc 1 149 26 discriminator 1 view .LVU529
 1677 0182 0020     		movs	r0, #0
 1678              	.LVL160:
 1679              	.L93:
 242:../Bsp/OLED/GUISlim.c **** 
 1680              		.loc 1 242 15 view .LVU530
 1681 0184 09B0     		add	sp, sp, #36
 1682              		.cfi_remember_state
 1683              		.cfi_def_cfa_offset 36
 1684              		@ sp needed
 1685 0186 BDE8F08F 		pop	{r4, r5, r6, r7, r8, r9, r10, fp, pc}
 1686              	.LVL161:
 1687              	.L115:
 1688              		.cfi_restore_state
 209:../Bsp/OLED/GUISlim.c ****     if (stats.gbk_only > 0 && stats.utf8_invalid > stats.gbk_invalid) {
 1689              		.loc 1 209 16 view .LVU531
 1690 018a 0120     		movs	r0, #1
 1691              	.LVL162:
 209:../Bsp/OLED/GUISlim.c ****     if (stats.gbk_only > 0 && stats.utf8_invalid > stats.gbk_invalid) {
 1692              		.loc 1 209 16 view .LVU532
 1693 018c FAE7     		b	.L93
 1694              	.LVL163:
 1695              	.L116:
 211:../Bsp/OLED/GUISlim.c ****         if (stats.both_valid > 0 && stats.utf8_only == 0 && stats.gbk_only == 0) {
 1696              		.loc 1 211 16 view .LVU533
 1697 018e 0220     		movs	r0, #2
 1698              	.LVL164:
 211:../Bsp/OLED/GUISlim.c ****         if (stats.both_valid > 0 && stats.utf8_only == 0 && stats.gbk_only == 0) {
 1699              		.loc 1 211 16 view .LVU534
 1700 0190 F8E7     		b	.L93
 1701              	.LVL165:
 1702              	.L117:
 214:../Bsp/OLED/GUISlim.c ****         } else if (gbk_score > utf8_score) {
 1703              		.loc 1 214 20 view .LVU535
 1704 0192 0120     		movs	r0, #1
 1705              	.LVL166:
 214:../Bsp/OLED/GUISlim.c ****         } else if (gbk_score > utf8_score) {
 1706              		.loc 1 214 20 view .LVU536
 1707 0194 F6E7     		b	.L93
 1708              	.LVL167:
 1709              	.L119:
 1710              	.LBB19:
 222:../Bsp/OLED/GUISlim.c ****                 if (stats.utf8_only > stats.gbk_only * 2) {
 1711              		.loc 1 222 20 view .LVU537
 1712 0196 0320     		movs	r0, #3
 1713              	.LVL168:
 222:../Bsp/OLED/GUISlim.c ****                 if (stats.utf8_only > stats.gbk_only * 2) {
 1714              		.loc 1 222 20 view .LVU538
 1715 0198 F4E7     		b	.L93
 1716              	.LVL169:
 1717              	.L120:
 224:../Bsp/OLED/GUISlim.c ****         } else if (stats.gbk_only > stats.utf8_only * 2) {
 1718              		.loc 1 224 20 view .LVU539
 1719 019a 0120     		movs	r0, #1
 1720              	.LVL170:
ARM GAS  C:\Users\fish\AppData\Local\Temp\cc4JAs8f.s 			page 50


 224:../Bsp/OLED/GUISlim.c ****         } else if (stats.gbk_only > stats.utf8_only * 2) {
 1721              		.loc 1 224 20 view .LVU540
 1722 019c F2E7     		b	.L93
 1723              	.LVL171:
 1724              	.L121:
 226:../Bsp/OLED/GUISlim.c ****         }
 1725              		.loc 1 226 20 view .LVU541
 1726 019e 0220     		movs	r0, #2
 1727              	.LVL172:
 226:../Bsp/OLED/GUISlim.c ****         }
 1728              		.loc 1 226 20 view .LVU542
 1729 01a0 F0E7     		b	.L93
 1730              	.LVL173:
 1731              	.L123:
 226:../Bsp/OLED/GUISlim.c ****         }
 1732              		.loc 1 226 20 view .LVU543
 1733              	.LBE19:
 231:../Bsp/OLED/GUISlim.c ****     }
 1734              		.loc 1 231 16 view .LVU544
 1735 01a2 0120     		movs	r0, #1
 1736              	.LVL174:
 231:../Bsp/OLED/GUISlim.c ****     }
 1737              		.loc 1 231 16 view .LVU545
 1738 01a4 EEE7     		b	.L93
 1739              	.LVL175:
 1740              	.L124:
 234:../Bsp/OLED/GUISlim.c ****     }
 1741              		.loc 1 234 16 view .LVU546
 1742 01a6 0220     		movs	r0, #2
 1743              	.LVL176:
 234:../Bsp/OLED/GUISlim.c ****     }
 1744              		.loc 1 234 16 view .LVU547
 1745 01a8 ECE7     		b	.L93
 1746              	.LVL177:
 1747              	.L125:
 237:../Bsp/OLED/GUISlim.c ****     } else if (gbk_score > utf8_score) {
 1748              		.loc 1 237 16 view .LVU548
 1749 01aa 0120     		movs	r0, #1
 1750              	.LVL178:
 237:../Bsp/OLED/GUISlim.c ****     } else if (gbk_score > utf8_score) {
 1751              		.loc 1 237 16 view .LVU549
 1752 01ac EAE7     		b	.L93
 1753              	.LVL179:
 1754              	.L126:
 239:../Bsp/OLED/GUISlim.c ****     }
 1755              		.loc 1 239 16 view .LVU550
 1756 01ae 0220     		movs	r0, #2
 1757              	.LVL180:
 239:../Bsp/OLED/GUISlim.c ****     }
 1758              		.loc 1 239 16 view .LVU551
 1759 01b0 E8E7     		b	.L93
 1760              	.L138:
 1761 01b2 00BF     		.align	2
 1762              	.L137:
 1763 01b4 67666666 		.word	1717986919
 1764              		.cfi_endproc
 1765              	.LFE251:
ARM GAS  C:\Users\fish\AppData\Local\Temp\cc4JAs8f.s 			page 51


 1767              		.section	.text.detect_encoding_by_sequence,"ax",%progbits
 1768              		.align	1
 1769              		.global	detect_encoding_by_sequence
 1770              		.syntax unified
 1771              		.thumb
 1772              		.thumb_func
 1774              	detect_encoding_by_sequence:
 1775              	.LVL181:
 1776              	.LFB252:
 244:../Bsp/OLED/GUISlim.c ****     return detect_encoding_comprehensive(str);
 1777              		.loc 1 244 50 is_stmt 1 view -0
 1778              		.cfi_startproc
 1779              		@ args = 0, pretend = 0, frame = 0
 1780              		@ frame_needed = 0, uses_anonymous_args = 0
 244:../Bsp/OLED/GUISlim.c ****     return detect_encoding_comprehensive(str);
 1781              		.loc 1 244 50 is_stmt 0 view .LVU553
 1782 0000 08B5     		push	{r3, lr}
 1783              		.cfi_def_cfa_offset 8
 1784              		.cfi_offset 3, -8
 1785              		.cfi_offset 14, -4
 245:../Bsp/OLED/GUISlim.c **** }
 1786              		.loc 1 245 5 is_stmt 1 view .LVU554
 245:../Bsp/OLED/GUISlim.c **** }
 1787              		.loc 1 245 12 is_stmt 0 view .LVU555
 1788 0002 FFF7FEFF 		bl	detect_encoding_comprehensive
 1789              	.LVL182:
 246:../Bsp/OLED/GUISlim.c **** 
 1790              		.loc 1 246 1 view .LVU556
 1791 0006 08BD     		pop	{r3, pc}
 1792              		.cfi_endproc
 1793              	.LFE252:
 1795              		.section	.text.DrawBitLine1BPP,"ax",%progbits
 1796              		.align	1
 1797              		.global	DrawBitLine1BPP
 1798              		.syntax unified
 1799              		.thumb
 1800              		.thumb_func
 1802              	DrawBitLine1BPP:
 1803              	.LVL183:
 1804              	.LFB254:
 281:../Bsp/OLED/GUISlim.c ****   U8 pixels;
 1805              		.loc 1 281 1 is_stmt 1 view -0
 1806              		.cfi_startproc
 1807              		@ args = 4, pretend = 0, frame = 0
 1808              		@ frame_needed = 0, uses_anonymous_args = 0
 281:../Bsp/OLED/GUISlim.c ****   U8 pixels;
 1809              		.loc 1 281 1 is_stmt 0 view .LVU558
 1810 0000 2DE9F843 		push	{r3, r4, r5, r6, r7, r8, r9, lr}
 1811              		.cfi_def_cfa_offset 32
 1812              		.cfi_offset 3, -32
 1813              		.cfi_offset 4, -28
 1814              		.cfi_offset 5, -24
 1815              		.cfi_offset 6, -20
 1816              		.cfi_offset 7, -16
 1817              		.cfi_offset 8, -12
 1818              		.cfi_offset 9, -8
 1819              		.cfi_offset 14, -4
ARM GAS  C:\Users\fish\AppData\Local\Temp\cc4JAs8f.s 			page 52


 1820 0004 0546     		mov	r5, r0
 1821 0006 0E46     		mov	r6, r1
 1822 0008 1746     		mov	r7, r2
 1823 000a 089C     		ldr	r4, [sp, #32]
 282:../Bsp/OLED/GUISlim.c **** 	
 1824              		.loc 1 282 3 is_stmt 1 view .LVU559
 287:../Bsp/OLED/GUISlim.c **** 
 1825              		.loc 1 287 3 view .LVU560
 287:../Bsp/OLED/GUISlim.c **** 
 1826              		.loc 1 287 10 is_stmt 0 view .LVU561
 1827 000c 92F80080 		ldrb	r8, [r2]	@ zero_extendqisi2
 1828              	.LVL184:
 289:../Bsp/OLED/GUISlim.c **** 	case 0:
 1829              		.loc 1 289 2 is_stmt 1 view .LVU562
 289:../Bsp/OLED/GUISlim.c **** 	case 0:
 1830              		.loc 1 289 14 is_stmt 0 view .LVU563
 1831 0010 03F00703 		and	r3, r3, #7
 1832              	.LVL185:
 289:../Bsp/OLED/GUISlim.c **** 	case 0:
 1833              		.loc 1 289 2 view .LVU564
 1834 0014 013B     		subs	r3, r3, #1
 1835 0016 062B     		cmp	r3, #6
 1836 0018 05D8     		bhi	.L168
 1837 001a DFE803F0 		tbb	[pc, r3]
 1838              	.LVL186:
 1839              	.L144:
 1840 001e 0C       		.byte	(.L150-.L144)/2
 1841 001f 19       		.byte	(.L149-.L144)/2
 1842 0020 25       		.byte	(.L148-.L144)/2
 1843 0021 31       		.byte	(.L147-.L144)/2
 1844 0022 3D       		.byte	(.L146-.L144)/2
 1845 0023 49       		.byte	(.L145-.L144)/2
 1846 0024 55       		.byte	(.L143-.L144)/2
 1847 0025 00       		.p2align 1
 1848              	.L168:
 289:../Bsp/OLED/GUISlim.c **** 	case 0:
 1849              		.loc 1 289 2 view .LVU565
 1850 0026 B946     		mov	r9, r7
 1851 0028 5FE0     		b	.L142
 1852              	.LVL187:
 1853              	.L151:
 313:../Bsp/OLED/GUISlim.c ****     if (!--xsize)
 1854              		.loc 1 313 59 discriminator 2 view .LVU566
 1855 002a 4C4B     		ldr	r3, .L177
 1856 002c 1A7F     		ldrb	r2, [r3, #28]	@ zero_extendqisi2
 1857 002e 013A     		subs	r2, r2, #1
 1858 0030 18BF     		it	ne
 1859 0032 0122     		movne	r2, #1
 1860 0034 60E0     		b	.L152
 1861              	.LVL188:
 1862              	.L150:
 317:../Bsp/OLED/GUISlim.c ****     if (!--xsize)
 1863              		.loc 1 317 5 is_stmt 1 view .LVU567
 1864 0036 681C     		adds	r0, r5, #1
 1865 0038 80B2     		uxth	r0, r0
 1866 003a B1B2     		uxth	r1, r6
 1867 003c 18F0400F 		tst	r8, #64
ARM GAS  C:\Users\fish\AppData\Local\Temp\cc4JAs8f.s 			page 53


 1868 0040 60D0     		beq	.L154
 317:../Bsp/OLED/GUISlim.c ****     if (!--xsize)
 1869              		.loc 1 317 5 is_stmt 0 discriminator 1 view .LVU568
 1870 0042 464B     		ldr	r3, .L177
 1871 0044 1A7F     		ldrb	r2, [r3, #28]	@ zero_extendqisi2
 1872              	.L155:
 317:../Bsp/OLED/GUISlim.c ****     if (!--xsize)
 1873              		.loc 1 317 5 discriminator 4 view .LVU569
 1874 0046 FFF7FEFF 		bl	SSD1306_DrawPixel
 1875              	.LVL189:
 318:../Bsp/OLED/GUISlim.c ****       return;
 1876              		.loc 1 318 5 is_stmt 1 view .LVU570
 318:../Bsp/OLED/GUISlim.c ****       return;
 1877              		.loc 1 318 8 is_stmt 0 view .LVU571
 1878 004a 013C     		subs	r4, r4, #1
 1879              	.LVL190:
 318:../Bsp/OLED/GUISlim.c ****       return;
 1880              		.loc 1 318 8 view .LVU572
 1881 004c 00F08480 		beq	.L141
 1882              	.LVL191:
 1883              	.L149:
 321:../Bsp/OLED/GUISlim.c ****     if (!--xsize)
 1884              		.loc 1 321 5 is_stmt 1 view .LVU573
 1885 0050 A81C     		adds	r0, r5, #2
 1886 0052 80B2     		uxth	r0, r0
 1887 0054 B1B2     		uxth	r1, r6
 1888 0056 18F0200F 		tst	r8, #32
 1889 005a 59D0     		beq	.L156
 321:../Bsp/OLED/GUISlim.c ****     if (!--xsize)
 1890              		.loc 1 321 5 is_stmt 0 discriminator 1 view .LVU574
 1891 005c 3F4B     		ldr	r3, .L177
 1892 005e 1A7F     		ldrb	r2, [r3, #28]	@ zero_extendqisi2
 1893              	.L157:
 321:../Bsp/OLED/GUISlim.c ****     if (!--xsize)
 1894              		.loc 1 321 5 discriminator 4 view .LVU575
 1895 0060 FFF7FEFF 		bl	SSD1306_DrawPixel
 1896              	.LVL192:
 322:../Bsp/OLED/GUISlim.c ****       return;
 1897              		.loc 1 322 5 is_stmt 1 view .LVU576
 322:../Bsp/OLED/GUISlim.c ****       return;
 1898              		.loc 1 322 8 is_stmt 0 view .LVU577
 1899 0064 013C     		subs	r4, r4, #1
 1900              	.LVL193:
 322:../Bsp/OLED/GUISlim.c ****       return;
 1901              		.loc 1 322 8 view .LVU578
 1902 0066 77D0     		beq	.L141
 1903              	.LVL194:
 1904              	.L148:
 325:../Bsp/OLED/GUISlim.c ****     if (!--xsize)
 1905              		.loc 1 325 5 is_stmt 1 view .LVU579
 1906 0068 E81C     		adds	r0, r5, #3
 1907 006a 80B2     		uxth	r0, r0
 1908 006c B1B2     		uxth	r1, r6
 1909 006e 18F0100F 		tst	r8, #16
 1910 0072 53D0     		beq	.L158
 325:../Bsp/OLED/GUISlim.c ****     if (!--xsize)
 1911              		.loc 1 325 5 is_stmt 0 discriminator 1 view .LVU580
ARM GAS  C:\Users\fish\AppData\Local\Temp\cc4JAs8f.s 			page 54


 1912 0074 394B     		ldr	r3, .L177
 1913 0076 1A7F     		ldrb	r2, [r3, #28]	@ zero_extendqisi2
 1914              	.L159:
 325:../Bsp/OLED/GUISlim.c ****     if (!--xsize)
 1915              		.loc 1 325 5 discriminator 4 view .LVU581
 1916 0078 FFF7FEFF 		bl	SSD1306_DrawPixel
 1917              	.LVL195:
 326:../Bsp/OLED/GUISlim.c ****       return;
 1918              		.loc 1 326 5 is_stmt 1 view .LVU582
 326:../Bsp/OLED/GUISlim.c ****       return;
 1919              		.loc 1 326 8 is_stmt 0 view .LVU583
 1920 007c 013C     		subs	r4, r4, #1
 1921              	.LVL196:
 326:../Bsp/OLED/GUISlim.c ****       return;
 1922              		.loc 1 326 8 view .LVU584
 1923 007e 6BD0     		beq	.L141
 1924              	.LVL197:
 1925              	.L147:
 329:../Bsp/OLED/GUISlim.c ****     if (!--xsize)
 1926              		.loc 1 329 5 is_stmt 1 view .LVU585
 1927 0080 281D     		adds	r0, r5, #4
 1928 0082 80B2     		uxth	r0, r0
 1929 0084 B1B2     		uxth	r1, r6
 1930 0086 18F0080F 		tst	r8, #8
 1931 008a 4DD0     		beq	.L160
 329:../Bsp/OLED/GUISlim.c ****     if (!--xsize)
 1932              		.loc 1 329 5 is_stmt 0 discriminator 1 view .LVU586
 1933 008c 334B     		ldr	r3, .L177
 1934 008e 1A7F     		ldrb	r2, [r3, #28]	@ zero_extendqisi2
 1935              	.L161:
 329:../Bsp/OLED/GUISlim.c ****     if (!--xsize)
 1936              		.loc 1 329 5 discriminator 4 view .LVU587
 1937 0090 FFF7FEFF 		bl	SSD1306_DrawPixel
 1938              	.LVL198:
 330:../Bsp/OLED/GUISlim.c ****       return;
 1939              		.loc 1 330 5 is_stmt 1 view .LVU588
 330:../Bsp/OLED/GUISlim.c ****       return;
 1940              		.loc 1 330 8 is_stmt 0 view .LVU589
 1941 0094 013C     		subs	r4, r4, #1
 1942              	.LVL199:
 330:../Bsp/OLED/GUISlim.c ****       return;
 1943              		.loc 1 330 8 view .LVU590
 1944 0096 5FD0     		beq	.L141
 1945              	.LVL200:
 1946              	.L146:
 333:../Bsp/OLED/GUISlim.c ****     if (!--xsize)
 1947              		.loc 1 333 5 is_stmt 1 view .LVU591
 1948 0098 681D     		adds	r0, r5, #5
 1949 009a 80B2     		uxth	r0, r0
 1950 009c B1B2     		uxth	r1, r6
 1951 009e 18F0040F 		tst	r8, #4
 1952 00a2 47D0     		beq	.L162
 333:../Bsp/OLED/GUISlim.c ****     if (!--xsize)
 1953              		.loc 1 333 5 is_stmt 0 discriminator 1 view .LVU592
 1954 00a4 2D4B     		ldr	r3, .L177
 1955 00a6 1A7F     		ldrb	r2, [r3, #28]	@ zero_extendqisi2
 1956              	.L163:
ARM GAS  C:\Users\fish\AppData\Local\Temp\cc4JAs8f.s 			page 55


 333:../Bsp/OLED/GUISlim.c ****     if (!--xsize)
 1957              		.loc 1 333 5 discriminator 4 view .LVU593
 1958 00a8 FFF7FEFF 		bl	SSD1306_DrawPixel
 1959              	.LVL201:
 334:../Bsp/OLED/GUISlim.c ****       return;
 1960              		.loc 1 334 5 is_stmt 1 view .LVU594
 334:../Bsp/OLED/GUISlim.c ****       return;
 1961              		.loc 1 334 8 is_stmt 0 view .LVU595
 1962 00ac 013C     		subs	r4, r4, #1
 1963              	.LVL202:
 334:../Bsp/OLED/GUISlim.c ****       return;
 1964              		.loc 1 334 8 view .LVU596
 1965 00ae 53D0     		beq	.L141
 1966              	.LVL203:
 1967              	.L145:
 337:../Bsp/OLED/GUISlim.c ****     if (!--xsize)
 1968              		.loc 1 337 5 is_stmt 1 view .LVU597
 1969 00b0 A81D     		adds	r0, r5, #6
 1970 00b2 80B2     		uxth	r0, r0
 1971 00b4 B1B2     		uxth	r1, r6
 1972 00b6 18F0020F 		tst	r8, #2
 1973 00ba 41D0     		beq	.L164
 337:../Bsp/OLED/GUISlim.c ****     if (!--xsize)
 1974              		.loc 1 337 5 is_stmt 0 discriminator 1 view .LVU598
 1975 00bc 274B     		ldr	r3, .L177
 1976 00be 1A7F     		ldrb	r2, [r3, #28]	@ zero_extendqisi2
 1977              	.L165:
 337:../Bsp/OLED/GUISlim.c ****     if (!--xsize)
 1978              		.loc 1 337 5 discriminator 4 view .LVU599
 1979 00c0 FFF7FEFF 		bl	SSD1306_DrawPixel
 1980              	.LVL204:
 338:../Bsp/OLED/GUISlim.c ****       return;
 1981              		.loc 1 338 5 is_stmt 1 view .LVU600
 338:../Bsp/OLED/GUISlim.c ****       return;
 1982              		.loc 1 338 8 is_stmt 0 view .LVU601
 1983 00c4 013C     		subs	r4, r4, #1
 1984              	.LVL205:
 338:../Bsp/OLED/GUISlim.c ****       return;
 1985              		.loc 1 338 8 view .LVU602
 1986 00c6 47D0     		beq	.L141
 1987              	.LVL206:
 1988              	.L143:
 341:../Bsp/OLED/GUISlim.c ****     if (!--xsize)
 1989              		.loc 1 341 5 is_stmt 1 view .LVU603
 1990 00c8 E81D     		adds	r0, r5, #7
 1991 00ca 80B2     		uxth	r0, r0
 1992 00cc B1B2     		uxth	r1, r6
 1993 00ce 18F0010F 		tst	r8, #1
 1994 00d2 3BD0     		beq	.L166
 341:../Bsp/OLED/GUISlim.c ****     if (!--xsize)
 1995              		.loc 1 341 5 is_stmt 0 discriminator 1 view .LVU604
 1996 00d4 214B     		ldr	r3, .L177
 1997 00d6 1A7F     		ldrb	r2, [r3, #28]	@ zero_extendqisi2
 1998              	.L167:
 341:../Bsp/OLED/GUISlim.c ****     if (!--xsize)
 1999              		.loc 1 341 5 discriminator 4 view .LVU605
 2000 00d8 FFF7FEFF 		bl	SSD1306_DrawPixel
ARM GAS  C:\Users\fish\AppData\Local\Temp\cc4JAs8f.s 			page 56


 2001              	.LVL207:
 342:../Bsp/OLED/GUISlim.c ****       return;
 2002              		.loc 1 342 5 is_stmt 1 view .LVU606
 342:../Bsp/OLED/GUISlim.c ****       return;
 2003              		.loc 1 342 8 is_stmt 0 view .LVU607
 2004 00dc 013C     		subs	r4, r4, #1
 2005              	.LVL208:
 342:../Bsp/OLED/GUISlim.c ****       return;
 2006              		.loc 1 342 8 view .LVU608
 2007 00de 3BD0     		beq	.L141
 344:../Bsp/OLED/GUISlim.c ****     pixels = *(++p);
 2008              		.loc 1 344 5 is_stmt 1 view .LVU609
 344:../Bsp/OLED/GUISlim.c ****     pixels = *(++p);
 2009              		.loc 1 344 6 is_stmt 0 view .LVU610
 2010 00e0 0835     		adds	r5, r5, #8
 2011              	.LVL209:
 345:../Bsp/OLED/GUISlim.c ****     goto WriteBit0;
 2012              		.loc 1 345 5 is_stmt 1 view .LVU611
 345:../Bsp/OLED/GUISlim.c ****     goto WriteBit0;
 2013              		.loc 1 345 12 is_stmt 0 view .LVU612
 2014 00e2 07F10109 		add	r9, r7, #1
 2015              	.LVL210:
 345:../Bsp/OLED/GUISlim.c ****     goto WriteBit0;
 2016              		.loc 1 345 12 view .LVU613
 2017 00e6 97F80180 		ldrb	r8, [r7, #1]	@ zero_extendqisi2
 2018              	.LVL211:
 346:../Bsp/OLED/GUISlim.c **** }
 2019              		.loc 1 346 5 is_stmt 1 view .LVU614
 2020              	.L142:
 313:../Bsp/OLED/GUISlim.c ****     if (!--xsize)
 2021              		.loc 1 313 5 view .LVU615
 2022 00ea A8B2     		uxth	r0, r5
 2023 00ec B1B2     		uxth	r1, r6
 2024 00ee 18F0800F 		tst	r8, #128
 2025 00f2 9AD0     		beq	.L151
 313:../Bsp/OLED/GUISlim.c ****     if (!--xsize)
 2026              		.loc 1 313 5 is_stmt 0 discriminator 1 view .LVU616
 2027 00f4 194B     		ldr	r3, .L177
 2028 00f6 1A7F     		ldrb	r2, [r3, #28]	@ zero_extendqisi2
 2029              	.L152:
 313:../Bsp/OLED/GUISlim.c ****     if (!--xsize)
 2030              		.loc 1 313 5 discriminator 4 view .LVU617
 2031 00f8 FFF7FEFF 		bl	SSD1306_DrawPixel
 2032              	.LVL212:
 314:../Bsp/OLED/GUISlim.c ****       return;
 2033              		.loc 1 314 5 is_stmt 1 view .LVU618
 314:../Bsp/OLED/GUISlim.c ****       return;
 2034              		.loc 1 314 8 is_stmt 0 view .LVU619
 2035 00fc 013C     		subs	r4, r4, #1
 2036              	.LVL213:
 314:../Bsp/OLED/GUISlim.c ****       return;
 2037              		.loc 1 314 8 view .LVU620
 2038 00fe 2BD0     		beq	.L141
 316:../Bsp/OLED/GUISlim.c ****     SSD1306_DrawPixel(x+1, y, (pixels&(1<<6)) ? COLOR_F : COLOR_B);
 2039              		.loc 1 316 3 view .LVU621
 2040 0100 4F46     		mov	r7, r9
 2041 0102 98E7     		b	.L150
ARM GAS  C:\Users\fish\AppData\Local\Temp\cc4JAs8f.s 			page 57


 2042              	.LVL214:
 2043              	.L154:
 317:../Bsp/OLED/GUISlim.c ****     if (!--xsize)
 2044              		.loc 1 317 59 discriminator 2 view .LVU622
 2045 0104 154B     		ldr	r3, .L177
 2046 0106 1A7F     		ldrb	r2, [r3, #28]	@ zero_extendqisi2
 2047 0108 013A     		subs	r2, r2, #1
 2048 010a 18BF     		it	ne
 2049 010c 0122     		movne	r2, #1
 2050 010e 9AE7     		b	.L155
 2051              	.L156:
 321:../Bsp/OLED/GUISlim.c ****     if (!--xsize)
 2052              		.loc 1 321 59 discriminator 2 view .LVU623
 2053 0110 124B     		ldr	r3, .L177
 2054 0112 1A7F     		ldrb	r2, [r3, #28]	@ zero_extendqisi2
 2055 0114 013A     		subs	r2, r2, #1
 2056 0116 18BF     		it	ne
 2057 0118 0122     		movne	r2, #1
 2058 011a A1E7     		b	.L157
 2059              	.L158:
 325:../Bsp/OLED/GUISlim.c ****     if (!--xsize)
 2060              		.loc 1 325 59 discriminator 2 view .LVU624
 2061 011c 0F4B     		ldr	r3, .L177
 2062 011e 1A7F     		ldrb	r2, [r3, #28]	@ zero_extendqisi2
 2063 0120 013A     		subs	r2, r2, #1
 2064 0122 18BF     		it	ne
 2065 0124 0122     		movne	r2, #1
 2066 0126 A7E7     		b	.L159
 2067              	.L160:
 329:../Bsp/OLED/GUISlim.c ****     if (!--xsize)
 2068              		.loc 1 329 59 discriminator 2 view .LVU625
 2069 0128 0C4B     		ldr	r3, .L177
 2070 012a 1A7F     		ldrb	r2, [r3, #28]	@ zero_extendqisi2
 2071 012c 013A     		subs	r2, r2, #1
 2072 012e 18BF     		it	ne
 2073 0130 0122     		movne	r2, #1
 2074 0132 ADE7     		b	.L161
 2075              	.L162:
 333:../Bsp/OLED/GUISlim.c ****     if (!--xsize)
 2076              		.loc 1 333 59 discriminator 2 view .LVU626
 2077 0134 094B     		ldr	r3, .L177
 2078 0136 1A7F     		ldrb	r2, [r3, #28]	@ zero_extendqisi2
 2079 0138 013A     		subs	r2, r2, #1
 2080 013a 18BF     		it	ne
 2081 013c 0122     		movne	r2, #1
 2082 013e B3E7     		b	.L163
 2083              	.L164:
 337:../Bsp/OLED/GUISlim.c ****     if (!--xsize)
 2084              		.loc 1 337 59 discriminator 2 view .LVU627
 2085 0140 064B     		ldr	r3, .L177
 2086 0142 1A7F     		ldrb	r2, [r3, #28]	@ zero_extendqisi2
 2087 0144 013A     		subs	r2, r2, #1
 2088 0146 18BF     		it	ne
 2089 0148 0122     		movne	r2, #1
 2090 014a B9E7     		b	.L165
 2091              	.L166:
 341:../Bsp/OLED/GUISlim.c ****     if (!--xsize)
ARM GAS  C:\Users\fish\AppData\Local\Temp\cc4JAs8f.s 			page 58


 2092              		.loc 1 341 59 discriminator 2 view .LVU628
 2093 014c 034B     		ldr	r3, .L177
 2094 014e 1A7F     		ldrb	r2, [r3, #28]	@ zero_extendqisi2
 2095 0150 013A     		subs	r2, r2, #1
 2096 0152 18BF     		it	ne
 2097 0154 0122     		movne	r2, #1
 2098 0156 BFE7     		b	.L167
 2099              	.LVL215:
 2100              	.L141:
 347:../Bsp/OLED/GUISlim.c **** 
 2101              		.loc 1 347 1 view .LVU629
 2102 0158 BDE8F883 		pop	{r3, r4, r5, r6, r7, r8, r9, pc}
 2103              	.LVL216:
 2104              	.L178:
 347:../Bsp/OLED/GUISlim.c **** 
 2105              		.loc 1 347 1 view .LVU630
 2106              		.align	2
 2107              	.L177:
 2108 015c 00000000 		.word	GUI_Context
 2109              		.cfi_endproc
 2110              	.LFE254:
 2112              		.section	.text.LCD_L0_DrawBitmap1BPP,"ax",%progbits
 2113              		.align	1
 2114              		.global	LCD_L0_DrawBitmap1BPP
 2115              		.syntax unified
 2116              		.thumb
 2117              		.thumb_func
 2119              	LCD_L0_DrawBitmap1BPP:
 2120              	.LVL217:
 2121              	.LFB255:
 350:../Bsp/OLED/GUISlim.c ****   int i;
 2122              		.loc 1 350 59 is_stmt 1 view -0
 2123              		.cfi_startproc
 2124              		@ args = 12, pretend = 0, frame = 0
 2125              		@ frame_needed = 0, uses_anonymous_args = 0
 350:../Bsp/OLED/GUISlim.c ****   int i;
 2126              		.loc 1 350 59 is_stmt 0 view .LVU632
 2127 0000 2DE9F04F 		push	{r4, r5, r6, r7, r8, r9, r10, fp, lr}
 2128              		.cfi_def_cfa_offset 36
 2129              		.cfi_offset 4, -36
 2130              		.cfi_offset 5, -32
 2131              		.cfi_offset 6, -28
 2132              		.cfi_offset 7, -24
 2133              		.cfi_offset 8, -20
 2134              		.cfi_offset 9, -16
 2135              		.cfi_offset 10, -12
 2136              		.cfi_offset 11, -8
 2137              		.cfi_offset 14, -4
 2138 0004 83B0     		sub	sp, sp, #12
 2139              		.cfi_def_cfa_offset 48
 2140 0006 8146     		mov	r9, r0
 2141 0008 8846     		mov	r8, r1
 2142 000a 1746     		mov	r7, r2
 2143 000c 1E46     		mov	r6, r3
 2144 000e DDF830B0 		ldr	fp, [sp, #48]
 2145 0012 0D9D     		ldr	r5, [sp, #52]
 2146 0014 DDF838A0 		ldr	r10, [sp, #56]
ARM GAS  C:\Users\fish\AppData\Local\Temp\cc4JAs8f.s 			page 59


 351:../Bsp/OLED/GUISlim.c **** 	for (i = 0; i < ysize; i++)
 2147              		.loc 1 351 3 is_stmt 1 view .LVU633
 352:../Bsp/OLED/GUISlim.c **** 	{
 2148              		.loc 1 352 2 view .LVU634
 2149              	.LVL218:
 352:../Bsp/OLED/GUISlim.c **** 	{
 2150              		.loc 1 352 9 is_stmt 0 view .LVU635
 2151 0018 0024     		movs	r4, #0
 352:../Bsp/OLED/GUISlim.c **** 	{
 2152              		.loc 1 352 2 view .LVU636
 2153 001a 09E0     		b	.L180
 2154              	.LVL219:
 2155              	.L181:
 354:../Bsp/OLED/GUISlim.c **** 		pData += BytesPerLine;
 2156              		.loc 1 354 3 is_stmt 1 view .LVU637
 2157 001c 0097     		str	r7, [sp]
 2158 001e 5346     		mov	r3, r10
 2159 0020 2A46     		mov	r2, r5
 2160 0022 04EB0801 		add	r1, r4, r8
 2161 0026 4846     		mov	r0, r9
 2162 0028 FFF7FEFF 		bl	DrawBitLine1BPP
 2163              	.LVL220:
 355:../Bsp/OLED/GUISlim.c **** 	}
 2164              		.loc 1 355 3 view .LVU638
 355:../Bsp/OLED/GUISlim.c **** 	}
 2165              		.loc 1 355 9 is_stmt 0 view .LVU639
 2166 002c 5D44     		add	r5, r5, fp
 2167              	.LVL221:
 352:../Bsp/OLED/GUISlim.c **** 	{
 2168              		.loc 1 352 26 is_stmt 1 discriminator 3 view .LVU640
 2169 002e 0134     		adds	r4, r4, #1
 2170              	.LVL222:
 2171              	.L180:
 352:../Bsp/OLED/GUISlim.c **** 	{
 2172              		.loc 1 352 16 discriminator 1 view .LVU641
 2173 0030 B442     		cmp	r4, r6
 2174 0032 F3DB     		blt	.L181
 357:../Bsp/OLED/GUISlim.c **** 
 2175              		.loc 1 357 1 is_stmt 0 view .LVU642
 2176 0034 03B0     		add	sp, sp, #12
 2177              		.cfi_def_cfa_offset 36
 2178              		@ sp needed
 2179 0036 BDE8F08F 		pop	{r4, r5, r6, r7, r8, r9, r10, fp, pc}
 357:../Bsp/OLED/GUISlim.c **** 
 2180              		.loc 1 357 1 view .LVU643
 2181              		.cfi_endproc
 2182              	.LFE255:
 2184              		.section	.text.LCD_DrawBitmap1BPP,"ax",%progbits
 2185              		.align	1
 2186              		.global	LCD_DrawBitmap1BPP
 2187              		.syntax unified
 2188              		.thumb
 2189              		.thumb_func
 2191              	LCD_DrawBitmap1BPP:
 2192              	.LVL223:
 2193              	.LFB256:
 360:../Bsp/OLED/GUISlim.c ****   int x1, y1;
ARM GAS  C:\Users\fish\AppData\Local\Temp\cc4JAs8f.s 			page 60


 2194              		.loc 1 360 62 is_stmt 1 view -0
 2195              		.cfi_startproc
 2196              		@ args = 8, pretend = 0, frame = 0
 2197              		@ frame_needed = 0, uses_anonymous_args = 0
 360:../Bsp/OLED/GUISlim.c ****   int x1, y1;
 2198              		.loc 1 360 62 is_stmt 0 view .LVU645
 2199 0000 70B5     		push	{r4, r5, r6, lr}
 2200              		.cfi_def_cfa_offset 16
 2201              		.cfi_offset 4, -16
 2202              		.cfi_offset 5, -12
 2203              		.cfi_offset 6, -8
 2204              		.cfi_offset 14, -4
 2205 0002 84B0     		sub	sp, sp, #16
 2206              		.cfi_def_cfa_offset 32
 2207 0004 099D     		ldr	r5, [sp, #36]
 361:../Bsp/OLED/GUISlim.c ****   /* Handle the optional Y-magnification */
 2208              		.loc 1 361 3 is_stmt 1 view .LVU646
 363:../Bsp/OLED/GUISlim.c ****   x1 = x0 + xsize - 1;
 2209              		.loc 1 363 3 view .LVU647
 363:../Bsp/OLED/GUISlim.c ****   x1 = x0 + xsize - 1;
 2210              		.loc 1 363 11 is_stmt 0 view .LVU648
 2211 0006 01EB030C 		add	ip, r1, r3
 363:../Bsp/OLED/GUISlim.c ****   x1 = x0 + xsize - 1;
 2212              		.loc 1 363 6 view .LVU649
 2213 000a 0CF1FF3C 		add	ip, ip, #-1
 2214              	.LVL224:
 364:../Bsp/OLED/GUISlim.c **** /*  Handle BITMAP without magnification */
 2215              		.loc 1 364 3 is_stmt 1 view .LVU650
 364:../Bsp/OLED/GUISlim.c **** /*  Handle BITMAP without magnification */
 2216              		.loc 1 364 11 is_stmt 0 view .LVU651
 2217 000e 8418     		adds	r4, r0, r2
 364:../Bsp/OLED/GUISlim.c **** /*  Handle BITMAP without magnification */
 2218              		.loc 1 364 6 view .LVU652
 2219 0010 013C     		subs	r4, r4, #1
 2220              	.LVL225:
 366:../Bsp/OLED/GUISlim.c **** 	/*  Clip y0 (top) */
 2221              		.loc 1 366 2 is_stmt 1 view .LVU653
 368:../Bsp/OLED/GUISlim.c **** 	if (Diff > 0) {
 2222              		.loc 1 368 2 view .LVU654
 368:../Bsp/OLED/GUISlim.c **** 	if (Diff > 0) {
 2223              		.loc 1 368 29 is_stmt 0 view .LVU655
 2224 0012 1F4E     		ldr	r6, .L191
 2225 0014 B6F90260 		ldrsh	r6, [r6, #2]
 368:../Bsp/OLED/GUISlim.c **** 	if (Diff > 0) {
 2226              		.loc 1 368 7 view .LVU656
 2227 0018 A6EB010E 		sub	lr, r6, r1
 2228              	.LVL226:
 369:../Bsp/OLED/GUISlim.c **** 		ysize -= Diff;
 2229              		.loc 1 369 2 is_stmt 1 view .LVU657
 369:../Bsp/OLED/GUISlim.c **** 		ysize -= Diff;
 2230              		.loc 1 369 5 is_stmt 0 view .LVU658
 2231 001c BEF1000F 		cmp	lr, #0
 2232 0020 07DD     		ble	.L184
 370:../Bsp/OLED/GUISlim.c **** 		if (ysize <= 0) {
 2233              		.loc 1 370 3 is_stmt 1 view .LVU659
 370:../Bsp/OLED/GUISlim.c **** 		if (ysize <= 0) {
 2234              		.loc 1 370 9 is_stmt 0 view .LVU660
ARM GAS  C:\Users\fish\AppData\Local\Temp\cc4JAs8f.s 			page 61


 2235 0022 A3EB0E03 		sub	r3, r3, lr
 2236              	.LVL227:
 371:../Bsp/OLED/GUISlim.c **** 			return;
 2237              		.loc 1 371 3 is_stmt 1 view .LVU661
 371:../Bsp/OLED/GUISlim.c **** 			return;
 2238              		.loc 1 371 6 is_stmt 0 view .LVU662
 2239 0026 002B     		cmp	r3, #0
 2240 0028 2EDD     		ble	.L183
 374:../Bsp/OLED/GUISlim.c **** 		pPixel += (unsigned)Diff * (unsigned)BytesPerLine;
 2241              		.loc 1 374 3 is_stmt 1 view .LVU663
 2242              	.LVL228:
 375:../Bsp/OLED/GUISlim.c **** 	}
 2243              		.loc 1 375 3 view .LVU664
 375:../Bsp/OLED/GUISlim.c **** 	}
 2244              		.loc 1 375 10 is_stmt 0 view .LVU665
 2245 002a 0899     		ldr	r1, [sp, #32]
 2246 002c 01FB0E55 		mla	r5, r1, lr, r5
 2247              	.LVL229:
 374:../Bsp/OLED/GUISlim.c **** 		pPixel += (unsigned)Diff * (unsigned)BytesPerLine;
 2248              		.loc 1 374 6 view .LVU666
 2249 0030 3146     		mov	r1, r6
 2250              	.LVL230:
 2251              	.L184:
 378:../Bsp/OLED/GUISlim.c **** 	if (Diff > 0) {
 2252              		.loc 1 378 2 is_stmt 1 view .LVU667
 378:../Bsp/OLED/GUISlim.c **** 	if (Diff > 0) {
 2253              		.loc 1 378 34 is_stmt 0 view .LVU668
 2254 0032 174E     		ldr	r6, .L191
 2255 0034 B6F90660 		ldrsh	r6, [r6, #6]
 378:../Bsp/OLED/GUISlim.c **** 	if (Diff > 0) {
 2256              		.loc 1 378 7 view .LVU669
 2257 0038 ACEB060C 		sub	ip, ip, r6
 2258              	.LVL231:
 379:../Bsp/OLED/GUISlim.c **** 		ysize -= Diff;
 2259              		.loc 1 379 2 is_stmt 1 view .LVU670
 379:../Bsp/OLED/GUISlim.c **** 		ysize -= Diff;
 2260              		.loc 1 379 5 is_stmt 0 view .LVU671
 2261 003c BCF1000F 		cmp	ip, #0
 2262 0040 03DD     		ble	.L186
 380:../Bsp/OLED/GUISlim.c **** 		if (ysize <= 0) {
 2263              		.loc 1 380 3 is_stmt 1 view .LVU672
 380:../Bsp/OLED/GUISlim.c **** 		if (ysize <= 0) {
 2264              		.loc 1 380 9 is_stmt 0 view .LVU673
 2265 0042 A3EB0C03 		sub	r3, r3, ip
 2266              	.LVL232:
 381:../Bsp/OLED/GUISlim.c **** 			return;
 2267              		.loc 1 381 3 is_stmt 1 view .LVU674
 381:../Bsp/OLED/GUISlim.c **** 			return;
 2268              		.loc 1 381 6 is_stmt 0 view .LVU675
 2269 0046 002B     		cmp	r3, #0
 2270 0048 1EDD     		ble	.L183
 2271              	.L186:
 386:../Bsp/OLED/GUISlim.c **** 	if (Diff > 0) {
 2272              		.loc 1 386 2 is_stmt 1 view .LVU676
 386:../Bsp/OLED/GUISlim.c **** 	if (Diff > 0) {
 2273              		.loc 1 386 34 is_stmt 0 view .LVU677
 2274 004a 114E     		ldr	r6, .L191
ARM GAS  C:\Users\fish\AppData\Local\Temp\cc4JAs8f.s 			page 62


 2275 004c B6F90460 		ldrsh	r6, [r6, #4]
 386:../Bsp/OLED/GUISlim.c **** 	if (Diff > 0) {
 2276              		.loc 1 386 7 view .LVU678
 2277 0050 A41B     		subs	r4, r4, r6
 2278              	.LVL233:
 387:../Bsp/OLED/GUISlim.c **** 		xsize -= Diff;
 2279              		.loc 1 387 2 is_stmt 1 view .LVU679
 387:../Bsp/OLED/GUISlim.c **** 		xsize -= Diff;
 2280              		.loc 1 387 5 is_stmt 0 view .LVU680
 2281 0052 002C     		cmp	r4, #0
 2282 0054 00DD     		ble	.L187
 388:../Bsp/OLED/GUISlim.c **** 	}
 2283              		.loc 1 388 3 is_stmt 1 view .LVU681
 388:../Bsp/OLED/GUISlim.c **** 	}
 2284              		.loc 1 388 9 is_stmt 0 view .LVU682
 2285 0056 121B     		subs	r2, r2, r4
 2286              	.LVL234:
 2287              	.L187:
 391:../Bsp/OLED/GUISlim.c **** 	if (x0 < GUI_Context.ClipRect.x0) {
 2288              		.loc 1 391 2 is_stmt 1 view .LVU683
 392:../Bsp/OLED/GUISlim.c **** 		Diff = GUI_Context.ClipRect.x0 - x0;
 2289              		.loc 1 392 2 view .LVU684
 392:../Bsp/OLED/GUISlim.c **** 		Diff = GUI_Context.ClipRect.x0 - x0;
 2290              		.loc 1 392 31 is_stmt 0 view .LVU685
 2291 0058 0D4C     		ldr	r4, .L191
 2292 005a B4F900C0 		ldrsh	ip, [r4]
 392:../Bsp/OLED/GUISlim.c **** 		Diff = GUI_Context.ClipRect.x0 - x0;
 2293              		.loc 1 392 5 view .LVU686
 2294 005e 8445     		cmp	ip, r0
 2295 0060 14DD     		ble	.L189
 393:../Bsp/OLED/GUISlim.c **** 		xsize -= Diff;
 2296              		.loc 1 393 3 is_stmt 1 view .LVU687
 393:../Bsp/OLED/GUISlim.c **** 		xsize -= Diff;
 2297              		.loc 1 393 8 is_stmt 0 view .LVU688
 2298 0062 ACEB000C 		sub	ip, ip, r0
 2299              	.LVL235:
 394:../Bsp/OLED/GUISlim.c **** 		pPixel += (Diff>>3); 
 2300              		.loc 1 394 3 is_stmt 1 view .LVU689
 394:../Bsp/OLED/GUISlim.c **** 		pPixel += (Diff>>3); 
 2301              		.loc 1 394 9 is_stmt 0 view .LVU690
 2302 0066 A2EB0C02 		sub	r2, r2, ip
 2303              	.LVL236:
 395:../Bsp/OLED/GUISlim.c **** 		x0 += (Diff>>3)<<3; 
 2304              		.loc 1 395 3 is_stmt 1 view .LVU691
 395:../Bsp/OLED/GUISlim.c **** 		x0 += (Diff>>3)<<3; 
 2305              		.loc 1 395 10 is_stmt 0 view .LVU692
 2306 006a 05EBEC05 		add	r5, r5, ip, asr #3
 2307              	.LVL237:
 396:../Bsp/OLED/GUISlim.c **** 		Diff &=7;
 2308              		.loc 1 396 3 is_stmt 1 view .LVU693
 396:../Bsp/OLED/GUISlim.c **** 		Diff &=7;
 2309              		.loc 1 396 18 is_stmt 0 view .LVU694
 2310 006e 2CF00704 		bic	r4, ip, #7
 396:../Bsp/OLED/GUISlim.c **** 		Diff &=7;
 2311              		.loc 1 396 6 view .LVU695
 2312 0072 2044     		add	r0, r0, r4
 2313              	.LVL238:
ARM GAS  C:\Users\fish\AppData\Local\Temp\cc4JAs8f.s 			page 63


 397:../Bsp/OLED/GUISlim.c **** 	}
 2314              		.loc 1 397 3 is_stmt 1 view .LVU696
 397:../Bsp/OLED/GUISlim.c **** 	}
 2315              		.loc 1 397 8 is_stmt 0 view .LVU697
 2316 0074 0CF00704 		and	r4, ip, #7
 2317              	.LVL239:
 2318              	.L188:
 399:../Bsp/OLED/GUISlim.c **** 		return;
 2319              		.loc 1 399 2 is_stmt 1 view .LVU698
 399:../Bsp/OLED/GUISlim.c **** 		return;
 2320              		.loc 1 399 5 is_stmt 0 view .LVU699
 2321 0078 002A     		cmp	r2, #0
 2322 007a 05DD     		ble	.L183
 402:../Bsp/OLED/GUISlim.c **** }
 2323              		.loc 1 402 2 is_stmt 1 view .LVU700
 2324 007c 0294     		str	r4, [sp, #8]
 2325 007e 0195     		str	r5, [sp, #4]
 2326 0080 089C     		ldr	r4, [sp, #32]
 2327              	.LVL240:
 402:../Bsp/OLED/GUISlim.c **** }
 2328              		.loc 1 402 2 is_stmt 0 view .LVU701
 2329 0082 0094     		str	r4, [sp]
 2330 0084 FFF7FEFF 		bl	LCD_L0_DrawBitmap1BPP
 2331              	.LVL241:
 2332              	.L183:
 403:../Bsp/OLED/GUISlim.c **** 
 2333              		.loc 1 403 1 view .LVU702
 2334 0088 04B0     		add	sp, sp, #16
 2335              		.cfi_remember_state
 2336              		.cfi_def_cfa_offset 16
 2337              		@ sp needed
 2338 008a 70BD     		pop	{r4, r5, r6, pc}
 2339              	.LVL242:
 2340              	.L189:
 2341              		.cfi_restore_state
 391:../Bsp/OLED/GUISlim.c **** 	if (x0 < GUI_Context.ClipRect.x0) {
 2342              		.loc 1 391 7 view .LVU703
 2343 008c 0024     		movs	r4, #0
 2344 008e F3E7     		b	.L188
 2345              	.L192:
 2346              		.align	2
 2347              	.L191:
 2348 0090 00000000 		.word	GUI_Context
 2349              		.cfi_endproc
 2350              	.LFE256:
 2352              		.section	.text.GUIPROP_DispChar,"ax",%progbits
 2353              		.align	1
 2354              		.global	GUIPROP_DispChar
 2355              		.syntax unified
 2356              		.thumb
 2357              		.thumb_func
 2359              	GUIPROP_DispChar:
 2360              	.LVL243:
 2361              	.LFB257:
 405:../Bsp/OLED/GUISlim.c ****   int BytesPerLine;
 2362              		.loc 1 405 31 is_stmt 1 view -0
 2363              		.cfi_startproc
ARM GAS  C:\Users\fish\AppData\Local\Temp\cc4JAs8f.s 			page 64


 2364              		@ args = 0, pretend = 0, frame = 0
 2365              		@ frame_needed = 0, uses_anonymous_args = 0
 405:../Bsp/OLED/GUISlim.c ****   int BytesPerLine;
 2366              		.loc 1 405 31 is_stmt 0 view .LVU705
 2367 0000 2DE9F041 		push	{r4, r5, r6, r7, r8, lr}
 2368              		.cfi_def_cfa_offset 24
 2369              		.cfi_offset 4, -24
 2370              		.cfi_offset 5, -20
 2371              		.cfi_offset 6, -16
 2372              		.cfi_offset 7, -12
 2373              		.cfi_offset 8, -8
 2374              		.cfi_offset 14, -4
 2375 0004 82B0     		sub	sp, sp, #8
 2376              		.cfi_def_cfa_offset 32
 2377 0006 0446     		mov	r4, r0
 406:../Bsp/OLED/GUISlim.c ****   const GUI_FONT_PROP GUI_UNI_PTR * pProp = GUIPROP_FindChar(GUI_Context.pAFont->p.pProp, c);
 2378              		.loc 1 406 3 is_stmt 1 view .LVU706
 407:../Bsp/OLED/GUISlim.c ****   if (pProp) {
 2379              		.loc 1 407 3 view .LVU707
 407:../Bsp/OLED/GUISlim.c ****   if (pProp) {
 2380              		.loc 1 407 73 is_stmt 0 view .LVU708
 2381 0008 1F4B     		ldr	r3, .L198
 2382 000a 1D69     		ldr	r5, [r3, #16]
 407:../Bsp/OLED/GUISlim.c ****   if (pProp) {
 2383              		.loc 1 407 45 view .LVU709
 2384 000c 0146     		mov	r1, r0
 2385 000e A869     		ldr	r0, [r5, #24]
 2386              	.LVL244:
 407:../Bsp/OLED/GUISlim.c ****   if (pProp) {
 2387              		.loc 1 407 45 view .LVU710
 2388 0010 FFF7FEFF 		bl	GUIPROP_FindChar
 2389              	.LVL245:
 408:../Bsp/OLED/GUISlim.c ****     const GUI_CHARINFO GUI_UNI_PTR * pCharInfo = pProp->paCharInfo+(c-pProp->First);
 2390              		.loc 1 408 3 is_stmt 1 view .LVU711
 408:../Bsp/OLED/GUISlim.c ****     const GUI_CHARINFO GUI_UNI_PTR * pCharInfo = pProp->paCharInfo+(c-pProp->First);
 2391              		.loc 1 408 6 is_stmt 0 view .LVU712
 2392 0014 00B3     		cbz	r0, .L193
 2393              	.LBB20:
 409:../Bsp/OLED/GUISlim.c ****     BytesPerLine = pCharInfo->BytesPerLine;
 2394              		.loc 1 409 5 is_stmt 1 view .LVU713
 409:../Bsp/OLED/GUISlim.c ****     BytesPerLine = pCharInfo->BytesPerLine;
 2395              		.loc 1 409 55 is_stmt 0 view .LVU714
 2396 0016 D0F80480 		ldr	r8, [r0, #4]
 409:../Bsp/OLED/GUISlim.c ****     BytesPerLine = pCharInfo->BytesPerLine;
 2397              		.loc 1 409 76 view .LVU715
 2398 001a 0388     		ldrh	r3, [r0]
 409:../Bsp/OLED/GUISlim.c ****     BytesPerLine = pCharInfo->BytesPerLine;
 2399              		.loc 1 409 70 view .LVU716
 2400 001c E41A     		subs	r4, r4, r3
 2401              	.LVL246:
 409:../Bsp/OLED/GUISlim.c ****     BytesPerLine = pCharInfo->BytesPerLine;
 2402              		.loc 1 409 38 view .LVU717
 2403 001e 08EBC406 		add	r6, r8, r4, lsl #3
 2404              	.LVL247:
 410:../Bsp/OLED/GUISlim.c ****     LCD_DrawBitmap1BPP( GUI_Context.DispPosX, GUI_Context.DispPosY,
 2405              		.loc 1 410 5 is_stmt 1 view .LVU718
 410:../Bsp/OLED/GUISlim.c ****     LCD_DrawBitmap1BPP( GUI_Context.DispPosX, GUI_Context.DispPosY,
ARM GAS  C:\Users\fish\AppData\Local\Temp\cc4JAs8f.s 			page 65


 2406              		.loc 1 410 29 is_stmt 0 view .LVU719
 2407 0022 B178     		ldrb	r1, [r6, #2]	@ zero_extendqisi2
 2408              	.LVL248:
 411:../Bsp/OLED/GUISlim.c **** 												pCharInfo->XSize, GUI_Context.pAFont->YSize,
 2409              		.loc 1 411 5 is_stmt 1 view .LVU720
 411:../Bsp/OLED/GUISlim.c **** 												pCharInfo->XSize, GUI_Context.pAFont->YSize,
 2410              		.loc 1 411 36 is_stmt 0 view .LVU721
 2411 0024 184F     		ldr	r7, .L198
 412:../Bsp/OLED/GUISlim.c **** 												BytesPerLine, pCharInfo->pData);
 2412              		.loc 1 412 22 view .LVU722
 2413 0026 18F83420 		ldrb	r2, [r8, r4, lsl #3]	@ zero_extendqisi2
 412:../Bsp/OLED/GUISlim.c **** 												BytesPerLine, pCharInfo->pData);
 2414              		.loc 1 412 49 view .LVU723
 2415 002a 2B7D     		ldrb	r3, [r5, #20]	@ zero_extendqisi2
 413:../Bsp/OLED/GUISlim.c ****     /* Fill empty pixel lines */
 2416              		.loc 1 413 36 view .LVU724
 2417 002c 7068     		ldr	r0, [r6, #4]
 2418              	.LVL249:
 411:../Bsp/OLED/GUISlim.c **** 												pCharInfo->XSize, GUI_Context.pAFont->YSize,
 2419              		.loc 1 411 5 view .LVU725
 2420 002e 0190     		str	r0, [sp, #4]
 2421 0030 0091     		str	r1, [sp]
 2422 0032 B7F91610 		ldrsh	r1, [r7, #22]
 2423              	.LVL250:
 411:../Bsp/OLED/GUISlim.c **** 												pCharInfo->XSize, GUI_Context.pAFont->YSize,
 2424              		.loc 1 411 5 view .LVU726
 2425 0036 B7F91400 		ldrsh	r0, [r7, #20]
 2426 003a FFF7FEFF 		bl	LCD_DrawBitmap1BPP
 2427              	.LVL251:
 415:../Bsp/OLED/GUISlim.c ****       int YDist = GUI_Context.pAFont->YDist;
 2428              		.loc 1 415 5 is_stmt 1 view .LVU727
 415:../Bsp/OLED/GUISlim.c ****       int YDist = GUI_Context.pAFont->YDist;
 2429              		.loc 1 415 20 is_stmt 0 view .LVU728
 2430 003e 3A69     		ldr	r2, [r7, #16]
 415:../Bsp/OLED/GUISlim.c ****       int YDist = GUI_Context.pAFont->YDist;
 2431              		.loc 1 415 27 view .LVU729
 2432 0040 537D     		ldrb	r3, [r2, #21]	@ zero_extendqisi2
 415:../Bsp/OLED/GUISlim.c ****       int YDist = GUI_Context.pAFont->YDist;
 2433              		.loc 1 415 55 view .LVU730
 2434 0042 117D     		ldrb	r1, [r2, #20]	@ zero_extendqisi2
 415:../Bsp/OLED/GUISlim.c ****       int YDist = GUI_Context.pAFont->YDist;
 2435              		.loc 1 415 8 view .LVU731
 2436 0044 8B42     		cmp	r3, r1
 2437 0046 0AD8     		bhi	.L197
 2438              	.L195:
 423:../Bsp/OLED/GUISlim.c ****   }
 2439              		.loc 1 423 5 is_stmt 1 view .LVU732
 423:../Bsp/OLED/GUISlim.c ****   }
 2440              		.loc 1 423 16 is_stmt 0 view .LVU733
 2441 0048 0F4B     		ldr	r3, .L198
 2442 004a 9A8A     		ldrh	r2, [r3, #20]
 423:../Bsp/OLED/GUISlim.c ****   }
 2443              		.loc 1 423 38 view .LVU734
 2444 004c 7078     		ldrb	r0, [r6, #1]	@ zero_extendqisi2
 423:../Bsp/OLED/GUISlim.c ****   }
 2445              		.loc 1 423 59 view .LVU735
 2446 004e 1969     		ldr	r1, [r3, #16]
ARM GAS  C:\Users\fish\AppData\Local\Temp\cc4JAs8f.s 			page 66


 423:../Bsp/OLED/GUISlim.c ****   }
 2447              		.loc 1 423 66 view .LVU736
 2448 0050 897D     		ldrb	r1, [r1, #22]	@ zero_extendqisi2
 423:../Bsp/OLED/GUISlim.c ****   }
 2449              		.loc 1 423 26 view .LVU737
 2450 0052 00FB0122 		mla	r2, r0, r1, r2
 2451 0056 9A82     		strh	r2, [r3, #20]	@ movhi
 2452              	.LVL252:
 2453              	.L193:
 423:../Bsp/OLED/GUISlim.c ****   }
 2454              		.loc 1 423 26 view .LVU738
 2455              	.LBE20:
 425:../Bsp/OLED/GUISlim.c **** 
 2456              		.loc 1 425 1 view .LVU739
 2457 0058 02B0     		add	sp, sp, #8
 2458              		.cfi_remember_state
 2459              		.cfi_def_cfa_offset 24
 2460              		@ sp needed
 2461 005a BDE8F081 		pop	{r4, r5, r6, r7, r8, pc}
 2462              	.LVL253:
 2463              	.L197:
 2464              		.cfi_restore_state
 2465              	.LBB22:
 2466              	.LBB21:
 416:../Bsp/OLED/GUISlim.c ****       int YSize = GUI_Context.pAFont->YSize;
 2467              		.loc 1 416 7 is_stmt 1 view .LVU740
 417:../Bsp/OLED/GUISlim.c ****         SSD1306_DrawFilledRectangle(GUI_Context.DispPosX, 
 2468              		.loc 1 417 7 view .LVU741
 418:../Bsp/OLED/GUISlim.c ****                      GUI_Context.DispPosY + YSize, 
 2469              		.loc 1 418 9 view .LVU742
 418:../Bsp/OLED/GUISlim.c ****                      GUI_Context.DispPosY + YSize, 
 2470              		.loc 1 418 48 is_stmt 0 view .LVU743
 2471 005e 3D46     		mov	r5, r7
 2472 0060 B7F91400 		ldrsh	r0, [r7, #20]
 418:../Bsp/OLED/GUISlim.c ****                      GUI_Context.DispPosY + YSize, 
 2473              		.loc 1 418 9 view .LVU744
 2474 0064 80B2     		uxth	r0, r0
 419:../Bsp/OLED/GUISlim.c ****                      GUI_Context.DispPosX + pCharInfo->XSize, 
 2475              		.loc 1 419 33 view .LVU745
 2476 0066 FF8A     		ldrh	r7, [r7, #22]
 420:../Bsp/OLED/GUISlim.c ****                      GUI_Context.DispPosY + YDist, COLOR_B);
 2477              		.loc 1 420 54 view .LVU746
 2478 0068 18F83420 		ldrb	r2, [r8, r4, lsl #3]	@ zero_extendqisi2
 421:../Bsp/OLED/GUISlim.c ****     }
 2479              		.loc 1 421 52 view .LVU747
 2480 006c 2C7F     		ldrb	r4, [r5, #28]	@ zero_extendqisi2
 418:../Bsp/OLED/GUISlim.c ****                      GUI_Context.DispPosY + YSize, 
 2481              		.loc 1 418 9 view .LVU748
 2482 006e 3B44     		add	r3, r3, r7
 2483              	.LVL254:
 418:../Bsp/OLED/GUISlim.c ****                      GUI_Context.DispPosY + YSize, 
 2484              		.loc 1 418 9 view .LVU749
 2485 0070 0244     		add	r2, r2, r0
 2486 0072 3944     		add	r1, r1, r7
 2487              	.LVL255:
 418:../Bsp/OLED/GUISlim.c ****                      GUI_Context.DispPosY + YSize, 
 2488              		.loc 1 418 9 view .LVU750
ARM GAS  C:\Users\fish\AppData\Local\Temp\cc4JAs8f.s 			page 67


 2489 0074 013C     		subs	r4, r4, #1
 2490 0076 18BF     		it	ne
 2491 0078 0124     		movne	r4, #1
 2492 007a 0094     		str	r4, [sp]
 2493              	.LVL256:
 418:../Bsp/OLED/GUISlim.c ****                      GUI_Context.DispPosY + YSize, 
 2494              		.loc 1 418 9 view .LVU751
 2495 007c 9BB2     		uxth	r3, r3
 2496 007e 92B2     		uxth	r2, r2
 2497 0080 89B2     		uxth	r1, r1
 2498 0082 FFF7FEFF 		bl	SSD1306_DrawFilledRectangle
 2499              	.LVL257:
 2500 0086 DFE7     		b	.L195
 2501              	.L199:
 2502              		.align	2
 2503              	.L198:
 2504 0088 00000000 		.word	GUI_Context
 2505              	.LBE21:
 2506              	.LBE22:
 2507              		.cfi_endproc
 2508              	.LFE257:
 2510              		.section	.text.GUIPROP_GetCharDistX,"ax",%progbits
 2511              		.align	1
 2512              		.global	GUIPROP_GetCharDistX
 2513              		.syntax unified
 2514              		.thumb
 2515              		.thumb_func
 2517              	GUIPROP_GetCharDistX:
 2518              	.LVL258:
 2519              	.LFB258:
 431:../Bsp/OLED/GUISlim.c ****   const GUI_FONT_PROP GUI_UNI_PTR * pProp = GUIPROP_FindChar(GUI_Context.pAFont->p.pProp, c);
 2520              		.loc 1 431 34 is_stmt 1 view -0
 2521              		.cfi_startproc
 2522              		@ args = 0, pretend = 0, frame = 0
 2523              		@ frame_needed = 0, uses_anonymous_args = 0
 431:../Bsp/OLED/GUISlim.c ****   const GUI_FONT_PROP GUI_UNI_PTR * pProp = GUIPROP_FindChar(GUI_Context.pAFont->p.pProp, c);
 2524              		.loc 1 431 34 is_stmt 0 view .LVU753
 2525 0000 38B5     		push	{r3, r4, r5, lr}
 2526              		.cfi_def_cfa_offset 16
 2527              		.cfi_offset 3, -16
 2528              		.cfi_offset 4, -12
 2529              		.cfi_offset 5, -8
 2530              		.cfi_offset 14, -4
 2531 0002 0446     		mov	r4, r0
 432:../Bsp/OLED/GUISlim.c ****   return (pProp) ? (pProp->paCharInfo+(c-pProp->First))->XSize * GUI_Context.pAFont->XMag : 0;
 2532              		.loc 1 432 3 is_stmt 1 view .LVU754
 432:../Bsp/OLED/GUISlim.c ****   return (pProp) ? (pProp->paCharInfo+(c-pProp->First))->XSize * GUI_Context.pAFont->XMag : 0;
 2533              		.loc 1 432 73 is_stmt 0 view .LVU755
 2534 0004 084B     		ldr	r3, .L204
 2535 0006 1D69     		ldr	r5, [r3, #16]
 432:../Bsp/OLED/GUISlim.c ****   return (pProp) ? (pProp->paCharInfo+(c-pProp->First))->XSize * GUI_Context.pAFont->XMag : 0;
 2536              		.loc 1 432 45 view .LVU756
 2537 0008 0146     		mov	r1, r0
 2538 000a A869     		ldr	r0, [r5, #24]
 2539              	.LVL259:
 432:../Bsp/OLED/GUISlim.c ****   return (pProp) ? (pProp->paCharInfo+(c-pProp->First))->XSize * GUI_Context.pAFont->XMag : 0;
 2540              		.loc 1 432 45 view .LVU757
ARM GAS  C:\Users\fish\AppData\Local\Temp\cc4JAs8f.s 			page 68


 2541 000c FFF7FEFF 		bl	GUIPROP_FindChar
 2542              	.LVL260:
 433:../Bsp/OLED/GUISlim.c **** }
 2543              		.loc 1 433 3 is_stmt 1 view .LVU758
 433:../Bsp/OLED/GUISlim.c **** }
 2544              		.loc 1 433 91 is_stmt 0 view .LVU759
 2545 0010 40B1     		cbz	r0, .L202
 433:../Bsp/OLED/GUISlim.c **** }
 2546              		.loc 1 433 26 discriminator 1 view .LVU760
 2547 0012 4268     		ldr	r2, [r0, #4]
 433:../Bsp/OLED/GUISlim.c **** }
 2548              		.loc 1 433 47 discriminator 1 view .LVU761
 2549 0014 0388     		ldrh	r3, [r0]
 433:../Bsp/OLED/GUISlim.c **** }
 2550              		.loc 1 433 41 discriminator 1 view .LVU762
 2551 0016 E41A     		subs	r4, r4, r3
 2552              	.LVL261:
 433:../Bsp/OLED/GUISlim.c **** }
 2553              		.loc 1 433 56 discriminator 1 view .LVU763
 2554 0018 12F83400 		ldrb	r0, [r2, r4, lsl #3]	@ zero_extendqisi2
 2555              	.LVL262:
 433:../Bsp/OLED/GUISlim.c **** }
 2556              		.loc 1 433 84 discriminator 1 view .LVU764
 2557 001c AB7D     		ldrb	r3, [r5, #22]	@ zero_extendqisi2
 433:../Bsp/OLED/GUISlim.c **** }
 2558              		.loc 1 433 91 discriminator 1 view .LVU765
 2559 001e 03FB00F0 		mul	r0, r3, r0
 2560              	.L200:
 434:../Bsp/OLED/GUISlim.c **** 
 2561              		.loc 1 434 1 view .LVU766
 2562 0022 38BD     		pop	{r3, r4, r5, pc}
 2563              	.LVL263:
 2564              	.L202:
 433:../Bsp/OLED/GUISlim.c **** }
 2565              		.loc 1 433 91 discriminator 2 view .LVU767
 2566 0024 0020     		movs	r0, #0
 2567              	.LVL264:
 433:../Bsp/OLED/GUISlim.c **** }
 2568              		.loc 1 433 91 view .LVU768
 2569 0026 FCE7     		b	.L200
 2570              	.L205:
 2571              		.align	2
 2572              	.L204:
 2573 0028 00000000 		.word	GUI_Context
 2574              		.cfi_endproc
 2575              	.LFE258:
 2577              		.section	.text.GUIPROP_GetFontInfo,"ax",%progbits
 2578              		.align	1
 2579              		.global	GUIPROP_GetFontInfo
 2580              		.syntax unified
 2581              		.thumb
 2582              		.thumb_func
 2584              	GUIPROP_GetFontInfo:
 2585              	.LVL265:
 2586              	.LFB259:
 440:../Bsp/OLED/GUISlim.c ****   pfi->Flags = GUI_FONTINFO_FLAG_PROP;
 2587              		.loc 1 440 81 is_stmt 1 view -0
ARM GAS  C:\Users\fish\AppData\Local\Temp\cc4JAs8f.s 			page 69


 2588              		.cfi_startproc
 2589              		@ args = 0, pretend = 0, frame = 0
 2590              		@ frame_needed = 0, uses_anonymous_args = 0
 2591              		@ link register save eliminated.
 441:../Bsp/OLED/GUISlim.c **** }
 2592              		.loc 1 441 3 view .LVU770
 441:../Bsp/OLED/GUISlim.c **** }
 2593              		.loc 1 441 14 is_stmt 0 view .LVU771
 2594 0000 0123     		movs	r3, #1
 2595 0002 0B80     		strh	r3, [r1]	@ movhi
 442:../Bsp/OLED/GUISlim.c **** 
 2596              		.loc 1 442 1 view .LVU772
 2597 0004 7047     		bx	lr
 2598              		.cfi_endproc
 2599              	.LFE259:
 2601              		.section	.text.GUIPROP_IsInFont,"ax",%progbits
 2602              		.align	1
 2603              		.global	GUIPROP_IsInFont
 2604              		.syntax unified
 2605              		.thumb
 2606              		.thumb_func
 2608              	GUIPROP_IsInFont:
 2609              	.LVL266:
 2610              	.LFB260:
 448:../Bsp/OLED/GUISlim.c ****   const GUI_FONT_PROP GUI_UNI_PTR * pProp = GUIPROP_FindChar(pFont->p.pProp, c);
 2611              		.loc 1 448 66 is_stmt 1 view -0
 2612              		.cfi_startproc
 2613              		@ args = 0, pretend = 0, frame = 0
 2614              		@ frame_needed = 0, uses_anonymous_args = 0
 448:../Bsp/OLED/GUISlim.c ****   const GUI_FONT_PROP GUI_UNI_PTR * pProp = GUIPROP_FindChar(pFont->p.pProp, c);
 2615              		.loc 1 448 66 is_stmt 0 view .LVU774
 2616 0000 08B5     		push	{r3, lr}
 2617              		.cfi_def_cfa_offset 8
 2618              		.cfi_offset 3, -8
 2619              		.cfi_offset 14, -4
 449:../Bsp/OLED/GUISlim.c ****   return (pProp==NULL) ? 0 : 1;
 2620              		.loc 1 449 3 is_stmt 1 view .LVU775
 449:../Bsp/OLED/GUISlim.c ****   return (pProp==NULL) ? 0 : 1;
 2621              		.loc 1 449 45 is_stmt 0 view .LVU776
 2622 0002 8069     		ldr	r0, [r0, #24]
 2623              	.LVL267:
 449:../Bsp/OLED/GUISlim.c ****   return (pProp==NULL) ? 0 : 1;
 2624              		.loc 1 449 45 view .LVU777
 2625 0004 FFF7FEFF 		bl	GUIPROP_FindChar
 2626              	.LVL268:
 450:../Bsp/OLED/GUISlim.c **** }
 2627              		.loc 1 450 3 is_stmt 1 view .LVU778
 451:../Bsp/OLED/GUISlim.c **** 
 2628              		.loc 1 451 1 is_stmt 0 view .LVU779
 2629 0008 0038     		subs	r0, r0, #0
 451:../Bsp/OLED/GUISlim.c **** 
 2630              		.loc 1 451 1 view .LVU780
 2631 000a 18BF     		it	ne
 2632 000c 0120     		movne	r0, #1
 2633              	.LVL269:
 451:../Bsp/OLED/GUISlim.c **** 
 2634              		.loc 1 451 1 view .LVU781
ARM GAS  C:\Users\fish\AppData\Local\Temp\cc4JAs8f.s 			page 70


 2635 000e 08BD     		pop	{r3, pc}
 2636              		.cfi_endproc
 2637              	.LFE260:
 2639              		.section	.text.GUI_GetFontDistY,"ax",%progbits
 2640              		.align	1
 2641              		.global	GUI_GetFontDistY
 2642              		.syntax unified
 2643              		.thumb
 2644              		.thumb_func
 2646              	GUI_GetFontDistY:
 2647              	.LFB261:
 457:../Bsp/OLED/GUISlim.c ****   int r;
 2648              		.loc 1 457 28 is_stmt 1 view -0
 2649              		.cfi_startproc
 2650              		@ args = 0, pretend = 0, frame = 0
 2651              		@ frame_needed = 0, uses_anonymous_args = 0
 2652              		@ link register save eliminated.
 458:../Bsp/OLED/GUISlim.c ****   GUI_LOCK();
 2653              		.loc 1 458 3 view .LVU783
 459:../Bsp/OLED/GUISlim.c ****   r = GUI_Context.pAFont->YDist;
 2654              		.loc 1 459 13 view .LVU784
 460:../Bsp/OLED/GUISlim.c ****   GUI_UNLOCK();
 2655              		.loc 1 460 3 view .LVU785
 460:../Bsp/OLED/GUISlim.c ****   GUI_UNLOCK();
 2656              		.loc 1 460 18 is_stmt 0 view .LVU786
 2657 0000 014B     		ldr	r3, .L210
 2658 0002 1B69     		ldr	r3, [r3, #16]
 2659              	.LVL270:
 461:../Bsp/OLED/GUISlim.c ****   return r;
 2660              		.loc 1 461 15 is_stmt 1 view .LVU787
 462:../Bsp/OLED/GUISlim.c **** }
 2661              		.loc 1 462 3 view .LVU788
 463:../Bsp/OLED/GUISlim.c **** 
 2662              		.loc 1 463 1 is_stmt 0 view .LVU789
 2663 0004 587D     		ldrb	r0, [r3, #21]	@ zero_extendqisi2
 2664              	.LVL271:
 463:../Bsp/OLED/GUISlim.c **** 
 2665              		.loc 1 463 1 view .LVU790
 2666 0006 7047     		bx	lr
 2667              	.L211:
 2668              		.align	2
 2669              	.L210:
 2670 0008 00000000 		.word	GUI_Context
 2671              		.cfi_endproc
 2672              	.LFE261:
 2674              		.section	.text.GUI_GetCharDistX,"ax",%progbits
 2675              		.align	1
 2676              		.global	GUI_GetCharDistX
 2677              		.syntax unified
 2678              		.thumb
 2679              		.thumb_func
 2681              	GUI_GetCharDistX:
 2682              	.LVL272:
 2683              	.LFB262:
 469:../Bsp/OLED/GUISlim.c ****   int r;
 2684              		.loc 1 469 29 is_stmt 1 view -0
 2685              		.cfi_startproc
ARM GAS  C:\Users\fish\AppData\Local\Temp\cc4JAs8f.s 			page 71


 2686              		@ args = 0, pretend = 0, frame = 0
 2687              		@ frame_needed = 0, uses_anonymous_args = 0
 469:../Bsp/OLED/GUISlim.c ****   int r;
 2688              		.loc 1 469 29 is_stmt 0 view .LVU792
 2689 0000 08B5     		push	{r3, lr}
 2690              		.cfi_def_cfa_offset 8
 2691              		.cfi_offset 3, -8
 2692              		.cfi_offset 14, -4
 470:../Bsp/OLED/GUISlim.c ****   GUI_LOCK();
 2693              		.loc 1 470 3 is_stmt 1 view .LVU793
 471:../Bsp/OLED/GUISlim.c ****   r = GUI_Context.pAFont->pfGetCharDistX(c);
 2694              		.loc 1 471 13 view .LVU794
 472:../Bsp/OLED/GUISlim.c ****   GUI_UNLOCK();
 2695              		.loc 1 472 3 view .LVU795
 472:../Bsp/OLED/GUISlim.c ****   GUI_UNLOCK();
 2696              		.loc 1 472 18 is_stmt 0 view .LVU796
 2697 0002 024B     		ldr	r3, .L214
 2698 0004 1B69     		ldr	r3, [r3, #16]
 472:../Bsp/OLED/GUISlim.c ****   GUI_UNLOCK();
 2699              		.loc 1 472 25 view .LVU797
 2700 0006 5B68     		ldr	r3, [r3, #4]
 472:../Bsp/OLED/GUISlim.c ****   GUI_UNLOCK();
 2701              		.loc 1 472 7 view .LVU798
 2702 0008 9847     		blx	r3
 2703              	.LVL273:
 473:../Bsp/OLED/GUISlim.c ****   return r;
 2704              		.loc 1 473 15 is_stmt 1 view .LVU799
 474:../Bsp/OLED/GUISlim.c **** }
 2705              		.loc 1 474 3 view .LVU800
 475:../Bsp/OLED/GUISlim.c **** 
 2706              		.loc 1 475 1 is_stmt 0 view .LVU801
 2707 000a 08BD     		pop	{r3, pc}
 2708              	.L215:
 2709              		.align	2
 2710              	.L214:
 2711 000c 00000000 		.word	GUI_Context
 2712              		.cfi_endproc
 2713              	.LFE262:
 2715              		.section	.text._GetLineDistX_SJIS,"ax",%progbits
 2716              		.align	1
 2717              		.syntax unified
 2718              		.thumb
 2719              		.thumb_func
 2721              	_GetLineDistX_SJIS:
 2722              	.LVL274:
 2723              	.LFB277:
 631:../Bsp/OLED/GUISlim.c ****   int Dist =0;
 2724              		.loc 1 631 67 is_stmt 1 view -0
 2725              		.cfi_startproc
 2726              		@ args = 0, pretend = 0, frame = 0
 2727              		@ frame_needed = 0, uses_anonymous_args = 0
 631:../Bsp/OLED/GUISlim.c ****   int Dist =0;
 2728              		.loc 1 631 67 is_stmt 0 view .LVU803
 2729 0000 2DE9F041 		push	{r4, r5, r6, r7, r8, lr}
 2730              		.cfi_def_cfa_offset 24
 2731              		.cfi_offset 4, -24
 2732              		.cfi_offset 5, -20
ARM GAS  C:\Users\fish\AppData\Local\Temp\cc4JAs8f.s 			page 72


 2733              		.cfi_offset 6, -16
 2734              		.cfi_offset 7, -12
 2735              		.cfi_offset 8, -8
 2736              		.cfi_offset 14, -4
 632:../Bsp/OLED/GUISlim.c ****   if (s) {
 2737              		.loc 1 632 3 is_stmt 1 view .LVU804
 2738              	.LVL275:
 633:../Bsp/OLED/GUISlim.c ****     U8 c0;
 2739              		.loc 1 633 3 view .LVU805
 633:../Bsp/OLED/GUISlim.c ****     U8 c0;
 2740              		.loc 1 633 6 is_stmt 0 view .LVU806
 2741 0004 18B1     		cbz	r0, .L224
 2742 0006 0C46     		mov	r4, r1
 2743 0008 0546     		mov	r5, r0
 632:../Bsp/OLED/GUISlim.c ****   if (s) {
 2744              		.loc 1 632 7 view .LVU807
 2745 000a 0026     		movs	r6, #0
 2746 000c 0BE0     		b	.L217
 2747              	.L224:
 632:../Bsp/OLED/GUISlim.c ****   if (s) {
 2748              		.loc 1 632 7 view .LVU808
 2749 000e 0026     		movs	r6, #0
 2750              	.LVL276:
 2751              	.L216:
 647:../Bsp/OLED/GUISlim.c **** 
 2752              		.loc 1 647 1 view .LVU809
 2753 0010 3046     		mov	r0, r6
 2754 0012 BDE8F081 		pop	{r4, r5, r6, r7, r8, pc}
 2755              	.LVL277:
 2756              	.L225:
 2757              	.LBB23:
 2758              	.LBB24:
 638:../Bsp/OLED/GUISlim.c ****         Len--;
 2759              		.loc 1 638 9 is_stmt 1 view .LVU810
 638:../Bsp/OLED/GUISlim.c ****         Len--;
 2760              		.loc 1 638 19 is_stmt 0 view .LVU811
 2761 0016 0235     		adds	r5, r5, #2
 2762              	.LVL278:
 639:../Bsp/OLED/GUISlim.c ****         Dist += GUI_GetCharDistX(DB2SJIS(c0, c1));
 2763              		.loc 1 639 9 is_stmt 1 view .LVU812
 639:../Bsp/OLED/GUISlim.c ****         Dist += GUI_GetCharDistX(DB2SJIS(c0, c1));
 2764              		.loc 1 639 12 is_stmt 0 view .LVU813
 2765 0018 023C     		subs	r4, r4, #2
 2766              	.LVL279:
 640:../Bsp/OLED/GUISlim.c ****       } else {
 2767              		.loc 1 640 9 is_stmt 1 view .LVU814
 640:../Bsp/OLED/GUISlim.c ****       } else {
 2768              		.loc 1 640 17 is_stmt 0 view .LVU815
 2769 001a 3978     		ldrb	r1, [r7]	@ zero_extendqisi2
 2770 001c FFF7FEFF 		bl	DB2SJIS
 2771              	.LVL280:
 640:../Bsp/OLED/GUISlim.c ****       } else {
 2772              		.loc 1 640 17 discriminator 1 view .LVU816
 2773 0020 FFF7FEFF 		bl	GUI_GetCharDistX
 2774              	.LVL281:
 640:../Bsp/OLED/GUISlim.c ****       } else {
 2775              		.loc 1 640 14 discriminator 2 view .LVU817
ARM GAS  C:\Users\fish\AppData\Local\Temp\cc4JAs8f.s 			page 73


 2776 0024 0644     		add	r6, r6, r0
 2777              	.LVL282:
 2778              	.L217:
 640:../Bsp/OLED/GUISlim.c ****       } else {
 2779              		.loc 1 640 14 discriminator 2 view .LVU818
 2780              	.LBE24:
 635:../Bsp/OLED/GUISlim.c ****       s++; Len--;
 2781              		.loc 1 635 37 is_stmt 1 view .LVU819
 635:../Bsp/OLED/GUISlim.c ****       s++; Len--;
 2782              		.loc 1 635 16 is_stmt 0 view .LVU820
 2783 0026 2878     		ldrb	r0, [r5]	@ zero_extendqisi2
 2784              	.LVL283:
 635:../Bsp/OLED/GUISlim.c ****       s++; Len--;
 2785              		.loc 1 635 37 view .LVU821
 2786 0028 0028     		cmp	r0, #0
 2787 002a F1D0     		beq	.L216
 635:../Bsp/OLED/GUISlim.c ****       s++; Len--;
 2788              		.loc 1 635 37 discriminator 1 view .LVU822
 2789 002c 002C     		cmp	r4, #0
 2790 002e EFDB     		blt	.L216
 636:../Bsp/OLED/GUISlim.c ****       if (c0 > 127) {
 2791              		.loc 1 636 7 is_stmt 1 view .LVU823
 636:../Bsp/OLED/GUISlim.c ****       if (c0 > 127) {
 2792              		.loc 1 636 8 is_stmt 0 view .LVU824
 2793 0030 6F1C     		adds	r7, r5, #1
 2794              	.LVL284:
 636:../Bsp/OLED/GUISlim.c ****       if (c0 > 127) {
 2795              		.loc 1 636 12 is_stmt 1 view .LVU825
 636:../Bsp/OLED/GUISlim.c ****       if (c0 > 127) {
 2796              		.loc 1 636 15 is_stmt 0 view .LVU826
 2797 0032 04F1FF38 		add	r8, r4, #-1
 2798              	.LVL285:
 637:../Bsp/OLED/GUISlim.c ****         U8  c1 = *(const U8*)s++;
 2799              		.loc 1 637 7 is_stmt 1 view .LVU827
 637:../Bsp/OLED/GUISlim.c ****         U8  c1 = *(const U8*)s++;
 2800              		.loc 1 637 10 is_stmt 0 view .LVU828
 2801 0036 10F0800F 		tst	r0, #128
 2802 003a ECD1     		bne	.L225
 642:../Bsp/OLED/GUISlim.c ****       }
 2803              		.loc 1 642 9 is_stmt 1 view .LVU829
 642:../Bsp/OLED/GUISlim.c ****       }
 2804              		.loc 1 642 17 is_stmt 0 view .LVU830
 2805 003c FFF7FEFF 		bl	GUI_GetCharDistX
 2806              	.LVL286:
 642:../Bsp/OLED/GUISlim.c ****       }
 2807              		.loc 1 642 14 discriminator 1 view .LVU831
 2808 0040 0644     		add	r6, r6, r0
 2809              	.LVL287:
 636:../Bsp/OLED/GUISlim.c ****       if (c0 > 127) {
 2810              		.loc 1 636 15 view .LVU832
 2811 0042 4446     		mov	r4, r8
 636:../Bsp/OLED/GUISlim.c ****       if (c0 > 127) {
 2812              		.loc 1 636 8 view .LVU833
 2813 0044 3D46     		mov	r5, r7
 2814 0046 EEE7     		b	.L217
 2815              	.LBE23:
 2816              		.cfi_endproc
ARM GAS  C:\Users\fish\AppData\Local\Temp\cc4JAs8f.s 			page 74


 2817              	.LFE277:
 2819              		.section	.text.GUI_DispNextLine,"ax",%progbits
 2820              		.align	1
 2821              		.global	GUI_DispNextLine
 2822              		.syntax unified
 2823              		.thumb
 2824              		.thumb_func
 2826              	GUI_DispNextLine:
 2827              	.LFB263:
 477:../Bsp/OLED/GUISlim.c ****   GUI_LOCK();
 2828              		.loc 1 477 29 is_stmt 1 view -0
 2829              		.cfi_startproc
 2830              		@ args = 0, pretend = 0, frame = 0
 2831              		@ frame_needed = 0, uses_anonymous_args = 0
 2832 0000 08B5     		push	{r3, lr}
 2833              		.cfi_def_cfa_offset 8
 2834              		.cfi_offset 3, -8
 2835              		.cfi_offset 14, -4
 478:../Bsp/OLED/GUISlim.c ****   GUI_Context.DispPosY += GUI_GetFontDistY();
 2836              		.loc 1 478 13 view .LVU835
 479:../Bsp/OLED/GUISlim.c ****   GUI_UNLOCK();
 2837              		.loc 1 479 3 view .LVU836
 479:../Bsp/OLED/GUISlim.c ****   GUI_UNLOCK();
 2838              		.loc 1 479 27 is_stmt 0 view .LVU837
 2839 0002 FFF7FEFF 		bl	GUI_GetFontDistY
 2840              	.LVL288:
 479:../Bsp/OLED/GUISlim.c ****   GUI_UNLOCK();
 2841              		.loc 1 479 14 discriminator 1 view .LVU838
 2842 0006 024A     		ldr	r2, .L228
 2843 0008 D38A     		ldrh	r3, [r2, #22]
 479:../Bsp/OLED/GUISlim.c ****   GUI_UNLOCK();
 2844              		.loc 1 479 24 discriminator 1 view .LVU839
 2845 000a 0344     		add	r3, r3, r0
 2846 000c D382     		strh	r3, [r2, #22]	@ movhi
 480:../Bsp/OLED/GUISlim.c **** }
 2847              		.loc 1 480 15 is_stmt 1 view .LVU840
 481:../Bsp/OLED/GUISlim.c **** 
 2848              		.loc 1 481 1 is_stmt 0 view .LVU841
 2849 000e 08BD     		pop	{r3, pc}
 2850              	.L229:
 2851              		.align	2
 2852              	.L228:
 2853 0010 00000000 		.word	GUI_Context
 2854              		.cfi_endproc
 2855              	.LFE263:
 2857              		.section	.text.GL_DispChar,"ax",%progbits
 2858              		.align	1
 2859              		.global	GL_DispChar
 2860              		.syntax unified
 2861              		.thumb
 2862              		.thumb_func
 2864              	GL_DispChar:
 2865              	.LVL289:
 2866              	.LFB264:
 487:../Bsp/OLED/GUISlim.c ****   /* check for control characters */
 2867              		.loc 1 487 25 is_stmt 1 view -0
 2868              		.cfi_startproc
ARM GAS  C:\Users\fish\AppData\Local\Temp\cc4JAs8f.s 			page 75


 2869              		@ args = 0, pretend = 0, frame = 0
 2870              		@ frame_needed = 0, uses_anonymous_args = 0
 487:../Bsp/OLED/GUISlim.c ****   /* check for control characters */
 2871              		.loc 1 487 25 is_stmt 0 view .LVU843
 2872 0000 08B5     		push	{r3, lr}
 2873              		.cfi_def_cfa_offset 8
 2874              		.cfi_offset 3, -8
 2875              		.cfi_offset 14, -4
 489:../Bsp/OLED/GUISlim.c ****     GUI_DispNextLine();
 2876              		.loc 1 489 3 is_stmt 1 view .LVU844
 489:../Bsp/OLED/GUISlim.c ****     GUI_DispNextLine();
 2877              		.loc 1 489 6 is_stmt 0 view .LVU845
 2878 0002 0A28     		cmp	r0, #10
 2879 0004 06D0     		beq	.L234
 492:../Bsp/OLED/GUISlim.c ****       GUI_LOCK();
 2880              		.loc 1 492 5 is_stmt 1 view .LVU846
 492:../Bsp/OLED/GUISlim.c ****       GUI_LOCK();
 2881              		.loc 1 492 8 is_stmt 0 view .LVU847
 2882 0006 0D28     		cmp	r0, #13
 2883 0008 03D0     		beq	.L230
 493:../Bsp/OLED/GUISlim.c ****       GUI_Context.pAFont->pfDispChar(c);
 2884              		.loc 1 493 17 is_stmt 1 view .LVU848
 494:../Bsp/OLED/GUISlim.c ****       GUI_UNLOCK();
 2885              		.loc 1 494 7 view .LVU849
 494:../Bsp/OLED/GUISlim.c ****       GUI_UNLOCK();
 2886              		.loc 1 494 18 is_stmt 0 view .LVU850
 2887 000a 044B     		ldr	r3, .L235
 2888 000c 1B69     		ldr	r3, [r3, #16]
 494:../Bsp/OLED/GUISlim.c ****       GUI_UNLOCK();
 2889              		.loc 1 494 25 view .LVU851
 2890 000e 1B68     		ldr	r3, [r3]
 494:../Bsp/OLED/GUISlim.c ****       GUI_UNLOCK();
 2891              		.loc 1 494 7 view .LVU852
 2892 0010 9847     		blx	r3
 2893              	.LVL290:
 495:../Bsp/OLED/GUISlim.c ****     }
 2894              		.loc 1 495 19 is_stmt 1 view .LVU853
 2895              	.L230:
 498:../Bsp/OLED/GUISlim.c **** 
 2896              		.loc 1 498 1 is_stmt 0 view .LVU854
 2897 0012 08BD     		pop	{r3, pc}
 2898              	.LVL291:
 2899              	.L234:
 490:../Bsp/OLED/GUISlim.c ****   } else {
 2900              		.loc 1 490 5 is_stmt 1 view .LVU855
 2901 0014 FFF7FEFF 		bl	GUI_DispNextLine
 2902              	.LVL292:
 490:../Bsp/OLED/GUISlim.c ****   } else {
 2903              		.loc 1 490 5 is_stmt 0 view .LVU856
 2904 0018 FBE7     		b	.L230
 2905              	.L236:
 2906 001a 00BF     		.align	2
 2907              	.L235:
 2908 001c 00000000 		.word	GUI_Context
 2909              		.cfi_endproc
 2910              	.LFE264:
 2912              		.section	.text._DispLine_SJIS,"ax",%progbits
ARM GAS  C:\Users\fish\AppData\Local\Temp\cc4JAs8f.s 			page 76


 2913              		.align	1
 2914              		.syntax unified
 2915              		.thumb
 2916              		.thumb_func
 2918              	_DispLine_SJIS:
 2919              	.LVL293:
 2920              	.LFB279:
 680:../Bsp/OLED/GUISlim.c ****   U8 c0;
 2921              		.loc 1 680 64 is_stmt 1 view -0
 2922              		.cfi_startproc
 2923              		@ args = 0, pretend = 0, frame = 0
 2924              		@ frame_needed = 0, uses_anonymous_args = 0
 680:../Bsp/OLED/GUISlim.c ****   U8 c0;
 2925              		.loc 1 680 64 is_stmt 0 view .LVU858
 2926 0000 F8B5     		push	{r3, r4, r5, r6, r7, lr}
 2927              		.cfi_def_cfa_offset 24
 2928              		.cfi_offset 3, -24
 2929              		.cfi_offset 4, -20
 2930              		.cfi_offset 5, -16
 2931              		.cfi_offset 6, -12
 2932              		.cfi_offset 7, -8
 2933              		.cfi_offset 14, -4
 2934 0002 0646     		mov	r6, r0
 2935 0004 0C46     		mov	r4, r1
 681:../Bsp/OLED/GUISlim.c ****   while (--Len >=0) {
 2936              		.loc 1 681 3 is_stmt 1 view .LVU859
 682:../Bsp/OLED/GUISlim.c ****     c0=*(const U8*)s++;
 2937              		.loc 1 682 3 view .LVU860
 682:../Bsp/OLED/GUISlim.c ****     c0=*(const U8*)s++;
 2938              		.loc 1 682 9 is_stmt 0 view .LVU861
 2939 0006 06E0     		b	.L238
 2940              	.LVL294:
 2941              	.L244:
 2942              	.LBB25:
 685:../Bsp/OLED/GUISlim.c ****       Len--;
 2943              		.loc 1 685 7 is_stmt 1 view .LVU862
 685:../Bsp/OLED/GUISlim.c ****       Len--;
 2944              		.loc 1 685 17 is_stmt 0 view .LVU863
 2945 0008 0236     		adds	r6, r6, #2
 2946              	.LVL295:
 686:../Bsp/OLED/GUISlim.c ****       GL_DispChar (DB2SJIS(c0, c1));
 2947              		.loc 1 686 7 is_stmt 1 view .LVU864
 686:../Bsp/OLED/GUISlim.c ****       GL_DispChar (DB2SJIS(c0, c1));
 2948              		.loc 1 686 10 is_stmt 0 view .LVU865
 2949 000a 023C     		subs	r4, r4, #2
 2950              	.LVL296:
 687:../Bsp/OLED/GUISlim.c ****     } else {
 2951              		.loc 1 687 7 is_stmt 1 view .LVU866
 2952 000c 2978     		ldrb	r1, [r5]	@ zero_extendqisi2
 2953 000e FFF7FEFF 		bl	DB2SJIS
 2954              	.LVL297:
 687:../Bsp/OLED/GUISlim.c ****     } else {
 2955              		.loc 1 687 7 is_stmt 0 discriminator 1 view .LVU867
 2956 0012 FFF7FEFF 		bl	GL_DispChar
 2957              	.LVL298:
 2958              	.L238:
 687:../Bsp/OLED/GUISlim.c ****     } else {
ARM GAS  C:\Users\fish\AppData\Local\Temp\cc4JAs8f.s 			page 77


 2959              		.loc 1 687 7 discriminator 1 view .LVU868
 2960              	.LBE25:
 682:../Bsp/OLED/GUISlim.c ****     c0=*(const U8*)s++;
 2961              		.loc 1 682 16 is_stmt 1 view .LVU869
 682:../Bsp/OLED/GUISlim.c ****     c0=*(const U8*)s++;
 2962              		.loc 1 682 16 is_stmt 0 view .LVU870
 2963 0016 671E     		subs	r7, r4, #1
 2964              	.LVL299:
 682:../Bsp/OLED/GUISlim.c ****     c0=*(const U8*)s++;
 2965              		.loc 1 682 16 view .LVU871
 2966 0018 0AD4     		bmi	.L243
 683:../Bsp/OLED/GUISlim.c ****     if (c0 > 127) {
 2967              		.loc 1 683 5 is_stmt 1 view .LVU872
 683:../Bsp/OLED/GUISlim.c ****     if (c0 > 127) {
 2968              		.loc 1 683 9 is_stmt 0 view .LVU873
 2969 001a 3546     		mov	r5, r6
 2970              	.LVL300:
 683:../Bsp/OLED/GUISlim.c ****     if (c0 > 127) {
 2971              		.loc 1 683 7 view .LVU874
 2972 001c 15F8010B 		ldrb	r0, [r5], #1	@ zero_extendqisi2
 2973              	.LVL301:
 684:../Bsp/OLED/GUISlim.c ****       U8  c1 = *(const U8*)s++;
 2974              		.loc 1 684 5 is_stmt 1 view .LVU875
 684:../Bsp/OLED/GUISlim.c ****       U8  c1 = *(const U8*)s++;
 2975              		.loc 1 684 8 is_stmt 0 view .LVU876
 2976 0020 10F0800F 		tst	r0, #128
 2977 0024 F0D1     		bne	.L244
 689:../Bsp/OLED/GUISlim.c ****     }
 2978              		.loc 1 689 7 is_stmt 1 view .LVU877
 2979 0026 FFF7FEFF 		bl	GL_DispChar
 2980              	.LVL302:
 682:../Bsp/OLED/GUISlim.c ****     c0=*(const U8*)s++;
 2981              		.loc 1 682 16 is_stmt 0 view .LVU878
 2982 002a 3C46     		mov	r4, r7
 683:../Bsp/OLED/GUISlim.c ****     if (c0 > 127) {
 2983              		.loc 1 683 9 view .LVU879
 2984 002c 2E46     		mov	r6, r5
 2985 002e F2E7     		b	.L238
 2986              	.LVL303:
 2987              	.L243:
 692:../Bsp/OLED/GUISlim.c **** ///////////////////////////////////////////////////////////////////////
 2988              		.loc 1 692 1 view .LVU880
 2989 0030 F8BD     		pop	{r3, r4, r5, r6, r7, pc}
 692:../Bsp/OLED/GUISlim.c **** ///////////////////////////////////////////////////////////////////////
 2990              		.loc 1 692 1 view .LVU881
 2991              		.cfi_endproc
 2992              	.LFE279:
 2994              		.section	.text._DispLine,"ax",%progbits
 2995              		.align	1
 2996              		.syntax unified
 2997              		.thumb
 2998              		.thumb_func
 3000              	_DispLine:
 3001              	.LVL304:
 3002              	.LFB287:
 701:../Bsp/OLED/GUISlim.c **** int GUI_UC_GetCharSize(const char GUI_UNI_PTR * s) {
 702:../Bsp/OLED/GUISlim.c ****   int r;
ARM GAS  C:\Users\fish\AppData\Local\Temp\cc4JAs8f.s 			page 78


 703:../Bsp/OLED/GUISlim.c ****   GUI_LOCK();
 704:../Bsp/OLED/GUISlim.c ****   r =  _GetCharSize(s);
 705:../Bsp/OLED/GUISlim.c ****   GUI_UNLOCK();
 706:../Bsp/OLED/GUISlim.c ****   return r;
 707:../Bsp/OLED/GUISlim.c **** }
 708:../Bsp/OLED/GUISlim.c **** 
 709:../Bsp/OLED/GUISlim.c **** U16 GUI_UC_GetCharCode(const char GUI_UNI_PTR * s) {
 710:../Bsp/OLED/GUISlim.c ****   U16 r;
 711:../Bsp/OLED/GUISlim.c ****   GUI_LOCK();
 712:../Bsp/OLED/GUISlim.c ****   r =  _GetCharCode(s);
 713:../Bsp/OLED/GUISlim.c ****   GUI_UNLOCK();
 714:../Bsp/OLED/GUISlim.c ****   return r;
 715:../Bsp/OLED/GUISlim.c **** }
 716:../Bsp/OLED/GUISlim.c **** 
 717:../Bsp/OLED/GUISlim.c **** U16 GUI_UC__GetCharCodeInc(const char GUI_UNI_PTR ** ps) {
 718:../Bsp/OLED/GUISlim.c ****   const char GUI_UNI_PTR * s;
 719:../Bsp/OLED/GUISlim.c ****   U16 r;
 720:../Bsp/OLED/GUISlim.c ****   s   = *ps;
 721:../Bsp/OLED/GUISlim.c ****   r   = _GetCharCode(s);
 722:../Bsp/OLED/GUISlim.c ****   s  += _GetCharSize(s);
 723:../Bsp/OLED/GUISlim.c ****   *ps = s;
 724:../Bsp/OLED/GUISlim.c ****   return r;
 725:../Bsp/OLED/GUISlim.c **** }
 726:../Bsp/OLED/GUISlim.c **** int GUI_UC__NumChars2NumBytes(const char GUI_UNI_PTR * s, int NumChars) {
 727:../Bsp/OLED/GUISlim.c ****   int CharSize, NumBytes = 0;
 728:../Bsp/OLED/GUISlim.c ****   while (NumChars--) {
 729:../Bsp/OLED/GUISlim.c ****     CharSize = _GetCharSize(s);
 730:../Bsp/OLED/GUISlim.c ****     s += CharSize;    
 731:../Bsp/OLED/GUISlim.c ****     NumBytes += CharSize;
 732:../Bsp/OLED/GUISlim.c ****   }
 733:../Bsp/OLED/GUISlim.c ****   return NumBytes;
 734:../Bsp/OLED/GUISlim.c **** }
 735:../Bsp/OLED/GUISlim.c **** int GUI_UC__NumBytes2NumChars(const char GUI_UNI_PTR * s, int NumBytes) {
 736:../Bsp/OLED/GUISlim.c ****   int CharSize, Chars = 0, Bytes = 0;
 737:../Bsp/OLED/GUISlim.c ****   while (NumBytes > Bytes) {
 738:../Bsp/OLED/GUISlim.c ****     CharSize = _GetCharSize(s + Bytes);
 739:../Bsp/OLED/GUISlim.c ****     Bytes += CharSize;
 740:../Bsp/OLED/GUISlim.c ****     Chars++;
 741:../Bsp/OLED/GUISlim.c ****   }
 742:../Bsp/OLED/GUISlim.c ****   return Chars;
 743:../Bsp/OLED/GUISlim.c **** }
 744:../Bsp/OLED/GUISlim.c **** 
 745:../Bsp/OLED/GUISlim.c **** /*********************************************************************
 746:../Bsp/OLED/GUISlim.c **** *
 747:../Bsp/OLED/GUISlim.c **** *       _DispLine
 748:../Bsp/OLED/GUISlim.c **** */
 749:../Bsp/OLED/GUISlim.c **** static void _DispLine(const char GUI_UNI_PTR *s, int MaxNumChars, const GUI_RECT *pRect) {
 3003              		.loc 1 749 90 is_stmt 1 view -0
 3004              		.cfi_startproc
 3005              		@ args = 0, pretend = 0, frame = 0
 3006              		@ frame_needed = 0, uses_anonymous_args = 0
 3007              		.loc 1 749 90 is_stmt 0 view .LVU883
 3008 0000 08B5     		push	{r3, lr}
 3009              		.cfi_def_cfa_offset 8
 3010              		.cfi_offset 3, -8
 3011              		.cfi_offset 14, -4
 750:../Bsp/OLED/GUISlim.c ****   /* Check if we have anything to do at all ... */
ARM GAS  C:\Users\fish\AppData\Local\Temp\cc4JAs8f.s 			page 79


 751:../Bsp/OLED/GUISlim.c **** 	_DispLine_SJIS(s, MaxNumChars);
 3012              		.loc 1 751 2 is_stmt 1 view .LVU884
 3013 0002 FFF7FEFF 		bl	_DispLine_SJIS
 3014              	.LVL305:
 752:../Bsp/OLED/GUISlim.c **** }
 3015              		.loc 1 752 1 is_stmt 0 view .LVU885
 3016 0006 08BD     		pop	{r3, pc}
 3017              		.cfi_endproc
 3018              	.LFE287:
 3020              		.section	.text.GUI_GetYAdjust,"ax",%progbits
 3021              		.align	1
 3022              		.global	GUI_GetYAdjust
 3023              		.syntax unified
 3024              		.thumb
 3025              		.thumb_func
 3027              	GUI_GetYAdjust:
 3028              	.LFB265:
 509:../Bsp/OLED/GUISlim.c ****   int r = 0;
 3029              		.loc 1 509 26 is_stmt 1 view -0
 3030              		.cfi_startproc
 3031              		@ args = 0, pretend = 0, frame = 0
 3032              		@ frame_needed = 0, uses_anonymous_args = 0
 3033              		@ link register save eliminated.
 510:../Bsp/OLED/GUISlim.c ****   GUI_LOCK();
 3034              		.loc 1 510 3 view .LVU887
 3035              	.LVL306:
 511:../Bsp/OLED/GUISlim.c ****   switch (GUI_Context.TextAlign & GUI_TA_VERTICAL) {
 3036              		.loc 1 511 13 view .LVU888
 512:../Bsp/OLED/GUISlim.c **** 	case GUI_TA_BOTTOM:
 3037              		.loc 1 512 3 view .LVU889
 512:../Bsp/OLED/GUISlim.c **** 	case GUI_TA_BOTTOM:
 3038              		.loc 1 512 22 is_stmt 0 view .LVU890
 3039 0000 0D4B     		ldr	r3, .L252
 3040 0002 B3F91A30 		ldrsh	r3, [r3, #26]
 3041 0006 03F00C03 		and	r3, r3, #12
 512:../Bsp/OLED/GUISlim.c **** 	case GUI_TA_BOTTOM:
 3042              		.loc 1 512 3 view .LVU891
 3043 000a 082B     		cmp	r3, #8
 3044 000c 0DD0     		beq	.L248
 3045 000e 0C2B     		cmp	r3, #12
 3046 0010 06D0     		beq	.L249
 3047 0012 042B     		cmp	r3, #4
 3048 0014 0ED1     		bne	.L251
 514:../Bsp/OLED/GUISlim.c ****     break;
 3049              		.loc 1 514 3 is_stmt 1 view .LVU892
 514:../Bsp/OLED/GUISlim.c ****     break;
 3050              		.loc 1 514 18 is_stmt 0 view .LVU893
 3051 0016 084B     		ldr	r3, .L252
 3052 0018 1B69     		ldr	r3, [r3, #16]
 514:../Bsp/OLED/GUISlim.c ****     break;
 3053              		.loc 1 514 25 view .LVU894
 3054 001a 187D     		ldrb	r0, [r3, #20]	@ zero_extendqisi2
 514:../Bsp/OLED/GUISlim.c ****     break;
 3055              		.loc 1 514 5 view .LVU895
 3056 001c 0138     		subs	r0, r0, #1
 3057              	.LVL307:
 515:../Bsp/OLED/GUISlim.c **** 	case GUI_TA_VCENTER:
ARM GAS  C:\Users\fish\AppData\Local\Temp\cc4JAs8f.s 			page 80


 3058              		.loc 1 515 5 is_stmt 1 view .LVU896
 3059 001e 7047     		bx	lr
 3060              	.LVL308:
 3061              	.L249:
 517:../Bsp/OLED/GUISlim.c ****     break;
 3062              		.loc 1 517 3 view .LVU897
 517:../Bsp/OLED/GUISlim.c ****     break;
 3063              		.loc 1 517 18 is_stmt 0 view .LVU898
 3064 0020 054B     		ldr	r3, .L252
 3065 0022 1B69     		ldr	r3, [r3, #16]
 517:../Bsp/OLED/GUISlim.c ****     break;
 3066              		.loc 1 517 25 view .LVU899
 3067 0024 187D     		ldrb	r0, [r3, #20]	@ zero_extendqisi2
 517:../Bsp/OLED/GUISlim.c ****     break;
 3068              		.loc 1 517 33 view .LVU900
 3069 0026 4008     		lsrs	r0, r0, #1
 3070              	.LVL309:
 518:../Bsp/OLED/GUISlim.c **** 	case GUI_TA_BASELINE:
 3071              		.loc 1 518 5 is_stmt 1 view .LVU901
 3072 0028 7047     		bx	lr
 3073              	.LVL310:
 3074              	.L248:
 520:../Bsp/OLED/GUISlim.c **** 	}
 3075              		.loc 1 520 3 view .LVU902
 520:../Bsp/OLED/GUISlim.c **** 	}
 3076              		.loc 1 520 18 is_stmt 0 view .LVU903
 3077 002a 034B     		ldr	r3, .L252
 3078 002c 1B69     		ldr	r3, [r3, #16]
 520:../Bsp/OLED/GUISlim.c **** 	}
 3079              		.loc 1 520 25 view .LVU904
 3080 002e 187D     		ldrb	r0, [r3, #20]	@ zero_extendqisi2
 520:../Bsp/OLED/GUISlim.c **** 	}
 3081              		.loc 1 520 33 view .LVU905
 3082 0030 4008     		lsrs	r0, r0, #1
 3083              	.LVL311:
 520:../Bsp/OLED/GUISlim.c **** 	}
 3084              		.loc 1 520 33 view .LVU906
 3085 0032 7047     		bx	lr
 3086              	.LVL312:
 3087              	.L251:
 512:../Bsp/OLED/GUISlim.c **** 	case GUI_TA_BOTTOM:
 3088              		.loc 1 512 3 view .LVU907
 3089 0034 0020     		movs	r0, #0
 522:../Bsp/OLED/GUISlim.c ****   return r;
 3090              		.loc 1 522 15 is_stmt 1 view .LVU908
 523:../Bsp/OLED/GUISlim.c **** }
 3091              		.loc 1 523 3 view .LVU909
 524:../Bsp/OLED/GUISlim.c **** 
 3092              		.loc 1 524 1 is_stmt 0 view .LVU910
 3093 0036 7047     		bx	lr
 3094              	.L253:
 3095              		.align	2
 3096              	.L252:
 3097 0038 00000000 		.word	GUI_Context
 3098              		.cfi_endproc
 3099              	.LFE265:
 3101              		.section	.text.GUI_GotoY,"ax",%progbits
ARM GAS  C:\Users\fish\AppData\Local\Temp\cc4JAs8f.s 			page 81


 3102              		.align	1
 3103              		.global	GUI_GotoY
 3104              		.syntax unified
 3105              		.thumb
 3106              		.thumb_func
 3108              	GUI_GotoY:
 3109              	.LVL313:
 3110              	.LFB268:
 548:../Bsp/OLED/GUISlim.c ****   char r;
 3111              		.loc 1 548 23 is_stmt 1 view -0
 3112              		.cfi_startproc
 3113              		@ args = 0, pretend = 0, frame = 0
 3114              		@ frame_needed = 0, uses_anonymous_args = 0
 548:../Bsp/OLED/GUISlim.c ****   char r;
 3115              		.loc 1 548 23 is_stmt 0 view .LVU912
 3116 0000 08B5     		push	{r3, lr}
 3117              		.cfi_def_cfa_offset 8
 3118              		.cfi_offset 3, -8
 3119              		.cfi_offset 14, -4
 549:../Bsp/OLED/GUISlim.c ****   GUI_LOCK();
 3120              		.loc 1 549 3 is_stmt 1 view .LVU913
 550:../Bsp/OLED/GUISlim.c ****   r = _GotoY(y);
 3121              		.loc 1 550 13 view .LVU914
 551:../Bsp/OLED/GUISlim.c ****   GUI_UNLOCK();
 3122              		.loc 1 551 3 view .LVU915
 551:../Bsp/OLED/GUISlim.c ****   GUI_UNLOCK();
 3123              		.loc 1 551 7 is_stmt 0 view .LVU916
 3124 0002 FFF7FEFF 		bl	_GotoY
 3125              	.LVL314:
 552:../Bsp/OLED/GUISlim.c ****   return r;
 3126              		.loc 1 552 15 is_stmt 1 view .LVU917
 553:../Bsp/OLED/GUISlim.c **** }
 3127              		.loc 1 553 3 view .LVU918
 554:../Bsp/OLED/GUISlim.c **** 
 3128              		.loc 1 554 1 is_stmt 0 view .LVU919
 3129 0006 08BD     		pop	{r3, pc}
 3130              		.cfi_endproc
 3131              	.LFE268:
 3133              		.section	.text.GUI_GotoX,"ax",%progbits
 3134              		.align	1
 3135              		.global	GUI_GotoX
 3136              		.syntax unified
 3137              		.thumb
 3138              		.thumb_func
 3140              	GUI_GotoX:
 3141              	.LVL315:
 3142              	.LFB269:
 560:../Bsp/OLED/GUISlim.c ****   char r;
 3143              		.loc 1 560 23 is_stmt 1 view -0
 3144              		.cfi_startproc
 3145              		@ args = 0, pretend = 0, frame = 0
 3146              		@ frame_needed = 0, uses_anonymous_args = 0
 560:../Bsp/OLED/GUISlim.c ****   char r;
 3147              		.loc 1 560 23 is_stmt 0 view .LVU921
 3148 0000 08B5     		push	{r3, lr}
 3149              		.cfi_def_cfa_offset 8
 3150              		.cfi_offset 3, -8
ARM GAS  C:\Users\fish\AppData\Local\Temp\cc4JAs8f.s 			page 82


 3151              		.cfi_offset 14, -4
 561:../Bsp/OLED/GUISlim.c ****   GUI_LOCK();
 3152              		.loc 1 561 3 is_stmt 1 view .LVU922
 562:../Bsp/OLED/GUISlim.c ****   r = _GotoX(x);
 3153              		.loc 1 562 13 view .LVU923
 563:../Bsp/OLED/GUISlim.c ****   GUI_UNLOCK();
 3154              		.loc 1 563 3 view .LVU924
 563:../Bsp/OLED/GUISlim.c ****   GUI_UNLOCK();
 3155              		.loc 1 563 7 is_stmt 0 view .LVU925
 3156 0002 FFF7FEFF 		bl	_GotoX
 3157              	.LVL316:
 564:../Bsp/OLED/GUISlim.c ****   return r;
 3158              		.loc 1 564 15 is_stmt 1 view .LVU926
 565:../Bsp/OLED/GUISlim.c **** }
 3159              		.loc 1 565 3 view .LVU927
 566:../Bsp/OLED/GUISlim.c **** 
 3160              		.loc 1 566 1 is_stmt 0 view .LVU928
 3161 0006 08BD     		pop	{r3, pc}
 3162              		.cfi_endproc
 3163              	.LFE269:
 3165              		.section	.text.GUI_GotoXY,"ax",%progbits
 3166              		.align	1
 3167              		.global	GUI_GotoXY
 3168              		.syntax unified
 3169              		.thumb
 3170              		.thumb_func
 3172              	GUI_GotoXY:
 3173              	.LVL317:
 3174              	.LFB270:
 572:../Bsp/OLED/GUISlim.c ****   char r;
 3175              		.loc 1 572 31 is_stmt 1 view -0
 3176              		.cfi_startproc
 3177              		@ args = 0, pretend = 0, frame = 0
 3178              		@ frame_needed = 0, uses_anonymous_args = 0
 572:../Bsp/OLED/GUISlim.c ****   char r;
 3179              		.loc 1 572 31 is_stmt 0 view .LVU930
 3180 0000 38B5     		push	{r3, r4, r5, lr}
 3181              		.cfi_def_cfa_offset 16
 3182              		.cfi_offset 3, -16
 3183              		.cfi_offset 4, -12
 3184              		.cfi_offset 5, -8
 3185              		.cfi_offset 14, -4
 3186 0002 0D46     		mov	r5, r1
 573:../Bsp/OLED/GUISlim.c ****   GUI_LOCK();
 3187              		.loc 1 573 3 is_stmt 1 view .LVU931
 574:../Bsp/OLED/GUISlim.c ****   r  = _GotoX(x);
 3188              		.loc 1 574 13 view .LVU932
 575:../Bsp/OLED/GUISlim.c ****   r |= _GotoY(y);
 3189              		.loc 1 575 3 view .LVU933
 575:../Bsp/OLED/GUISlim.c ****   r |= _GotoY(y);
 3190              		.loc 1 575 8 is_stmt 0 view .LVU934
 3191 0004 FFF7FEFF 		bl	_GotoX
 3192              	.LVL318:
 575:../Bsp/OLED/GUISlim.c ****   r |= _GotoY(y);
 3193              		.loc 1 575 8 view .LVU935
 3194 0008 0446     		mov	r4, r0
 3195              	.LVL319:
ARM GAS  C:\Users\fish\AppData\Local\Temp\cc4JAs8f.s 			page 83


 576:../Bsp/OLED/GUISlim.c ****   GUI_UNLOCK();
 3196              		.loc 1 576 3 is_stmt 1 view .LVU936
 576:../Bsp/OLED/GUISlim.c ****   GUI_UNLOCK();
 3197              		.loc 1 576 8 is_stmt 0 view .LVU937
 3198 000a 2846     		mov	r0, r5
 3199 000c FFF7FEFF 		bl	_GotoY
 3200              	.LVL320:
 576:../Bsp/OLED/GUISlim.c ****   GUI_UNLOCK();
 3201              		.loc 1 576 5 discriminator 1 view .LVU938
 3202 0010 2043     		orrs	r0, r0, r4
 3203              	.LVL321:
 577:../Bsp/OLED/GUISlim.c ****   return r;
 3204              		.loc 1 577 15 is_stmt 1 view .LVU939
 578:../Bsp/OLED/GUISlim.c **** }
 3205              		.loc 1 578 3 view .LVU940
 579:../Bsp/OLED/GUISlim.c **** 
 3206              		.loc 1 579 1 is_stmt 0 view .LVU941
 3207 0012 C0B2     		uxtb	r0, r0
 579:../Bsp/OLED/GUISlim.c **** 
 3208              		.loc 1 579 1 view .LVU942
 3209 0014 38BD     		pop	{r3, r4, r5, pc}
 579:../Bsp/OLED/GUISlim.c **** 
 3210              		.loc 1 579 1 view .LVU943
 3211              		.cfi_endproc
 3212              	.LFE270:
 3214              		.section	.text.GUI_ClearRect,"ax",%progbits
 3215              		.align	1
 3216              		.global	GUI_ClearRect
 3217              		.syntax unified
 3218              		.thumb
 3219              		.thumb_func
 3221              	GUI_ClearRect:
 3222              	.LVL322:
 3223              	.LFB271:
 581:../Bsp/OLED/GUISlim.c ****   GUI_LOCK();
 3224              		.loc 1 581 52 is_stmt 1 view -0
 3225              		.cfi_startproc
 3226              		@ args = 0, pretend = 0, frame = 0
 3227              		@ frame_needed = 0, uses_anonymous_args = 0
 581:../Bsp/OLED/GUISlim.c ****   GUI_LOCK();
 3228              		.loc 1 581 52 is_stmt 0 view .LVU945
 3229 0000 10B5     		push	{r4, lr}
 3230              		.cfi_def_cfa_offset 8
 3231              		.cfi_offset 4, -8
 3232              		.cfi_offset 14, -4
 3233 0002 82B0     		sub	sp, sp, #8
 3234              		.cfi_def_cfa_offset 16
 582:../Bsp/OLED/GUISlim.c ****   SSD1306_DrawFilledRectangle(x0,y0,x1,y1, GUI_COLOR_BLACK);
 3235              		.loc 1 582 13 is_stmt 1 view .LVU946
 583:../Bsp/OLED/GUISlim.c ****   GUI_UNLOCK();
 3236              		.loc 1 583 3 view .LVU947
 3237 0004 0024     		movs	r4, #0
 3238 0006 0094     		str	r4, [sp]
 3239 0008 9BB2     		uxth	r3, r3
 3240              	.LVL323:
 583:../Bsp/OLED/GUISlim.c ****   GUI_UNLOCK();
 3241              		.loc 1 583 3 is_stmt 0 view .LVU948
ARM GAS  C:\Users\fish\AppData\Local\Temp\cc4JAs8f.s 			page 84


 3242 000a 92B2     		uxth	r2, r2
 3243              	.LVL324:
 583:../Bsp/OLED/GUISlim.c ****   GUI_UNLOCK();
 3244              		.loc 1 583 3 view .LVU949
 3245 000c 89B2     		uxth	r1, r1
 3246              	.LVL325:
 583:../Bsp/OLED/GUISlim.c ****   GUI_UNLOCK();
 3247              		.loc 1 583 3 view .LVU950
 3248 000e 80B2     		uxth	r0, r0
 3249              	.LVL326:
 583:../Bsp/OLED/GUISlim.c ****   GUI_UNLOCK();
 3250              		.loc 1 583 3 view .LVU951
 3251 0010 FFF7FEFF 		bl	SSD1306_DrawFilledRectangle
 3252              	.LVL327:
 584:../Bsp/OLED/GUISlim.c **** }
 3253              		.loc 1 584 15 is_stmt 1 view .LVU952
 585:../Bsp/OLED/GUISlim.c **** 
 3254              		.loc 1 585 1 is_stmt 0 view .LVU953
 3255 0014 02B0     		add	sp, sp, #8
 3256              		.cfi_def_cfa_offset 8
 3257              		@ sp needed
 3258 0016 10BD     		pop	{r4, pc}
 3259              		.cfi_endproc
 3260              	.LFE271:
 3262              		.section	.text.GUI_Clear,"ax",%progbits
 3263              		.align	1
 3264              		.global	GUI_Clear
 3265              		.syntax unified
 3266              		.thumb
 3267              		.thumb_func
 3269              	GUI_Clear:
 3270              	.LFB272:
 587:../Bsp/OLED/GUISlim.c ****   GUI_GotoXY(0,0);     /* Reset text cursor to upper left */
 3271              		.loc 1 587 22 is_stmt 1 view -0
 3272              		.cfi_startproc
 3273              		@ args = 0, pretend = 0, frame = 0
 3274              		@ frame_needed = 0, uses_anonymous_args = 0
 3275 0000 10B5     		push	{r4, lr}
 3276              		.cfi_def_cfa_offset 8
 3277              		.cfi_offset 4, -8
 3278              		.cfi_offset 14, -4
 588:../Bsp/OLED/GUISlim.c ****   GUI_ClearRect(0, 0, GUI_GetXSize(), GUI_GetYSize());
 3279              		.loc 1 588 3 view .LVU955
 3280 0002 0021     		movs	r1, #0
 3281 0004 0846     		mov	r0, r1
 3282 0006 FFF7FEFF 		bl	GUI_GotoXY
 3283              	.LVL328:
 589:../Bsp/OLED/GUISlim.c **** }
 3284              		.loc 1 589 3 view .LVU956
 3285 000a FFF7FEFF 		bl	GUI_GetXSize
 3286              	.LVL329:
 3287 000e 0446     		mov	r4, r0
 589:../Bsp/OLED/GUISlim.c **** }
 3288              		.loc 1 589 3 is_stmt 0 discriminator 1 view .LVU957
 3289 0010 FFF7FEFF 		bl	GUI_GetYSize
 3290              	.LVL330:
 3291 0014 0346     		mov	r3, r0
ARM GAS  C:\Users\fish\AppData\Local\Temp\cc4JAs8f.s 			page 85


 589:../Bsp/OLED/GUISlim.c **** }
 3292              		.loc 1 589 3 discriminator 2 view .LVU958
 3293 0016 2246     		mov	r2, r4
 3294 0018 0021     		movs	r1, #0
 3295 001a 0846     		mov	r0, r1
 3296 001c FFF7FEFF 		bl	GUI_ClearRect
 3297              	.LVL331:
 590:../Bsp/OLED/GUISlim.c **** 
 3298              		.loc 1 590 1 view .LVU959
 3299 0020 10BD     		pop	{r4, pc}
 3300              		.cfi_endproc
 3301              	.LFE272:
 3303              		.section	.text.GUI_DispCEOL,"ax",%progbits
 3304              		.align	1
 3305              		.global	GUI_DispCEOL
 3306              		.syntax unified
 3307              		.thumb
 3308              		.thumb_func
 3310              	GUI_DispCEOL:
 3311              	.LFB273:
 592:../Bsp/OLED/GUISlim.c ****   int y = GUI_Context.DispPosY - GUI_GetYAdjust();
 3312              		.loc 1 592 25 is_stmt 1 view -0
 3313              		.cfi_startproc
 3314              		@ args = 0, pretend = 0, frame = 0
 3315              		@ frame_needed = 0, uses_anonymous_args = 0
 3316 0000 38B5     		push	{r3, r4, r5, lr}
 3317              		.cfi_def_cfa_offset 16
 3318              		.cfi_offset 3, -16
 3319              		.cfi_offset 4, -12
 3320              		.cfi_offset 5, -8
 3321              		.cfi_offset 14, -4
 593:../Bsp/OLED/GUISlim.c ****   GUI_ClearRect(GUI_Context.DispPosX, y, 4000,             /* Max pos x */
 3322              		.loc 1 593 3 view .LVU961
 593:../Bsp/OLED/GUISlim.c ****   GUI_ClearRect(GUI_Context.DispPosX, y, 4000,             /* Max pos x */
 3323              		.loc 1 593 22 is_stmt 0 view .LVU962
 3324 0002 084D     		ldr	r5, .L266
 3325 0004 B5F91640 		ldrsh	r4, [r5, #22]
 593:../Bsp/OLED/GUISlim.c ****   GUI_ClearRect(GUI_Context.DispPosX, y, 4000,             /* Max pos x */
 3326              		.loc 1 593 34 view .LVU963
 3327 0008 FFF7FEFF 		bl	GUI_GetYAdjust
 3328              	.LVL332:
 593:../Bsp/OLED/GUISlim.c ****   GUI_ClearRect(GUI_Context.DispPosX, y, 4000,             /* Max pos x */
 3329              		.loc 1 593 7 discriminator 1 view .LVU964
 3330 000c 211A     		subs	r1, r4, r0
 3331              	.LVL333:
 594:../Bsp/OLED/GUISlim.c ****                 y + GUI_Context.pAFont->YDist - 1);
 3332              		.loc 1 594 3 is_stmt 1 view .LVU965
 595:../Bsp/OLED/GUISlim.c **** }
 3333              		.loc 1 595 32 is_stmt 0 view .LVU966
 3334 000e 2B69     		ldr	r3, [r5, #16]
 595:../Bsp/OLED/GUISlim.c **** }
 3335              		.loc 1 595 39 view .LVU967
 3336 0010 5B7D     		ldrb	r3, [r3, #21]	@ zero_extendqisi2
 595:../Bsp/OLED/GUISlim.c **** }
 3337              		.loc 1 595 19 view .LVU968
 3338 0012 0B44     		add	r3, r3, r1
 594:../Bsp/OLED/GUISlim.c ****                 y + GUI_Context.pAFont->YDist - 1);
ARM GAS  C:\Users\fish\AppData\Local\Temp\cc4JAs8f.s 			page 86


 3339              		.loc 1 594 3 view .LVU969
 3340 0014 013B     		subs	r3, r3, #1
 3341 0016 4FF47A62 		mov	r2, #4000
 3342 001a B5F91400 		ldrsh	r0, [r5, #20]
 3343 001e FFF7FEFF 		bl	GUI_ClearRect
 3344              	.LVL334:
 596:../Bsp/OLED/GUISlim.c **** 
 3345              		.loc 1 596 1 view .LVU970
 3346 0022 38BD     		pop	{r3, r4, r5, pc}
 3347              	.L267:
 596:../Bsp/OLED/GUISlim.c **** 
 3348              		.loc 1 596 1 view .LVU971
 3349              		.align	2
 3350              	.L266:
 3351 0024 00000000 		.word	GUI_Context
 3352              		.cfi_endproc
 3353              	.LFE273:
 3355              		.section	.text.GUI_DispChar,"ax",%progbits
 3356              		.align	1
 3357              		.global	GUI_DispChar
 3358              		.syntax unified
 3359              		.thumb
 3360              		.thumb_func
 3362              	GUI_DispChar:
 3363              	.LVL335:
 3364              	.LFB274:
 598:../Bsp/OLED/GUISlim.c ****   GUI_LOCK();
 3365              		.loc 1 598 26 is_stmt 1 view -0
 3366              		.cfi_startproc
 3367              		@ args = 0, pretend = 0, frame = 0
 3368              		@ frame_needed = 0, uses_anonymous_args = 0
 598:../Bsp/OLED/GUISlim.c ****   GUI_LOCK();
 3369              		.loc 1 598 26 is_stmt 0 view .LVU973
 3370 0000 08B5     		push	{r3, lr}
 3371              		.cfi_def_cfa_offset 8
 3372              		.cfi_offset 3, -8
 3373              		.cfi_offset 14, -4
 599:../Bsp/OLED/GUISlim.c ****   GL_DispChar(c);
 3374              		.loc 1 599 13 is_stmt 1 view .LVU974
 600:../Bsp/OLED/GUISlim.c ****   GUI_UNLOCK();
 3375              		.loc 1 600 3 view .LVU975
 3376 0002 FFF7FEFF 		bl	GL_DispChar
 3377              	.LVL336:
 601:../Bsp/OLED/GUISlim.c **** }
 3378              		.loc 1 601 15 view .LVU976
 602:../Bsp/OLED/GUISlim.c **** 
 3379              		.loc 1 602 1 is_stmt 0 view .LVU977
 3380 0006 08BD     		pop	{r3, pc}
 3381              		.cfi_endproc
 3382              	.LFE274:
 3384              		.section	.text.GUI_DispCharAt,"ax",%progbits
 3385              		.align	1
 3386              		.global	GUI_DispCharAt
 3387              		.syntax unified
 3388              		.thumb
 3389              		.thumb_func
 3391              	GUI_DispCharAt:
ARM GAS  C:\Users\fish\AppData\Local\Temp\cc4JAs8f.s 			page 87


 3392              	.LVL337:
 3393              	.LFB275:
 604:../Bsp/OLED/GUISlim.c ****   GUI_LOCK();
 3394              		.loc 1 604 44 is_stmt 1 view -0
 3395              		.cfi_startproc
 3396              		@ args = 0, pretend = 0, frame = 0
 3397              		@ frame_needed = 0, uses_anonymous_args = 0
 604:../Bsp/OLED/GUISlim.c ****   GUI_LOCK();
 3398              		.loc 1 604 44 is_stmt 0 view .LVU979
 3399 0000 08B5     		push	{r3, lr}
 3400              		.cfi_def_cfa_offset 8
 3401              		.cfi_offset 3, -8
 3402              		.cfi_offset 14, -4
 605:../Bsp/OLED/GUISlim.c ****   GUI_Context.DispPosX = x;
 3403              		.loc 1 605 13 is_stmt 1 view .LVU980
 606:../Bsp/OLED/GUISlim.c ****   GUI_Context.DispPosY = y;
 3404              		.loc 1 606 3 view .LVU981
 606:../Bsp/OLED/GUISlim.c ****   GUI_Context.DispPosY = y;
 3405              		.loc 1 606 24 is_stmt 0 view .LVU982
 3406 0002 034B     		ldr	r3, .L272
 3407 0004 9982     		strh	r1, [r3, #20]	@ movhi
 607:../Bsp/OLED/GUISlim.c **** 	GL_DispChar(c);
 3408              		.loc 1 607 3 is_stmt 1 view .LVU983
 607:../Bsp/OLED/GUISlim.c **** 	GL_DispChar(c);
 3409              		.loc 1 607 24 is_stmt 0 view .LVU984
 3410 0006 DA82     		strh	r2, [r3, #22]	@ movhi
 608:../Bsp/OLED/GUISlim.c ****   GUI_UNLOCK();
 3411              		.loc 1 608 2 is_stmt 1 view .LVU985
 3412 0008 FFF7FEFF 		bl	GL_DispChar
 3413              	.LVL338:
 609:../Bsp/OLED/GUISlim.c **** }
 3414              		.loc 1 609 15 view .LVU986
 610:../Bsp/OLED/GUISlim.c **** 
 3415              		.loc 1 610 1 is_stmt 0 view .LVU987
 3416 000c 08BD     		pop	{r3, pc}
 3417              	.L273:
 3418 000e 00BF     		.align	2
 3419              	.L272:
 3420 0010 00000000 		.word	GUI_Context
 3421              		.cfi_endproc
 3422              	.LFE275:
 3424              		.section	.text.GUI_UC_GetCharSize,"ax",%progbits
 3425              		.align	1
 3426              		.global	GUI_UC_GetCharSize
 3427              		.syntax unified
 3428              		.thumb
 3429              		.thumb_func
 3431              	GUI_UC_GetCharSize:
 3432              	.LVL339:
 3433              	.LFB282:
 701:../Bsp/OLED/GUISlim.c ****   int r;
 3434              		.loc 1 701 52 is_stmt 1 view -0
 3435              		.cfi_startproc
 3436              		@ args = 0, pretend = 0, frame = 0
 3437              		@ frame_needed = 0, uses_anonymous_args = 0
 701:../Bsp/OLED/GUISlim.c ****   int r;
 3438              		.loc 1 701 52 is_stmt 0 view .LVU989
ARM GAS  C:\Users\fish\AppData\Local\Temp\cc4JAs8f.s 			page 88


 3439 0000 08B5     		push	{r3, lr}
 3440              		.cfi_def_cfa_offset 8
 3441              		.cfi_offset 3, -8
 3442              		.cfi_offset 14, -4
 702:../Bsp/OLED/GUISlim.c ****   GUI_LOCK();
 3443              		.loc 1 702 3 is_stmt 1 view .LVU990
 703:../Bsp/OLED/GUISlim.c ****   r =  _GetCharSize(s);
 3444              		.loc 1 703 13 view .LVU991
 704:../Bsp/OLED/GUISlim.c ****   GUI_UNLOCK();
 3445              		.loc 1 704 3 view .LVU992
 704:../Bsp/OLED/GUISlim.c ****   GUI_UNLOCK();
 3446              		.loc 1 704 8 is_stmt 0 view .LVU993
 3447 0002 FFF7FEFF 		bl	_GetCharSize
 3448              	.LVL340:
 705:../Bsp/OLED/GUISlim.c ****   return r;
 3449              		.loc 1 705 15 is_stmt 1 view .LVU994
 706:../Bsp/OLED/GUISlim.c **** }
 3450              		.loc 1 706 3 view .LVU995
 707:../Bsp/OLED/GUISlim.c **** 
 3451              		.loc 1 707 1 is_stmt 0 view .LVU996
 3452 0006 08BD     		pop	{r3, pc}
 3453              		.cfi_endproc
 3454              	.LFE282:
 3456              		.section	.text.GUI_UC_GetCharCode,"ax",%progbits
 3457              		.align	1
 3458              		.global	GUI_UC_GetCharCode
 3459              		.syntax unified
 3460              		.thumb
 3461              		.thumb_func
 3463              	GUI_UC_GetCharCode:
 3464              	.LVL341:
 3465              	.LFB283:
 709:../Bsp/OLED/GUISlim.c ****   U16 r;
 3466              		.loc 1 709 52 is_stmt 1 view -0
 3467              		.cfi_startproc
 3468              		@ args = 0, pretend = 0, frame = 0
 3469              		@ frame_needed = 0, uses_anonymous_args = 0
 709:../Bsp/OLED/GUISlim.c ****   U16 r;
 3470              		.loc 1 709 52 is_stmt 0 view .LVU998
 3471 0000 08B5     		push	{r3, lr}
 3472              		.cfi_def_cfa_offset 8
 3473              		.cfi_offset 3, -8
 3474              		.cfi_offset 14, -4
 710:../Bsp/OLED/GUISlim.c ****   GUI_LOCK();
 3475              		.loc 1 710 3 is_stmt 1 view .LVU999
 711:../Bsp/OLED/GUISlim.c ****   r =  _GetCharCode(s);
 3476              		.loc 1 711 13 view .LVU1000
 712:../Bsp/OLED/GUISlim.c ****   GUI_UNLOCK();
 3477              		.loc 1 712 3 view .LVU1001
 712:../Bsp/OLED/GUISlim.c ****   GUI_UNLOCK();
 3478              		.loc 1 712 8 is_stmt 0 view .LVU1002
 3479 0002 FFF7FEFF 		bl	_GetCharCode
 3480              	.LVL342:
 713:../Bsp/OLED/GUISlim.c ****   return r;
 3481              		.loc 1 713 15 is_stmt 1 view .LVU1003
 714:../Bsp/OLED/GUISlim.c **** }
 3482              		.loc 1 714 3 view .LVU1004
ARM GAS  C:\Users\fish\AppData\Local\Temp\cc4JAs8f.s 			page 89


 715:../Bsp/OLED/GUISlim.c **** 
 3483              		.loc 1 715 1 is_stmt 0 view .LVU1005
 3484 0006 08BD     		pop	{r3, pc}
 3485              		.cfi_endproc
 3486              	.LFE283:
 3488              		.section	.text.GUI_UC__GetCharCodeInc,"ax",%progbits
 3489              		.align	1
 3490              		.global	GUI_UC__GetCharCodeInc
 3491              		.syntax unified
 3492              		.thumb
 3493              		.thumb_func
 3495              	GUI_UC__GetCharCodeInc:
 3496              	.LVL343:
 3497              	.LFB284:
 717:../Bsp/OLED/GUISlim.c ****   const char GUI_UNI_PTR * s;
 3498              		.loc 1 717 58 is_stmt 1 view -0
 3499              		.cfi_startproc
 3500              		@ args = 0, pretend = 0, frame = 0
 3501              		@ frame_needed = 0, uses_anonymous_args = 0
 717:../Bsp/OLED/GUISlim.c ****   const char GUI_UNI_PTR * s;
 3502              		.loc 1 717 58 is_stmt 0 view .LVU1007
 3503 0000 70B5     		push	{r4, r5, r6, lr}
 3504              		.cfi_def_cfa_offset 16
 3505              		.cfi_offset 4, -16
 3506              		.cfi_offset 5, -12
 3507              		.cfi_offset 6, -8
 3508              		.cfi_offset 14, -4
 3509 0002 0546     		mov	r5, r0
 718:../Bsp/OLED/GUISlim.c ****   U16 r;
 3510              		.loc 1 718 3 is_stmt 1 view .LVU1008
 719:../Bsp/OLED/GUISlim.c ****   s   = *ps;
 3511              		.loc 1 719 3 view .LVU1009
 720:../Bsp/OLED/GUISlim.c ****   r   = _GetCharCode(s);
 3512              		.loc 1 720 3 view .LVU1010
 720:../Bsp/OLED/GUISlim.c ****   r   = _GetCharCode(s);
 3513              		.loc 1 720 7 is_stmt 0 view .LVU1011
 3514 0004 0468     		ldr	r4, [r0]
 3515              	.LVL344:
 721:../Bsp/OLED/GUISlim.c ****   s  += _GetCharSize(s);
 3516              		.loc 1 721 3 is_stmt 1 view .LVU1012
 721:../Bsp/OLED/GUISlim.c ****   s  += _GetCharSize(s);
 3517              		.loc 1 721 9 is_stmt 0 view .LVU1013
 3518 0006 2046     		mov	r0, r4
 3519              	.LVL345:
 721:../Bsp/OLED/GUISlim.c ****   s  += _GetCharSize(s);
 3520              		.loc 1 721 9 view .LVU1014
 3521 0008 FFF7FEFF 		bl	_GetCharCode
 3522              	.LVL346:
 3523 000c 0646     		mov	r6, r0
 3524              	.LVL347:
 722:../Bsp/OLED/GUISlim.c ****   *ps = s;
 3525              		.loc 1 722 3 is_stmt 1 view .LVU1015
 722:../Bsp/OLED/GUISlim.c ****   *ps = s;
 3526              		.loc 1 722 9 is_stmt 0 view .LVU1016
 3527 000e 2046     		mov	r0, r4
 3528 0010 FFF7FEFF 		bl	_GetCharSize
 3529              	.LVL348:
ARM GAS  C:\Users\fish\AppData\Local\Temp\cc4JAs8f.s 			page 90


 722:../Bsp/OLED/GUISlim.c ****   *ps = s;
 3530              		.loc 1 722 6 discriminator 1 view .LVU1017
 3531 0014 0444     		add	r4, r4, r0
 3532              	.LVL349:
 723:../Bsp/OLED/GUISlim.c ****   return r;
 3533              		.loc 1 723 3 is_stmt 1 view .LVU1018
 723:../Bsp/OLED/GUISlim.c ****   return r;
 3534              		.loc 1 723 7 is_stmt 0 view .LVU1019
 3535 0016 2C60     		str	r4, [r5]
 724:../Bsp/OLED/GUISlim.c **** }
 3536              		.loc 1 724 3 is_stmt 1 view .LVU1020
 725:../Bsp/OLED/GUISlim.c **** int GUI_UC__NumChars2NumBytes(const char GUI_UNI_PTR * s, int NumChars) {
 3537              		.loc 1 725 1 is_stmt 0 view .LVU1021
 3538 0018 3046     		mov	r0, r6
 3539 001a 70BD     		pop	{r4, r5, r6, pc}
 725:../Bsp/OLED/GUISlim.c **** int GUI_UC__NumChars2NumBytes(const char GUI_UNI_PTR * s, int NumChars) {
 3540              		.loc 1 725 1 view .LVU1022
 3541              		.cfi_endproc
 3542              	.LFE284:
 3544              		.section	.text.GUI_UC__NumChars2NumBytes,"ax",%progbits
 3545              		.align	1
 3546              		.global	GUI_UC__NumChars2NumBytes
 3547              		.syntax unified
 3548              		.thumb
 3549              		.thumb_func
 3551              	GUI_UC__NumChars2NumBytes:
 3552              	.LVL350:
 3553              	.LFB285:
 726:../Bsp/OLED/GUISlim.c ****   int CharSize, NumBytes = 0;
 3554              		.loc 1 726 73 is_stmt 1 view -0
 3555              		.cfi_startproc
 3556              		@ args = 0, pretend = 0, frame = 0
 3557              		@ frame_needed = 0, uses_anonymous_args = 0
 726:../Bsp/OLED/GUISlim.c ****   int CharSize, NumBytes = 0;
 3558              		.loc 1 726 73 is_stmt 0 view .LVU1024
 3559 0000 70B5     		push	{r4, r5, r6, lr}
 3560              		.cfi_def_cfa_offset 16
 3561              		.cfi_offset 4, -16
 3562              		.cfi_offset 5, -12
 3563              		.cfi_offset 6, -8
 3564              		.cfi_offset 14, -4
 3565 0002 0446     		mov	r4, r0
 727:../Bsp/OLED/GUISlim.c ****   while (NumChars--) {
 3566              		.loc 1 727 3 is_stmt 1 view .LVU1025
 3567              	.LVL351:
 728:../Bsp/OLED/GUISlim.c ****     CharSize = _GetCharSize(s);
 3568              		.loc 1 728 3 view .LVU1026
 727:../Bsp/OLED/GUISlim.c ****   while (NumChars--) {
 3569              		.loc 1 727 17 is_stmt 0 view .LVU1027
 3570 0004 0025     		movs	r5, #0
 728:../Bsp/OLED/GUISlim.c ****     CharSize = _GetCharSize(s);
 3571              		.loc 1 728 9 view .LVU1028
 3572 0006 05E0     		b	.L281
 3573              	.LVL352:
 3574              	.L282:
 729:../Bsp/OLED/GUISlim.c ****     s += CharSize;    
 3575              		.loc 1 729 5 is_stmt 1 view .LVU1029
ARM GAS  C:\Users\fish\AppData\Local\Temp\cc4JAs8f.s 			page 91


 729:../Bsp/OLED/GUISlim.c ****     s += CharSize;    
 3576              		.loc 1 729 16 is_stmt 0 view .LVU1030
 3577 0008 2046     		mov	r0, r4
 3578 000a FFF7FEFF 		bl	_GetCharSize
 3579              	.LVL353:
 730:../Bsp/OLED/GUISlim.c ****     NumBytes += CharSize;
 3580              		.loc 1 730 5 is_stmt 1 view .LVU1031
 730:../Bsp/OLED/GUISlim.c ****     NumBytes += CharSize;
 3581              		.loc 1 730 7 is_stmt 0 view .LVU1032
 3582 000e 0444     		add	r4, r4, r0
 3583              	.LVL354:
 731:../Bsp/OLED/GUISlim.c ****   }
 3584              		.loc 1 731 5 is_stmt 1 view .LVU1033
 731:../Bsp/OLED/GUISlim.c ****   }
 3585              		.loc 1 731 14 is_stmt 0 view .LVU1034
 3586 0010 0544     		add	r5, r5, r0
 3587              	.LVL355:
 728:../Bsp/OLED/GUISlim.c ****     CharSize = _GetCharSize(s);
 3588              		.loc 1 728 18 view .LVU1035
 3589 0012 3146     		mov	r1, r6
 3590              	.LVL356:
 3591              	.L281:
 728:../Bsp/OLED/GUISlim.c ****     CharSize = _GetCharSize(s);
 3592              		.loc 1 728 10 is_stmt 1 view .LVU1036
 728:../Bsp/OLED/GUISlim.c ****     CharSize = _GetCharSize(s);
 3593              		.loc 1 728 18 is_stmt 0 view .LVU1037
 3594 0014 4E1E     		subs	r6, r1, #1
 3595              	.LVL357:
 728:../Bsp/OLED/GUISlim.c ****     CharSize = _GetCharSize(s);
 3596              		.loc 1 728 10 view .LVU1038
 3597 0016 0029     		cmp	r1, #0
 3598 0018 F6D1     		bne	.L282
 733:../Bsp/OLED/GUISlim.c **** }
 3599              		.loc 1 733 3 is_stmt 1 view .LVU1039
 734:../Bsp/OLED/GUISlim.c **** int GUI_UC__NumBytes2NumChars(const char GUI_UNI_PTR * s, int NumBytes) {
 3600              		.loc 1 734 1 is_stmt 0 view .LVU1040
 3601 001a 2846     		mov	r0, r5
 3602 001c 70BD     		pop	{r4, r5, r6, pc}
 734:../Bsp/OLED/GUISlim.c **** int GUI_UC__NumBytes2NumChars(const char GUI_UNI_PTR * s, int NumBytes) {
 3603              		.loc 1 734 1 view .LVU1041
 3604              		.cfi_endproc
 3605              	.LFE285:
 3607              		.section	.text.GUI_UC__NumBytes2NumChars,"ax",%progbits
 3608              		.align	1
 3609              		.global	GUI_UC__NumBytes2NumChars
 3610              		.syntax unified
 3611              		.thumb
 3612              		.thumb_func
 3614              	GUI_UC__NumBytes2NumChars:
 3615              	.LVL358:
 3616              	.LFB286:
 735:../Bsp/OLED/GUISlim.c ****   int CharSize, Chars = 0, Bytes = 0;
 3617              		.loc 1 735 73 is_stmt 1 view -0
 3618              		.cfi_startproc
 3619              		@ args = 0, pretend = 0, frame = 0
 3620              		@ frame_needed = 0, uses_anonymous_args = 0
 735:../Bsp/OLED/GUISlim.c ****   int CharSize, Chars = 0, Bytes = 0;
ARM GAS  C:\Users\fish\AppData\Local\Temp\cc4JAs8f.s 			page 92


 3621              		.loc 1 735 73 is_stmt 0 view .LVU1043
 3622 0000 F8B5     		push	{r3, r4, r5, r6, r7, lr}
 3623              		.cfi_def_cfa_offset 24
 3624              		.cfi_offset 3, -24
 3625              		.cfi_offset 4, -20
 3626              		.cfi_offset 5, -16
 3627              		.cfi_offset 6, -12
 3628              		.cfi_offset 7, -8
 3629              		.cfi_offset 14, -4
 3630 0002 0746     		mov	r7, r0
 3631 0004 0E46     		mov	r6, r1
 736:../Bsp/OLED/GUISlim.c ****   while (NumBytes > Bytes) {
 3632              		.loc 1 736 3 is_stmt 1 view .LVU1044
 3633              	.LVL359:
 737:../Bsp/OLED/GUISlim.c ****     CharSize = _GetCharSize(s + Bytes);
 3634              		.loc 1 737 3 view .LVU1045
 736:../Bsp/OLED/GUISlim.c ****   while (NumBytes > Bytes) {
 3635              		.loc 1 736 28 is_stmt 0 view .LVU1046
 3636 0006 0024     		movs	r4, #0
 736:../Bsp/OLED/GUISlim.c ****   while (NumBytes > Bytes) {
 3637              		.loc 1 736 17 view .LVU1047
 3638 0008 2546     		mov	r5, r4
 737:../Bsp/OLED/GUISlim.c ****     CharSize = _GetCharSize(s + Bytes);
 3639              		.loc 1 737 9 view .LVU1048
 3640 000a 04E0     		b	.L285
 3641              	.LVL360:
 3642              	.L286:
 738:../Bsp/OLED/GUISlim.c ****     Bytes += CharSize;
 3643              		.loc 1 738 5 is_stmt 1 view .LVU1049
 738:../Bsp/OLED/GUISlim.c ****     Bytes += CharSize;
 3644              		.loc 1 738 16 is_stmt 0 view .LVU1050
 3645 000c 3819     		adds	r0, r7, r4
 3646 000e FFF7FEFF 		bl	_GetCharSize
 3647              	.LVL361:
 739:../Bsp/OLED/GUISlim.c ****     Chars++;
 3648              		.loc 1 739 5 is_stmt 1 view .LVU1051
 739:../Bsp/OLED/GUISlim.c ****     Chars++;
 3649              		.loc 1 739 11 is_stmt 0 view .LVU1052
 3650 0012 0444     		add	r4, r4, r0
 3651              	.LVL362:
 740:../Bsp/OLED/GUISlim.c ****   }
 3652              		.loc 1 740 5 is_stmt 1 view .LVU1053
 740:../Bsp/OLED/GUISlim.c ****   }
 3653              		.loc 1 740 10 is_stmt 0 view .LVU1054
 3654 0014 0135     		adds	r5, r5, #1
 3655              	.LVL363:
 3656              	.L285:
 737:../Bsp/OLED/GUISlim.c ****     CharSize = _GetCharSize(s + Bytes);
 3657              		.loc 1 737 19 is_stmt 1 view .LVU1055
 3658 0016 B442     		cmp	r4, r6
 3659 0018 F8DB     		blt	.L286
 742:../Bsp/OLED/GUISlim.c **** }
 3660              		.loc 1 742 3 view .LVU1056
 743:../Bsp/OLED/GUISlim.c **** 
 3661              		.loc 1 743 1 is_stmt 0 view .LVU1057
 3662 001a 2846     		mov	r0, r5
 3663 001c F8BD     		pop	{r3, r4, r5, r6, r7, pc}
ARM GAS  C:\Users\fish\AppData\Local\Temp\cc4JAs8f.s 			page 93


 743:../Bsp/OLED/GUISlim.c **** 
 3664              		.loc 1 743 1 view .LVU1058
 3665              		.cfi_endproc
 3666              	.LFE286:
 3668              		.section	.text.GUI__GetLineNumChars,"ax",%progbits
 3669              		.align	1
 3670              		.global	GUI__GetLineNumChars
 3671              		.syntax unified
 3672              		.thumb
 3673              		.thumb_func
 3675              	GUI__GetLineNumChars:
 3676              	.LVL364:
 3677              	.LFB288:
 753:../Bsp/OLED/GUISlim.c **** 
 754:../Bsp/OLED/GUISlim.c **** /*********************************************************************
 755:../Bsp/OLED/GUISlim.c **** *
 756:../Bsp/OLED/GUISlim.c **** *       GUI__GetLineNumChars
 757:../Bsp/OLED/GUISlim.c **** */
 758:../Bsp/OLED/GUISlim.c **** int GUI__GetLineNumChars(const char GUI_UNI_PTR *s, int MaxNumChars) {
 3678              		.loc 1 758 70 is_stmt 1 view -0
 3679              		.cfi_startproc
 3680              		@ args = 0, pretend = 0, frame = 0
 3681              		@ frame_needed = 0, uses_anonymous_args = 0
 3682              		.loc 1 758 70 is_stmt 0 view .LVU1060
 3683 0000 08B5     		push	{r3, lr}
 3684              		.cfi_def_cfa_offset 8
 3685              		.cfi_offset 3, -8
 3686              		.cfi_offset 14, -4
 759:../Bsp/OLED/GUISlim.c ****   return _GetLineLen_SJIS(s, MaxNumChars);;
 3687              		.loc 1 759 3 is_stmt 1 view .LVU1061
 3688              		.loc 1 759 10 is_stmt 0 view .LVU1062
 3689 0002 FFF7FEFF 		bl	_GetLineLen_SJIS
 3690              	.LVL365:
 3691              		.loc 1 759 43 is_stmt 1 discriminator 1 view .LVU1063
 760:../Bsp/OLED/GUISlim.c **** }
 3692              		.loc 1 760 1 is_stmt 0 view .LVU1064
 3693 0006 08BD     		pop	{r3, pc}
 3694              		.cfi_endproc
 3695              	.LFE288:
 3697              		.section	.text.GUI__GetLineDistX,"ax",%progbits
 3698              		.align	1
 3699              		.global	GUI__GetLineDistX
 3700              		.syntax unified
 3701              		.thumb
 3702              		.thumb_func
 3704              	GUI__GetLineDistX:
 3705              	.LVL366:
 3706              	.LFB289:
 761:../Bsp/OLED/GUISlim.c **** 
 762:../Bsp/OLED/GUISlim.c **** int GUI__GetLineDistX(const char GUI_UNI_PTR *s, int MaxNumChars) {
 3707              		.loc 1 762 67 is_stmt 1 view -0
 3708              		.cfi_startproc
 3709              		@ args = 0, pretend = 0, frame = 0
 3710              		@ frame_needed = 0, uses_anonymous_args = 0
 3711              		.loc 1 762 67 is_stmt 0 view .LVU1066
 3712 0000 08B5     		push	{r3, lr}
 3713              		.cfi_def_cfa_offset 8
ARM GAS  C:\Users\fish\AppData\Local\Temp\cc4JAs8f.s 			page 94


 3714              		.cfi_offset 3, -8
 3715              		.cfi_offset 14, -4
 763:../Bsp/OLED/GUISlim.c ****   return _GetLineDistX_SJIS(s, MaxNumChars);;
 3716              		.loc 1 763 3 is_stmt 1 view .LVU1067
 3717              		.loc 1 763 10 is_stmt 0 view .LVU1068
 3718 0002 FFF7FEFF 		bl	_GetLineDistX_SJIS
 3719              	.LVL367:
 3720              		.loc 1 763 45 is_stmt 1 discriminator 1 view .LVU1069
 764:../Bsp/OLED/GUISlim.c **** }
 3721              		.loc 1 764 1 is_stmt 0 view .LVU1070
 3722 0006 08BD     		pop	{r3, pc}
 3723              		.cfi_endproc
 3724              	.LFE289:
 3726              		.section	.text.GUI__DispLine,"ax",%progbits
 3727              		.align	1
 3728              		.global	GUI__DispLine
 3729              		.syntax unified
 3730              		.thumb
 3731              		.thumb_func
 3733              	GUI__DispLine:
 3734              	.LVL368:
 3735              	.LFB290:
 765:../Bsp/OLED/GUISlim.c **** 
 766:../Bsp/OLED/GUISlim.c **** /*********************************************************************
 767:../Bsp/OLED/GUISlim.c **** *
 768:../Bsp/OLED/GUISlim.c **** *       GUI__DispLine
 769:../Bsp/OLED/GUISlim.c **** */
 770:../Bsp/OLED/GUISlim.c **** void GUI__DispLine(const char GUI_UNI_PTR *s, int MaxNumChars, const GUI_RECT* pr) {
 3736              		.loc 1 770 84 is_stmt 1 view -0
 3737              		.cfi_startproc
 3738              		@ args = 0, pretend = 0, frame = 8
 3739              		@ frame_needed = 0, uses_anonymous_args = 0
 3740              		.loc 1 770 84 is_stmt 0 view .LVU1072
 3741 0000 00B5     		push	{lr}
 3742              		.cfi_def_cfa_offset 4
 3743              		.cfi_offset 14, -4
 3744 0002 83B0     		sub	sp, sp, #12
 3745              		.cfi_def_cfa_offset 16
 3746 0004 8446     		mov	ip, r0
 3747 0006 8E46     		mov	lr, r1
 771:../Bsp/OLED/GUISlim.c ****   GUI_RECT r;
 3748              		.loc 1 771 3 is_stmt 1 view .LVU1073
 772:../Bsp/OLED/GUISlim.c ****   {
 773:../Bsp/OLED/GUISlim.c ****     r = *pr;
 3749              		.loc 1 773 5 view .LVU1074
 3750              		.loc 1 773 7 is_stmt 0 view .LVU1075
 3751 0008 6B46     		mov	r3, sp
 3752 000a 1068     		ldr	r0, [r2]	@ unaligned
 3753              	.LVL369:
 3754              		.loc 1 773 7 view .LVU1076
 3755 000c 5168     		ldr	r1, [r2, #4]	@ unaligned
 3756              	.LVL370:
 3757              		.loc 1 773 7 view .LVU1077
 3758 000e 03C3     		stmia	r3!, {r0, r1}
 774:../Bsp/OLED/GUISlim.c **** 		GUI_Context.DispPosX = r.x0;
 3759              		.loc 1 774 3 is_stmt 1 view .LVU1078
 3760              		.loc 1 774 27 is_stmt 0 view .LVU1079
ARM GAS  C:\Users\fish\AppData\Local\Temp\cc4JAs8f.s 			page 95


 3761 0010 BDF90020 		ldrsh	r2, [sp]
 3762              	.LVL371:
 3763              		.loc 1 774 24 view .LVU1080
 3764 0014 064B     		ldr	r3, .L294
 3765 0016 9A82     		strh	r2, [r3, #20]	@ movhi
 775:../Bsp/OLED/GUISlim.c **** 		GUI_Context.DispPosY = r.y0;
 3766              		.loc 1 775 3 is_stmt 1 view .LVU1081
 3767              		.loc 1 775 27 is_stmt 0 view .LVU1082
 3768 0018 BDF90220 		ldrsh	r2, [sp, #2]
 3769              		.loc 1 775 24 view .LVU1083
 3770 001c DA82     		strh	r2, [r3, #22]	@ movhi
 776:../Bsp/OLED/GUISlim.c **** 		/* Do the actual drawing via routine call. */
 777:../Bsp/OLED/GUISlim.c **** 		_DispLine(s, MaxNumChars, &r);
 3771              		.loc 1 777 3 is_stmt 1 view .LVU1084
 3772 001e 6A46     		mov	r2, sp
 3773 0020 7146     		mov	r1, lr
 3774 0022 6046     		mov	r0, ip
 3775 0024 FFF7FEFF 		bl	_DispLine
 3776              	.LVL372:
 778:../Bsp/OLED/GUISlim.c ****   }
 779:../Bsp/OLED/GUISlim.c **** }
 3777              		.loc 1 779 1 is_stmt 0 view .LVU1085
 3778 0028 03B0     		add	sp, sp, #12
 3779              		.cfi_def_cfa_offset 4
 3780              		@ sp needed
 3781 002a 5DF804FB 		ldr	pc, [sp], #4
 3782              	.L295:
 3783 002e 00BF     		.align	2
 3784              	.L294:
 3785 0030 00000000 		.word	GUI_Context
 3786              		.cfi_endproc
 3787              	.LFE290:
 3789              		.section	.text.GUI_SetTextAlign,"ax",%progbits
 3790              		.align	1
 3791              		.global	GUI_SetTextAlign
 3792              		.syntax unified
 3793              		.thumb
 3794              		.thumb_func
 3796              	GUI_SetTextAlign:
 3797              	.LVL373:
 3798              	.LFB293:
 780:../Bsp/OLED/GUISlim.c **** 
 781:../Bsp/OLED/GUISlim.c **** void GUI_DispString(const char GUI_UNI_PTR *s) {
 782:../Bsp/OLED/GUISlim.c ****   int xAdjust, yAdjust, xOrg;
 783:../Bsp/OLED/GUISlim.c ****   int FontSizeY;
 784:../Bsp/OLED/GUISlim.c ****   if (!s)
 785:../Bsp/OLED/GUISlim.c ****     return;
 786:../Bsp/OLED/GUISlim.c ****   GUI_LOCK();
 787:../Bsp/OLED/GUISlim.c ****   FontSizeY = GUI_GetFontDistY();
 788:../Bsp/OLED/GUISlim.c ****   xOrg = GUI_Context.DispPosX;
 789:../Bsp/OLED/GUISlim.c ****  /* Adjust vertical position */
 790:../Bsp/OLED/GUISlim.c ****   yAdjust = GUI_GetYAdjust();
 791:../Bsp/OLED/GUISlim.c ****   GUI_Context.DispPosY -= yAdjust;
 792:../Bsp/OLED/GUISlim.c ****   char *ss = (char *)s;
 793:../Bsp/OLED/GUISlim.c ****   int butf8 = detect_encoding_by_sequence(s);
 794:../Bsp/OLED/GUISlim.c ****   if (butf8 == 1)
 795:../Bsp/OLED/GUISlim.c **** 	  ss = utf8_string_to_gbk_with_table(s);
ARM GAS  C:\Users\fish\AppData\Local\Temp\cc4JAs8f.s 			page 96


 796:../Bsp/OLED/GUISlim.c ****   else if (butf8 == 3)
 797:../Bsp/OLED/GUISlim.c **** 	  ss = mixed_string_to_gbk(s);
 798:../Bsp/OLED/GUISlim.c ****   if (!ss)
 799:../Bsp/OLED/GUISlim.c **** 	  return;
 800:../Bsp/OLED/GUISlim.c ****   for (; *ss; ss++) {
 801:../Bsp/OLED/GUISlim.c ****     GUI_RECT r;
 802:../Bsp/OLED/GUISlim.c ****     int LineNumChars = GUI__GetLineNumChars(ss, 0x7fff);
 803:../Bsp/OLED/GUISlim.c ****     int xLineSize    = GUI__GetLineDistX(ss, LineNumChars);
 804:../Bsp/OLED/GUISlim.c ****   /* Check if x-position needs to be changed due to h-alignment */
 805:../Bsp/OLED/GUISlim.c ****     switch (GUI_Context.TextAlign & GUI_TA_HORIZONTAL) { 
 806:../Bsp/OLED/GUISlim.c ****       case GUI_TA_CENTER: xAdjust = xLineSize / 2; break;
 807:../Bsp/OLED/GUISlim.c ****       case GUI_TA_RIGHT:  xAdjust = xLineSize; break;
 808:../Bsp/OLED/GUISlim.c ****       default:            xAdjust = 0;
 809:../Bsp/OLED/GUISlim.c ****     }
 810:../Bsp/OLED/GUISlim.c ****     r.x0 = GUI_Context.DispPosX -= xAdjust;
 811:../Bsp/OLED/GUISlim.c ****     r.x1 = r.x0 + xLineSize - 1;    
 812:../Bsp/OLED/GUISlim.c ****     r.y0 = GUI_Context.DispPosY;
 813:../Bsp/OLED/GUISlim.c ****     r.y1 = r.y0 + FontSizeY - 1;    
 814:../Bsp/OLED/GUISlim.c ****     GUI__DispLine(ss, LineNumChars, &r);
 815:../Bsp/OLED/GUISlim.c ****     GUI_Context.DispPosY = r.y0;
 816:../Bsp/OLED/GUISlim.c ****     ss += GUI_UC__NumChars2NumBytes(ss, LineNumChars);
 817:../Bsp/OLED/GUISlim.c ****     if ((*ss == '\n') || (*ss == '\r')) {
 818:../Bsp/OLED/GUISlim.c ****       switch (GUI_Context.TextAlign & GUI_TA_HORIZONTAL) { 
 819:../Bsp/OLED/GUISlim.c ****       case GUI_TA_CENTER:
 820:../Bsp/OLED/GUISlim.c ****       case GUI_TA_RIGHT:
 821:../Bsp/OLED/GUISlim.c ****         GUI_Context.DispPosX = xOrg;
 822:../Bsp/OLED/GUISlim.c ****         break;
 823:../Bsp/OLED/GUISlim.c ****       default:
 824:../Bsp/OLED/GUISlim.c ****         GUI_Context.DispPosX = 0;
 825:../Bsp/OLED/GUISlim.c ****         break;
 826:../Bsp/OLED/GUISlim.c ****       }
 827:../Bsp/OLED/GUISlim.c ****       if (*ss == '\n')
 828:../Bsp/OLED/GUISlim.c ****         GUI_Context.DispPosY += FontSizeY;
 829:../Bsp/OLED/GUISlim.c ****     } else {
 830:../Bsp/OLED/GUISlim.c ****       GUI_Context.DispPosX = r.x0 + xLineSize;
 831:../Bsp/OLED/GUISlim.c ****     }
 832:../Bsp/OLED/GUISlim.c ****     if (*ss == 0)    /* end of string (last line) reached ? */
 833:../Bsp/OLED/GUISlim.c ****       break;
 834:../Bsp/OLED/GUISlim.c ****   }
 835:../Bsp/OLED/GUISlim.c **** //  if (butf8 == 1)
 836:../Bsp/OLED/GUISlim.c **** //	free(ss);
 837:../Bsp/OLED/GUISlim.c ****   GUI_Context.DispPosY += yAdjust;
 838:../Bsp/OLED/GUISlim.c ****   GUI_Context.TextAlign &= ~GUI_TA_HORIZONTAL;
 839:../Bsp/OLED/GUISlim.c ****   GUI_UNLOCK();
 840:../Bsp/OLED/GUISlim.c **** }
 841:../Bsp/OLED/GUISlim.c **** 
 842:../Bsp/OLED/GUISlim.c **** void GUI_DispStringAt(const char GUI_UNI_PTR *s, int x, int y) {
 843:../Bsp/OLED/GUISlim.c ****   GUI_LOCK();
 844:../Bsp/OLED/GUISlim.c ****   GUI_Context.DispPosX = x;
 845:../Bsp/OLED/GUISlim.c ****   GUI_Context.DispPosY = y;
 846:../Bsp/OLED/GUISlim.c ****   GUI_DispString(s);
 847:../Bsp/OLED/GUISlim.c ****   GUI_UNLOCK();
 848:../Bsp/OLED/GUISlim.c **** }
 849:../Bsp/OLED/GUISlim.c **** 
 850:../Bsp/OLED/GUISlim.c **** int GUI_SetTextAlign(int Align) {
 3799              		.loc 1 850 33 is_stmt 1 view -0
 3800              		.cfi_startproc
ARM GAS  C:\Users\fish\AppData\Local\Temp\cc4JAs8f.s 			page 97


 3801              		@ args = 0, pretend = 0, frame = 0
 3802              		@ frame_needed = 0, uses_anonymous_args = 0
 3803              		@ link register save eliminated.
 851:../Bsp/OLED/GUISlim.c ****   int r;
 3804              		.loc 1 851 3 view .LVU1087
 852:../Bsp/OLED/GUISlim.c ****   GUI_LOCK();
 3805              		.loc 1 852 13 view .LVU1088
 853:../Bsp/OLED/GUISlim.c ****   r = GUI_Context.TextAlign;
 3806              		.loc 1 853 3 view .LVU1089
 3807              		.loc 1 853 18 is_stmt 0 view .LVU1090
 3808 0000 024B     		ldr	r3, .L297
 3809 0002 B3F91A20 		ldrsh	r2, [r3, #26]
 3810              	.LVL374:
 854:../Bsp/OLED/GUISlim.c ****   GUI_Context.TextAlign = Align;
 3811              		.loc 1 854 3 is_stmt 1 view .LVU1091
 3812              		.loc 1 854 25 is_stmt 0 view .LVU1092
 3813 0006 5883     		strh	r0, [r3, #26]	@ movhi
 855:../Bsp/OLED/GUISlim.c ****   GUI_UNLOCK();
 3814              		.loc 1 855 15 is_stmt 1 view .LVU1093
 856:../Bsp/OLED/GUISlim.c ****   return r;
 3815              		.loc 1 856 3 view .LVU1094
 857:../Bsp/OLED/GUISlim.c **** }
 3816              		.loc 1 857 1 is_stmt 0 view .LVU1095
 3817 0008 1046     		mov	r0, r2
 3818              	.LVL375:
 3819              		.loc 1 857 1 view .LVU1096
 3820 000a 7047     		bx	lr
 3821              	.L298:
 3822              		.align	2
 3823              	.L297:
 3824 000c 00000000 		.word	GUI_Context
 3825              		.cfi_endproc
 3826              	.LFE293:
 3828              		.section	.text.GUI_GetFontSizeY,"ax",%progbits
 3829              		.align	1
 3830              		.global	GUI_GetFontSizeY
 3831              		.syntax unified
 3832              		.thumb
 3833              		.thumb_func
 3835              	GUI_GetFontSizeY:
 3836              	.LFB295:
 858:../Bsp/OLED/GUISlim.c **** 
 859:../Bsp/OLED/GUISlim.c **** void GUI_DispStringHCenterAt(const char GUI_UNI_PTR *s, int x, int y) {
 860:../Bsp/OLED/GUISlim.c ****   int Align;
 861:../Bsp/OLED/GUISlim.c ****   Align = GUI_SetTextAlign((GUI_Context.TextAlign & ~GUI_TA_LEFT) | GUI_TA_CENTER);
 862:../Bsp/OLED/GUISlim.c ****   GUI_DispStringAt(s, x, y);
 863:../Bsp/OLED/GUISlim.c ****   GUI_SetTextAlign(Align);
 864:../Bsp/OLED/GUISlim.c **** }
 865:../Bsp/OLED/GUISlim.c **** 
 866:../Bsp/OLED/GUISlim.c **** int GUI_GetFontSizeY(void) {
 3837              		.loc 1 866 28 is_stmt 1 view -0
 3838              		.cfi_startproc
 3839              		@ args = 0, pretend = 0, frame = 0
 3840              		@ frame_needed = 0, uses_anonymous_args = 0
 3841              		@ link register save eliminated.
 867:../Bsp/OLED/GUISlim.c ****   int r;
 3842              		.loc 1 867 3 view .LVU1098
ARM GAS  C:\Users\fish\AppData\Local\Temp\cc4JAs8f.s 			page 98


 868:../Bsp/OLED/GUISlim.c ****   GUI_LOCK();
 3843              		.loc 1 868 13 view .LVU1099
 869:../Bsp/OLED/GUISlim.c ****   r = GUI_Context.pAFont->YSize;
 3844              		.loc 1 869 3 view .LVU1100
 3845              		.loc 1 869 18 is_stmt 0 view .LVU1101
 3846 0000 014B     		ldr	r3, .L300
 3847 0002 1B69     		ldr	r3, [r3, #16]
 3848              	.LVL376:
 870:../Bsp/OLED/GUISlim.c ****   GUI_UNLOCK();
 3849              		.loc 1 870 15 is_stmt 1 view .LVU1102
 871:../Bsp/OLED/GUISlim.c ****   return r;
 3850              		.loc 1 871 3 view .LVU1103
 872:../Bsp/OLED/GUISlim.c **** }
 3851              		.loc 1 872 1 is_stmt 0 view .LVU1104
 3852 0004 187D     		ldrb	r0, [r3, #20]	@ zero_extendqisi2
 3853              	.LVL377:
 3854              		.loc 1 872 1 view .LVU1105
 3855 0006 7047     		bx	lr
 3856              	.L301:
 3857              		.align	2
 3858              	.L300:
 3859 0008 00000000 		.word	GUI_Context
 3860              		.cfi_endproc
 3861              	.LFE295:
 3863              		.section	.text.GUI_GetClientRect,"ax",%progbits
 3864              		.align	1
 3865              		.global	GUI_GetClientRect
 3866              		.syntax unified
 3867              		.thumb
 3868              		.thumb_func
 3870              	GUI_GetClientRect:
 3871              	.LVL378:
 3872              	.LFB296:
 873:../Bsp/OLED/GUISlim.c **** 
 874:../Bsp/OLED/GUISlim.c **** void GUI_GetClientRect(GUI_RECT* pRect) {
 3873              		.loc 1 874 41 is_stmt 1 view -0
 3874              		.cfi_startproc
 3875              		@ args = 0, pretend = 0, frame = 0
 3876              		@ frame_needed = 0, uses_anonymous_args = 0
 875:../Bsp/OLED/GUISlim.c ****   if (!pRect)
 3877              		.loc 1 875 3 view .LVU1107
 3878              		.loc 1 875 6 is_stmt 0 view .LVU1108
 3879 0000 58B1     		cbz	r0, .L305
 874:../Bsp/OLED/GUISlim.c ****   if (!pRect)
 3880              		.loc 1 874 41 view .LVU1109
 3881 0002 10B5     		push	{r4, lr}
 3882              		.cfi_def_cfa_offset 8
 3883              		.cfi_offset 4, -8
 3884              		.cfi_offset 14, -4
 3885 0004 0446     		mov	r4, r0
 876:../Bsp/OLED/GUISlim.c ****     return;
 877:../Bsp/OLED/GUISlim.c **** 	pRect->x0 = 0;
 3886              		.loc 1 877 2 is_stmt 1 view .LVU1110
 3887              		.loc 1 877 12 is_stmt 0 view .LVU1111
 3888 0006 0023     		movs	r3, #0
 3889 0008 0380     		strh	r3, [r0]	@ movhi
 878:../Bsp/OLED/GUISlim.c **** 	pRect->y0 = 0;
ARM GAS  C:\Users\fish\AppData\Local\Temp\cc4JAs8f.s 			page 99


 3890              		.loc 1 878 2 is_stmt 1 view .LVU1112
 3891              		.loc 1 878 12 is_stmt 0 view .LVU1113
 3892 000a 4380     		strh	r3, [r0, #2]	@ movhi
 879:../Bsp/OLED/GUISlim.c **** 	pRect->x1 = LCD_GetXSize();
 3893              		.loc 1 879 2 is_stmt 1 view .LVU1114
 3894              		.loc 1 879 14 is_stmt 0 view .LVU1115
 3895 000c FFF7FEFF 		bl	LCD_GetXSize
 3896              	.LVL379:
 3897              		.loc 1 879 12 discriminator 1 view .LVU1116
 3898 0010 A080     		strh	r0, [r4, #4]	@ movhi
 880:../Bsp/OLED/GUISlim.c **** 	pRect->y1 = LCD_GetYSize();
 3899              		.loc 1 880 2 is_stmt 1 view .LVU1117
 3900              		.loc 1 880 14 is_stmt 0 view .LVU1118
 3901 0012 FFF7FEFF 		bl	LCD_GetYSize
 3902              	.LVL380:
 3903              		.loc 1 880 12 discriminator 1 view .LVU1119
 3904 0016 E080     		strh	r0, [r4, #6]	@ movhi
 881:../Bsp/OLED/GUISlim.c **** }
 3905              		.loc 1 881 1 view .LVU1120
 3906 0018 10BD     		pop	{r4, pc}
 3907              	.LVL381:
 3908              	.L305:
 3909              		.cfi_def_cfa_offset 0
 3910              		.cfi_restore 4
 3911              		.cfi_restore 14
 3912              		.loc 1 881 1 view .LVU1121
 3913 001a 7047     		bx	lr
 3914              		.cfi_endproc
 3915              	.LFE296:
 3917              		.section	.text.GUI__HandleEOLine,"ax",%progbits
 3918              		.align	1
 3919              		.global	GUI__HandleEOLine
 3920              		.syntax unified
 3921              		.thumb
 3922              		.thumb_func
 3924              	GUI__HandleEOLine:
 3925              	.LVL382:
 3926              	.LFB297:
 882:../Bsp/OLED/GUISlim.c **** 
 883:../Bsp/OLED/GUISlim.c **** int GUI__HandleEOLine(const char GUI_UNI_PTR **ps) {
 3927              		.loc 1 883 52 is_stmt 1 view -0
 3928              		.cfi_startproc
 3929              		@ args = 0, pretend = 0, frame = 0
 3930              		@ frame_needed = 0, uses_anonymous_args = 0
 3931              		@ link register save eliminated.
 884:../Bsp/OLED/GUISlim.c ****   const char GUI_UNI_PTR *s = *ps;
 3932              		.loc 1 884 3 view .LVU1123
 885:../Bsp/OLED/GUISlim.c ****   char c = *s++;
 3933              		.loc 1 885 3 view .LVU1124
 3934              		.loc 1 885 14 is_stmt 0 view .LVU1125
 3935 0000 0368     		ldr	r3, [r0]
 3936              	.LVL383:
 3937              		.loc 1 885 8 view .LVU1126
 3938 0002 13F8012B 		ldrb	r2, [r3], #1	@ zero_extendqisi2
 3939              	.LVL384:
 886:../Bsp/OLED/GUISlim.c ****   if (c == 0) {
 3940              		.loc 1 886 3 is_stmt 1 view .LVU1127
ARM GAS  C:\Users\fish\AppData\Local\Temp\cc4JAs8f.s 			page 100


 3941              		.loc 1 886 6 is_stmt 0 view .LVU1128
 3942 0006 32B1     		cbz	r2, .L310
 887:../Bsp/OLED/GUISlim.c ****     return 1;
 888:../Bsp/OLED/GUISlim.c ****   }
 889:../Bsp/OLED/GUISlim.c ****   if (c == '\n') {
 3943              		.loc 1 889 3 is_stmt 1 view .LVU1129
 3944              		.loc 1 889 6 is_stmt 0 view .LVU1130
 3945 0008 0A2A     		cmp	r2, #10
 3946 000a 01D0     		beq	.L312
 890:../Bsp/OLED/GUISlim.c ****     *ps = s;
 891:../Bsp/OLED/GUISlim.c ****   }
 892:../Bsp/OLED/GUISlim.c ****   return 0;
 3947              		.loc 1 892 10 view .LVU1131
 3948 000c 0020     		movs	r0, #0
 3949              	.LVL385:
 893:../Bsp/OLED/GUISlim.c **** }
 3950              		.loc 1 893 1 view .LVU1132
 3951 000e 7047     		bx	lr
 3952              	.LVL386:
 3953              	.L312:
 890:../Bsp/OLED/GUISlim.c ****     *ps = s;
 3954              		.loc 1 890 5 is_stmt 1 view .LVU1133
 890:../Bsp/OLED/GUISlim.c ****     *ps = s;
 3955              		.loc 1 890 9 is_stmt 0 view .LVU1134
 3956 0010 0360     		str	r3, [r0]
 892:../Bsp/OLED/GUISlim.c **** }
 3957              		.loc 1 892 10 view .LVU1135
 3958 0012 0020     		movs	r0, #0
 3959              	.LVL387:
 892:../Bsp/OLED/GUISlim.c **** }
 3960              		.loc 1 892 10 view .LVU1136
 3961 0014 7047     		bx	lr
 3962              	.LVL388:
 3963              	.L310:
 887:../Bsp/OLED/GUISlim.c ****   }
 3964              		.loc 1 887 12 view .LVU1137
 3965 0016 0120     		movs	r0, #1
 3966              	.LVL389:
 887:../Bsp/OLED/GUISlim.c ****   }
 3967              		.loc 1 887 12 view .LVU1138
 3968 0018 7047     		bx	lr
 3969              		.cfi_endproc
 3970              	.LFE297:
 3972              		.section	.text.GUI__IntersectRects,"ax",%progbits
 3973              		.align	1
 3974              		.global	GUI__IntersectRects
 3975              		.syntax unified
 3976              		.thumb
 3977              		.thumb_func
 3979              	GUI__IntersectRects:
 3980              	.LVL390:
 3981              	.LFB299:
 894:../Bsp/OLED/GUISlim.c **** 
 895:../Bsp/OLED/GUISlim.c **** void GUI__DispStringInRect(const char GUI_UNI_PTR *s, GUI_RECT* pRect, int TextAlign, int MaxNumCha
 896:../Bsp/OLED/GUISlim.c ****   GUI_RECT r;
 897:../Bsp/OLED/GUISlim.c ****   GUI_RECT rLine;
 898:../Bsp/OLED/GUISlim.c ****   int y = 0;
ARM GAS  C:\Users\fish\AppData\Local\Temp\cc4JAs8f.s 			page 101


 899:../Bsp/OLED/GUISlim.c **** 
 900:../Bsp/OLED/GUISlim.c ****   char *ss = (char *)s;
 901:../Bsp/OLED/GUISlim.c ****   int butf8 = detect_encoding_by_sequence(s);
 902:../Bsp/OLED/GUISlim.c ****   if (butf8 == 1)
 903:../Bsp/OLED/GUISlim.c **** 	  ss = utf8_string_to_gbk_with_table(s);
 904:../Bsp/OLED/GUISlim.c ****   else if (butf8 == 3)
 905:../Bsp/OLED/GUISlim.c **** 	  ss = mixed_string_to_gbk(s);
 906:../Bsp/OLED/GUISlim.c ****   if (!ss)
 907:../Bsp/OLED/GUISlim.c **** 	  return;
 908:../Bsp/OLED/GUISlim.c ****   const char GUI_UNI_PTR *sOrg =ss;
 909:../Bsp/OLED/GUISlim.c ****   int FontYSize;
 910:../Bsp/OLED/GUISlim.c ****   int xLine = 0;
 911:../Bsp/OLED/GUISlim.c ****   int LineLen;
 912:../Bsp/OLED/GUISlim.c ****   int NumCharsRem;           /* Number of remaining characters */
 913:../Bsp/OLED/GUISlim.c ****   FontYSize = GUI_GetFontSizeY();
 914:../Bsp/OLED/GUISlim.c ****   if (pRect) {
 915:../Bsp/OLED/GUISlim.c ****     r = *pRect;
 916:../Bsp/OLED/GUISlim.c ****   } else {
 917:../Bsp/OLED/GUISlim.c ****     GUI_GetClientRect(&r);
 918:../Bsp/OLED/GUISlim.c ****   }
 919:../Bsp/OLED/GUISlim.c ****   /* handle vertical alignment */
 920:../Bsp/OLED/GUISlim.c ****   if ((TextAlign & GUI_TA_VERTICAL) == GUI_TA_TOP) {
 921:../Bsp/OLED/GUISlim.c **** 		y = r.y0;
 922:../Bsp/OLED/GUISlim.c ****   } else {
 923:../Bsp/OLED/GUISlim.c ****     int NumLines;
 924:../Bsp/OLED/GUISlim.c ****     /* Count the number of lines */
 925:../Bsp/OLED/GUISlim.c ****     for (NumCharsRem = MaxNumChars, NumLines = 1; NumCharsRem ;NumLines++) {
 926:../Bsp/OLED/GUISlim.c ****       LineLen = GUI__GetLineNumChars(ss, NumCharsRem);
 927:../Bsp/OLED/GUISlim.c ****       NumCharsRem -= LineLen;
 928:../Bsp/OLED/GUISlim.c ****       ss += GUI_UC__NumChars2NumBytes(ss, LineLen);
 929:../Bsp/OLED/GUISlim.c ****       if (GUI__HandleEOLine((const char **)&ss))
 930:../Bsp/OLED/GUISlim.c ****         break;
 931:../Bsp/OLED/GUISlim.c ****     }
 932:../Bsp/OLED/GUISlim.c ****     /* Do the vertical alignment */
 933:../Bsp/OLED/GUISlim.c ****     switch (TextAlign & GUI_TA_VERTICAL) {
 934:../Bsp/OLED/GUISlim.c **** 	  case GUI_TA_BASELINE:
 935:../Bsp/OLED/GUISlim.c **** 	  case GUI_TA_BOTTOM:
 936:../Bsp/OLED/GUISlim.c **** 	  y = r.y1 -NumLines * FontYSize+1;
 937:../Bsp/OLED/GUISlim.c ****       break;
 938:../Bsp/OLED/GUISlim.c **** 	  case GUI_TA_VCENTER:
 939:../Bsp/OLED/GUISlim.c **** 		  y = r.y0+(r.y1-r.y0+1 -NumLines * FontYSize) /2;
 940:../Bsp/OLED/GUISlim.c ****       break;
 941:../Bsp/OLED/GUISlim.c **** 	  }
 942:../Bsp/OLED/GUISlim.c ****   }
 943:../Bsp/OLED/GUISlim.c ****   /* Output string */
 944:../Bsp/OLED/GUISlim.c ****   for (NumCharsRem = MaxNumChars, ss = (char *)sOrg; NumCharsRem;) {
 945:../Bsp/OLED/GUISlim.c ****     int xLineSize;
 946:../Bsp/OLED/GUISlim.c ****     LineLen = GUI__GetLineNumChars(ss, NumCharsRem);
 947:../Bsp/OLED/GUISlim.c ****     NumCharsRem -= LineLen;
 948:../Bsp/OLED/GUISlim.c ****     xLineSize = GUI__GetLineDistX(ss, LineLen);
 949:../Bsp/OLED/GUISlim.c ****     switch (TextAlign & GUI_TA_HORIZONTAL) {
 950:../Bsp/OLED/GUISlim.c ****     case GUI_TA_HCENTER:
 951:../Bsp/OLED/GUISlim.c ****       xLine = r.x0+(r.x1-r.x0-xLineSize)/2; break;
 952:../Bsp/OLED/GUISlim.c ****     case GUI_TA_LEFT:
 953:../Bsp/OLED/GUISlim.c ****       xLine = r.x0; break;
 954:../Bsp/OLED/GUISlim.c ****     case GUI_TA_RIGHT:
 955:../Bsp/OLED/GUISlim.c ****       xLine = r.x1 -xLineSize + 1;
ARM GAS  C:\Users\fish\AppData\Local\Temp\cc4JAs8f.s 			page 102


 956:../Bsp/OLED/GUISlim.c ****     }
 957:../Bsp/OLED/GUISlim.c ****     rLine.x0 = GUI_Context.DispPosX = xLine;
 958:../Bsp/OLED/GUISlim.c ****     rLine.x1 = rLine.x0 + xLineSize-1;
 959:../Bsp/OLED/GUISlim.c ****     rLine.y0 = GUI_Context.DispPosY = y;
 960:../Bsp/OLED/GUISlim.c ****     rLine.y1 = y + FontYSize-1;
 961:../Bsp/OLED/GUISlim.c ****     GUI__DispLine(ss, LineLen, &rLine);
 962:../Bsp/OLED/GUISlim.c ****     ss += GUI_UC__NumChars2NumBytes(ss, LineLen);
 963:../Bsp/OLED/GUISlim.c ****     y += GUI_GetFontDistY();
 964:../Bsp/OLED/GUISlim.c ****     if (GUI__HandleEOLine((const char **)&ss))
 965:../Bsp/OLED/GUISlim.c ****       break;
 966:../Bsp/OLED/GUISlim.c ****   }
 967:../Bsp/OLED/GUISlim.c **** //  if (butf8 == 1)
 968:../Bsp/OLED/GUISlim.c **** //	free(ss);
 969:../Bsp/OLED/GUISlim.c **** }
 970:../Bsp/OLED/GUISlim.c **** 
 971:../Bsp/OLED/GUISlim.c **** #define MIN(v0,v1) ((v0>v1) ? v1 : v0)
 972:../Bsp/OLED/GUISlim.c **** #define MAX(v0,v1) ((v0>v1) ? v0 : v1)
 973:../Bsp/OLED/GUISlim.c **** 
 974:../Bsp/OLED/GUISlim.c **** int GUI__IntersectRects(GUI_RECT* pDest, const GUI_RECT* pr0, const GUI_RECT* pr1) {
 3982              		.loc 1 974 84 is_stmt 1 view -0
 3983              		.cfi_startproc
 3984              		@ args = 0, pretend = 0, frame = 0
 3985              		@ frame_needed = 0, uses_anonymous_args = 0
 3986              		.loc 1 974 84 is_stmt 0 view .LVU1140
 3987 0000 10B5     		push	{r4, lr}
 3988              		.cfi_def_cfa_offset 8
 3989              		.cfi_offset 4, -8
 3990              		.cfi_offset 14, -4
 975:../Bsp/OLED/GUISlim.c ****   pDest->x0 = MAX (pr0->x0, pr1->x0);
 3991              		.loc 1 975 3 is_stmt 1 view .LVU1141
 3992              		.loc 1 975 15 is_stmt 0 view .LVU1142
 3993 0002 B2F900C0 		ldrsh	ip, [r2]
 3994 0006 B1F90030 		ldrsh	r3, [r1]
 3995 000a 9C45     		cmp	ip, r3
 3996 000c B8BF     		it	lt
 3997 000e 9C46     		movlt	ip, r3
 3998              		.loc 1 975 13 view .LVU1143
 3999 0010 A0F800C0 		strh	ip, [r0]	@ movhi
 976:../Bsp/OLED/GUISlim.c ****   pDest->y0 = MAX (pr0->y0, pr1->y0);
 4000              		.loc 1 976 3 is_stmt 1 view .LVU1144
 4001              		.loc 1 976 15 is_stmt 0 view .LVU1145
 4002 0014 B2F902E0 		ldrsh	lr, [r2, #2]
 4003 0018 B1F90230 		ldrsh	r3, [r1, #2]
 4004 001c 9E45     		cmp	lr, r3
 4005 001e B8BF     		it	lt
 4006 0020 9E46     		movlt	lr, r3
 4007              		.loc 1 976 13 view .LVU1146
 4008 0022 A0F802E0 		strh	lr, [r0, #2]	@ movhi
 977:../Bsp/OLED/GUISlim.c ****   pDest->x1 = MIN (pr0->x1, pr1->x1);
 4009              		.loc 1 977 3 is_stmt 1 view .LVU1147
 4010              		.loc 1 977 15 is_stmt 0 view .LVU1148
 4011 0026 B1F90430 		ldrsh	r3, [r1, #4]
 4012 002a B2F90440 		ldrsh	r4, [r2, #4]
 4013 002e A342     		cmp	r3, r4
 4014 0030 A8BF     		it	ge
 4015 0032 2346     		movge	r3, r4
 4016              		.loc 1 977 13 view .LVU1149
ARM GAS  C:\Users\fish\AppData\Local\Temp\cc4JAs8f.s 			page 103


 4017 0034 8380     		strh	r3, [r0, #4]	@ movhi
 978:../Bsp/OLED/GUISlim.c ****   pDest->y1 = MIN (pr0->y1, pr1->y1);
 4018              		.loc 1 978 3 is_stmt 1 view .LVU1150
 4019              		.loc 1 978 15 is_stmt 0 view .LVU1151
 4020 0036 B1F90610 		ldrsh	r1, [r1, #6]
 4021              	.LVL391:
 4022              		.loc 1 978 15 view .LVU1152
 4023 003a B2F90620 		ldrsh	r2, [r2, #6]
 4024              	.LVL392:
 4025              		.loc 1 978 15 view .LVU1153
 4026 003e 8A42     		cmp	r2, r1
 4027 0040 A8BF     		it	ge
 4028 0042 0A46     		movge	r2, r1
 4029              		.loc 1 978 13 view .LVU1154
 4030 0044 C280     		strh	r2, [r0, #6]	@ movhi
 979:../Bsp/OLED/GUISlim.c ****   if (pDest->x1 < pDest->x0) {
 4031              		.loc 1 979 3 is_stmt 1 view .LVU1155
 4032              		.loc 1 979 6 is_stmt 0 view .LVU1156
 4033 0046 9C45     		cmp	ip, r3
 4034 0048 03DC     		bgt	.L315
 980:../Bsp/OLED/GUISlim.c ****     return 0;
 981:../Bsp/OLED/GUISlim.c ****   }
 982:../Bsp/OLED/GUISlim.c ****   if (pDest->y1 < pDest->y0) {
 4035              		.loc 1 982 3 is_stmt 1 view .LVU1157
 4036              		.loc 1 982 6 is_stmt 0 view .LVU1158
 4037 004a 9645     		cmp	lr, r2
 4038 004c 03DC     		bgt	.L316
 983:../Bsp/OLED/GUISlim.c ****     return 0;
 984:../Bsp/OLED/GUISlim.c ****   }
 985:../Bsp/OLED/GUISlim.c ****   return 1;
 4039              		.loc 1 985 10 view .LVU1159
 4040 004e 0120     		movs	r0, #1
 4041              	.LVL393:
 4042              	.L313:
 986:../Bsp/OLED/GUISlim.c **** }
 4043              		.loc 1 986 1 view .LVU1160
 4044 0050 10BD     		pop	{r4, pc}
 4045              	.LVL394:
 4046              	.L315:
 980:../Bsp/OLED/GUISlim.c ****     return 0;
 4047              		.loc 1 980 12 view .LVU1161
 4048 0052 0020     		movs	r0, #0
 4049              	.LVL395:
 980:../Bsp/OLED/GUISlim.c ****     return 0;
 4050              		.loc 1 980 12 view .LVU1162
 4051 0054 FCE7     		b	.L313
 4052              	.LVL396:
 4053              	.L316:
 983:../Bsp/OLED/GUISlim.c ****     return 0;
 4054              		.loc 1 983 12 view .LVU1163
 4055 0056 0020     		movs	r0, #0
 4056              	.LVL397:
 983:../Bsp/OLED/GUISlim.c ****     return 0;
 4057              		.loc 1 983 12 view .LVU1164
 4058 0058 FAE7     		b	.L313
 4059              		.cfi_endproc
 4060              	.LFE299:
ARM GAS  C:\Users\fish\AppData\Local\Temp\cc4JAs8f.s 			page 104


 4062              		.section	.text.LCD_SetClipRectEx,"ax",%progbits
 4063              		.align	1
 4064              		.global	LCD_SetClipRectEx
 4065              		.syntax unified
 4066              		.thumb
 4067              		.thumb_func
 4069              	LCD_SetClipRectEx:
 4070              	.LVL398:
 4071              	.LFB300:
 987:../Bsp/OLED/GUISlim.c **** void LCD_SetClipRectEx(const GUI_RECT* pRect) {
 4072              		.loc 1 987 47 is_stmt 1 view -0
 4073              		.cfi_startproc
 4074              		@ args = 0, pretend = 0, frame = 8
 4075              		@ frame_needed = 0, uses_anonymous_args = 0
 4076              		.loc 1 987 47 is_stmt 0 view .LVU1166
 4077 0000 30B5     		push	{r4, r5, lr}
 4078              		.cfi_def_cfa_offset 12
 4079              		.cfi_offset 4, -12
 4080              		.cfi_offset 5, -8
 4081              		.cfi_offset 14, -4
 4082 0002 83B0     		sub	sp, sp, #12
 4083              		.cfi_def_cfa_offset 24
 4084 0004 0446     		mov	r4, r0
 988:../Bsp/OLED/GUISlim.c ****   LCD_RECT r;
 4085              		.loc 1 988 3 is_stmt 1 view .LVU1167
 989:../Bsp/OLED/GUISlim.c ****   LCD_GetRect(&r);
 4086              		.loc 1 989 3 view .LVU1168
 4087 0006 6846     		mov	r0, sp
 4088              	.LVL399:
 4089              		.loc 1 989 3 is_stmt 0 view .LVU1169
 4090 0008 FFF7FEFF 		bl	LCD_GetRect
 4091              	.LVL400:
 990:../Bsp/OLED/GUISlim.c ****   GUI__IntersectRects(&GUI_Context.ClipRect, pRect, &r);
 4092              		.loc 1 990 3 is_stmt 1 view .LVU1170
 4093 000c 6A46     		mov	r2, sp
 4094 000e 2146     		mov	r1, r4
 4095 0010 0248     		ldr	r0, .L320
 4096 0012 FFF7FEFF 		bl	GUI__IntersectRects
 4097              	.LVL401:
 991:../Bsp/OLED/GUISlim.c **** }
 4098              		.loc 1 991 1 is_stmt 0 view .LVU1171
 4099 0016 03B0     		add	sp, sp, #12
 4100              		.cfi_def_cfa_offset 12
 4101              		@ sp needed
 4102 0018 30BD     		pop	{r4, r5, pc}
 4103              	.LVL402:
 4104              	.L321:
 4105              		.loc 1 991 1 view .LVU1172
 4106 001a 00BF     		.align	2
 4107              	.L320:
 4108 001c 00000000 		.word	GUI_Context
 4109              		.cfi_endproc
 4110              	.LFE300:
 4112              		.section	.text.GUI_GetDispPosX,"ax",%progbits
 4113              		.align	1
 4114              		.global	GUI_GetDispPosX
 4115              		.syntax unified
ARM GAS  C:\Users\fish\AppData\Local\Temp\cc4JAs8f.s 			page 105


 4116              		.thumb
 4117              		.thumb_func
 4119              	GUI_GetDispPosX:
 4120              	.LFB305:
 992:../Bsp/OLED/GUISlim.c **** 
 993:../Bsp/OLED/GUISlim.c **** void GUI_DispStringInRectMax(const char GUI_UNI_PTR *s, GUI_RECT* pRect, int TextAlign, int MaxLen)
 994:../Bsp/OLED/GUISlim.c ****   GUI_RECT Rect_Old, r;
 995:../Bsp/OLED/GUISlim.c ****   if (s && pRect) {
 996:../Bsp/OLED/GUISlim.c ****     GUI_LOCK();
 997:../Bsp/OLED/GUISlim.c ****     Rect_Old = GUI_Context.ClipRect;
 998:../Bsp/OLED/GUISlim.c ****     GUI__IntersectRects(&r, pRect, &Rect_Old);
 999:../Bsp/OLED/GUISlim.c ****     LCD_SetClipRectEx(&r);
1000:../Bsp/OLED/GUISlim.c ****     GUI__DispStringInRect(s, pRect, TextAlign, MaxLen);
1001:../Bsp/OLED/GUISlim.c ****     LCD_SetClipRectEx(&Rect_Old);
1002:../Bsp/OLED/GUISlim.c ****     GUI_UNLOCK();
1003:../Bsp/OLED/GUISlim.c ****   }
1004:../Bsp/OLED/GUISlim.c **** }
1005:../Bsp/OLED/GUISlim.c **** void GUI_DispStringInRect(const char GUI_UNI_PTR *s, GUI_RECT* pRect, int TextAlign) {
1006:../Bsp/OLED/GUISlim.c ****   GUI_DispStringInRectMax(s, pRect, TextAlign, 0x7fff);
1007:../Bsp/OLED/GUISlim.c **** }
1008:../Bsp/OLED/GUISlim.c **** 
1009:../Bsp/OLED/GUISlim.c **** void GUI_DispStringLen(const char GUI_UNI_PTR *s, int MaxNumChars) {
1010:../Bsp/OLED/GUISlim.c ****   U16 Char;
1011:../Bsp/OLED/GUISlim.c ****   GUI_LOCK();
1012:../Bsp/OLED/GUISlim.c ****   char *ss = (char *)s;
1013:../Bsp/OLED/GUISlim.c ****   int butf8 = detect_encoding_by_sequence(s);
1014:../Bsp/OLED/GUISlim.c ****   if (butf8 == 1)
1015:../Bsp/OLED/GUISlim.c **** 	  ss = utf8_string_to_gbk_with_table(s);
1016:../Bsp/OLED/GUISlim.c ****   else if (butf8 == 3)
1017:../Bsp/OLED/GUISlim.c **** 	  ss = mixed_string_to_gbk(s);
1018:../Bsp/OLED/GUISlim.c ****   if (!ss)
1019:../Bsp/OLED/GUISlim.c **** 	  return;
1020:../Bsp/OLED/GUISlim.c ****   while (MaxNumChars && ((Char = GUI_UC__GetCharCodeInc((const char **)&ss)) != 0)) {
1021:../Bsp/OLED/GUISlim.c ****     GUI_DispChar(Char);
1022:../Bsp/OLED/GUISlim.c ****     MaxNumChars--;
1023:../Bsp/OLED/GUISlim.c ****   }
1024:../Bsp/OLED/GUISlim.c ****   while (MaxNumChars--) {
1025:../Bsp/OLED/GUISlim.c ****     GUI_DispChar(' ');
1026:../Bsp/OLED/GUISlim.c ****   }
1027:../Bsp/OLED/GUISlim.c **** //  if (butf8 == 1)
1028:../Bsp/OLED/GUISlim.c **** //	free(ss);
1029:../Bsp/OLED/GUISlim.c ****   GUI_UNLOCK();
1030:../Bsp/OLED/GUISlim.c **** }
1031:../Bsp/OLED/GUISlim.c **** /*********************************************************************
1032:../Bsp/OLED/GUISlim.c **** *
1033:../Bsp/OLED/GUISlim.c **** *       GUI_GetTextExtend
1034:../Bsp/OLED/GUISlim.c **** */
1035:../Bsp/OLED/GUISlim.c **** void GUI_GetTextExtend(GUI_RECT* pRect, const char GUI_UNI_PTR * s, int MaxNumChars) {
1036:../Bsp/OLED/GUISlim.c ****   int xMax      = 0;
1037:../Bsp/OLED/GUISlim.c ****   int NumLines  = 0;
1038:../Bsp/OLED/GUISlim.c ****   int LineSizeX = 0;
1039:../Bsp/OLED/GUISlim.c ****   U16 Char;
1040:../Bsp/OLED/GUISlim.c ****   pRect->x0 = GUI_Context.DispPosX;
1041:../Bsp/OLED/GUISlim.c ****   pRect->y0 = GUI_Context.DispPosY;
1042:../Bsp/OLED/GUISlim.c ****   char *ss = (char *)s;
1043:../Bsp/OLED/GUISlim.c ****   int butf8 = detect_encoding_by_sequence(s);
1044:../Bsp/OLED/GUISlim.c ****   if (butf8 == 1)
ARM GAS  C:\Users\fish\AppData\Local\Temp\cc4JAs8f.s 			page 106


1045:../Bsp/OLED/GUISlim.c **** 	  ss = utf8_string_to_gbk_with_table(s);
1046:../Bsp/OLED/GUISlim.c ****   else if (butf8 == 3)
1047:../Bsp/OLED/GUISlim.c **** 	  ss = mixed_string_to_gbk(s);
1048:../Bsp/OLED/GUISlim.c ****   if (!ss)
1049:../Bsp/OLED/GUISlim.c **** 	  return;
1050:../Bsp/OLED/GUISlim.c ****   while (MaxNumChars--) {
1051:../Bsp/OLED/GUISlim.c ****     Char = GUI_UC__GetCharCodeInc((const char **)&ss);
1052:../Bsp/OLED/GUISlim.c ****     if ((Char == '\n') || (Char == 0)) {
1053:../Bsp/OLED/GUISlim.c ****       if (LineSizeX > xMax) {
1054:../Bsp/OLED/GUISlim.c ****         xMax = LineSizeX;
1055:../Bsp/OLED/GUISlim.c ****       }
1056:../Bsp/OLED/GUISlim.c ****       LineSizeX = 0;
1057:../Bsp/OLED/GUISlim.c ****       NumLines++;
1058:../Bsp/OLED/GUISlim.c ****       if (!Char) {
1059:../Bsp/OLED/GUISlim.c ****         break;
1060:../Bsp/OLED/GUISlim.c ****       }
1061:../Bsp/OLED/GUISlim.c ****     } else {
1062:../Bsp/OLED/GUISlim.c ****       LineSizeX += GUI_GetCharDistX(Char);
1063:../Bsp/OLED/GUISlim.c ****     }
1064:../Bsp/OLED/GUISlim.c ****   }
1065:../Bsp/OLED/GUISlim.c ****   if (LineSizeX > xMax) {
1066:../Bsp/OLED/GUISlim.c ****     xMax = LineSizeX;
1067:../Bsp/OLED/GUISlim.c ****   }
1068:../Bsp/OLED/GUISlim.c ****   if (!NumLines) {
1069:../Bsp/OLED/GUISlim.c ****     NumLines = 1;
1070:../Bsp/OLED/GUISlim.c ****   }
1071:../Bsp/OLED/GUISlim.c ****   pRect->x1 = pRect->x0 + xMax - 1;
1072:../Bsp/OLED/GUISlim.c ****   pRect->y1 = pRect->y0 + GUI_Context.pAFont->YSize * NumLines - 1;
1073:../Bsp/OLED/GUISlim.c **** //  if (butf8 == 1)
1074:../Bsp/OLED/GUISlim.c **** //	free(ss);
1075:../Bsp/OLED/GUISlim.c **** }
1076:../Bsp/OLED/GUISlim.c **** 
1077:../Bsp/OLED/GUISlim.c **** int GUI_GetDispPosX(void) {
 4121              		.loc 1 1077 27 is_stmt 1 view -0
 4122              		.cfi_startproc
 4123              		@ args = 0, pretend = 0, frame = 0
 4124              		@ frame_needed = 0, uses_anonymous_args = 0
 4125              		@ link register save eliminated.
1078:../Bsp/OLED/GUISlim.c ****   int r;
 4126              		.loc 1 1078 3 view .LVU1174
1079:../Bsp/OLED/GUISlim.c ****   GUI_LOCK();
 4127              		.loc 1 1079 13 view .LVU1175
1080:../Bsp/OLED/GUISlim.c ****   r = GUI_Context.DispPosX;
 4128              		.loc 1 1080 3 view .LVU1176
 4129              	.LVL403:
1081:../Bsp/OLED/GUISlim.c ****   GUI_UNLOCK();
 4130              		.loc 1 1081 15 view .LVU1177
1082:../Bsp/OLED/GUISlim.c ****   return r;
 4131              		.loc 1 1082 3 view .LVU1178
1083:../Bsp/OLED/GUISlim.c **** }
 4132              		.loc 1 1083 1 is_stmt 0 view .LVU1179
 4133 0000 014B     		ldr	r3, .L323
 4134 0002 B3F91400 		ldrsh	r0, [r3, #20]
 4135              	.LVL404:
 4136              		.loc 1 1083 1 view .LVU1180
 4137 0006 7047     		bx	lr
 4138              	.L324:
ARM GAS  C:\Users\fish\AppData\Local\Temp\cc4JAs8f.s 			page 107


 4139              		.align	2
 4140              	.L323:
 4141 0008 00000000 		.word	GUI_Context
 4142              		.cfi_endproc
 4143              	.LFE305:
 4145              		.section	.text.GUI_GetDispPosY,"ax",%progbits
 4146              		.align	1
 4147              		.global	GUI_GetDispPosY
 4148              		.syntax unified
 4149              		.thumb
 4150              		.thumb_func
 4152              	GUI_GetDispPosY:
 4153              	.LFB306:
1084:../Bsp/OLED/GUISlim.c **** 
1085:../Bsp/OLED/GUISlim.c **** int GUI_GetDispPosY(void) {
 4154              		.loc 1 1085 27 is_stmt 1 view -0
 4155              		.cfi_startproc
 4156              		@ args = 0, pretend = 0, frame = 0
 4157              		@ frame_needed = 0, uses_anonymous_args = 0
 4158              		@ link register save eliminated.
1086:../Bsp/OLED/GUISlim.c ****   int r;
 4159              		.loc 1 1086 3 view .LVU1182
1087:../Bsp/OLED/GUISlim.c ****   GUI_LOCK();
 4160              		.loc 1 1087 13 view .LVU1183
1088:../Bsp/OLED/GUISlim.c ****   r = GUI_Context.DispPosY;
 4161              		.loc 1 1088 3 view .LVU1184
 4162              	.LVL405:
1089:../Bsp/OLED/GUISlim.c ****   GUI_UNLOCK();
 4163              		.loc 1 1089 15 view .LVU1185
1090:../Bsp/OLED/GUISlim.c ****   return r;
 4164              		.loc 1 1090 3 view .LVU1186
1091:../Bsp/OLED/GUISlim.c **** }
 4165              		.loc 1 1091 1 is_stmt 0 view .LVU1187
 4166 0000 014B     		ldr	r3, .L326
 4167 0002 B3F91600 		ldrsh	r0, [r3, #22]
 4168              	.LVL406:
 4169              		.loc 1 1091 1 view .LVU1188
 4170 0006 7047     		bx	lr
 4171              	.L327:
 4172              		.align	2
 4173              	.L326:
 4174 0008 00000000 		.word	GUI_Context
 4175              		.cfi_endproc
 4176              	.LFE306:
 4178              		.section	.text.GUI__strlen,"ax",%progbits
 4179              		.align	1
 4180              		.global	GUI__strlen
 4181              		.syntax unified
 4182              		.thumb
 4183              		.thumb_func
 4185              	GUI__strlen:
 4186              	.LVL407:
 4187              	.LFB307:
1092:../Bsp/OLED/GUISlim.c **** 
1093:../Bsp/OLED/GUISlim.c **** int GUI__strlen(const char GUI_UNI_PTR * s) {
 4188              		.loc 1 1093 45 is_stmt 1 view -0
 4189              		.cfi_startproc
ARM GAS  C:\Users\fish\AppData\Local\Temp\cc4JAs8f.s 			page 108


 4190              		@ args = 0, pretend = 0, frame = 0
 4191              		@ frame_needed = 0, uses_anonymous_args = 0
 4192              		@ link register save eliminated.
1094:../Bsp/OLED/GUISlim.c ****   int r = -1;
 4193              		.loc 1 1094 3 view .LVU1190
1095:../Bsp/OLED/GUISlim.c ****   if (s) {
 4194              		.loc 1 1095 3 view .LVU1191
 4195              		.loc 1 1095 6 is_stmt 0 view .LVU1192
 4196 0000 0246     		mov	r2, r0
 4197 0002 38B1     		cbz	r0, .L331
1094:../Bsp/OLED/GUISlim.c ****   int r = -1;
 4198              		.loc 1 1094 7 view .LVU1193
 4199 0004 4FF0FF30 		mov	r0, #-1
 4200              	.LVL408:
 4201              	.L330:
1096:../Bsp/OLED/GUISlim.c ****     do {
 4202              		.loc 1 1096 5 is_stmt 1 view .LVU1194
1097:../Bsp/OLED/GUISlim.c ****       r++;
 4203              		.loc 1 1097 7 view .LVU1195
 4204              		.loc 1 1097 8 is_stmt 0 view .LVU1196
 4205 0008 0130     		adds	r0, r0, #1
 4206              	.LVL409:
1098:../Bsp/OLED/GUISlim.c ****     } while (*s++);
 4207              		.loc 1 1098 14 is_stmt 1 discriminator 1 view .LVU1197
 4208              		.loc 1 1098 14 is_stmt 0 discriminator 1 view .LVU1198
 4209 000a 1378     		ldrb	r3, [r2]	@ zero_extendqisi2
 4210 000c 0132     		adds	r2, r2, #1
 4211              	.LVL410:
 4212              		.loc 1 1098 14 discriminator 1 view .LVU1199
 4213 000e 002B     		cmp	r3, #0
 4214 0010 FAD1     		bne	.L330
 4215 0012 7047     		bx	lr
 4216              	.LVL411:
 4217              	.L331:
1094:../Bsp/OLED/GUISlim.c ****   if (s) {
 4218              		.loc 1 1094 7 view .LVU1200
 4219 0014 4FF0FF30 		mov	r0, #-1
 4220              	.LVL412:
1099:../Bsp/OLED/GUISlim.c ****   }
1100:../Bsp/OLED/GUISlim.c ****   return r;
 4221              		.loc 1 1100 3 is_stmt 1 view .LVU1201
1101:../Bsp/OLED/GUISlim.c **** }
 4222              		.loc 1 1101 1 is_stmt 0 view .LVU1202
 4223 0018 7047     		bx	lr
 4224              		.cfi_endproc
 4225              	.LFE307:
 4227              		.section	.text.GUI_GetFontInfo,"ax",%progbits
 4228              		.align	1
 4229              		.global	GUI_GetFontInfo
 4230              		.syntax unified
 4231              		.thumb
 4232              		.thumb_func
 4234              	GUI_GetFontInfo:
 4235              	.LVL413:
 4236              	.LFB309:
1102:../Bsp/OLED/GUISlim.c **** 
1103:../Bsp/OLED/GUISlim.c **** int GUI_GetStringDistX(const char GUI_UNI_PTR * s) {
ARM GAS  C:\Users\fish\AppData\Local\Temp\cc4JAs8f.s 			page 109


1104:../Bsp/OLED/GUISlim.c ****   char *ss = (char *)s;
1105:../Bsp/OLED/GUISlim.c ****   int butf8 = detect_encoding_by_sequence(s);
1106:../Bsp/OLED/GUISlim.c ****   if (butf8 == 1)
1107:../Bsp/OLED/GUISlim.c **** 	  ss = utf8_string_to_gbk_with_table(s);
1108:../Bsp/OLED/GUISlim.c ****   else if (butf8 == 3)
1109:../Bsp/OLED/GUISlim.c **** 	  ss = mixed_string_to_gbk(s);
1110:../Bsp/OLED/GUISlim.c ****   if (!ss)
1111:../Bsp/OLED/GUISlim.c **** 	  return 0;
1112:../Bsp/OLED/GUISlim.c ****   int len = GUI__GetLineDistX(s, GUI__strlen(ss));
1113:../Bsp/OLED/GUISlim.c **** //  if (butf8 == 1)
1114:../Bsp/OLED/GUISlim.c **** //	free(ss);
1115:../Bsp/OLED/GUISlim.c ****   return len;
1116:../Bsp/OLED/GUISlim.c **** }
1117:../Bsp/OLED/GUISlim.c **** 
1118:../Bsp/OLED/GUISlim.c **** void GUI_GetFontInfo(const GUI_FONT GUI_UNI_PTR * pFont, GUI_FONTINFO * pFontInfo) {
 4237              		.loc 1 1118 84 is_stmt 1 view -0
 4238              		.cfi_startproc
 4239              		@ args = 0, pretend = 0, frame = 0
 4240              		@ frame_needed = 0, uses_anonymous_args = 0
 4241              		.loc 1 1118 84 is_stmt 0 view .LVU1204
 4242 0000 08B5     		push	{r3, lr}
 4243              		.cfi_def_cfa_offset 8
 4244              		.cfi_offset 3, -8
 4245              		.cfi_offset 14, -4
1119:../Bsp/OLED/GUISlim.c ****   GUI_LOCK();
 4246              		.loc 1 1119 13 is_stmt 1 view .LVU1205
1120:../Bsp/OLED/GUISlim.c ****   if (pFont == NULL) {
 4247              		.loc 1 1120 3 view .LVU1206
 4248              		.loc 1 1120 6 is_stmt 0 view .LVU1207
 4249 0002 0346     		mov	r3, r0
 4250 0004 18B1     		cbz	r0, .L335
 4251              	.L333:
 4252              	.LVL414:
1121:../Bsp/OLED/GUISlim.c ****     pFont = GUI_Context.pAFont;
1122:../Bsp/OLED/GUISlim.c ****   }
1123:../Bsp/OLED/GUISlim.c ****   pFont->pfGetFontInfo(pFont, pFontInfo);
 4253              		.loc 1 1123 3 is_stmt 1 view .LVU1208
 4254              		.loc 1 1123 8 is_stmt 0 view .LVU1209
 4255 0006 9A68     		ldr	r2, [r3, #8]
 4256              		.loc 1 1123 3 view .LVU1210
 4257 0008 1846     		mov	r0, r3
 4258 000a 9047     		blx	r2
 4259              	.LVL415:
1124:../Bsp/OLED/GUISlim.c ****   GUI_UNLOCK();
 4260              		.loc 1 1124 15 is_stmt 1 view .LVU1211
1125:../Bsp/OLED/GUISlim.c **** }
 4261              		.loc 1 1125 1 is_stmt 0 view .LVU1212
 4262 000c 08BD     		pop	{r3, pc}
 4263              	.LVL416:
 4264              	.L335:
1121:../Bsp/OLED/GUISlim.c ****     pFont = GUI_Context.pAFont;
 4265              		.loc 1 1121 5 is_stmt 1 view .LVU1213
1121:../Bsp/OLED/GUISlim.c ****     pFont = GUI_Context.pAFont;
 4266              		.loc 1 1121 11 is_stmt 0 view .LVU1214
 4267 000e 014B     		ldr	r3, .L336
 4268 0010 1B69     		ldr	r3, [r3, #16]
 4269 0012 F8E7     		b	.L333
ARM GAS  C:\Users\fish\AppData\Local\Temp\cc4JAs8f.s 			page 110


 4270              	.L337:
 4271              		.align	2
 4272              	.L336:
 4273 0014 00000000 		.word	GUI_Context
 4274              		.cfi_endproc
 4275              	.LFE309:
 4277              		.section	.text.GUI_GetYSizeOfFont,"ax",%progbits
 4278              		.align	1
 4279              		.global	GUI_GetYSizeOfFont
 4280              		.syntax unified
 4281              		.thumb
 4282              		.thumb_func
 4284              	GUI_GetYSizeOfFont:
 4285              	.LVL417:
 4286              	.LFB310:
1126:../Bsp/OLED/GUISlim.c **** 
1127:../Bsp/OLED/GUISlim.c **** int GUI_GetYSizeOfFont(const GUI_FONT GUI_UNI_PTR * pFont) {
 4287              		.loc 1 1127 60 is_stmt 1 view -0
 4288              		.cfi_startproc
 4289              		@ args = 0, pretend = 0, frame = 0
 4290              		@ frame_needed = 0, uses_anonymous_args = 0
 4291              		@ link register save eliminated.
1128:../Bsp/OLED/GUISlim.c ****   return pFont->YSize;
 4292              		.loc 1 1128 3 view .LVU1216
1129:../Bsp/OLED/GUISlim.c **** }
 4293              		.loc 1 1129 1 is_stmt 0 view .LVU1217
 4294 0000 007D     		ldrb	r0, [r0, #20]	@ zero_extendqisi2
 4295              	.LVL418:
 4296              		.loc 1 1129 1 view .LVU1218
 4297 0002 7047     		bx	lr
 4298              		.cfi_endproc
 4299              	.LFE310:
 4301              		.section	.text.GUI_GetYDistOfFont,"ax",%progbits
 4302              		.align	1
 4303              		.global	GUI_GetYDistOfFont
 4304              		.syntax unified
 4305              		.thumb
 4306              		.thumb_func
 4308              	GUI_GetYDistOfFont:
 4309              	.LVL419:
 4310              	.LFB311:
1130:../Bsp/OLED/GUISlim.c **** 
1131:../Bsp/OLED/GUISlim.c **** int GUI_GetYDistOfFont(const GUI_FONT GUI_UNI_PTR * pFont) {
 4311              		.loc 1 1131 60 is_stmt 1 view -0
 4312              		.cfi_startproc
 4313              		@ args = 0, pretend = 0, frame = 0
 4314              		@ frame_needed = 0, uses_anonymous_args = 0
 4315              		@ link register save eliminated.
1132:../Bsp/OLED/GUISlim.c ****   return pFont->YDist;
 4316              		.loc 1 1132 3 view .LVU1220
1133:../Bsp/OLED/GUISlim.c **** }
 4317              		.loc 1 1133 1 is_stmt 0 view .LVU1221
 4318 0000 407D     		ldrb	r0, [r0, #21]	@ zero_extendqisi2
 4319              	.LVL420:
 4320              		.loc 1 1133 1 view .LVU1222
 4321 0002 7047     		bx	lr
 4322              		.cfi_endproc
ARM GAS  C:\Users\fish\AppData\Local\Temp\cc4JAs8f.s 			page 111


 4323              	.LFE311:
 4325              		.section	.text.GUI_GetTextAlign,"ax",%progbits
 4326              		.align	1
 4327              		.global	GUI_GetTextAlign
 4328              		.syntax unified
 4329              		.thumb
 4330              		.thumb_func
 4332              	GUI_GetTextAlign:
 4333              	.LFB312:
1134:../Bsp/OLED/GUISlim.c **** 
1135:../Bsp/OLED/GUISlim.c **** int GUI_GetTextAlign(void) {
 4334              		.loc 1 1135 28 is_stmt 1 view -0
 4335              		.cfi_startproc
 4336              		@ args = 0, pretend = 0, frame = 0
 4337              		@ frame_needed = 0, uses_anonymous_args = 0
 4338              		@ link register save eliminated.
1136:../Bsp/OLED/GUISlim.c ****   int r;
 4339              		.loc 1 1136 3 view .LVU1224
1137:../Bsp/OLED/GUISlim.c ****   GUI_LOCK();
 4340              		.loc 1 1137 13 view .LVU1225
1138:../Bsp/OLED/GUISlim.c ****   r = GUI_Context.TextAlign;
 4341              		.loc 1 1138 3 view .LVU1226
 4342              	.LVL421:
1139:../Bsp/OLED/GUISlim.c ****   GUI_UNLOCK();
 4343              		.loc 1 1139 15 view .LVU1227
1140:../Bsp/OLED/GUISlim.c ****   return r;
 4344              		.loc 1 1140 3 view .LVU1228
1141:../Bsp/OLED/GUISlim.c **** }
 4345              		.loc 1 1141 1 is_stmt 0 view .LVU1229
 4346 0000 014B     		ldr	r3, .L341
 4347 0002 B3F91A00 		ldrsh	r0, [r3, #26]
 4348              	.LVL422:
 4349              		.loc 1 1141 1 view .LVU1230
 4350 0006 7047     		bx	lr
 4351              	.L342:
 4352              		.align	2
 4353              	.L341:
 4354 0008 00000000 		.word	GUI_Context
 4355              		.cfi_endproc
 4356              	.LFE312:
 4358              		.section	.text.GUI_IsInFont,"ax",%progbits
 4359              		.align	1
 4360              		.global	GUI_IsInFont
 4361              		.syntax unified
 4362              		.thumb
 4363              		.thumb_func
 4365              	GUI_IsInFont:
 4366              	.LVL423:
 4367              	.LFB313:
1142:../Bsp/OLED/GUISlim.c **** 
1143:../Bsp/OLED/GUISlim.c **** char GUI_IsInFont(const GUI_FONT GUI_UNI_PTR *pFont, U16 c) {
 4368              		.loc 1 1143 61 is_stmt 1 view -0
 4369              		.cfi_startproc
 4370              		@ args = 0, pretend = 0, frame = 0
 4371              		@ frame_needed = 0, uses_anonymous_args = 0
 4372              		.loc 1 1143 61 is_stmt 0 view .LVU1232
 4373 0000 08B5     		push	{r3, lr}
ARM GAS  C:\Users\fish\AppData\Local\Temp\cc4JAs8f.s 			page 112


 4374              		.cfi_def_cfa_offset 8
 4375              		.cfi_offset 3, -8
 4376              		.cfi_offset 14, -4
1144:../Bsp/OLED/GUISlim.c ****   if (pFont == NULL) {
 4377              		.loc 1 1144 3 is_stmt 1 view .LVU1233
 4378              		.loc 1 1144 6 is_stmt 0 view .LVU1234
 4379 0002 0346     		mov	r3, r0
 4380 0004 18B1     		cbz	r0, .L346
 4381              	.L344:
 4382              	.LVL424:
1145:../Bsp/OLED/GUISlim.c ****     pFont = GUI_Context.pAFont;
1146:../Bsp/OLED/GUISlim.c ****   }
1147:../Bsp/OLED/GUISlim.c ****   return pFont->pfIsInFont(pFont, c);
 4383              		.loc 1 1147 3 is_stmt 1 view .LVU1235
 4384              		.loc 1 1147 15 is_stmt 0 view .LVU1236
 4385 0006 DA68     		ldr	r2, [r3, #12]
 4386              		.loc 1 1147 10 view .LVU1237
 4387 0008 1846     		mov	r0, r3
 4388 000a 9047     		blx	r2
 4389              	.LVL425:
1148:../Bsp/OLED/GUISlim.c **** }
 4390              		.loc 1 1148 1 view .LVU1238
 4391 000c 08BD     		pop	{r3, pc}
 4392              	.LVL426:
 4393              	.L346:
1145:../Bsp/OLED/GUISlim.c ****     pFont = GUI_Context.pAFont;
 4394              		.loc 1 1145 5 is_stmt 1 view .LVU1239
1145:../Bsp/OLED/GUISlim.c ****     pFont = GUI_Context.pAFont;
 4395              		.loc 1 1145 11 is_stmt 0 view .LVU1240
 4396 000e 014B     		ldr	r3, .L347
 4397 0010 1B69     		ldr	r3, [r3, #16]
 4398 0012 F8E7     		b	.L344
 4399              	.L348:
 4400              		.align	2
 4401              	.L347:
 4402 0014 00000000 		.word	GUI_Context
 4403              		.cfi_endproc
 4404              	.LFE313:
 4406              		.section	.text.GUI_Update,"ax",%progbits
 4407              		.align	1
 4408              		.global	GUI_Update
 4409              		.syntax unified
 4410              		.thumb
 4411              		.thumb_func
 4413              	GUI_Update:
 4414              	.LFB314:
1149:../Bsp/OLED/GUISlim.c **** 
1150:../Bsp/OLED/GUISlim.c **** void GUI_Update(void){
 4415              		.loc 1 1150 22 is_stmt 1 view -0
 4416              		.cfi_startproc
 4417              		@ args = 0, pretend = 0, frame = 0
 4418              		@ frame_needed = 0, uses_anonymous_args = 0
 4419 0000 08B5     		push	{r3, lr}
 4420              		.cfi_def_cfa_offset 8
 4421              		.cfi_offset 3, -8
 4422              		.cfi_offset 14, -4
1151:../Bsp/OLED/GUISlim.c **** 	SSD1306_UpdateScreen();
ARM GAS  C:\Users\fish\AppData\Local\Temp\cc4JAs8f.s 			page 113


 4423              		.loc 1 1151 2 view .LVU1242
 4424 0002 FFF7FEFF 		bl	SSD1306_UpdateScreen
 4425              	.LVL427:
1152:../Bsp/OLED/GUISlim.c **** }
 4426              		.loc 1 1152 1 is_stmt 0 view .LVU1243
 4427 0006 08BD     		pop	{r3, pc}
 4428              		.cfi_endproc
 4429              	.LFE314:
 4431              		.section	.text.GL_DrawBitmap,"ax",%progbits
 4432              		.align	1
 4433              		.global	GL_DrawBitmap
 4434              		.syntax unified
 4435              		.thumb
 4436              		.thumb_func
 4438              	GL_DrawBitmap:
 4439              	.LVL428:
 4440              	.LFB315:
1153:../Bsp/OLED/GUISlim.c **** 
1154:../Bsp/OLED/GUISlim.c **** void GL_DrawBitmap(const GUI_BITMAP GUI_UNI_PTR * pBitmap, int x0, int y0) {
 4441              		.loc 1 1154 76 is_stmt 1 view -0
 4442              		.cfi_startproc
 4443              		@ args = 0, pretend = 0, frame = 0
 4444              		@ frame_needed = 0, uses_anonymous_args = 0
 4445              		.loc 1 1154 76 is_stmt 0 view .LVU1245
 4446 0000 00B5     		push	{lr}
 4447              		.cfi_def_cfa_offset 4
 4448              		.cfi_offset 14, -4
 4449 0002 83B0     		sub	sp, sp, #12
 4450              		.cfi_def_cfa_offset 16
 4451 0004 8446     		mov	ip, r0
 4452 0006 0846     		mov	r0, r1
 4453              	.LVL429:
 4454              		.loc 1 1154 76 view .LVU1246
 4455 0008 1146     		mov	r1, r2
 4456              	.LVL430:
1155:../Bsp/OLED/GUISlim.c ****     LCD_DrawBitmap1BPP( x0,y0
 4457              		.loc 1 1155 5 is_stmt 1 view .LVU1247
1156:../Bsp/OLED/GUISlim.c ****                     ,pBitmap->XSize ,pBitmap->YSize
1157:../Bsp/OLED/GUISlim.c ****                     ,pBitmap->BytesPerLine
 4458              		.loc 1 1157 29 is_stmt 0 view .LVU1248
 4459 000a BCF80430 		ldrh	r3, [ip, #4]
1158:../Bsp/OLED/GUISlim.c ****                     ,pBitmap->pData);
 4460              		.loc 1 1158 29 view .LVU1249
 4461 000e DCF80820 		ldr	r2, [ip, #8]
 4462              	.LVL431:
1155:../Bsp/OLED/GUISlim.c ****     LCD_DrawBitmap1BPP( x0,y0
 4463              		.loc 1 1155 5 view .LVU1250
 4464 0012 0192     		str	r2, [sp, #4]
 4465 0014 0093     		str	r3, [sp]
 4466 0016 BCF80230 		ldrh	r3, [ip, #2]
 4467 001a BCF80020 		ldrh	r2, [ip]
 4468 001e FFF7FEFF 		bl	LCD_DrawBitmap1BPP
 4469              	.LVL432:
1159:../Bsp/OLED/GUISlim.c **** }
 4470              		.loc 1 1159 1 view .LVU1251
 4471 0022 03B0     		add	sp, sp, #12
 4472              		.cfi_def_cfa_offset 4
ARM GAS  C:\Users\fish\AppData\Local\Temp\cc4JAs8f.s 			page 114


 4473              		@ sp needed
 4474 0024 5DF804FB 		ldr	pc, [sp], #4
 4475              		.cfi_endproc
 4476              	.LFE315:
 4478              		.section	.text.GUI_DrawBitmap,"ax",%progbits
 4479              		.align	1
 4480              		.global	GUI_DrawBitmap
 4481              		.syntax unified
 4482              		.thumb
 4483              		.thumb_func
 4485              	GUI_DrawBitmap:
 4486              	.LVL433:
 4487              	.LFB316:
1160:../Bsp/OLED/GUISlim.c **** 
1161:../Bsp/OLED/GUISlim.c **** void GUI_DrawBitmap(const GUI_BITMAP GUI_UNI_PTR * pBitmap, int x0, int y0) {
 4488              		.loc 1 1161 77 is_stmt 1 view -0
 4489              		.cfi_startproc
 4490              		@ args = 0, pretend = 0, frame = 0
 4491              		@ frame_needed = 0, uses_anonymous_args = 0
 4492              		.loc 1 1161 77 is_stmt 0 view .LVU1253
 4493 0000 08B5     		push	{r3, lr}
 4494              		.cfi_def_cfa_offset 8
 4495              		.cfi_offset 3, -8
 4496              		.cfi_offset 14, -4
1162:../Bsp/OLED/GUISlim.c ****   GUI_LOCK();
 4497              		.loc 1 1162 13 is_stmt 1 view .LVU1254
1163:../Bsp/OLED/GUISlim.c ****   GL_DrawBitmap(pBitmap, x0, y0);
 4498              		.loc 1 1163 3 view .LVU1255
 4499 0002 FFF7FEFF 		bl	GL_DrawBitmap
 4500              	.LVL434:
1164:../Bsp/OLED/GUISlim.c ****   GUI_UNLOCK();
 4501              		.loc 1 1164 15 view .LVU1256
1165:../Bsp/OLED/GUISlim.c **** }
 4502              		.loc 1 1165 1 is_stmt 0 view .LVU1257
 4503 0006 08BD     		pop	{r3, pc}
 4504              		.cfi_endproc
 4505              	.LFE316:
 4507              		.section	.text.LCD_DrawPixel,"ax",%progbits
 4508              		.align	1
 4509              		.global	LCD_DrawPixel
 4510              		.syntax unified
 4511              		.thumb
 4512              		.thumb_func
 4514              	LCD_DrawPixel:
 4515              	.LVL435:
 4516              	.LFB317:
1166:../Bsp/OLED/GUISlim.c **** 
1167:../Bsp/OLED/GUISlim.c **** #define RETURN_IF_Y_OUT() \
1168:../Bsp/OLED/GUISlim.c ****   if (y < GUI_Context.ClipRect.y0) return;             \
1169:../Bsp/OLED/GUISlim.c ****   if (y > GUI_Context.ClipRect.y1) return;
1170:../Bsp/OLED/GUISlim.c **** 
1171:../Bsp/OLED/GUISlim.c **** #define RETURN_IF_X_OUT() \
1172:../Bsp/OLED/GUISlim.c ****   if (x < GUI_Context.ClipRect.x0) return;             \
1173:../Bsp/OLED/GUISlim.c ****   if (x > GUI_Context.ClipRect.x1) return;
1174:../Bsp/OLED/GUISlim.c **** 
1175:../Bsp/OLED/GUISlim.c **** #define CLIP_X() \
1176:../Bsp/OLED/GUISlim.c ****   if (x0 < GUI_Context.ClipRect.x0) { x0 = GUI_Context.ClipRect.x0; } \
ARM GAS  C:\Users\fish\AppData\Local\Temp\cc4JAs8f.s 			page 115


1177:../Bsp/OLED/GUISlim.c ****   if (x1 > GUI_Context.ClipRect.x1) { x1 = GUI_Context.ClipRect.x1; }
1178:../Bsp/OLED/GUISlim.c **** 
1179:../Bsp/OLED/GUISlim.c **** #define CLIP_Y() \
1180:../Bsp/OLED/GUISlim.c ****   if (y0 < GUI_Context.ClipRect.y0) { y0 = GUI_Context.ClipRect.y0; } \
1181:../Bsp/OLED/GUISlim.c ****   if (y1 > GUI_Context.ClipRect.y1) { y1 = GUI_Context.ClipRect.y1; }
1182:../Bsp/OLED/GUISlim.c **** 
1183:../Bsp/OLED/GUISlim.c **** void LCD_DrawPixel(int x, int y) {
 4517              		.loc 1 1183 34 is_stmt 1 view -0
 4518              		.cfi_startproc
 4519              		@ args = 0, pretend = 0, frame = 0
 4520              		@ frame_needed = 0, uses_anonymous_args = 0
 4521              		.loc 1 1183 34 is_stmt 0 view .LVU1259
 4522 0000 08B5     		push	{r3, lr}
 4523              		.cfi_def_cfa_offset 8
 4524              		.cfi_offset 3, -8
 4525              		.cfi_offset 14, -4
1184:../Bsp/OLED/GUISlim.c ****   RETURN_IF_Y_OUT();
 4526              		.loc 1 1184 3 is_stmt 1 view .LVU1260
 4527 0002 0E4B     		ldr	r3, .L359
 4528 0004 B3F90230 		ldrsh	r3, [r3, #2]
 4529 0008 8B42     		cmp	r3, r1
 4530 000a 0EDC     		bgt	.L355
 4531              		.loc 1 1184 3 discriminator 2 view .LVU1261
 4532 000c 0B4B     		ldr	r3, .L359
 4533 000e B3F90630 		ldrsh	r3, [r3, #6]
 4534 0012 8B42     		cmp	r3, r1
 4535 0014 09DB     		blt	.L355
 4536              		.loc 1 1184 20 discriminator 4 view .LVU1262
1185:../Bsp/OLED/GUISlim.c ****   RETURN_IF_X_OUT();
 4537              		.loc 1 1185 3 view .LVU1263
 4538 0016 094B     		ldr	r3, .L359
 4539 0018 B3F90030 		ldrsh	r3, [r3]
 4540 001c 8342     		cmp	r3, r0
 4541 001e 04DC     		bgt	.L355
 4542              		.loc 1 1185 3 discriminator 2 view .LVU1264
 4543 0020 064B     		ldr	r3, .L359
 4544 0022 B3F90430 		ldrsh	r3, [r3, #4]
 4545 0026 8342     		cmp	r3, r0
 4546 0028 00DA     		bge	.L358
 4547              	.LVL436:
 4548              	.L355:
1186:../Bsp/OLED/GUISlim.c **** 	SSD1306_DrawPixel(x, y, COLOR_F);
1187:../Bsp/OLED/GUISlim.c **** }
 4549              		.loc 1 1187 1 is_stmt 0 view .LVU1265
 4550 002a 08BD     		pop	{r3, pc}
 4551              	.LVL437:
 4552              	.L358:
1185:../Bsp/OLED/GUISlim.c ****   RETURN_IF_X_OUT();
 4553              		.loc 1 1185 20 is_stmt 1 discriminator 4 view .LVU1266
1186:../Bsp/OLED/GUISlim.c **** 	SSD1306_DrawPixel(x, y, COLOR_F);
 4554              		.loc 1 1186 2 view .LVU1267
 4555 002c 034B     		ldr	r3, .L359
 4556 002e 1A7F     		ldrb	r2, [r3, #28]	@ zero_extendqisi2
 4557 0030 89B2     		uxth	r1, r1
 4558              	.LVL438:
1186:../Bsp/OLED/GUISlim.c **** 	SSD1306_DrawPixel(x, y, COLOR_F);
 4559              		.loc 1 1186 2 is_stmt 0 view .LVU1268
ARM GAS  C:\Users\fish\AppData\Local\Temp\cc4JAs8f.s 			page 116


 4560 0032 80B2     		uxth	r0, r0
 4561              	.LVL439:
1186:../Bsp/OLED/GUISlim.c **** 	SSD1306_DrawPixel(x, y, COLOR_F);
 4562              		.loc 1 1186 2 view .LVU1269
 4563 0034 FFF7FEFF 		bl	SSD1306_DrawPixel
 4564              	.LVL440:
 4565 0038 F7E7     		b	.L355
 4566              	.L360:
 4567 003a 00BF     		.align	2
 4568              	.L359:
 4569 003c 00000000 		.word	GUI_Context
 4570              		.cfi_endproc
 4571              	.LFE317:
 4573              		.section	.text.Draw8Point,"ax",%progbits
 4574              		.align	1
 4575              		.syntax unified
 4576              		.thumb
 4577              		.thumb_func
 4579              	Draw8Point:
 4580              	.LVL441:
 4581              	.LFB320:
1188:../Bsp/OLED/GUISlim.c **** void LCD_DrawHLine(int x0, int y,  int x1) {
1189:../Bsp/OLED/GUISlim.c ****   /* Perform clipping and check if there is something to do */
1190:../Bsp/OLED/GUISlim.c ****   RETURN_IF_Y_OUT();
1191:../Bsp/OLED/GUISlim.c ****   CLIP_X();
1192:../Bsp/OLED/GUISlim.c ****   if (x1<x0)
1193:../Bsp/OLED/GUISlim.c ****     return;
1194:../Bsp/OLED/GUISlim.c ****   /* Call driver to draw */
1195:../Bsp/OLED/GUISlim.c **** 	SSD1306_DrawLine(x0, y, x1, y, COLOR_F);
1196:../Bsp/OLED/GUISlim.c **** }
1197:../Bsp/OLED/GUISlim.c **** void LCD_DrawVLine(int x, int y0,  int y1) {
1198:../Bsp/OLED/GUISlim.c ****   /* Perform clipping and check if there is something to do */
1199:../Bsp/OLED/GUISlim.c ****   RETURN_IF_X_OUT();
1200:../Bsp/OLED/GUISlim.c ****   CLIP_Y();
1201:../Bsp/OLED/GUISlim.c ****   if (y1<y0)
1202:../Bsp/OLED/GUISlim.c ****     return;
1203:../Bsp/OLED/GUISlim.c ****   /* Call driver to draw */
1204:../Bsp/OLED/GUISlim.c **** 	SSD1306_DrawLine(x, y0, x, y1, COLOR_F);
1205:../Bsp/OLED/GUISlim.c **** }
1206:../Bsp/OLED/GUISlim.c **** 
1207:../Bsp/OLED/GUISlim.c **** static void Draw8Point(int x0,int y0, int xoff, int yoff) {
 4582              		.loc 1 1207 59 is_stmt 1 view -0
 4583              		.cfi_startproc
 4584              		@ args = 0, pretend = 0, frame = 0
 4585              		@ frame_needed = 0, uses_anonymous_args = 0
 4586              		.loc 1 1207 59 is_stmt 0 view .LVU1271
 4587 0000 2DE9F84F 		push	{r3, r4, r5, r6, r7, r8, r9, r10, fp, lr}
 4588              		.cfi_def_cfa_offset 40
 4589              		.cfi_offset 3, -40
 4590              		.cfi_offset 4, -36
 4591              		.cfi_offset 5, -32
 4592              		.cfi_offset 6, -28
 4593              		.cfi_offset 7, -24
 4594              		.cfi_offset 8, -20
 4595              		.cfi_offset 9, -16
 4596              		.cfi_offset 10, -12
 4597              		.cfi_offset 11, -8
ARM GAS  C:\Users\fish\AppData\Local\Temp\cc4JAs8f.s 			page 117


 4598              		.cfi_offset 14, -4
 4599 0004 0546     		mov	r5, r0
 4600 0006 0E46     		mov	r6, r1
 4601 0008 1446     		mov	r4, r2
 4602 000a 1F46     		mov	r7, r3
1208:../Bsp/OLED/GUISlim.c ****   LCD_DrawPixel(x0+xoff,y0+yoff);
 4603              		.loc 1 1208 3 is_stmt 1 view .LVU1272
 4604 000c 00EB020B 		add	fp, r0, r2
 4605 0010 01EB0308 		add	r8, r1, r3
 4606 0014 4146     		mov	r1, r8
 4607              	.LVL442:
 4608              		.loc 1 1208 3 is_stmt 0 view .LVU1273
 4609 0016 5846     		mov	r0, fp
 4610              	.LVL443:
 4611              		.loc 1 1208 3 view .LVU1274
 4612 0018 FFF7FEFF 		bl	LCD_DrawPixel
 4613              	.LVL444:
1209:../Bsp/OLED/GUISlim.c ****   LCD_DrawPixel(x0-xoff,y0+yoff);
 4614              		.loc 1 1209 3 is_stmt 1 view .LVU1275
 4615 001c A5EB040A 		sub	r10, r5, r4
 4616 0020 4146     		mov	r1, r8
 4617 0022 5046     		mov	r0, r10
 4618 0024 FFF7FEFF 		bl	LCD_DrawPixel
 4619              	.LVL445:
1210:../Bsp/OLED/GUISlim.c ****   LCD_DrawPixel(x0+yoff,y0+xoff);
 4620              		.loc 1 1210 3 view .LVU1276
 4621 0028 05EB0708 		add	r8, r5, r7
 4622 002c 04EB0609 		add	r9, r4, r6
 4623 0030 4946     		mov	r1, r9
 4624 0032 4046     		mov	r0, r8
 4625 0034 FFF7FEFF 		bl	LCD_DrawPixel
 4626              	.LVL446:
1211:../Bsp/OLED/GUISlim.c ****   LCD_DrawPixel(x0+yoff,y0-xoff);
 4627              		.loc 1 1211 3 view .LVU1277
 4628 0038 341B     		subs	r4, r6, r4
 4629              	.LVL447:
 4630              		.loc 1 1211 3 is_stmt 0 view .LVU1278
 4631 003a 2146     		mov	r1, r4
 4632 003c 4046     		mov	r0, r8
 4633 003e FFF7FEFF 		bl	LCD_DrawPixel
 4634              	.LVL448:
1212:../Bsp/OLED/GUISlim.c ****   if (yoff) {
 4635              		.loc 1 1212 3 is_stmt 1 view .LVU1279
 4636              		.loc 1 1212 6 is_stmt 0 view .LVU1280
 4637 0042 0FB9     		cbnz	r7, .L364
 4638              	.LVL449:
 4639              	.L361:
1213:../Bsp/OLED/GUISlim.c ****     LCD_DrawPixel(x0+xoff,y0-yoff);
1214:../Bsp/OLED/GUISlim.c ****     LCD_DrawPixel(x0-xoff,y0-yoff);
1215:../Bsp/OLED/GUISlim.c ****     LCD_DrawPixel(x0-yoff,y0+xoff);
1216:../Bsp/OLED/GUISlim.c ****     LCD_DrawPixel(x0-yoff,y0-xoff);
1217:../Bsp/OLED/GUISlim.c ****   }
1218:../Bsp/OLED/GUISlim.c **** }
 4640              		.loc 1 1218 1 view .LVU1281
 4641 0044 BDE8F88F 		pop	{r3, r4, r5, r6, r7, r8, r9, r10, fp, pc}
 4642              	.LVL450:
 4643              	.L364:
ARM GAS  C:\Users\fish\AppData\Local\Temp\cc4JAs8f.s 			page 118


1213:../Bsp/OLED/GUISlim.c ****     LCD_DrawPixel(x0+xoff,y0-yoff);
 4644              		.loc 1 1213 5 is_stmt 1 view .LVU1282
 4645 0048 F61B     		subs	r6, r6, r7
 4646              	.LVL451:
1213:../Bsp/OLED/GUISlim.c ****     LCD_DrawPixel(x0+xoff,y0-yoff);
 4647              		.loc 1 1213 5 is_stmt 0 view .LVU1283
 4648 004a 3146     		mov	r1, r6
 4649 004c 5846     		mov	r0, fp
 4650 004e FFF7FEFF 		bl	LCD_DrawPixel
 4651              	.LVL452:
1214:../Bsp/OLED/GUISlim.c ****     LCD_DrawPixel(x0-yoff,y0+xoff);
 4652              		.loc 1 1214 5 is_stmt 1 view .LVU1284
 4653 0052 3146     		mov	r1, r6
 4654 0054 5046     		mov	r0, r10
 4655 0056 FFF7FEFF 		bl	LCD_DrawPixel
 4656              	.LVL453:
1215:../Bsp/OLED/GUISlim.c ****     LCD_DrawPixel(x0-yoff,y0-xoff);
 4657              		.loc 1 1215 5 view .LVU1285
 4658 005a ED1B     		subs	r5, r5, r7
 4659              	.LVL454:
1215:../Bsp/OLED/GUISlim.c ****     LCD_DrawPixel(x0-yoff,y0-xoff);
 4660              		.loc 1 1215 5 is_stmt 0 view .LVU1286
 4661 005c 4946     		mov	r1, r9
 4662 005e 2846     		mov	r0, r5
 4663 0060 FFF7FEFF 		bl	LCD_DrawPixel
 4664              	.LVL455:
1216:../Bsp/OLED/GUISlim.c ****   }
 4665              		.loc 1 1216 5 is_stmt 1 view .LVU1287
 4666 0064 2146     		mov	r1, r4
 4667 0066 2846     		mov	r0, r5
 4668 0068 FFF7FEFF 		bl	LCD_DrawPixel
 4669              	.LVL456:
 4670              		.loc 1 1218 1 is_stmt 0 view .LVU1288
 4671 006c EAE7     		b	.L361
 4672              		.cfi_endproc
 4673              	.LFE320:
 4675              		.section	.text.LCD_DrawHLine,"ax",%progbits
 4676              		.align	1
 4677              		.global	LCD_DrawHLine
 4678              		.syntax unified
 4679              		.thumb
 4680              		.thumb_func
 4682              	LCD_DrawHLine:
 4683              	.LVL457:
 4684              	.LFB318:
1188:../Bsp/OLED/GUISlim.c ****   /* Perform clipping and check if there is something to do */
 4685              		.loc 1 1188 44 is_stmt 1 view -0
 4686              		.cfi_startproc
 4687              		@ args = 0, pretend = 0, frame = 0
 4688              		@ frame_needed = 0, uses_anonymous_args = 0
1190:../Bsp/OLED/GUISlim.c ****   CLIP_X();
 4689              		.loc 1 1190 3 view .LVU1290
 4690 0000 134B     		ldr	r3, .L374
 4691 0002 B3F90230 		ldrsh	r3, [r3, #2]
 4692 0006 8B42     		cmp	r3, r1
 4693 0008 12DC     		bgt	.L370
1190:../Bsp/OLED/GUISlim.c ****   CLIP_X();
ARM GAS  C:\Users\fish\AppData\Local\Temp\cc4JAs8f.s 			page 119


 4694              		.loc 1 1190 3 discriminator 2 view .LVU1291
 4695 000a 114B     		ldr	r3, .L374
 4696 000c B3F90630 		ldrsh	r3, [r3, #6]
 4697 0010 8B42     		cmp	r3, r1
 4698 0012 0DDB     		blt	.L370
1190:../Bsp/OLED/GUISlim.c ****   CLIP_X();
 4699              		.loc 1 1190 20 discriminator 4 view .LVU1292
1191:../Bsp/OLED/GUISlim.c ****   if (x1<x0)
 4700              		.loc 1 1191 3 view .LVU1293
 4701 0014 0E4B     		ldr	r3, .L374
 4702 0016 B3F900C0 		ldrsh	ip, [r3]
 4703 001a 8445     		cmp	ip, r0
 4704 001c 00DC     		bgt	.L367
 4705 001e 8446     		mov	ip, r0
 4706              	.L367:
 4707              	.LVL458:
1191:../Bsp/OLED/GUISlim.c ****   if (x1<x0)
 4708              		.loc 1 1191 3 discriminator 3 view .LVU1294
 4709 0020 0B4B     		ldr	r3, .L374
 4710 0022 B3F90400 		ldrsh	r0, [r3, #4]
 4711 0026 9042     		cmp	r0, r2
 4712 0028 00DB     		blt	.L368
 4713 002a 1046     		mov	r0, r2
 4714              	.L368:
 4715              	.LVL459:
1191:../Bsp/OLED/GUISlim.c ****   if (x1<x0)
 4716              		.loc 1 1191 11 discriminator 6 view .LVU1295
1192:../Bsp/OLED/GUISlim.c ****     return;
 4717              		.loc 1 1192 3 view .LVU1296
1192:../Bsp/OLED/GUISlim.c ****     return;
 4718              		.loc 1 1192 6 is_stmt 0 view .LVU1297
 4719 002c 8445     		cmp	ip, r0
 4720 002e 00DD     		ble	.L373
 4721              	.LVL460:
 4722              	.L370:
1192:../Bsp/OLED/GUISlim.c ****     return;
 4723              		.loc 1 1192 6 view .LVU1298
 4724 0030 7047     		bx	lr
 4725              	.LVL461:
 4726              	.L373:
1188:../Bsp/OLED/GUISlim.c ****   /* Perform clipping and check if there is something to do */
 4727              		.loc 1 1188 44 view .LVU1299
 4728 0032 00B5     		push	{lr}
 4729              		.cfi_def_cfa_offset 4
 4730              		.cfi_offset 14, -4
 4731 0034 83B0     		sub	sp, sp, #12
 4732              		.cfi_def_cfa_offset 16
1195:../Bsp/OLED/GUISlim.c **** }
 4733              		.loc 1 1195 2 is_stmt 1 view .LVU1300
 4734 0036 89B2     		uxth	r1, r1
 4735              	.LVL462:
1195:../Bsp/OLED/GUISlim.c **** }
 4736              		.loc 1 1195 2 is_stmt 0 view .LVU1301
 4737 0038 054B     		ldr	r3, .L374
 4738 003a 1B7F     		ldrb	r3, [r3, #28]	@ zero_extendqisi2
 4739 003c 0093     		str	r3, [sp]
 4740 003e 0B46     		mov	r3, r1
ARM GAS  C:\Users\fish\AppData\Local\Temp\cc4JAs8f.s 			page 120


 4741 0040 82B2     		uxth	r2, r0
 4742 0042 1FFA8CF0 		uxth	r0, ip
 4743              	.LVL463:
1195:../Bsp/OLED/GUISlim.c **** }
 4744              		.loc 1 1195 2 view .LVU1302
 4745 0046 FFF7FEFF 		bl	SSD1306_DrawLine
 4746              	.LVL464:
1196:../Bsp/OLED/GUISlim.c **** void LCD_DrawVLine(int x, int y0,  int y1) {
 4747              		.loc 1 1196 1 view .LVU1303
 4748 004a 03B0     		add	sp, sp, #12
 4749              		.cfi_def_cfa_offset 4
 4750              		@ sp needed
 4751 004c 5DF804FB 		ldr	pc, [sp], #4
 4752              	.L375:
 4753              		.align	2
 4754              	.L374:
 4755 0050 00000000 		.word	GUI_Context
 4756              		.cfi_endproc
 4757              	.LFE318:
 4759              		.section	.text.LCD_DrawVLine,"ax",%progbits
 4760              		.align	1
 4761              		.global	LCD_DrawVLine
 4762              		.syntax unified
 4763              		.thumb
 4764              		.thumb_func
 4766              	LCD_DrawVLine:
 4767              	.LVL465:
 4768              	.LFB319:
1197:../Bsp/OLED/GUISlim.c ****   /* Perform clipping and check if there is something to do */
 4769              		.loc 1 1197 44 is_stmt 1 view -0
 4770              		.cfi_startproc
 4771              		@ args = 0, pretend = 0, frame = 0
 4772              		@ frame_needed = 0, uses_anonymous_args = 0
1199:../Bsp/OLED/GUISlim.c ****   CLIP_Y();
 4773              		.loc 1 1199 3 view .LVU1305
 4774 0000 134B     		ldr	r3, .L385
 4775 0002 B3F90030 		ldrsh	r3, [r3]
 4776 0006 8342     		cmp	r3, r0
 4777 0008 12DC     		bgt	.L381
1199:../Bsp/OLED/GUISlim.c ****   CLIP_Y();
 4778              		.loc 1 1199 3 discriminator 2 view .LVU1306
 4779 000a 114B     		ldr	r3, .L385
 4780 000c B3F90430 		ldrsh	r3, [r3, #4]
 4781 0010 8342     		cmp	r3, r0
 4782 0012 0DDB     		blt	.L381
1199:../Bsp/OLED/GUISlim.c ****   CLIP_Y();
 4783              		.loc 1 1199 20 discriminator 4 view .LVU1307
1200:../Bsp/OLED/GUISlim.c ****   if (y1<y0)
 4784              		.loc 1 1200 3 view .LVU1308
 4785 0014 0E4B     		ldr	r3, .L385
 4786 0016 B3F902C0 		ldrsh	ip, [r3, #2]
 4787 001a 8C45     		cmp	ip, r1
 4788 001c 00DC     		bgt	.L378
 4789 001e 8C46     		mov	ip, r1
 4790              	.L378:
 4791              	.LVL466:
1200:../Bsp/OLED/GUISlim.c ****   if (y1<y0)
ARM GAS  C:\Users\fish\AppData\Local\Temp\cc4JAs8f.s 			page 121


 4792              		.loc 1 1200 3 discriminator 3 view .LVU1309
 4793 0020 0B4B     		ldr	r3, .L385
 4794 0022 B3F90630 		ldrsh	r3, [r3, #6]
 4795 0026 9342     		cmp	r3, r2
 4796 0028 00DB     		blt	.L379
 4797 002a 1346     		mov	r3, r2
 4798              	.L379:
 4799              	.LVL467:
1200:../Bsp/OLED/GUISlim.c ****   if (y1<y0)
 4800              		.loc 1 1200 11 discriminator 6 view .LVU1310
1201:../Bsp/OLED/GUISlim.c ****     return;
 4801              		.loc 1 1201 3 view .LVU1311
1201:../Bsp/OLED/GUISlim.c ****     return;
 4802              		.loc 1 1201 6 is_stmt 0 view .LVU1312
 4803 002c 9C45     		cmp	ip, r3
 4804 002e 00DD     		ble	.L384
 4805              	.LVL468:
 4806              	.L381:
1201:../Bsp/OLED/GUISlim.c ****     return;
 4807              		.loc 1 1201 6 view .LVU1313
 4808 0030 7047     		bx	lr
 4809              	.LVL469:
 4810              	.L384:
1197:../Bsp/OLED/GUISlim.c ****   /* Perform clipping and check if there is something to do */
 4811              		.loc 1 1197 44 view .LVU1314
 4812 0032 00B5     		push	{lr}
 4813              		.cfi_def_cfa_offset 4
 4814              		.cfi_offset 14, -4
 4815 0034 83B0     		sub	sp, sp, #12
 4816              		.cfi_def_cfa_offset 16
1204:../Bsp/OLED/GUISlim.c **** }
 4817              		.loc 1 1204 2 is_stmt 1 view .LVU1315
 4818 0036 80B2     		uxth	r0, r0
 4819              	.LVL470:
1204:../Bsp/OLED/GUISlim.c **** }
 4820              		.loc 1 1204 2 is_stmt 0 view .LVU1316
 4821 0038 054A     		ldr	r2, .L385
 4822 003a 127F     		ldrb	r2, [r2, #28]	@ zero_extendqisi2
 4823 003c 0092     		str	r2, [sp]
 4824 003e 9BB2     		uxth	r3, r3
 4825              	.LVL471:
1204:../Bsp/OLED/GUISlim.c **** }
 4826              		.loc 1 1204 2 view .LVU1317
 4827 0040 0246     		mov	r2, r0
 4828 0042 1FFA8CF1 		uxth	r1, ip
 4829 0046 FFF7FEFF 		bl	SSD1306_DrawLine
 4830              	.LVL472:
1205:../Bsp/OLED/GUISlim.c **** 
 4831              		.loc 1 1205 1 view .LVU1318
 4832 004a 03B0     		add	sp, sp, #12
 4833              		.cfi_def_cfa_offset 4
 4834              		@ sp needed
 4835 004c 5DF804FB 		ldr	pc, [sp], #4
 4836              	.L386:
 4837              		.align	2
 4838              	.L385:
 4839 0050 00000000 		.word	GUI_Context
ARM GAS  C:\Users\fish\AppData\Local\Temp\cc4JAs8f.s 			page 122


 4840              		.cfi_endproc
 4841              	.LFE319:
 4843              		.section	.text._DrawRect,"ax",%progbits
 4844              		.align	1
 4845              		.syntax unified
 4846              		.thumb
 4847              		.thumb_func
 4849              	_DrawRect:
 4850              	.LVL473:
 4851              	.LFB334:
1219:../Bsp/OLED/GUISlim.c **** /*********************************************************************
1220:../Bsp/OLED/GUISlim.c **** *
1221:../Bsp/OLED/GUISlim.c **** *       GL_DrawCircle
1222:../Bsp/OLED/GUISlim.c **** */
1223:../Bsp/OLED/GUISlim.c **** void GL_DrawCircle(int x0, int y0, int r) {
1224:../Bsp/OLED/GUISlim.c ****   I32 i;
1225:../Bsp/OLED/GUISlim.c ****   int imax = ((I32)((I32)r*707))/1000+1;
1226:../Bsp/OLED/GUISlim.c ****   I32 sqmax = (I32)r*(I32)r+(I32)r/2;
1227:../Bsp/OLED/GUISlim.c ****   I32 y=r;
1228:../Bsp/OLED/GUISlim.c ****   Draw8Point(x0,y0,r,0);
1229:../Bsp/OLED/GUISlim.c ****   for (i=1; i<= imax; i++) {
1230:../Bsp/OLED/GUISlim.c ****     if ((i*i+y*y) >sqmax) {
1231:../Bsp/OLED/GUISlim.c ****       Draw8Point(x0,y0,i,y);
1232:../Bsp/OLED/GUISlim.c ****       y--;
1233:../Bsp/OLED/GUISlim.c ****     }
1234:../Bsp/OLED/GUISlim.c ****     Draw8Point(x0,y0,i,y);
1235:../Bsp/OLED/GUISlim.c ****   }
1236:../Bsp/OLED/GUISlim.c **** }
1237:../Bsp/OLED/GUISlim.c **** 
1238:../Bsp/OLED/GUISlim.c **** /*********************************************************************
1239:../Bsp/OLED/GUISlim.c **** *
1240:../Bsp/OLED/GUISlim.c **** *       GUI_DrawCircle
1241:../Bsp/OLED/GUISlim.c **** */
1242:../Bsp/OLED/GUISlim.c **** void GUI_DrawCircle(int x0, int y0, int r) {
1243:../Bsp/OLED/GUISlim.c ****   GUI_LOCK();
1244:../Bsp/OLED/GUISlim.c ****     GL_DrawCircle( x0, y0, r);
1245:../Bsp/OLED/GUISlim.c ****   GUI_UNLOCK();
1246:../Bsp/OLED/GUISlim.c **** }
1247:../Bsp/OLED/GUISlim.c **** 
1248:../Bsp/OLED/GUISlim.c **** /*********************************************************************
1249:../Bsp/OLED/GUISlim.c **** *
1250:../Bsp/OLED/GUISlim.c **** *       GL_FillCircle
1251:../Bsp/OLED/GUISlim.c **** */
1252:../Bsp/OLED/GUISlim.c **** void GL_FillCircle(int x0, int y0, int r) {
1253:../Bsp/OLED/GUISlim.c ****   I32 i;
1254:../Bsp/OLED/GUISlim.c ****   int imax = ((I32)((I32)r*707))/1000+1;
1255:../Bsp/OLED/GUISlim.c ****   I32 sqmax = (I32)r*(I32)r+(I32)r/2;
1256:../Bsp/OLED/GUISlim.c ****   I32 x=r;
1257:../Bsp/OLED/GUISlim.c ****   LCD_DrawHLine(x0-r,y0,x0+r);
1258:../Bsp/OLED/GUISlim.c ****   for (i=1; i<= imax; i++) {
1259:../Bsp/OLED/GUISlim.c ****     if ((i*i+x*x) >sqmax) {
1260:../Bsp/OLED/GUISlim.c ****       /* draw lines from outside */
1261:../Bsp/OLED/GUISlim.c ****       if (x>imax) {
1262:../Bsp/OLED/GUISlim.c ****         LCD_DrawHLine (x0-i+1,y0+x, x0+i-1);
1263:../Bsp/OLED/GUISlim.c ****         LCD_DrawHLine (x0-i+1,y0-x, x0+i-1);
1264:../Bsp/OLED/GUISlim.c ****       }
1265:../Bsp/OLED/GUISlim.c ****       x--;
ARM GAS  C:\Users\fish\AppData\Local\Temp\cc4JAs8f.s 			page 123


1266:../Bsp/OLED/GUISlim.c ****     }
1267:../Bsp/OLED/GUISlim.c ****     /* draw lines from inside (center) */
1268:../Bsp/OLED/GUISlim.c ****     LCD_DrawHLine(x0-x,y0+i, x0+x);
1269:../Bsp/OLED/GUISlim.c ****     LCD_DrawHLine(x0-x,y0-i, x0+x);
1270:../Bsp/OLED/GUISlim.c ****   }
1271:../Bsp/OLED/GUISlim.c **** }
1272:../Bsp/OLED/GUISlim.c **** 
1273:../Bsp/OLED/GUISlim.c **** /*********************************************************************
1274:../Bsp/OLED/GUISlim.c **** *
1275:../Bsp/OLED/GUISlim.c **** *       GUI_FillCircle
1276:../Bsp/OLED/GUISlim.c **** */
1277:../Bsp/OLED/GUISlim.c **** void GUI_FillCircle(int x0, int y0, int r) {
1278:../Bsp/OLED/GUISlim.c ****   GUI_LOCK();
1279:../Bsp/OLED/GUISlim.c ****   GL_FillCircle(x0,y0,r);
1280:../Bsp/OLED/GUISlim.c ****   GUI_UNLOCK();
1281:../Bsp/OLED/GUISlim.c **** }
1282:../Bsp/OLED/GUISlim.c **** 
1283:../Bsp/OLED/GUISlim.c **** /*********************************************************************
1284:../Bsp/OLED/GUISlim.c **** *
1285:../Bsp/OLED/GUISlim.c **** *       GL_FillEllipse
1286:../Bsp/OLED/GUISlim.c **** */
1287:../Bsp/OLED/GUISlim.c **** void GL_FillEllipse(int x0, int y0, int rx, int ry) {
1288:../Bsp/OLED/GUISlim.c ****   I32 OutConst, Sum, SumY;
1289:../Bsp/OLED/GUISlim.c ****   int x,y;
1290:../Bsp/OLED/GUISlim.c ****   U32 _rx = rx;
1291:../Bsp/OLED/GUISlim.c ****   U32 _ry = ry;
1292:../Bsp/OLED/GUISlim.c ****   OutConst = _rx*_rx*_ry*_ry  /* Constant as explaint above */
1293:../Bsp/OLED/GUISlim.c ****             +(_rx*_rx*_ry>>1); /* To compensate for rounding */
1294:../Bsp/OLED/GUISlim.c ****   x = rx;
1295:../Bsp/OLED/GUISlim.c ****   for (y=0; y<=ry; y++) {
1296:../Bsp/OLED/GUISlim.c ****     SumY =((I32)(rx*rx))*((I32)(y*y)); /* Does not change in loop */
1297:../Bsp/OLED/GUISlim.c ****     while (Sum = SumY + ((I32)(ry*ry))*((I32)(x*x)),
1298:../Bsp/OLED/GUISlim.c ****            (x>0) && (Sum>OutConst))
1299:../Bsp/OLED/GUISlim.c ****     {
1300:../Bsp/OLED/GUISlim.c ****       x--;
1301:../Bsp/OLED/GUISlim.c ****     }
1302:../Bsp/OLED/GUISlim.c ****     LCD_DrawHLine(x0-x, y0+y, x0+x);
1303:../Bsp/OLED/GUISlim.c ****     if (y)
1304:../Bsp/OLED/GUISlim.c ****       LCD_DrawHLine(x0-x, y0-y, x0+x);
1305:../Bsp/OLED/GUISlim.c ****   }
1306:../Bsp/OLED/GUISlim.c **** }
1307:../Bsp/OLED/GUISlim.c **** 
1308:../Bsp/OLED/GUISlim.c **** /*********************************************************************
1309:../Bsp/OLED/GUISlim.c **** *
1310:../Bsp/OLED/GUISlim.c **** *       GUI_FillEllipse
1311:../Bsp/OLED/GUISlim.c **** */
1312:../Bsp/OLED/GUISlim.c **** void GUI_FillEllipse(int x0, int y0, int rx, int ry) {
1313:../Bsp/OLED/GUISlim.c ****   GUI_LOCK();
1314:../Bsp/OLED/GUISlim.c ****   GL_FillEllipse (x0,y0, rx, ry);
1315:../Bsp/OLED/GUISlim.c ****   GUI_UNLOCK();
1316:../Bsp/OLED/GUISlim.c **** }
1317:../Bsp/OLED/GUISlim.c **** 
1318:../Bsp/OLED/GUISlim.c **** /*********************************************************************
1319:../Bsp/OLED/GUISlim.c **** *
1320:../Bsp/OLED/GUISlim.c **** *       GL_DrawEllipse
1321:../Bsp/OLED/GUISlim.c **** */
1322:../Bsp/OLED/GUISlim.c **** void GL_DrawEllipse(int x0, int y0, int rx, int ry) {
ARM GAS  C:\Users\fish\AppData\Local\Temp\cc4JAs8f.s 			page 124


1323:../Bsp/OLED/GUISlim.c ****   I32 OutConst, Sum, SumY;
1324:../Bsp/OLED/GUISlim.c ****   int x,y;
1325:../Bsp/OLED/GUISlim.c ****   int xOld;
1326:../Bsp/OLED/GUISlim.c ****   U32 _rx = rx;
1327:../Bsp/OLED/GUISlim.c ****   U32 _ry = ry;
1328:../Bsp/OLED/GUISlim.c ****   OutConst = _rx*_rx*_ry*_ry  /* Constant as explaint above */
1329:../Bsp/OLED/GUISlim.c ****             +(_rx*_rx*_ry>>1); /* To compensate for rounding */
1330:../Bsp/OLED/GUISlim.c ****   xOld = x = rx;
1331:../Bsp/OLED/GUISlim.c ****   for (y=0; y<=ry; y++) {
1332:../Bsp/OLED/GUISlim.c ****     if (y==ry) {
1333:../Bsp/OLED/GUISlim.c ****       x=0;
1334:../Bsp/OLED/GUISlim.c ****     } else {
1335:../Bsp/OLED/GUISlim.c ****       SumY =((I32)(rx*rx))*((I32)(y*y)); /* Does not change in loop */
1336:../Bsp/OLED/GUISlim.c ****       while (Sum = SumY + ((I32)(ry*ry))*((I32)(x*x)),
1337:../Bsp/OLED/GUISlim.c ****              (x>0) && (Sum>OutConst)) x--;
1338:../Bsp/OLED/GUISlim.c ****     }
1339:../Bsp/OLED/GUISlim.c ****     /* Since we draw lines, we can not draw on the first
1340:../Bsp/OLED/GUISlim.c ****         iteration
1341:../Bsp/OLED/GUISlim.c ****     */
1342:../Bsp/OLED/GUISlim.c ****     if (y) {
1343:../Bsp/OLED/GUISlim.c ****       SSD1306_DrawLine(x0-xOld,y0-y+1,x0-x,y0-y, COLOR_F);
1344:../Bsp/OLED/GUISlim.c ****       SSD1306_DrawLine(x0-xOld,y0+y-1,x0-x,y0+y, COLOR_F);
1345:../Bsp/OLED/GUISlim.c ****       SSD1306_DrawLine(x0+xOld,y0-y+1,x0+x,y0-y, COLOR_F);
1346:../Bsp/OLED/GUISlim.c ****       SSD1306_DrawLine(x0+xOld,y0+y-1,x0+x,y0+y, COLOR_F);
1347:../Bsp/OLED/GUISlim.c ****     }
1348:../Bsp/OLED/GUISlim.c ****     xOld = x;
1349:../Bsp/OLED/GUISlim.c ****   }
1350:../Bsp/OLED/GUISlim.c **** }
1351:../Bsp/OLED/GUISlim.c **** 
1352:../Bsp/OLED/GUISlim.c **** /*********************************************************************
1353:../Bsp/OLED/GUISlim.c **** *
1354:../Bsp/OLED/GUISlim.c **** *       GUI_DrawEllipse
1355:../Bsp/OLED/GUISlim.c **** */
1356:../Bsp/OLED/GUISlim.c **** void GUI_DrawEllipse(int x0, int y0, int rx, int ry) {
1357:../Bsp/OLED/GUISlim.c ****   GUI_LOCK();
1358:../Bsp/OLED/GUISlim.c ****   GL_DrawEllipse(x0, y0, rx, ry);
1359:../Bsp/OLED/GUISlim.c ****   GUI_UNLOCK();
1360:../Bsp/OLED/GUISlim.c **** }
1361:../Bsp/OLED/GUISlim.c **** 
1362:../Bsp/OLED/GUISlim.c **** void GUI_DrawHLine(int y0, int x0, int x1) {
1363:../Bsp/OLED/GUISlim.c ****   GUI_LOCK();
1364:../Bsp/OLED/GUISlim.c ****   LCD_DrawHLine(x0, y0, x1);
1365:../Bsp/OLED/GUISlim.c ****   GUI_UNLOCK();
1366:../Bsp/OLED/GUISlim.c **** }
1367:../Bsp/OLED/GUISlim.c **** 
1368:../Bsp/OLED/GUISlim.c **** void GUI_DrawVLine(int x0, int y0, int y1) {
1369:../Bsp/OLED/GUISlim.c ****   GUI_LOCK();
1370:../Bsp/OLED/GUISlim.c ****   LCD_DrawVLine(x0, y0, y1);
1371:../Bsp/OLED/GUISlim.c ****   GUI_UNLOCK();
1372:../Bsp/OLED/GUISlim.c **** }
1373:../Bsp/OLED/GUISlim.c **** 
1374:../Bsp/OLED/GUISlim.c **** void GUI_DrawLine (int x0, int y0, int x1, int y1){
1375:../Bsp/OLED/GUISlim.c ****   GUI_LOCK();
1376:../Bsp/OLED/GUISlim.c ****   SSD1306_DrawLine(x0, y0, x1, y1, COLOR_F);
1377:../Bsp/OLED/GUISlim.c ****   GUI_UNLOCK();
1378:../Bsp/OLED/GUISlim.c **** }
1379:../Bsp/OLED/GUISlim.c **** 
ARM GAS  C:\Users\fish\AppData\Local\Temp\cc4JAs8f.s 			page 125


1380:../Bsp/OLED/GUISlim.c **** void GUI_DrawPixel (int x, int y){
1381:../Bsp/OLED/GUISlim.c **** 	LCD_DrawPixel(x, y);
1382:../Bsp/OLED/GUISlim.c **** }
1383:../Bsp/OLED/GUISlim.c **** void GUI_DrawPoint (int x, int y, GUI_COLOR c){
1384:../Bsp/OLED/GUISlim.c ****   RETURN_IF_Y_OUT();
1385:../Bsp/OLED/GUISlim.c ****   RETURN_IF_X_OUT();
1386:../Bsp/OLED/GUISlim.c **** 	SSD1306_DrawPixel(x, y, c);
1387:../Bsp/OLED/GUISlim.c **** }
1388:../Bsp/OLED/GUISlim.c **** 
1389:../Bsp/OLED/GUISlim.c **** static void _DrawRect(int x0, int y0, int x1, int y1) {
 4852              		.loc 1 1389 55 is_stmt 1 view -0
 4853              		.cfi_startproc
 4854              		@ args = 0, pretend = 0, frame = 0
 4855              		@ frame_needed = 0, uses_anonymous_args = 0
 4856              		.loc 1 1389 55 is_stmt 0 view .LVU1320
 4857 0000 F8B5     		push	{r3, r4, r5, r6, r7, lr}
 4858              		.cfi_def_cfa_offset 24
 4859              		.cfi_offset 3, -24
 4860              		.cfi_offset 4, -20
 4861              		.cfi_offset 5, -16
 4862              		.cfi_offset 6, -12
 4863              		.cfi_offset 7, -8
 4864              		.cfi_offset 14, -4
 4865 0002 0746     		mov	r7, r0
 4866 0004 0D46     		mov	r5, r1
 4867 0006 1646     		mov	r6, r2
 4868 0008 1C46     		mov	r4, r3
1390:../Bsp/OLED/GUISlim.c ****   LCD_DrawHLine(x0, y0, x1);
 4869              		.loc 1 1390 3 is_stmt 1 view .LVU1321
 4870 000a FFF7FEFF 		bl	LCD_DrawHLine
 4871              	.LVL474:
1391:../Bsp/OLED/GUISlim.c ****   LCD_DrawHLine(x0, y1, x1);
 4872              		.loc 1 1391 3 view .LVU1322
 4873 000e 3246     		mov	r2, r6
 4874 0010 2146     		mov	r1, r4
 4875 0012 3846     		mov	r0, r7
 4876 0014 FFF7FEFF 		bl	LCD_DrawHLine
 4877              	.LVL475:
1392:../Bsp/OLED/GUISlim.c ****   LCD_DrawVLine(x0, y0 + 1, y1 - 1);
 4878              		.loc 1 1392 3 view .LVU1323
 4879 0018 0135     		adds	r5, r5, #1
 4880              	.LVL476:
 4881              		.loc 1 1392 3 is_stmt 0 view .LVU1324
 4882 001a 013C     		subs	r4, r4, #1
 4883              	.LVL477:
 4884              		.loc 1 1392 3 view .LVU1325
 4885 001c 2246     		mov	r2, r4
 4886 001e 2946     		mov	r1, r5
 4887 0020 3846     		mov	r0, r7
 4888 0022 FFF7FEFF 		bl	LCD_DrawVLine
 4889              	.LVL478:
1393:../Bsp/OLED/GUISlim.c ****   LCD_DrawVLine(x1, y0 + 1, y1 - 1);
 4890              		.loc 1 1393 3 is_stmt 1 view .LVU1326
 4891 0026 2246     		mov	r2, r4
 4892 0028 2946     		mov	r1, r5
 4893 002a 3046     		mov	r0, r6
 4894 002c FFF7FEFF 		bl	LCD_DrawVLine
ARM GAS  C:\Users\fish\AppData\Local\Temp\cc4JAs8f.s 			page 126


 4895              	.LVL479:
1394:../Bsp/OLED/GUISlim.c **** }
 4896              		.loc 1 1394 1 is_stmt 0 view .LVU1327
 4897 0030 F8BD     		pop	{r3, r4, r5, r6, r7, pc}
 4898              		.loc 1 1394 1 view .LVU1328
 4899              		.cfi_endproc
 4900              	.LFE334:
 4902              		.section	.text.GL_DrawCircle,"ax",%progbits
 4903              		.align	1
 4904              		.global	GL_DrawCircle
 4905              		.syntax unified
 4906              		.thumb
 4907              		.thumb_func
 4909              	GL_DrawCircle:
 4910              	.LVL480:
 4911              	.LFB321:
1223:../Bsp/OLED/GUISlim.c ****   I32 i;
 4912              		.loc 1 1223 43 is_stmt 1 view -0
 4913              		.cfi_startproc
 4914              		@ args = 0, pretend = 0, frame = 0
 4915              		@ frame_needed = 0, uses_anonymous_args = 0
1223:../Bsp/OLED/GUISlim.c ****   I32 i;
 4916              		.loc 1 1223 43 is_stmt 0 view .LVU1330
 4917 0000 2DE9F843 		push	{r3, r4, r5, r6, r7, r8, r9, lr}
 4918              		.cfi_def_cfa_offset 32
 4919              		.cfi_offset 3, -32
 4920              		.cfi_offset 4, -28
 4921              		.cfi_offset 5, -24
 4922              		.cfi_offset 6, -20
 4923              		.cfi_offset 7, -16
 4924              		.cfi_offset 8, -12
 4925              		.cfi_offset 9, -8
 4926              		.cfi_offset 14, -4
 4927 0004 8046     		mov	r8, r0
 4928 0006 0F46     		mov	r7, r1
 4929 0008 1546     		mov	r5, r2
1224:../Bsp/OLED/GUISlim.c ****   int imax = ((I32)((I32)r*707))/1000+1;
 4930              		.loc 1 1224 3 is_stmt 1 view .LVU1331
1225:../Bsp/OLED/GUISlim.c ****   I32 sqmax = (I32)r*(I32)r+(I32)r/2;
 4931              		.loc 1 1225 3 view .LVU1332
1225:../Bsp/OLED/GUISlim.c ****   I32 sqmax = (I32)r*(I32)r+(I32)r/2;
 4932              		.loc 1 1225 15 is_stmt 0 view .LVU1333
 4933 000a 40F2C326 		movw	r6, #707
 4934 000e 02FB06F6 		mul	r6, r2, r6
1225:../Bsp/OLED/GUISlim.c ****   I32 sqmax = (I32)r*(I32)r+(I32)r/2;
 4935              		.loc 1 1225 33 view .LVU1334
 4936 0012 154B     		ldr	r3, .L395
 4937 0014 83FB0643 		smull	r4, r3, r3, r6
 4938 0018 F617     		asrs	r6, r6, #31
 4939 001a C6EBA316 		rsb	r6, r6, r3, asr #6
1225:../Bsp/OLED/GUISlim.c ****   I32 sqmax = (I32)r*(I32)r+(I32)r/2;
 4940              		.loc 1 1225 7 view .LVU1335
 4941 001e 0136     		adds	r6, r6, #1
 4942              	.LVL481:
1226:../Bsp/OLED/GUISlim.c ****   I32 y=r;
 4943              		.loc 1 1226 3 is_stmt 1 view .LVU1336
1226:../Bsp/OLED/GUISlim.c ****   I32 y=r;
ARM GAS  C:\Users\fish\AppData\Local\Temp\cc4JAs8f.s 			page 127


 4944              		.loc 1 1226 35 is_stmt 0 view .LVU1337
 4945 0020 02EBD279 		add	r9, r2, r2, lsr #31
 4946 0024 4FEA6909 		asr	r9, r9, #1
1226:../Bsp/OLED/GUISlim.c ****   I32 y=r;
 4947              		.loc 1 1226 7 view .LVU1338
 4948 0028 02FB0299 		mla	r9, r2, r2, r9
 4949              	.LVL482:
1227:../Bsp/OLED/GUISlim.c ****   Draw8Point(x0,y0,r,0);
 4950              		.loc 1 1227 3 is_stmt 1 view .LVU1339
1228:../Bsp/OLED/GUISlim.c ****   for (i=1; i<= imax; i++) {
 4951              		.loc 1 1228 3 view .LVU1340
 4952 002c 0023     		movs	r3, #0
 4953 002e FFF7FEFF 		bl	Draw8Point
 4954              	.LVL483:
1229:../Bsp/OLED/GUISlim.c ****     if ((i*i+y*y) >sqmax) {
 4955              		.loc 1 1229 3 view .LVU1341
1229:../Bsp/OLED/GUISlim.c ****     if ((i*i+y*y) >sqmax) {
 4956              		.loc 1 1229 9 is_stmt 0 view .LVU1342
 4957 0032 0124     		movs	r4, #1
1229:../Bsp/OLED/GUISlim.c ****     if ((i*i+y*y) >sqmax) {
 4958              		.loc 1 1229 3 view .LVU1343
 4959 0034 06E0     		b	.L390
 4960              	.LVL484:
 4961              	.L391:
1234:../Bsp/OLED/GUISlim.c ****   }
 4962              		.loc 1 1234 5 is_stmt 1 view .LVU1344
 4963 0036 2B46     		mov	r3, r5
 4964 0038 2246     		mov	r2, r4
 4965 003a 3946     		mov	r1, r7
 4966 003c 4046     		mov	r0, r8
 4967 003e FFF7FEFF 		bl	Draw8Point
 4968              	.LVL485:
1229:../Bsp/OLED/GUISlim.c ****     if ((i*i+y*y) >sqmax) {
 4969              		.loc 1 1229 24 discriminator 2 view .LVU1345
 4970 0042 0134     		adds	r4, r4, #1
 4971              	.LVL486:
 4972              	.L390:
1229:../Bsp/OLED/GUISlim.c ****     if ((i*i+y*y) >sqmax) {
 4973              		.loc 1 1229 14 discriminator 1 view .LVU1346
 4974 0044 B442     		cmp	r4, r6
 4975 0046 0DDC     		bgt	.L394
1230:../Bsp/OLED/GUISlim.c ****       Draw8Point(x0,y0,i,y);
 4976              		.loc 1 1230 5 view .LVU1347
1230:../Bsp/OLED/GUISlim.c ****       Draw8Point(x0,y0,i,y);
 4977              		.loc 1 1230 15 is_stmt 0 view .LVU1348
 4978 0048 05FB05F3 		mul	r3, r5, r5
1230:../Bsp/OLED/GUISlim.c ****       Draw8Point(x0,y0,i,y);
 4979              		.loc 1 1230 13 view .LVU1349
 4980 004c 04FB0433 		mla	r3, r4, r4, r3
1230:../Bsp/OLED/GUISlim.c ****       Draw8Point(x0,y0,i,y);
 4981              		.loc 1 1230 8 view .LVU1350
 4982 0050 4B45     		cmp	r3, r9
 4983 0052 F0DD     		ble	.L391
1231:../Bsp/OLED/GUISlim.c ****       y--;
 4984              		.loc 1 1231 7 is_stmt 1 view .LVU1351
 4985 0054 2B46     		mov	r3, r5
 4986 0056 2246     		mov	r2, r4
ARM GAS  C:\Users\fish\AppData\Local\Temp\cc4JAs8f.s 			page 128


 4987 0058 3946     		mov	r1, r7
 4988 005a 4046     		mov	r0, r8
 4989 005c FFF7FEFF 		bl	Draw8Point
 4990              	.LVL487:
1232:../Bsp/OLED/GUISlim.c ****     }
 4991              		.loc 1 1232 7 view .LVU1352
1232:../Bsp/OLED/GUISlim.c ****     }
 4992              		.loc 1 1232 8 is_stmt 0 view .LVU1353
 4993 0060 013D     		subs	r5, r5, #1
 4994              	.LVL488:
1232:../Bsp/OLED/GUISlim.c ****     }
 4995              		.loc 1 1232 8 view .LVU1354
 4996 0062 E8E7     		b	.L391
 4997              	.LVL489:
 4998              	.L394:
1236:../Bsp/OLED/GUISlim.c **** 
 4999              		.loc 1 1236 1 view .LVU1355
 5000 0064 BDE8F883 		pop	{r3, r4, r5, r6, r7, r8, r9, pc}
 5001              	.LVL490:
 5002              	.L396:
1236:../Bsp/OLED/GUISlim.c **** 
 5003              		.loc 1 1236 1 view .LVU1356
 5004              		.align	2
 5005              	.L395:
 5006 0068 D34D6210 		.word	274877907
 5007              		.cfi_endproc
 5008              	.LFE321:
 5010              		.section	.text.GUI_DrawCircle,"ax",%progbits
 5011              		.align	1
 5012              		.global	GUI_DrawCircle
 5013              		.syntax unified
 5014              		.thumb
 5015              		.thumb_func
 5017              	GUI_DrawCircle:
 5018              	.LVL491:
 5019              	.LFB322:
1242:../Bsp/OLED/GUISlim.c ****   GUI_LOCK();
 5020              		.loc 1 1242 44 is_stmt 1 view -0
 5021              		.cfi_startproc
 5022              		@ args = 0, pretend = 0, frame = 0
 5023              		@ frame_needed = 0, uses_anonymous_args = 0
1242:../Bsp/OLED/GUISlim.c ****   GUI_LOCK();
 5024              		.loc 1 1242 44 is_stmt 0 view .LVU1358
 5025 0000 08B5     		push	{r3, lr}
 5026              		.cfi_def_cfa_offset 8
 5027              		.cfi_offset 3, -8
 5028              		.cfi_offset 14, -4
1243:../Bsp/OLED/GUISlim.c ****     GL_DrawCircle( x0, y0, r);
 5029              		.loc 1 1243 13 is_stmt 1 view .LVU1359
1244:../Bsp/OLED/GUISlim.c ****   GUI_UNLOCK();
 5030              		.loc 1 1244 5 view .LVU1360
 5031 0002 FFF7FEFF 		bl	GL_DrawCircle
 5032              	.LVL492:
1245:../Bsp/OLED/GUISlim.c **** }
 5033              		.loc 1 1245 15 view .LVU1361
1246:../Bsp/OLED/GUISlim.c **** 
 5034              		.loc 1 1246 1 is_stmt 0 view .LVU1362
ARM GAS  C:\Users\fish\AppData\Local\Temp\cc4JAs8f.s 			page 129


 5035 0006 08BD     		pop	{r3, pc}
 5036              		.cfi_endproc
 5037              	.LFE322:
 5039              		.section	.text.GL_FillCircle,"ax",%progbits
 5040              		.align	1
 5041              		.global	GL_FillCircle
 5042              		.syntax unified
 5043              		.thumb
 5044              		.thumb_func
 5046              	GL_FillCircle:
 5047              	.LVL493:
 5048              	.LFB323:
1252:../Bsp/OLED/GUISlim.c ****   I32 i;
 5049              		.loc 1 1252 43 is_stmt 1 view -0
 5050              		.cfi_startproc
 5051              		@ args = 0, pretend = 0, frame = 0
 5052              		@ frame_needed = 0, uses_anonymous_args = 0
1252:../Bsp/OLED/GUISlim.c ****   I32 i;
 5053              		.loc 1 1252 43 is_stmt 0 view .LVU1364
 5054 0000 2DE9F84F 		push	{r3, r4, r5, r6, r7, r8, r9, r10, fp, lr}
 5055              		.cfi_def_cfa_offset 40
 5056              		.cfi_offset 3, -40
 5057              		.cfi_offset 4, -36
 5058              		.cfi_offset 5, -32
 5059              		.cfi_offset 6, -28
 5060              		.cfi_offset 7, -24
 5061              		.cfi_offset 8, -20
 5062              		.cfi_offset 9, -16
 5063              		.cfi_offset 10, -12
 5064              		.cfi_offset 11, -8
 5065              		.cfi_offset 14, -4
 5066 0004 8046     		mov	r8, r0
 5067 0006 8A46     		mov	r10, r1
 5068 0008 1546     		mov	r5, r2
1253:../Bsp/OLED/GUISlim.c ****   int imax = ((I32)((I32)r*707))/1000+1;
 5069              		.loc 1 1253 3 is_stmt 1 view .LVU1365
1254:../Bsp/OLED/GUISlim.c ****   I32 sqmax = (I32)r*(I32)r+(I32)r/2;
 5070              		.loc 1 1254 3 view .LVU1366
1254:../Bsp/OLED/GUISlim.c ****   I32 sqmax = (I32)r*(I32)r+(I32)r/2;
 5071              		.loc 1 1254 15 is_stmt 0 view .LVU1367
 5072 000a 40F2C329 		movw	r9, #707
 5073 000e 09FB02F9 		mul	r9, r9, r2
1254:../Bsp/OLED/GUISlim.c ****   I32 sqmax = (I32)r*(I32)r+(I32)r/2;
 5074              		.loc 1 1254 33 view .LVU1368
 5075 0012 234B     		ldr	r3, .L406
 5076 0014 83FB0923 		smull	r2, r3, r3, r9
 5077              	.LVL494:
1254:../Bsp/OLED/GUISlim.c ****   I32 sqmax = (I32)r*(I32)r+(I32)r/2;
 5078              		.loc 1 1254 33 view .LVU1369
 5079 0018 4FEAE979 		asr	r9, r9, #31
 5080 001c C9EBA319 		rsb	r9, r9, r3, asr #6
1254:../Bsp/OLED/GUISlim.c ****   I32 sqmax = (I32)r*(I32)r+(I32)r/2;
 5081              		.loc 1 1254 7 view .LVU1370
 5082 0020 09F10109 		add	r9, r9, #1
 5083              	.LVL495:
1255:../Bsp/OLED/GUISlim.c ****   I32 x=r;
 5084              		.loc 1 1255 3 is_stmt 1 view .LVU1371
ARM GAS  C:\Users\fish\AppData\Local\Temp\cc4JAs8f.s 			page 130


1255:../Bsp/OLED/GUISlim.c ****   I32 x=r;
 5085              		.loc 1 1255 35 is_stmt 0 view .LVU1372
 5086 0024 05EBD57B 		add	fp, r5, r5, lsr #31
 5087 0028 4FEA6B0B 		asr	fp, fp, #1
1255:../Bsp/OLED/GUISlim.c ****   I32 x=r;
 5088              		.loc 1 1255 7 view .LVU1373
 5089 002c 05FB05BB 		mla	fp, r5, r5, fp
 5090              	.LVL496:
1256:../Bsp/OLED/GUISlim.c ****   LCD_DrawHLine(x0-r,y0,x0+r);
 5091              		.loc 1 1256 3 is_stmt 1 view .LVU1374
1257:../Bsp/OLED/GUISlim.c ****   for (i=1; i<= imax; i++) {
 5092              		.loc 1 1257 3 view .LVU1375
 5093 0030 2A18     		adds	r2, r5, r0
 5094 0032 401B     		subs	r0, r0, r5
 5095              	.LVL497:
1257:../Bsp/OLED/GUISlim.c ****   for (i=1; i<= imax; i++) {
 5096              		.loc 1 1257 3 is_stmt 0 view .LVU1376
 5097 0034 FFF7FEFF 		bl	LCD_DrawHLine
 5098              	.LVL498:
1258:../Bsp/OLED/GUISlim.c ****     if ((i*i+x*x) >sqmax) {
 5099              		.loc 1 1258 3 is_stmt 1 view .LVU1377
1258:../Bsp/OLED/GUISlim.c ****     if ((i*i+x*x) >sqmax) {
 5100              		.loc 1 1258 9 is_stmt 0 view .LVU1378
 5101 0038 0124     		movs	r4, #1
1258:../Bsp/OLED/GUISlim.c ****     if ((i*i+x*x) >sqmax) {
 5102              		.loc 1 1258 3 view .LVU1379
 5103 003a 11E0     		b	.L400
 5104              	.LVL499:
 5105              	.L402:
1265:../Bsp/OLED/GUISlim.c ****     }
 5106              		.loc 1 1265 7 is_stmt 1 view .LVU1380
1265:../Bsp/OLED/GUISlim.c ****     }
 5107              		.loc 1 1265 8 is_stmt 0 view .LVU1381
 5108 003c 013D     		subs	r5, r5, #1
 5109              	.LVL500:
 5110              	.L401:
1268:../Bsp/OLED/GUISlim.c ****     LCD_DrawHLine(x0-x,y0-i, x0+x);
 5111              		.loc 1 1268 5 is_stmt 1 view .LVU1382
1268:../Bsp/OLED/GUISlim.c ****     LCD_DrawHLine(x0-x,y0-i, x0+x);
 5112              		.loc 1 1268 21 is_stmt 0 view .LVU1383
 5113 003e A8EB0506 		sub	r6, r8, r5
1268:../Bsp/OLED/GUISlim.c ****     LCD_DrawHLine(x0-x,y0-i, x0+x);
 5114              		.loc 1 1268 32 view .LVU1384
 5115 0042 05EB0807 		add	r7, r5, r8
1268:../Bsp/OLED/GUISlim.c ****     LCD_DrawHLine(x0-x,y0-i, x0+x);
 5116              		.loc 1 1268 5 view .LVU1385
 5117 0046 3A46     		mov	r2, r7
 5118 0048 04EB0A01 		add	r1, r4, r10
 5119 004c 3046     		mov	r0, r6
 5120 004e FFF7FEFF 		bl	LCD_DrawHLine
 5121              	.LVL501:
1269:../Bsp/OLED/GUISlim.c ****   }
 5122              		.loc 1 1269 5 is_stmt 1 view .LVU1386
 5123 0052 3A46     		mov	r2, r7
 5124 0054 AAEB0401 		sub	r1, r10, r4
 5125 0058 3046     		mov	r0, r6
 5126 005a FFF7FEFF 		bl	LCD_DrawHLine
ARM GAS  C:\Users\fish\AppData\Local\Temp\cc4JAs8f.s 			page 131


 5127              	.LVL502:
1258:../Bsp/OLED/GUISlim.c ****     if ((i*i+x*x) >sqmax) {
 5128              		.loc 1 1258 24 discriminator 2 view .LVU1387
 5129 005e 0134     		adds	r4, r4, #1
 5130              	.LVL503:
 5131              	.L400:
1258:../Bsp/OLED/GUISlim.c ****     if ((i*i+x*x) >sqmax) {
 5132              		.loc 1 1258 14 discriminator 1 view .LVU1388
 5133 0060 4C45     		cmp	r4, r9
 5134 0062 1ADC     		bgt	.L405
1259:../Bsp/OLED/GUISlim.c ****       /* draw lines from outside */
 5135              		.loc 1 1259 5 view .LVU1389
1259:../Bsp/OLED/GUISlim.c ****       /* draw lines from outside */
 5136              		.loc 1 1259 15 is_stmt 0 view .LVU1390
 5137 0064 05FB05F3 		mul	r3, r5, r5
1259:../Bsp/OLED/GUISlim.c ****       /* draw lines from outside */
 5138              		.loc 1 1259 13 view .LVU1391
 5139 0068 04FB0433 		mla	r3, r4, r4, r3
1259:../Bsp/OLED/GUISlim.c ****       /* draw lines from outside */
 5140              		.loc 1 1259 8 view .LVU1392
 5141 006c 5B45     		cmp	r3, fp
 5142 006e E6DD     		ble	.L401
1261:../Bsp/OLED/GUISlim.c ****         LCD_DrawHLine (x0-i+1,y0+x, x0+i-1);
 5143              		.loc 1 1261 7 is_stmt 1 view .LVU1393
1261:../Bsp/OLED/GUISlim.c ****         LCD_DrawHLine (x0-i+1,y0+x, x0+i-1);
 5144              		.loc 1 1261 10 is_stmt 0 view .LVU1394
 5145 0070 4D45     		cmp	r5, r9
 5146 0072 E3DD     		ble	.L402
1262:../Bsp/OLED/GUISlim.c ****         LCD_DrawHLine (x0-i+1,y0-x, x0+i-1);
 5147              		.loc 1 1262 9 is_stmt 1 view .LVU1395
1262:../Bsp/OLED/GUISlim.c ****         LCD_DrawHLine (x0-i+1,y0-x, x0+i-1);
 5148              		.loc 1 1262 26 is_stmt 0 view .LVU1396
 5149 0074 A8EB0406 		sub	r6, r8, r4
1262:../Bsp/OLED/GUISlim.c ****         LCD_DrawHLine (x0-i+1,y0-x, x0+i-1);
 5150              		.loc 1 1262 28 view .LVU1397
 5151 0078 0136     		adds	r6, r6, #1
1262:../Bsp/OLED/GUISlim.c ****         LCD_DrawHLine (x0-i+1,y0-x, x0+i-1);
 5152              		.loc 1 1262 39 view .LVU1398
 5153 007a 04EB0807 		add	r7, r4, r8
1262:../Bsp/OLED/GUISlim.c ****         LCD_DrawHLine (x0-i+1,y0-x, x0+i-1);
 5154              		.loc 1 1262 41 view .LVU1399
 5155 007e 013F     		subs	r7, r7, #1
1262:../Bsp/OLED/GUISlim.c ****         LCD_DrawHLine (x0-i+1,y0-x, x0+i-1);
 5156              		.loc 1 1262 9 view .LVU1400
 5157 0080 3A46     		mov	r2, r7
 5158 0082 05EB0A01 		add	r1, r5, r10
 5159 0086 3046     		mov	r0, r6
 5160 0088 FFF7FEFF 		bl	LCD_DrawHLine
 5161              	.LVL504:
1263:../Bsp/OLED/GUISlim.c ****       }
 5162              		.loc 1 1263 9 is_stmt 1 view .LVU1401
 5163 008c 3A46     		mov	r2, r7
 5164 008e AAEB0501 		sub	r1, r10, r5
 5165 0092 3046     		mov	r0, r6
 5166 0094 FFF7FEFF 		bl	LCD_DrawHLine
 5167              	.LVL505:
 5168 0098 D0E7     		b	.L402
ARM GAS  C:\Users\fish\AppData\Local\Temp\cc4JAs8f.s 			page 132


 5169              	.L405:
1271:../Bsp/OLED/GUISlim.c **** 
 5170              		.loc 1 1271 1 is_stmt 0 view .LVU1402
 5171 009a BDE8F88F 		pop	{r3, r4, r5, r6, r7, r8, r9, r10, fp, pc}
 5172              	.LVL506:
 5173              	.L407:
1271:../Bsp/OLED/GUISlim.c **** 
 5174              		.loc 1 1271 1 view .LVU1403
 5175 009e 00BF     		.align	2
 5176              	.L406:
 5177 00a0 D34D6210 		.word	274877907
 5178              		.cfi_endproc
 5179              	.LFE323:
 5181              		.section	.text.GUI_FillCircle,"ax",%progbits
 5182              		.align	1
 5183              		.global	GUI_FillCircle
 5184              		.syntax unified
 5185              		.thumb
 5186              		.thumb_func
 5188              	GUI_FillCircle:
 5189              	.LVL507:
 5190              	.LFB324:
1277:../Bsp/OLED/GUISlim.c ****   GUI_LOCK();
 5191              		.loc 1 1277 44 is_stmt 1 view -0
 5192              		.cfi_startproc
 5193              		@ args = 0, pretend = 0, frame = 0
 5194              		@ frame_needed = 0, uses_anonymous_args = 0
1277:../Bsp/OLED/GUISlim.c ****   GUI_LOCK();
 5195              		.loc 1 1277 44 is_stmt 0 view .LVU1405
 5196 0000 08B5     		push	{r3, lr}
 5197              		.cfi_def_cfa_offset 8
 5198              		.cfi_offset 3, -8
 5199              		.cfi_offset 14, -4
1278:../Bsp/OLED/GUISlim.c ****   GL_FillCircle(x0,y0,r);
 5200              		.loc 1 1278 13 is_stmt 1 view .LVU1406
1279:../Bsp/OLED/GUISlim.c ****   GUI_UNLOCK();
 5201              		.loc 1 1279 3 view .LVU1407
 5202 0002 FFF7FEFF 		bl	GL_FillCircle
 5203              	.LVL508:
1280:../Bsp/OLED/GUISlim.c **** }
 5204              		.loc 1 1280 15 view .LVU1408
1281:../Bsp/OLED/GUISlim.c **** 
 5205              		.loc 1 1281 1 is_stmt 0 view .LVU1409
 5206 0006 08BD     		pop	{r3, pc}
 5207              		.cfi_endproc
 5208              	.LFE324:
 5210              		.section	.text.GL_FillEllipse,"ax",%progbits
 5211              		.align	1
 5212              		.global	GL_FillEllipse
 5213              		.syntax unified
 5214              		.thumb
 5215              		.thumb_func
 5217              	GL_FillEllipse:
 5218              	.LVL509:
 5219              	.LFB325:
1287:../Bsp/OLED/GUISlim.c ****   I32 OutConst, Sum, SumY;
 5220              		.loc 1 1287 53 is_stmt 1 view -0
ARM GAS  C:\Users\fish\AppData\Local\Temp\cc4JAs8f.s 			page 133


 5221              		.cfi_startproc
 5222              		@ args = 0, pretend = 0, frame = 8
 5223              		@ frame_needed = 0, uses_anonymous_args = 0
1287:../Bsp/OLED/GUISlim.c ****   I32 OutConst, Sum, SumY;
 5224              		.loc 1 1287 53 is_stmt 0 view .LVU1411
 5225 0000 2DE9F04F 		push	{r4, r5, r6, r7, r8, r9, r10, fp, lr}
 5226              		.cfi_def_cfa_offset 36
 5227              		.cfi_offset 4, -36
 5228              		.cfi_offset 5, -32
 5229              		.cfi_offset 6, -28
 5230              		.cfi_offset 7, -24
 5231              		.cfi_offset 8, -20
 5232              		.cfi_offset 9, -16
 5233              		.cfi_offset 10, -12
 5234              		.cfi_offset 11, -8
 5235              		.cfi_offset 14, -4
 5236 0004 83B0     		sub	sp, sp, #12
 5237              		.cfi_def_cfa_offset 48
 5238 0006 8346     		mov	fp, r0
 5239 0008 0191     		str	r1, [sp, #4]
 5240 000a 9046     		mov	r8, r2
 5241 000c 1D46     		mov	r5, r3
1288:../Bsp/OLED/GUISlim.c ****   int x,y;
 5242              		.loc 1 1288 3 is_stmt 1 view .LVU1412
1289:../Bsp/OLED/GUISlim.c ****   U32 _rx = rx;
 5243              		.loc 1 1289 3 view .LVU1413
1290:../Bsp/OLED/GUISlim.c ****   U32 _ry = ry;
 5244              		.loc 1 1290 3 view .LVU1414
 5245              	.LVL510:
1291:../Bsp/OLED/GUISlim.c ****   OutConst = _rx*_rx*_ry*_ry  /* Constant as explaint above */
 5246              		.loc 1 1291 3 view .LVU1415
1292:../Bsp/OLED/GUISlim.c ****             +(_rx*_rx*_ry>>1); /* To compensate for rounding */
 5247              		.loc 1 1292 3 view .LVU1416
1292:../Bsp/OLED/GUISlim.c ****             +(_rx*_rx*_ry>>1); /* To compensate for rounding */
 5248              		.loc 1 1292 17 is_stmt 0 view .LVU1417
 5249 000e 02FB02F3 		mul	r3, r2, r2
 5250              	.LVL511:
1292:../Bsp/OLED/GUISlim.c ****             +(_rx*_rx*_ry>>1); /* To compensate for rounding */
 5251              		.loc 1 1292 21 view .LVU1418
 5252 0012 05FB03F3 		mul	r3, r5, r3
1293:../Bsp/OLED/GUISlim.c ****   x = rx;
 5253              		.loc 1 1293 26 view .LVU1419
 5254 0016 5E08     		lsrs	r6, r3, #1
1293:../Bsp/OLED/GUISlim.c ****   x = rx;
 5255              		.loc 1 1293 13 view .LVU1420
 5256 0018 05FB0366 		mla	r6, r5, r3, r6
 5257              	.LVL512:
1294:../Bsp/OLED/GUISlim.c ****   for (y=0; y<=ry; y++) {
 5258              		.loc 1 1294 3 is_stmt 1 view .LVU1421
1295:../Bsp/OLED/GUISlim.c ****     SumY =((I32)(rx*rx))*((I32)(y*y)); /* Does not change in loop */
 5259              		.loc 1 1295 3 view .LVU1422
1294:../Bsp/OLED/GUISlim.c ****   for (y=0; y<=ry; y++) {
 5260              		.loc 1 1294 5 is_stmt 0 view .LVU1423
 5261 001c 1446     		mov	r4, r2
1295:../Bsp/OLED/GUISlim.c ****     SumY =((I32)(rx*rx))*((I32)(y*y)); /* Does not change in loop */
 5262              		.loc 1 1295 9 view .LVU1424
 5263 001e 0027     		movs	r7, #0
ARM GAS  C:\Users\fish\AppData\Local\Temp\cc4JAs8f.s 			page 134


1295:../Bsp/OLED/GUISlim.c ****     SumY =((I32)(rx*rx))*((I32)(y*y)); /* Does not change in loop */
 5264              		.loc 1 1295 3 view .LVU1425
 5265 0020 0BE0     		b	.L411
 5266              	.LVL513:
 5267              	.L412:
1302:../Bsp/OLED/GUISlim.c ****     if (y)
 5268              		.loc 1 1302 5 is_stmt 1 view .LVU1426
 5269 0022 ABEB0409 		sub	r9, fp, r4
 5270 0026 04EB0B0A 		add	r10, r4, fp
 5271 002a 5246     		mov	r2, r10
 5272 002c 019B     		ldr	r3, [sp, #4]
 5273              	.LVL514:
1302:../Bsp/OLED/GUISlim.c ****     if (y)
 5274              		.loc 1 1302 5 is_stmt 0 view .LVU1427
 5275 002e F918     		adds	r1, r7, r3
 5276              	.LVL515:
1302:../Bsp/OLED/GUISlim.c ****     if (y)
 5277              		.loc 1 1302 5 view .LVU1428
 5278 0030 4846     		mov	r0, r9
 5279 0032 FFF7FEFF 		bl	LCD_DrawHLine
 5280              	.LVL516:
1303:../Bsp/OLED/GUISlim.c ****       LCD_DrawHLine(x0-x, y0-y, x0+x);
 5281              		.loc 1 1303 5 is_stmt 1 view .LVU1429
1303:../Bsp/OLED/GUISlim.c ****       LCD_DrawHLine(x0-x, y0-y, x0+x);
 5282              		.loc 1 1303 8 is_stmt 0 view .LVU1430
 5283 0036 A7B9     		cbnz	r7, .L417
 5284              	.L414:
1295:../Bsp/OLED/GUISlim.c ****     SumY =((I32)(rx*rx))*((I32)(y*y)); /* Does not change in loop */
 5285              		.loc 1 1295 21 is_stmt 1 discriminator 2 view .LVU1431
 5286 0038 0137     		adds	r7, r7, #1
 5287              	.LVL517:
 5288              	.L411:
1295:../Bsp/OLED/GUISlim.c ****     SumY =((I32)(rx*rx))*((I32)(y*y)); /* Does not change in loop */
 5289              		.loc 1 1295 14 discriminator 1 view .LVU1432
 5290 003a AF42     		cmp	r7, r5
 5291 003c 18DC     		bgt	.L418
1296:../Bsp/OLED/GUISlim.c ****     while (Sum = SumY + ((I32)(ry*ry))*((I32)(x*x)),
 5292              		.loc 1 1296 5 view .LVU1433
1296:../Bsp/OLED/GUISlim.c ****     while (Sum = SumY + ((I32)(ry*ry))*((I32)(x*x)),
 5293              		.loc 1 1296 20 is_stmt 0 view .LVU1434
 5294 003e 08FB08F1 		mul	r1, r8, r8
1296:../Bsp/OLED/GUISlim.c ****     while (Sum = SumY + ((I32)(ry*ry))*((I32)(x*x)),
 5295              		.loc 1 1296 34 view .LVU1435
 5296 0042 07FB07F3 		mul	r3, r7, r7
1296:../Bsp/OLED/GUISlim.c ****     while (Sum = SumY + ((I32)(ry*ry))*((I32)(x*x)),
 5297              		.loc 1 1296 10 view .LVU1436
 5298 0046 03FB01F1 		mul	r1, r3, r1
 5299              	.LVL518:
1297:../Bsp/OLED/GUISlim.c ****            (x>0) && (Sum>OutConst))
 5300              		.loc 1 1297 5 is_stmt 1 view .LVU1437
 5301              	.L413:
1297:../Bsp/OLED/GUISlim.c ****            (x>0) && (Sum>OutConst))
 5302              		.loc 1 1297 12 view .LVU1438
1297:../Bsp/OLED/GUISlim.c ****            (x>0) && (Sum>OutConst))
 5303              		.loc 1 1297 34 is_stmt 0 view .LVU1439
 5304 004a 05FB05F3 		mul	r3, r5, r5
1297:../Bsp/OLED/GUISlim.c ****            (x>0) && (Sum>OutConst))
ARM GAS  C:\Users\fish\AppData\Local\Temp\cc4JAs8f.s 			page 135


 5305              		.loc 1 1297 48 view .LVU1440
 5306 004e 04FB04F2 		mul	r2, r4, r4
1297:../Bsp/OLED/GUISlim.c ****            (x>0) && (Sum>OutConst))
 5307              		.loc 1 1297 16 view .LVU1441
 5308 0052 02FB0313 		mla	r3, r2, r3, r1
 5309              	.LVL519:
1298:../Bsp/OLED/GUISlim.c ****     {
 5310              		.loc 1 1298 18 view .LVU1442
 5311 0056 002C     		cmp	r4, #0
 5312 0058 E3DD     		ble	.L412
1298:../Bsp/OLED/GUISlim.c ****     {
 5313              		.loc 1 1298 18 discriminator 1 view .LVU1443
 5314 005a 9E42     		cmp	r6, r3
 5315 005c E1DA     		bge	.L412
1300:../Bsp/OLED/GUISlim.c ****     }
 5316              		.loc 1 1300 7 is_stmt 1 view .LVU1444
1300:../Bsp/OLED/GUISlim.c ****     }
 5317              		.loc 1 1300 8 is_stmt 0 view .LVU1445
 5318 005e 013C     		subs	r4, r4, #1
 5319              	.LVL520:
1300:../Bsp/OLED/GUISlim.c ****     }
 5320              		.loc 1 1300 8 view .LVU1446
 5321 0060 F3E7     		b	.L413
 5322              	.LVL521:
 5323              	.L417:
1304:../Bsp/OLED/GUISlim.c ****   }
 5324              		.loc 1 1304 7 is_stmt 1 view .LVU1447
 5325 0062 5246     		mov	r2, r10
 5326 0064 019B     		ldr	r3, [sp, #4]
 5327 0066 D91B     		subs	r1, r3, r7
 5328 0068 4846     		mov	r0, r9
 5329 006a FFF7FEFF 		bl	LCD_DrawHLine
 5330              	.LVL522:
 5331 006e E3E7     		b	.L414
 5332              	.LVL523:
 5333              	.L418:
1306:../Bsp/OLED/GUISlim.c **** 
 5334              		.loc 1 1306 1 is_stmt 0 view .LVU1448
 5335 0070 03B0     		add	sp, sp, #12
 5336              		.cfi_def_cfa_offset 36
 5337              		@ sp needed
 5338 0072 BDE8F08F 		pop	{r4, r5, r6, r7, r8, r9, r10, fp, pc}
1306:../Bsp/OLED/GUISlim.c **** 
 5339              		.loc 1 1306 1 view .LVU1449
 5340              		.cfi_endproc
 5341              	.LFE325:
 5343              		.section	.text.GUI_FillEllipse,"ax",%progbits
 5344              		.align	1
 5345              		.global	GUI_FillEllipse
 5346              		.syntax unified
 5347              		.thumb
 5348              		.thumb_func
 5350              	GUI_FillEllipse:
 5351              	.LVL524:
 5352              	.LFB326:
1312:../Bsp/OLED/GUISlim.c ****   GUI_LOCK();
 5353              		.loc 1 1312 54 is_stmt 1 view -0
ARM GAS  C:\Users\fish\AppData\Local\Temp\cc4JAs8f.s 			page 136


 5354              		.cfi_startproc
 5355              		@ args = 0, pretend = 0, frame = 0
 5356              		@ frame_needed = 0, uses_anonymous_args = 0
1312:../Bsp/OLED/GUISlim.c ****   GUI_LOCK();
 5357              		.loc 1 1312 54 is_stmt 0 view .LVU1451
 5358 0000 08B5     		push	{r3, lr}
 5359              		.cfi_def_cfa_offset 8
 5360              		.cfi_offset 3, -8
 5361              		.cfi_offset 14, -4
1313:../Bsp/OLED/GUISlim.c ****   GL_FillEllipse (x0,y0, rx, ry);
 5362              		.loc 1 1313 13 is_stmt 1 view .LVU1452
1314:../Bsp/OLED/GUISlim.c ****   GUI_UNLOCK();
 5363              		.loc 1 1314 3 view .LVU1453
 5364 0002 FFF7FEFF 		bl	GL_FillEllipse
 5365              	.LVL525:
1315:../Bsp/OLED/GUISlim.c **** }
 5366              		.loc 1 1315 15 view .LVU1454
1316:../Bsp/OLED/GUISlim.c **** 
 5367              		.loc 1 1316 1 is_stmt 0 view .LVU1455
 5368 0006 08BD     		pop	{r3, pc}
 5369              		.cfi_endproc
 5370              	.LFE326:
 5372              		.section	.text.GL_DrawEllipse,"ax",%progbits
 5373              		.align	1
 5374              		.global	GL_DrawEllipse
 5375              		.syntax unified
 5376              		.thumb
 5377              		.thumb_func
 5379              	GL_DrawEllipse:
 5380              	.LVL526:
 5381              	.LFB327:
1322:../Bsp/OLED/GUISlim.c ****   I32 OutConst, Sum, SumY;
 5382              		.loc 1 1322 53 is_stmt 1 view -0
 5383              		.cfi_startproc
 5384              		@ args = 0, pretend = 0, frame = 40
 5385              		@ frame_needed = 0, uses_anonymous_args = 0
1322:../Bsp/OLED/GUISlim.c ****   I32 OutConst, Sum, SumY;
 5386              		.loc 1 1322 53 is_stmt 0 view .LVU1457
 5387 0000 2DE9F04F 		push	{r4, r5, r6, r7, r8, r9, r10, fp, lr}
 5388              		.cfi_def_cfa_offset 36
 5389              		.cfi_offset 4, -36
 5390              		.cfi_offset 5, -32
 5391              		.cfi_offset 6, -28
 5392              		.cfi_offset 7, -24
 5393              		.cfi_offset 8, -20
 5394              		.cfi_offset 9, -16
 5395              		.cfi_offset 10, -12
 5396              		.cfi_offset 11, -8
 5397              		.cfi_offset 14, -4
 5398 0004 8DB0     		sub	sp, sp, #52
 5399              		.cfi_def_cfa_offset 88
 5400 0006 0A90     		str	r0, [sp, #40]
 5401 0008 0B91     		str	r1, [sp, #44]
 5402 000a 1646     		mov	r6, r2
 5403 000c 0992     		str	r2, [sp, #36]
 5404 000e 9846     		mov	r8, r3
1323:../Bsp/OLED/GUISlim.c ****   int x,y;
ARM GAS  C:\Users\fish\AppData\Local\Temp\cc4JAs8f.s 			page 137


 5405              		.loc 1 1323 3 is_stmt 1 view .LVU1458
1324:../Bsp/OLED/GUISlim.c ****   int xOld;
 5406              		.loc 1 1324 3 view .LVU1459
1325:../Bsp/OLED/GUISlim.c ****   U32 _rx = rx;
 5407              		.loc 1 1325 3 view .LVU1460
1326:../Bsp/OLED/GUISlim.c ****   U32 _ry = ry;
 5408              		.loc 1 1326 3 view .LVU1461
 5409              	.LVL527:
1327:../Bsp/OLED/GUISlim.c ****   OutConst = _rx*_rx*_ry*_ry  /* Constant as explaint above */
 5410              		.loc 1 1327 3 view .LVU1462
1328:../Bsp/OLED/GUISlim.c ****             +(_rx*_rx*_ry>>1); /* To compensate for rounding */
 5411              		.loc 1 1328 3 view .LVU1463
1328:../Bsp/OLED/GUISlim.c ****             +(_rx*_rx*_ry>>1); /* To compensate for rounding */
 5412              		.loc 1 1328 17 is_stmt 0 view .LVU1464
 5413 0010 02FB02F3 		mul	r3, r2, r2
 5414              	.LVL528:
1328:../Bsp/OLED/GUISlim.c ****             +(_rx*_rx*_ry>>1); /* To compensate for rounding */
 5415              		.loc 1 1328 21 view .LVU1465
 5416 0014 08FB03F3 		mul	r3, r8, r3
1329:../Bsp/OLED/GUISlim.c ****   xOld = x = rx;
 5417              		.loc 1 1329 26 view .LVU1466
 5418 0018 5A08     		lsrs	r2, r3, #1
 5419              	.LVL529:
1329:../Bsp/OLED/GUISlim.c ****   xOld = x = rx;
 5420              		.loc 1 1329 13 view .LVU1467
 5421 001a 08FB032A 		mla	r10, r8, r3, r2
 5422              	.LVL530:
1330:../Bsp/OLED/GUISlim.c ****   for (y=0; y<=ry; y++) {
 5423              		.loc 1 1330 3 is_stmt 1 view .LVU1468
1331:../Bsp/OLED/GUISlim.c ****     if (y==ry) {
 5424              		.loc 1 1331 3 view .LVU1469
1331:../Bsp/OLED/GUISlim.c ****     if (y==ry) {
 5425              		.loc 1 1331 9 is_stmt 0 view .LVU1470
 5426 001e 4FF0000B 		mov	fp, #0
 5427 0022 5D46     		mov	r5, fp
1331:../Bsp/OLED/GUISlim.c ****     if (y==ry) {
 5428              		.loc 1 1331 3 view .LVU1471
 5429 0024 03E0     		b	.L422
 5430              	.LVL531:
 5431              	.L427:
1333:../Bsp/OLED/GUISlim.c ****     } else {
 5432              		.loc 1 1333 8 view .LVU1472
 5433 0026 0024     		movs	r4, #0
 5434              	.LVL532:
 5435              	.L423:
1342:../Bsp/OLED/GUISlim.c ****       SSD1306_DrawLine(x0-xOld,y0-y+1,x0-x,y0-y, COLOR_F);
 5436              		.loc 1 1342 5 is_stmt 1 view .LVU1473
1342:../Bsp/OLED/GUISlim.c ****       SSD1306_DrawLine(x0-xOld,y0-y+1,x0-x,y0-y, COLOR_F);
 5437              		.loc 1 1342 8 is_stmt 0 view .LVU1474
 5438 0028 CDB9     		cbnz	r5, .L431
 5439              	.LVL533:
 5440              	.L425:
1348:../Bsp/OLED/GUISlim.c ****   }
 5441              		.loc 1 1348 5 is_stmt 1 view .LVU1475
1331:../Bsp/OLED/GUISlim.c ****     if (y==ry) {
 5442              		.loc 1 1331 21 discriminator 2 view .LVU1476
 5443 002a 0135     		adds	r5, r5, #1
ARM GAS  C:\Users\fish\AppData\Local\Temp\cc4JAs8f.s 			page 138


 5444              	.LVL534:
1331:../Bsp/OLED/GUISlim.c ****     if (y==ry) {
 5445              		.loc 1 1331 21 is_stmt 0 discriminator 2 view .LVU1477
 5446 002c 2646     		mov	r6, r4
 5447              	.LVL535:
 5448              	.L422:
1331:../Bsp/OLED/GUISlim.c ****     if (y==ry) {
 5449              		.loc 1 1331 14 is_stmt 1 discriminator 1 view .LVU1478
 5450 002e 4545     		cmp	r5, r8
 5451 0030 60DC     		bgt	.L432
1332:../Bsp/OLED/GUISlim.c ****       x=0;
 5452              		.loc 1 1332 5 view .LVU1479
1332:../Bsp/OLED/GUISlim.c ****       x=0;
 5453              		.loc 1 1332 8 is_stmt 0 view .LVU1480
 5454 0032 4545     		cmp	r5, r8
 5455 0034 F7D0     		beq	.L427
1335:../Bsp/OLED/GUISlim.c ****       while (Sum = SumY + ((I32)(ry*ry))*((I32)(x*x)),
 5456              		.loc 1 1335 7 is_stmt 1 view .LVU1481
1335:../Bsp/OLED/GUISlim.c ****       while (Sum = SumY + ((I32)(ry*ry))*((I32)(x*x)),
 5457              		.loc 1 1335 22 is_stmt 0 view .LVU1482
 5458 0036 099B     		ldr	r3, [sp, #36]
 5459 0038 03FB03F1 		mul	r1, r3, r3
1335:../Bsp/OLED/GUISlim.c ****       while (Sum = SumY + ((I32)(ry*ry))*((I32)(x*x)),
 5460              		.loc 1 1335 36 view .LVU1483
 5461 003c 05FB05F3 		mul	r3, r5, r5
1335:../Bsp/OLED/GUISlim.c ****       while (Sum = SumY + ((I32)(ry*ry))*((I32)(x*x)),
 5462              		.loc 1 1335 12 view .LVU1484
 5463 0040 03FB01F1 		mul	r1, r3, r1
 5464              	.LVL536:
1336:../Bsp/OLED/GUISlim.c ****              (x>0) && (Sum>OutConst)) x--;
 5465              		.loc 1 1336 7 is_stmt 1 view .LVU1485
1336:../Bsp/OLED/GUISlim.c ****              (x>0) && (Sum>OutConst)) x--;
 5466              		.loc 1 1336 13 is_stmt 0 view .LVU1486
 5467 0044 3446     		mov	r4, r6
 5468              	.LVL537:
 5469              	.L424:
1336:../Bsp/OLED/GUISlim.c ****              (x>0) && (Sum>OutConst)) x--;
 5470              		.loc 1 1336 14 is_stmt 1 view .LVU1487
1336:../Bsp/OLED/GUISlim.c ****              (x>0) && (Sum>OutConst)) x--;
 5471              		.loc 1 1336 36 is_stmt 0 view .LVU1488
 5472 0046 08FB08F3 		mul	r3, r8, r8
1336:../Bsp/OLED/GUISlim.c ****              (x>0) && (Sum>OutConst)) x--;
 5473              		.loc 1 1336 50 view .LVU1489
 5474 004a 04FB04F2 		mul	r2, r4, r4
1336:../Bsp/OLED/GUISlim.c ****              (x>0) && (Sum>OutConst)) x--;
 5475              		.loc 1 1336 18 view .LVU1490
 5476 004e 02FB0313 		mla	r3, r2, r3, r1
 5477              	.LVL538:
1337:../Bsp/OLED/GUISlim.c ****     }
 5478              		.loc 1 1337 20 discriminator 1 view .LVU1491
 5479 0052 002C     		cmp	r4, #0
 5480 0054 E8DD     		ble	.L423
1337:../Bsp/OLED/GUISlim.c ****     }
 5481              		.loc 1 1337 20 discriminator 2 view .LVU1492
 5482 0056 9A45     		cmp	r10, r3
 5483 0058 E6DA     		bge	.L423
1337:../Bsp/OLED/GUISlim.c ****     }
ARM GAS  C:\Users\fish\AppData\Local\Temp\cc4JAs8f.s 			page 139


 5484              		.loc 1 1337 39 is_stmt 1 view .LVU1493
1337:../Bsp/OLED/GUISlim.c ****     }
 5485              		.loc 1 1337 40 is_stmt 0 view .LVU1494
 5486 005a 013C     		subs	r4, r4, #1
 5487              	.LVL539:
1337:../Bsp/OLED/GUISlim.c ****     }
 5488              		.loc 1 1337 40 view .LVU1495
 5489 005c F3E7     		b	.L424
 5490              	.LVL540:
 5491              	.L431:
1343:../Bsp/OLED/GUISlim.c ****       SSD1306_DrawLine(x0-xOld,y0+y-1,x0-x,y0+y, COLOR_F);
 5492              		.loc 1 1343 7 is_stmt 1 view .LVU1496
 5493 005e BDF82830 		ldrh	r3, [sp, #40]
 5494 0062 1FFA86F9 		uxth	r9, r6
 5495 0066 1F46     		mov	r7, r3
 5496 0068 A3EB0903 		sub	r3, r3, r9
 5497 006c 98B2     		uxth	r0, r3
1343:../Bsp/OLED/GUISlim.c ****       SSD1306_DrawLine(x0-xOld,y0+y-1,x0-x,y0+y, COLOR_F);
 5498              		.loc 1 1343 34 is_stmt 0 view .LVU1497
 5499 006e BDF82C60 		ldrh	r6, [sp, #44]
 5500              	.LVL541:
1343:../Bsp/OLED/GUISlim.c ****       SSD1306_DrawLine(x0-xOld,y0+y-1,x0-x,y0+y, COLOR_F);
 5501              		.loc 1 1343 34 view .LVU1498
 5502 0072 ABB2     		uxth	r3, r5
 5503 0074 0493     		str	r3, [sp, #16]
 5504 0076 F31A     		subs	r3, r6, r3
 5505 0078 9AB2     		uxth	r2, r3
1343:../Bsp/OLED/GUISlim.c ****       SSD1306_DrawLine(x0-xOld,y0+y-1,x0-x,y0+y, COLOR_F);
 5506              		.loc 1 1343 7 view .LVU1499
 5507 007a 531C     		adds	r3, r2, #1
 5508 007c 99B2     		uxth	r1, r3
 5509 007e 0691     		str	r1, [sp, #24]
 5510 0080 A1B2     		uxth	r1, r4
 5511 0082 0791     		str	r1, [sp, #28]
 5512 0084 7B1A     		subs	r3, r7, r1
 5513 0086 99B2     		uxth	r1, r3
 5514 0088 DFF870B0 		ldr	fp, .L433
 5515 008c 9BF81C30 		ldrb	r3, [fp, #28]	@ zero_extendqisi2
 5516 0090 0093     		str	r3, [sp]
 5517 0092 0592     		str	r2, [sp, #20]
 5518 0094 1346     		mov	r3, r2
 5519 0096 0891     		str	r1, [sp, #32]
 5520 0098 0A46     		mov	r2, r1
 5521 009a 0699     		ldr	r1, [sp, #24]
 5522 009c 0390     		str	r0, [sp, #12]
 5523 009e FFF7FEFF 		bl	SSD1306_DrawLine
 5524              	.LVL542:
1344:../Bsp/OLED/GUISlim.c ****       SSD1306_DrawLine(x0+xOld,y0-y+1,x0+x,y0-y, COLOR_F);
 5525              		.loc 1 1344 7 is_stmt 1 view .LVU1500
1344:../Bsp/OLED/GUISlim.c ****       SSD1306_DrawLine(x0+xOld,y0-y+1,x0+x,y0-y, COLOR_F);
 5526              		.loc 1 1344 34 is_stmt 0 view .LVU1501
 5527 00a2 049B     		ldr	r3, [sp, #16]
 5528 00a4 1E44     		add	r6, r6, r3
 5529 00a6 B6B2     		uxth	r6, r6
1344:../Bsp/OLED/GUISlim.c ****       SSD1306_DrawLine(x0+xOld,y0-y+1,x0+x,y0-y, COLOR_F);
 5530              		.loc 1 1344 7 view .LVU1502
 5531 00a8 731E     		subs	r3, r6, #1
ARM GAS  C:\Users\fish\AppData\Local\Temp\cc4JAs8f.s 			page 140


 5532 00aa 9BB2     		uxth	r3, r3
 5533 00ac 1846     		mov	r0, r3
 5534 00ae 9BF81C30 		ldrb	r3, [fp, #28]	@ zero_extendqisi2
 5535 00b2 0093     		str	r3, [sp]
 5536 00b4 3346     		mov	r3, r6
 5537 00b6 089A     		ldr	r2, [sp, #32]
 5538 00b8 0490     		str	r0, [sp, #16]
 5539 00ba 0146     		mov	r1, r0
 5540 00bc 0398     		ldr	r0, [sp, #12]
 5541 00be FFF7FEFF 		bl	SSD1306_DrawLine
 5542              	.LVL543:
1345:../Bsp/OLED/GUISlim.c ****       SSD1306_DrawLine(x0+xOld,y0+y-1,x0+x,y0+y, COLOR_F);
 5543              		.loc 1 1345 7 is_stmt 1 view .LVU1503
 5544 00c2 B944     		add	r9, r9, r7
 5545 00c4 1FFA89F9 		uxth	r9, r9
 5546 00c8 0798     		ldr	r0, [sp, #28]
 5547 00ca 0744     		add	r7, r7, r0
 5548 00cc BFB2     		uxth	r7, r7
 5549 00ce 9BF81C30 		ldrb	r3, [fp, #28]	@ zero_extendqisi2
 5550 00d2 0093     		str	r3, [sp]
 5551 00d4 059B     		ldr	r3, [sp, #20]
 5552 00d6 3A46     		mov	r2, r7
 5553 00d8 0699     		ldr	r1, [sp, #24]
 5554 00da 4846     		mov	r0, r9
 5555 00dc FFF7FEFF 		bl	SSD1306_DrawLine
 5556              	.LVL544:
1346:../Bsp/OLED/GUISlim.c ****     }
 5557              		.loc 1 1346 7 view .LVU1504
 5558 00e0 9BF81C30 		ldrb	r3, [fp, #28]	@ zero_extendqisi2
 5559 00e4 0093     		str	r3, [sp]
 5560 00e6 3346     		mov	r3, r6
 5561 00e8 3A46     		mov	r2, r7
 5562 00ea 0499     		ldr	r1, [sp, #16]
 5563 00ec 4846     		mov	r0, r9
 5564 00ee FFF7FEFF 		bl	SSD1306_DrawLine
 5565              	.LVL545:
 5566 00f2 9AE7     		b	.L425
 5567              	.LVL546:
 5568              	.L432:
1350:../Bsp/OLED/GUISlim.c **** 
 5569              		.loc 1 1350 1 is_stmt 0 view .LVU1505
 5570 00f4 0DB0     		add	sp, sp, #52
 5571              		.cfi_def_cfa_offset 36
 5572              		@ sp needed
 5573 00f6 BDE8F08F 		pop	{r4, r5, r6, r7, r8, r9, r10, fp, pc}
 5574              	.LVL547:
 5575              	.L434:
1350:../Bsp/OLED/GUISlim.c **** 
 5576              		.loc 1 1350 1 view .LVU1506
 5577 00fa 00BF     		.align	2
 5578              	.L433:
 5579 00fc 00000000 		.word	GUI_Context
 5580              		.cfi_endproc
 5581              	.LFE327:
 5583              		.section	.text.GUI_DrawEllipse,"ax",%progbits
 5584              		.align	1
 5585              		.global	GUI_DrawEllipse
ARM GAS  C:\Users\fish\AppData\Local\Temp\cc4JAs8f.s 			page 141


 5586              		.syntax unified
 5587              		.thumb
 5588              		.thumb_func
 5590              	GUI_DrawEllipse:
 5591              	.LVL548:
 5592              	.LFB328:
1356:../Bsp/OLED/GUISlim.c ****   GUI_LOCK();
 5593              		.loc 1 1356 54 is_stmt 1 view -0
 5594              		.cfi_startproc
 5595              		@ args = 0, pretend = 0, frame = 0
 5596              		@ frame_needed = 0, uses_anonymous_args = 0
1356:../Bsp/OLED/GUISlim.c ****   GUI_LOCK();
 5597              		.loc 1 1356 54 is_stmt 0 view .LVU1508
 5598 0000 08B5     		push	{r3, lr}
 5599              		.cfi_def_cfa_offset 8
 5600              		.cfi_offset 3, -8
 5601              		.cfi_offset 14, -4
1357:../Bsp/OLED/GUISlim.c ****   GL_DrawEllipse(x0, y0, rx, ry);
 5602              		.loc 1 1357 13 is_stmt 1 view .LVU1509
1358:../Bsp/OLED/GUISlim.c ****   GUI_UNLOCK();
 5603              		.loc 1 1358 3 view .LVU1510
 5604 0002 FFF7FEFF 		bl	GL_DrawEllipse
 5605              	.LVL549:
1359:../Bsp/OLED/GUISlim.c **** }
 5606              		.loc 1 1359 15 view .LVU1511
1360:../Bsp/OLED/GUISlim.c **** 
 5607              		.loc 1 1360 1 is_stmt 0 view .LVU1512
 5608 0006 08BD     		pop	{r3, pc}
 5609              		.cfi_endproc
 5610              	.LFE328:
 5612              		.section	.text.GUI_DrawHLine,"ax",%progbits
 5613              		.align	1
 5614              		.global	GUI_DrawHLine
 5615              		.syntax unified
 5616              		.thumb
 5617              		.thumb_func
 5619              	GUI_DrawHLine:
 5620              	.LVL550:
 5621              	.LFB329:
1362:../Bsp/OLED/GUISlim.c ****   GUI_LOCK();
 5622              		.loc 1 1362 44 is_stmt 1 view -0
 5623              		.cfi_startproc
 5624              		@ args = 0, pretend = 0, frame = 0
 5625              		@ frame_needed = 0, uses_anonymous_args = 0
1362:../Bsp/OLED/GUISlim.c ****   GUI_LOCK();
 5626              		.loc 1 1362 44 is_stmt 0 view .LVU1514
 5627 0000 08B5     		push	{r3, lr}
 5628              		.cfi_def_cfa_offset 8
 5629              		.cfi_offset 3, -8
 5630              		.cfi_offset 14, -4
 5631 0002 0B46     		mov	r3, r1
1363:../Bsp/OLED/GUISlim.c ****   LCD_DrawHLine(x0, y0, x1);
 5632              		.loc 1 1363 13 is_stmt 1 view .LVU1515
1364:../Bsp/OLED/GUISlim.c ****   GUI_UNLOCK();
 5633              		.loc 1 1364 3 view .LVU1516
 5634 0004 0146     		mov	r1, r0
 5635              	.LVL551:
ARM GAS  C:\Users\fish\AppData\Local\Temp\cc4JAs8f.s 			page 142


1364:../Bsp/OLED/GUISlim.c ****   GUI_UNLOCK();
 5636              		.loc 1 1364 3 is_stmt 0 view .LVU1517
 5637 0006 1846     		mov	r0, r3
 5638              	.LVL552:
1364:../Bsp/OLED/GUISlim.c ****   GUI_UNLOCK();
 5639              		.loc 1 1364 3 view .LVU1518
 5640 0008 FFF7FEFF 		bl	LCD_DrawHLine
 5641              	.LVL553:
1365:../Bsp/OLED/GUISlim.c **** }
 5642              		.loc 1 1365 15 is_stmt 1 view .LVU1519
1366:../Bsp/OLED/GUISlim.c **** 
 5643              		.loc 1 1366 1 is_stmt 0 view .LVU1520
 5644 000c 08BD     		pop	{r3, pc}
 5645              		.cfi_endproc
 5646              	.LFE329:
 5648              		.section	.text.GUI_DrawVLine,"ax",%progbits
 5649              		.align	1
 5650              		.global	GUI_DrawVLine
 5651              		.syntax unified
 5652              		.thumb
 5653              		.thumb_func
 5655              	GUI_DrawVLine:
 5656              	.LVL554:
 5657              	.LFB330:
1368:../Bsp/OLED/GUISlim.c ****   GUI_LOCK();
 5658              		.loc 1 1368 44 is_stmt 1 view -0
 5659              		.cfi_startproc
 5660              		@ args = 0, pretend = 0, frame = 0
 5661              		@ frame_needed = 0, uses_anonymous_args = 0
1368:../Bsp/OLED/GUISlim.c ****   GUI_LOCK();
 5662              		.loc 1 1368 44 is_stmt 0 view .LVU1522
 5663 0000 08B5     		push	{r3, lr}
 5664              		.cfi_def_cfa_offset 8
 5665              		.cfi_offset 3, -8
 5666              		.cfi_offset 14, -4
1369:../Bsp/OLED/GUISlim.c ****   LCD_DrawVLine(x0, y0, y1);
 5667              		.loc 1 1369 13 is_stmt 1 view .LVU1523
1370:../Bsp/OLED/GUISlim.c ****   GUI_UNLOCK();
 5668              		.loc 1 1370 3 view .LVU1524
 5669 0002 FFF7FEFF 		bl	LCD_DrawVLine
 5670              	.LVL555:
1371:../Bsp/OLED/GUISlim.c **** }
 5671              		.loc 1 1371 15 view .LVU1525
1372:../Bsp/OLED/GUISlim.c **** 
 5672              		.loc 1 1372 1 is_stmt 0 view .LVU1526
 5673 0006 08BD     		pop	{r3, pc}
 5674              		.cfi_endproc
 5675              	.LFE330:
 5677              		.section	.text.GUI_DrawLine,"ax",%progbits
 5678              		.align	1
 5679              		.global	GUI_DrawLine
 5680              		.syntax unified
 5681              		.thumb
 5682              		.thumb_func
 5684              	GUI_DrawLine:
 5685              	.LVL556:
 5686              	.LFB331:
ARM GAS  C:\Users\fish\AppData\Local\Temp\cc4JAs8f.s 			page 143


1374:../Bsp/OLED/GUISlim.c ****   GUI_LOCK();
 5687              		.loc 1 1374 51 is_stmt 1 view -0
 5688              		.cfi_startproc
 5689              		@ args = 0, pretend = 0, frame = 0
 5690              		@ frame_needed = 0, uses_anonymous_args = 0
1374:../Bsp/OLED/GUISlim.c ****   GUI_LOCK();
 5691              		.loc 1 1374 51 is_stmt 0 view .LVU1528
 5692 0000 10B5     		push	{r4, lr}
 5693              		.cfi_def_cfa_offset 8
 5694              		.cfi_offset 4, -8
 5695              		.cfi_offset 14, -4
 5696 0002 82B0     		sub	sp, sp, #8
 5697              		.cfi_def_cfa_offset 16
1375:../Bsp/OLED/GUISlim.c ****   SSD1306_DrawLine(x0, y0, x1, y1, COLOR_F);
 5698              		.loc 1 1375 13 is_stmt 1 view .LVU1529
1376:../Bsp/OLED/GUISlim.c ****   GUI_UNLOCK();
 5699              		.loc 1 1376 3 view .LVU1530
 5700 0004 054C     		ldr	r4, .L443
 5701 0006 247F     		ldrb	r4, [r4, #28]	@ zero_extendqisi2
 5702 0008 0094     		str	r4, [sp]
 5703 000a 9BB2     		uxth	r3, r3
 5704              	.LVL557:
1376:../Bsp/OLED/GUISlim.c ****   GUI_UNLOCK();
 5705              		.loc 1 1376 3 is_stmt 0 view .LVU1531
 5706 000c 92B2     		uxth	r2, r2
 5707              	.LVL558:
1376:../Bsp/OLED/GUISlim.c ****   GUI_UNLOCK();
 5708              		.loc 1 1376 3 view .LVU1532
 5709 000e 89B2     		uxth	r1, r1
 5710              	.LVL559:
1376:../Bsp/OLED/GUISlim.c ****   GUI_UNLOCK();
 5711              		.loc 1 1376 3 view .LVU1533
 5712 0010 80B2     		uxth	r0, r0
 5713              	.LVL560:
1376:../Bsp/OLED/GUISlim.c ****   GUI_UNLOCK();
 5714              		.loc 1 1376 3 view .LVU1534
 5715 0012 FFF7FEFF 		bl	SSD1306_DrawLine
 5716              	.LVL561:
1377:../Bsp/OLED/GUISlim.c **** }
 5717              		.loc 1 1377 15 is_stmt 1 view .LVU1535
1378:../Bsp/OLED/GUISlim.c **** 
 5718              		.loc 1 1378 1 is_stmt 0 view .LVU1536
 5719 0016 02B0     		add	sp, sp, #8
 5720              		.cfi_def_cfa_offset 8
 5721              		@ sp needed
 5722 0018 10BD     		pop	{r4, pc}
 5723              	.L444:
 5724 001a 00BF     		.align	2
 5725              	.L443:
 5726 001c 00000000 		.word	GUI_Context
 5727              		.cfi_endproc
 5728              	.LFE331:
 5730              		.section	.text.GUI_DrawPixel,"ax",%progbits
 5731              		.align	1
 5732              		.global	GUI_DrawPixel
 5733              		.syntax unified
 5734              		.thumb
ARM GAS  C:\Users\fish\AppData\Local\Temp\cc4JAs8f.s 			page 144


 5735              		.thumb_func
 5737              	GUI_DrawPixel:
 5738              	.LVL562:
 5739              	.LFB332:
1380:../Bsp/OLED/GUISlim.c **** 	LCD_DrawPixel(x, y);
 5740              		.loc 1 1380 34 is_stmt 1 view -0
 5741              		.cfi_startproc
 5742              		@ args = 0, pretend = 0, frame = 0
 5743              		@ frame_needed = 0, uses_anonymous_args = 0
1380:../Bsp/OLED/GUISlim.c **** 	LCD_DrawPixel(x, y);
 5744              		.loc 1 1380 34 is_stmt 0 view .LVU1538
 5745 0000 08B5     		push	{r3, lr}
 5746              		.cfi_def_cfa_offset 8
 5747              		.cfi_offset 3, -8
 5748              		.cfi_offset 14, -4
1381:../Bsp/OLED/GUISlim.c **** }
 5749              		.loc 1 1381 2 is_stmt 1 view .LVU1539
 5750 0002 FFF7FEFF 		bl	LCD_DrawPixel
 5751              	.LVL563:
1382:../Bsp/OLED/GUISlim.c **** void GUI_DrawPoint (int x, int y, GUI_COLOR c){
 5752              		.loc 1 1382 1 is_stmt 0 view .LVU1540
 5753 0006 08BD     		pop	{r3, pc}
 5754              		.cfi_endproc
 5755              	.LFE332:
 5757              		.section	.text.GUI_DrawPoint,"ax",%progbits
 5758              		.align	1
 5759              		.global	GUI_DrawPoint
 5760              		.syntax unified
 5761              		.thumb
 5762              		.thumb_func
 5764              	GUI_DrawPoint:
 5765              	.LVL564:
 5766              	.LFB333:
1383:../Bsp/OLED/GUISlim.c ****   RETURN_IF_Y_OUT();
 5767              		.loc 1 1383 47 is_stmt 1 view -0
 5768              		.cfi_startproc
 5769              		@ args = 0, pretend = 0, frame = 0
 5770              		@ frame_needed = 0, uses_anonymous_args = 0
1383:../Bsp/OLED/GUISlim.c ****   RETURN_IF_Y_OUT();
 5771              		.loc 1 1383 47 is_stmt 0 view .LVU1542
 5772 0000 08B5     		push	{r3, lr}
 5773              		.cfi_def_cfa_offset 8
 5774              		.cfi_offset 3, -8
 5775              		.cfi_offset 14, -4
1384:../Bsp/OLED/GUISlim.c ****   RETURN_IF_X_OUT();
 5776              		.loc 1 1384 3 is_stmt 1 view .LVU1543
 5777 0002 0D4B     		ldr	r3, .L451
 5778 0004 B3F90230 		ldrsh	r3, [r3, #2]
 5779 0008 8B42     		cmp	r3, r1
 5780 000a 0EDC     		bgt	.L447
1384:../Bsp/OLED/GUISlim.c ****   RETURN_IF_X_OUT();
 5781              		.loc 1 1384 3 discriminator 2 view .LVU1544
 5782 000c 0A4B     		ldr	r3, .L451
 5783 000e B3F90630 		ldrsh	r3, [r3, #6]
 5784 0012 8B42     		cmp	r3, r1
 5785 0014 09DB     		blt	.L447
1384:../Bsp/OLED/GUISlim.c ****   RETURN_IF_X_OUT();
ARM GAS  C:\Users\fish\AppData\Local\Temp\cc4JAs8f.s 			page 145


 5786              		.loc 1 1384 20 discriminator 4 view .LVU1545
1385:../Bsp/OLED/GUISlim.c **** 	SSD1306_DrawPixel(x, y, c);
 5787              		.loc 1 1385 3 view .LVU1546
 5788 0016 084B     		ldr	r3, .L451
 5789 0018 B3F90030 		ldrsh	r3, [r3]
 5790 001c 8342     		cmp	r3, r0
 5791 001e 04DC     		bgt	.L447
1385:../Bsp/OLED/GUISlim.c **** 	SSD1306_DrawPixel(x, y, c);
 5792              		.loc 1 1385 3 discriminator 2 view .LVU1547
 5793 0020 054B     		ldr	r3, .L451
 5794 0022 B3F90430 		ldrsh	r3, [r3, #4]
 5795 0026 8342     		cmp	r3, r0
 5796 0028 00DA     		bge	.L450
 5797              	.LVL565:
 5798              	.L447:
1387:../Bsp/OLED/GUISlim.c **** 
 5799              		.loc 1 1387 1 is_stmt 0 view .LVU1548
 5800 002a 08BD     		pop	{r3, pc}
 5801              	.LVL566:
 5802              	.L450:
1385:../Bsp/OLED/GUISlim.c **** 	SSD1306_DrawPixel(x, y, c);
 5803              		.loc 1 1385 20 is_stmt 1 discriminator 4 view .LVU1549
1386:../Bsp/OLED/GUISlim.c **** }
 5804              		.loc 1 1386 2 view .LVU1550
 5805 002c 89B2     		uxth	r1, r1
 5806              	.LVL567:
1386:../Bsp/OLED/GUISlim.c **** }
 5807              		.loc 1 1386 2 is_stmt 0 view .LVU1551
 5808 002e 80B2     		uxth	r0, r0
 5809              	.LVL568:
1386:../Bsp/OLED/GUISlim.c **** }
 5810              		.loc 1 1386 2 view .LVU1552
 5811 0030 FFF7FEFF 		bl	SSD1306_DrawPixel
 5812              	.LVL569:
1386:../Bsp/OLED/GUISlim.c **** }
 5813              		.loc 1 1386 2 view .LVU1553
 5814 0034 F9E7     		b	.L447
 5815              	.L452:
 5816 0036 00BF     		.align	2
 5817              	.L451:
 5818 0038 00000000 		.word	GUI_Context
 5819              		.cfi_endproc
 5820              	.LFE333:
 5822              		.section	.text.GUI_DrawRect,"ax",%progbits
 5823              		.align	1
 5824              		.global	GUI_DrawRect
 5825              		.syntax unified
 5826              		.thumb
 5827              		.thumb_func
 5829              	GUI_DrawRect:
 5830              	.LVL570:
 5831              	.LFB335:
1395:../Bsp/OLED/GUISlim.c **** 
1396:../Bsp/OLED/GUISlim.c **** /*********************************************************************
1397:../Bsp/OLED/GUISlim.c **** *
1398:../Bsp/OLED/GUISlim.c **** *       GUI_DrawRect
1399:../Bsp/OLED/GUISlim.c **** */
ARM GAS  C:\Users\fish\AppData\Local\Temp\cc4JAs8f.s 			page 146


1400:../Bsp/OLED/GUISlim.c **** void GUI_DrawRect(int x0, int y0, int x1, int y1) {
 5832              		.loc 1 1400 51 is_stmt 1 view -0
 5833              		.cfi_startproc
 5834              		@ args = 0, pretend = 0, frame = 0
 5835              		@ frame_needed = 0, uses_anonymous_args = 0
 5836              		.loc 1 1400 51 is_stmt 0 view .LVU1555
 5837 0000 08B5     		push	{r3, lr}
 5838              		.cfi_def_cfa_offset 8
 5839              		.cfi_offset 3, -8
 5840              		.cfi_offset 14, -4
1401:../Bsp/OLED/GUISlim.c ****   GUI_LOCK();
 5841              		.loc 1 1401 13 is_stmt 1 view .LVU1556
1402:../Bsp/OLED/GUISlim.c ****   _DrawRect(x0, y0, x1, y1);
 5842              		.loc 1 1402 3 view .LVU1557
 5843 0002 FFF7FEFF 		bl	_DrawRect
 5844              	.LVL571:
1403:../Bsp/OLED/GUISlim.c ****   GUI_UNLOCK();
 5845              		.loc 1 1403 15 view .LVU1558
1404:../Bsp/OLED/GUISlim.c **** }
 5846              		.loc 1 1404 1 is_stmt 0 view .LVU1559
 5847 0006 08BD     		pop	{r3, pc}
 5848              		.cfi_endproc
 5849              	.LFE335:
 5851              		.section	.text.GUI_FillRect,"ax",%progbits
 5852              		.align	1
 5853              		.global	GUI_FillRect
 5854              		.syntax unified
 5855              		.thumb
 5856              		.thumb_func
 5858              	GUI_FillRect:
 5859              	.LVL572:
 5860              	.LFB336:
1405:../Bsp/OLED/GUISlim.c **** 
1406:../Bsp/OLED/GUISlim.c **** void GUI_FillRect(int x0, int y0, int x1, int y1) {
 5861              		.loc 1 1406 51 is_stmt 1 view -0
 5862              		.cfi_startproc
 5863              		@ args = 0, pretend = 0, frame = 0
 5864              		@ frame_needed = 0, uses_anonymous_args = 0
 5865              		.loc 1 1406 51 is_stmt 0 view .LVU1561
 5866 0000 F8B5     		push	{r3, r4, r5, r6, r7, lr}
 5867              		.cfi_def_cfa_offset 24
 5868              		.cfi_offset 3, -24
 5869              		.cfi_offset 4, -20
 5870              		.cfi_offset 5, -16
 5871              		.cfi_offset 6, -12
 5872              		.cfi_offset 7, -8
 5873              		.cfi_offset 14, -4
 5874 0002 0746     		mov	r7, r0
 5875 0004 0C46     		mov	r4, r1
 5876 0006 1646     		mov	r6, r2
 5877 0008 1D46     		mov	r5, r3
1407:../Bsp/OLED/GUISlim.c ****   GUI_LOCK();
 5878              		.loc 1 1407 13 is_stmt 1 view .LVU1562
1408:../Bsp/OLED/GUISlim.c **** 	int y;
 5879              		.loc 1 1408 2 view .LVU1563
1409:../Bsp/OLED/GUISlim.c **** 	for (y = y0; y < y1; ++y)
 5880              		.loc 1 1409 2 view .LVU1564
ARM GAS  C:\Users\fish\AppData\Local\Temp\cc4JAs8f.s 			page 147


 5881              	.LVL573:
 5882              		.loc 1 1409 2 is_stmt 0 view .LVU1565
 5883 000a 05E0     		b	.L456
 5884              	.LVL574:
 5885              	.L457:
1410:../Bsp/OLED/GUISlim.c **** 		LCD_DrawHLine(x0, y, x1);
 5886              		.loc 1 1410 3 is_stmt 1 view .LVU1566
 5887 000c 3246     		mov	r2, r6
 5888 000e 2146     		mov	r1, r4
 5889 0010 3846     		mov	r0, r7
 5890 0012 FFF7FEFF 		bl	LCD_DrawHLine
 5891              	.LVL575:
1409:../Bsp/OLED/GUISlim.c **** 	for (y = y0; y < y1; ++y)
 5892              		.loc 1 1409 23 discriminator 3 view .LVU1567
 5893 0016 0134     		adds	r4, r4, #1
 5894              	.LVL576:
 5895              	.L456:
1409:../Bsp/OLED/GUISlim.c **** 	for (y = y0; y < y1; ++y)
 5896              		.loc 1 1409 17 discriminator 1 view .LVU1568
 5897 0018 AC42     		cmp	r4, r5
 5898 001a F7DB     		blt	.L457
1411:../Bsp/OLED/GUISlim.c **** 
1412:../Bsp/OLED/GUISlim.c **** //  SSD1306_DrawFilledRectangle(x0,y0,x1-x0,y1-y0, c);
1413:../Bsp/OLED/GUISlim.c ****   GUI_UNLOCK();
1414:../Bsp/OLED/GUISlim.c **** }
 5899              		.loc 1 1414 1 is_stmt 0 view .LVU1569
 5900 001c F8BD     		pop	{r3, r4, r5, r6, r7, pc}
 5901              		.loc 1 1414 1 view .LVU1570
 5902              		.cfi_endproc
 5903              	.LFE336:
 5905              		.section	.text.GUI_SetColor,"ax",%progbits
 5906              		.align	1
 5907              		.global	GUI_SetColor
 5908              		.syntax unified
 5909              		.thumb
 5910              		.thumb_func
 5912              	GUI_SetColor:
 5913              	.LVL577:
 5914              	.LFB337:
1415:../Bsp/OLED/GUISlim.c **** 
1416:../Bsp/OLED/GUISlim.c **** void GUI_SetColor(GUI_COLOR color) {
 5915              		.loc 1 1416 36 is_stmt 1 view -0
 5916              		.cfi_startproc
 5917              		@ args = 0, pretend = 0, frame = 0
 5918              		@ frame_needed = 0, uses_anonymous_args = 0
 5919              		@ link register save eliminated.
1417:../Bsp/OLED/GUISlim.c ****   GUI_LOCK(); {
 5920              		.loc 1 1417 13 view .LVU1572
1418:../Bsp/OLED/GUISlim.c ****     if (GUI_Context.DrawColor != color)
 5921              		.loc 1 1418 5 view .LVU1573
 5922              		.loc 1 1418 20 is_stmt 0 view .LVU1574
 5923 0000 034B     		ldr	r3, .L461
 5924 0002 1B7F     		ldrb	r3, [r3, #28]	@ zero_extendqisi2
 5925              		.loc 1 1418 8 view .LVU1575
 5926 0004 8342     		cmp	r3, r0
 5927 0006 01D0     		beq	.L459
1419:../Bsp/OLED/GUISlim.c **** 			GUI_Context.DrawColor = color;
ARM GAS  C:\Users\fish\AppData\Local\Temp\cc4JAs8f.s 			page 148


 5928              		.loc 1 1419 4 is_stmt 1 view .LVU1576
 5929              		.loc 1 1419 26 is_stmt 0 view .LVU1577
 5930 0008 014B     		ldr	r3, .L461
 5931 000a 1877     		strb	r0, [r3, #28]
1420:../Bsp/OLED/GUISlim.c ****   } GUI_UNLOCK();
 5932              		.loc 1 1420 17 is_stmt 1 view .LVU1578
 5933              	.L459:
1421:../Bsp/OLED/GUISlim.c **** }
 5934              		.loc 1 1421 1 is_stmt 0 view .LVU1579
 5935 000c 7047     		bx	lr
 5936              	.L462:
 5937 000e 00BF     		.align	2
 5938              	.L461:
 5939 0010 00000000 		.word	GUI_Context
 5940              		.cfi_endproc
 5941              	.LFE337:
 5943              		.section	.text.GUI_GetColor,"ax",%progbits
 5944              		.align	1
 5945              		.global	GUI_GetColor
 5946              		.syntax unified
 5947              		.thumb
 5948              		.thumb_func
 5950              	GUI_GetColor:
 5951              	.LFB338:
1422:../Bsp/OLED/GUISlim.c **** 
1423:../Bsp/OLED/GUISlim.c **** GUI_COLOR GUI_GetColor(void) {
 5952              		.loc 1 1423 30 is_stmt 1 view -0
 5953              		.cfi_startproc
 5954              		@ args = 0, pretend = 0, frame = 0
 5955              		@ frame_needed = 0, uses_anonymous_args = 0
 5956              		@ link register save eliminated.
1424:../Bsp/OLED/GUISlim.c ****   GUI_COLOR r;
 5957              		.loc 1 1424 3 view .LVU1581
1425:../Bsp/OLED/GUISlim.c ****   GUI_LOCK();
 5958              		.loc 1 1425 13 view .LVU1582
1426:../Bsp/OLED/GUISlim.c ****   r = GUI_Context.DrawColor;
 5959              		.loc 1 1426 3 view .LVU1583
 5960              	.LVL578:
1427:../Bsp/OLED/GUISlim.c ****   GUI_UNLOCK();
 5961              		.loc 1 1427 15 view .LVU1584
1428:../Bsp/OLED/GUISlim.c ****   return r;
 5962              		.loc 1 1428 3 view .LVU1585
1429:../Bsp/OLED/GUISlim.c **** }
 5963              		.loc 1 1429 1 is_stmt 0 view .LVU1586
 5964 0000 014B     		ldr	r3, .L464
 5965 0002 187F     		ldrb	r0, [r3, #28]	@ zero_extendqisi2
 5966 0004 7047     		bx	lr
 5967              	.L465:
 5968 0006 00BF     		.align	2
 5969              	.L464:
 5970 0008 00000000 		.word	GUI_Context
 5971              		.cfi_endproc
 5972              	.LFE338:
 5974              		.section	.text.utf8_string_to_gbk_with_table,"ax",%progbits
 5975              		.align	1
 5976              		.global	utf8_string_to_gbk_with_table
 5977              		.syntax unified
ARM GAS  C:\Users\fish\AppData\Local\Temp\cc4JAs8f.s 			page 149


 5978              		.thumb
 5979              		.thumb_func
 5981              	utf8_string_to_gbk_with_table:
 5982              	.LVL579:
 5983              	.LFB339:
1430:../Bsp/OLED/GUISlim.c **** 
1431:../Bsp/OLED/GUISlim.c **** char* utf8_string_to_gbk_with_table(const char* utf8_str) {
 5984              		.loc 1 1431 59 is_stmt 1 view -0
 5985              		.cfi_startproc
 5986              		@ args = 0, pretend = 0, frame = 16
 5987              		@ frame_needed = 0, uses_anonymous_args = 0
 5988              		.loc 1 1431 59 is_stmt 0 view .LVU1588
 5989 0000 2DE9F04F 		push	{r4, r5, r6, r7, r8, r9, r10, fp, lr}
 5990              		.cfi_def_cfa_offset 36
 5991              		.cfi_offset 4, -36
 5992              		.cfi_offset 5, -32
 5993              		.cfi_offset 6, -28
 5994              		.cfi_offset 7, -24
 5995              		.cfi_offset 8, -20
 5996              		.cfi_offset 9, -16
 5997              		.cfi_offset 10, -12
 5998              		.cfi_offset 11, -8
 5999              		.cfi_offset 14, -4
 6000 0004 85B0     		sub	sp, sp, #20
 6001              		.cfi_def_cfa_offset 56
1432:../Bsp/OLED/GUISlim.c **** 		static char output_buf[1024] = {0};
 6002              		.loc 1 1432 3 is_stmt 1 view .LVU1589
1433:../Bsp/OLED/GUISlim.c ****     if (!utf8_str) return NULL;
 6003              		.loc 1 1433 5 view .LVU1590
 6004              		.loc 1 1433 8 is_stmt 0 view .LVU1591
 6005 0006 8246     		mov	r10, r0
 6006 0008 0028     		cmp	r0, #0
 6007 000a 74D0     		beq	.L466
1434:../Bsp/OLED/GUISlim.c **** 
1435:../Bsp/OLED/GUISlim.c ****     size_t input_len = strlen(utf8_str);
 6008              		.loc 1 1435 5 is_stmt 1 view .LVU1592
 6009              		.loc 1 1435 24 is_stmt 0 view .LVU1593
 6010 000c FFF7FEFF 		bl	strlen
 6011              	.LVL580:
 6012              		.loc 1 1435 24 view .LVU1594
 6013 0010 0290     		str	r0, [sp, #8]
 6014              	.LVL581:
1436:../Bsp/OLED/GUISlim.c ****     if (input_len > 256)
 6015              		.loc 1 1436 5 is_stmt 1 view .LVU1595
 6016              		.loc 1 1436 8 is_stmt 0 view .LVU1596
 6017 0012 B0F5807F 		cmp	r0, #256
 6018 0016 71D8     		bhi	.L482
1437:../Bsp/OLED/GUISlim.c ****         return NULL;
1438:../Bsp/OLED/GUISlim.c ****     
1439:../Bsp/OLED/GUISlim.c ****     char* out_ptr = output_buf;
 6019              		.loc 1 1439 5 is_stmt 1 view .LVU1597
 6020              	.LVL582:
1440:../Bsp/OLED/GUISlim.c ****     const unsigned char* in = (const unsigned char*)utf8_str;
 6021              		.loc 1 1440 5 view .LVU1598
1441:../Bsp/OLED/GUISlim.c ****     size_t i = 0;
 6022              		.loc 1 1441 5 view .LVU1599
1442:../Bsp/OLED/GUISlim.c **** 
ARM GAS  C:\Users\fish\AppData\Local\Temp\cc4JAs8f.s 			page 150


1443:../Bsp/OLED/GUISlim.c ****     size_t map_size = GUI_Context.pAFont->gbkMapCnt;
 6023              		.loc 1 1443 5 view .LVU1600
 6024              		.loc 1 1443 34 is_stmt 0 view .LVU1601
 6025 0018 394B     		ldr	r3, .L489
 6026 001a 1B69     		ldr	r3, [r3, #16]
 6027              		.loc 1 1443 12 view .LVU1602
 6028 001c 5A6A     		ldr	r2, [r3, #36]
 6029 001e 0392     		str	r2, [sp, #12]
 6030              	.LVL583:
1444:../Bsp/OLED/GUISlim.c ****     const Utf8ToGbkMap* pMap = GUI_Context.pAFont->pfUtf2GBKMap;
 6031              		.loc 1 1444 5 is_stmt 1 view .LVU1603
 6032              		.loc 1 1444 25 is_stmt 0 view .LVU1604
 6033 0020 D3F820B0 		ldr	fp, [r3, #32]
 6034              	.LVL584:
1445:../Bsp/OLED/GUISlim.c ****     
1446:../Bsp/OLED/GUISlim.c ****     while (i < input_len) {
 6035              		.loc 1 1446 5 is_stmt 1 view .LVU1605
1441:../Bsp/OLED/GUISlim.c **** 
 6036              		.loc 1 1441 12 is_stmt 0 view .LVU1606
 6037 0024 4FF00008 		mov	r8, #0
1439:../Bsp/OLED/GUISlim.c ****     const unsigned char* in = (const unsigned char*)utf8_str;
 6038              		.loc 1 1439 11 view .LVU1607
 6039 0028 364B     		ldr	r3, .L489+4
 6040 002a 0193     		str	r3, [sp, #4]
 6041              		.loc 1 1446 11 view .LVU1608
 6042 002c 0DE0     		b	.L468
 6043              	.LVL585:
 6044              	.L469:
 6045              	.LBB26:
 6046              	.LBB27:
1447:../Bsp/OLED/GUISlim.c ****         unsigned char c = in[i];
1448:../Bsp/OLED/GUISlim.c **** 
1449:../Bsp/OLED/GUISlim.c ****         // ASCII 字符（0x00 ~ 0x7F）
1450:../Bsp/OLED/GUISlim.c ****         if (c <= 0x7F) {
1451:../Bsp/OLED/GUISlim.c ****             *out_ptr++ = c;
1452:../Bsp/OLED/GUISlim.c ****             i++;
1453:../Bsp/OLED/GUISlim.c ****         }
1454:../Bsp/OLED/GUISlim.c ****         // 多字节 UTF-8 字符
1455:../Bsp/OLED/GUISlim.c ****         else {
1456:../Bsp/OLED/GUISlim.c ****             size_t utf8_len = 0;
 6047              		.loc 1 1456 13 is_stmt 1 view .LVU1609
1457:../Bsp/OLED/GUISlim.c ****             // 判断 UTF-8 字符长度
1458:../Bsp/OLED/GUISlim.c ****             if ((c & 0xE0) == 0xC0) utf8_len = 2;
 6048              		.loc 1 1458 13 view .LVU1610
 6049              		.loc 1 1458 16 is_stmt 0 view .LVU1611
 6050 002e 03F0E002 		and	r2, r3, #224
 6051 0032 C02A     		cmp	r2, #192
 6052 0034 1CD0     		beq	.L483
1459:../Bsp/OLED/GUISlim.c ****             else if ((c & 0xF0) == 0xE0) utf8_len = 3;
 6053              		.loc 1 1459 18 is_stmt 1 view .LVU1612
 6054              		.loc 1 1459 21 is_stmt 0 view .LVU1613
 6055 0036 03F0F002 		and	r2, r3, #240
 6056 003a E02A     		cmp	r2, #224
 6057 003c 1BD0     		beq	.L484
1460:../Bsp/OLED/GUISlim.c ****             else if ((c & 0xF8) == 0xF0) utf8_len = 4;
 6058              		.loc 1 1460 18 is_stmt 1 view .LVU1614
 6059              		.loc 1 1460 21 is_stmt 0 view .LVU1615
ARM GAS  C:\Users\fish\AppData\Local\Temp\cc4JAs8f.s 			page 151


 6060 003e 03F0F803 		and	r3, r3, #248
 6061              	.LVL586:
 6062              		.loc 1 1460 21 view .LVU1616
 6063 0042 F02B     		cmp	r3, #240
 6064 0044 1AD0     		beq	.L485
1461:../Bsp/OLED/GUISlim.c ****             else {
1462:../Bsp/OLED/GUISlim.c ****                 // 非法 UTF-8，跳过或报错
1463:../Bsp/OLED/GUISlim.c ****                 i++;
 6065              		.loc 1 1463 17 is_stmt 1 view .LVU1617
 6066              		.loc 1 1463 18 is_stmt 0 view .LVU1618
 6067 0046 08F10108 		add	r8, r8, #1
 6068              	.LVL587:
1464:../Bsp/OLED/GUISlim.c ****                 continue;
 6069              		.loc 1 1464 17 is_stmt 1 view .LVU1619
 6070              	.L468:
 6071              		.loc 1 1464 17 is_stmt 0 view .LVU1620
 6072              	.LBE27:
 6073              	.LBE26:
1446:../Bsp/OLED/GUISlim.c ****         unsigned char c = in[i];
 6074              		.loc 1 1446 14 is_stmt 1 view .LVU1621
 6075 004a 029B     		ldr	r3, [sp, #8]
 6076 004c 9845     		cmp	r8, r3
 6077 004e 4ED2     		bcs	.L472
 6078              	.LBB32:
1447:../Bsp/OLED/GUISlim.c **** 
 6079              		.loc 1 1447 9 view .LVU1622
1447:../Bsp/OLED/GUISlim.c **** 
 6080              		.loc 1 1447 29 is_stmt 0 view .LVU1623
 6081 0050 0AEB0803 		add	r3, r10, r8
 6082 0054 0093     		str	r3, [sp]
1447:../Bsp/OLED/GUISlim.c **** 
 6083              		.loc 1 1447 23 view .LVU1624
 6084 0056 1AF80830 		ldrb	r3, [r10, r8]	@ zero_extendqisi2
 6085              	.LVL588:
1450:../Bsp/OLED/GUISlim.c ****             *out_ptr++ = c;
 6086              		.loc 1 1450 9 is_stmt 1 view .LVU1625
1450:../Bsp/OLED/GUISlim.c ****             *out_ptr++ = c;
 6087              		.loc 1 1450 15 is_stmt 0 view .LVU1626
 6088 005a 1AF90820 		ldrsb	r2, [r10, r8]
1450:../Bsp/OLED/GUISlim.c ****             *out_ptr++ = c;
 6089              		.loc 1 1450 12 view .LVU1627
 6090 005e 002A     		cmp	r2, #0
 6091 0060 E5DB     		blt	.L469
1451:../Bsp/OLED/GUISlim.c ****             i++;
 6092              		.loc 1 1451 13 is_stmt 1 view .LVU1628
1451:../Bsp/OLED/GUISlim.c ****             i++;
 6093              		.loc 1 1451 21 is_stmt 0 view .LVU1629
 6094 0062 019A     		ldr	r2, [sp, #4]
 6095              	.LVL589:
1451:../Bsp/OLED/GUISlim.c ****             i++;
 6096              		.loc 1 1451 24 view .LVU1630
 6097 0064 02F8013B 		strb	r3, [r2], #1
 6098              	.LVL590:
1452:../Bsp/OLED/GUISlim.c ****         }
 6099              		.loc 1 1452 13 is_stmt 1 view .LVU1631
1452:../Bsp/OLED/GUISlim.c ****         }
 6100              		.loc 1 1452 14 is_stmt 0 view .LVU1632
ARM GAS  C:\Users\fish\AppData\Local\Temp\cc4JAs8f.s 			page 152


 6101 0068 08F10108 		add	r8, r8, #1
 6102              	.LVL591:
1451:../Bsp/OLED/GUISlim.c ****             i++;
 6103              		.loc 1 1451 21 view .LVU1633
 6104 006c 0192     		str	r2, [sp, #4]
 6105 006e ECE7     		b	.L468
 6106              	.LVL592:
 6107              	.L483:
 6108              	.LBB31:
1458:../Bsp/OLED/GUISlim.c ****             else if ((c & 0xF0) == 0xE0) utf8_len = 3;
 6109              		.loc 1 1458 46 discriminator 1 view .LVU1634
 6110 0070 4FF00209 		mov	r9, #2
 6111 0074 04E0     		b	.L471
 6112              	.L484:
1459:../Bsp/OLED/GUISlim.c ****             else if ((c & 0xF8) == 0xF0) utf8_len = 4;
 6113              		.loc 1 1459 51 discriminator 1 view .LVU1635
 6114 0076 4FF00309 		mov	r9, #3
 6115 007a 01E0     		b	.L471
 6116              	.LVL593:
 6117              	.L485:
1460:../Bsp/OLED/GUISlim.c ****             else {
 6118              		.loc 1 1460 51 discriminator 1 view .LVU1636
 6119 007c 4FF00409 		mov	r9, #4
 6120              	.L471:
 6121              	.LVL594:
1465:../Bsp/OLED/GUISlim.c ****             }
1466:../Bsp/OLED/GUISlim.c **** 
1467:../Bsp/OLED/GUISlim.c ****             if (i + utf8_len > input_len) {
 6122              		.loc 1 1467 13 is_stmt 1 view .LVU1637
 6123              		.loc 1 1467 19 is_stmt 0 view .LVU1638
 6124 0080 C844     		add	r8, r8, r9
 6125              	.LVL595:
 6126              		.loc 1 1467 16 view .LVU1639
 6127 0082 029B     		ldr	r3, [sp, #8]
 6128 0084 9845     		cmp	r8, r3
 6129 0086 32D8     		bhi	.L472
1468:../Bsp/OLED/GUISlim.c ****                 // 不完整字符，跳过
1469:../Bsp/OLED/GUISlim.c ****                 break;
1470:../Bsp/OLED/GUISlim.c ****             }
1471:../Bsp/OLED/GUISlim.c **** 
1472:../Bsp/OLED/GUISlim.c ****             // 使用二分查找在映射表中查找
1473:../Bsp/OLED/GUISlim.c ****             int found = 0;
 6130              		.loc 1 1473 13 is_stmt 1 view .LVU1640
 6131              	.LVL596:
1474:../Bsp/OLED/GUISlim.c ****             int left = 0;
 6132              		.loc 1 1474 13 view .LVU1641
1475:../Bsp/OLED/GUISlim.c ****             int right = map_size - 1;
 6133              		.loc 1 1475 13 view .LVU1642
 6134              		.loc 1 1475 34 is_stmt 0 view .LVU1643
 6135 0088 039B     		ldr	r3, [sp, #12]
 6136 008a 5E1E     		subs	r6, r3, #1
 6137              	.LVL597:
1476:../Bsp/OLED/GUISlim.c ****             
1477:../Bsp/OLED/GUISlim.c ****             while (left <= right) {
 6138              		.loc 1 1477 13 is_stmt 1 view .LVU1644
1474:../Bsp/OLED/GUISlim.c ****             int right = map_size - 1;
 6139              		.loc 1 1474 17 is_stmt 0 view .LVU1645
ARM GAS  C:\Users\fish\AppData\Local\Temp\cc4JAs8f.s 			page 153


 6140 008c 0025     		movs	r5, #0
 6141              		.loc 1 1477 19 view .LVU1646
 6142 008e 02E0     		b	.L473
 6143              	.LVL598:
 6144              	.L474:
 6145              	.LBB28:
1478:../Bsp/OLED/GUISlim.c ****                 int mid = left + (right - left) / 2;
1479:../Bsp/OLED/GUISlim.c ****                 
1480:../Bsp/OLED/GUISlim.c ****                 // 首先比较长度，如果长度不同，可以直接判断大小关系
1481:../Bsp/OLED/GUISlim.c ****                 if (pMap[mid].utf8_len < utf8_len) {
1482:../Bsp/OLED/GUISlim.c ****                     // 如果当前项的utf8长度小于目标长度，说明目标在右侧
1483:../Bsp/OLED/GUISlim.c ****                     left = mid + 1;
1484:../Bsp/OLED/GUISlim.c ****                 } 
1485:../Bsp/OLED/GUISlim.c ****                 else if (pMap[mid].utf8_len > utf8_len) {
 6146              		.loc 1 1485 22 is_stmt 1 view .LVU1647
 6147              		.loc 1 1485 25 is_stmt 0 view .LVU1648
 6148 0090 4B45     		cmp	r3, r9
 6149 0092 0ED9     		bls	.L476
1486:../Bsp/OLED/GUISlim.c ****                     // 如果当前项的utf8长度大于目标长度，说明目标在左侧
1487:../Bsp/OLED/GUISlim.c ****                     right = mid - 1;
 6150              		.loc 1 1487 21 is_stmt 1 view .LVU1649
 6151              		.loc 1 1487 27 is_stmt 0 view .LVU1650
 6152 0094 661E     		subs	r6, r4, #1
 6153              	.LVL599:
 6154              	.L473:
 6155              		.loc 1 1487 27 view .LVU1651
 6156              	.LBE28:
1477:../Bsp/OLED/GUISlim.c ****                 int mid = left + (right - left) / 2;
 6157              		.loc 1 1477 25 is_stmt 1 view .LVU1652
 6158 0096 B542     		cmp	r5, r6
 6159 0098 23DC     		bgt	.L487
 6160              	.LBB30:
1478:../Bsp/OLED/GUISlim.c ****                 int mid = left + (right - left) / 2;
 6161              		.loc 1 1478 17 view .LVU1653
1478:../Bsp/OLED/GUISlim.c ****                 int mid = left + (right - left) / 2;
 6162              		.loc 1 1478 41 is_stmt 0 view .LVU1654
 6163 009a 731B     		subs	r3, r6, r5
1478:../Bsp/OLED/GUISlim.c ****                 int mid = left + (right - left) / 2;
 6164              		.loc 1 1478 49 view .LVU1655
 6165 009c 03EBD373 		add	r3, r3, r3, lsr #31
1478:../Bsp/OLED/GUISlim.c ****                 int mid = left + (right - left) / 2;
 6166              		.loc 1 1478 21 view .LVU1656
 6167 00a0 05EB6304 		add	r4, r5, r3, asr #1
 6168              	.LVL600:
1481:../Bsp/OLED/GUISlim.c ****                     // 如果当前项的utf8长度小于目标长度，说明目标在右侧
 6169              		.loc 1 1481 17 is_stmt 1 view .LVU1657
1481:../Bsp/OLED/GUISlim.c ****                     // 如果当前项的utf8长度小于目标长度，说明目标在右侧
 6170              		.loc 1 1481 25 is_stmt 0 view .LVU1658
 6171 00a4 0BEBC407 		add	r7, fp, r4, lsl #3
1481:../Bsp/OLED/GUISlim.c ****                     // 如果当前项的utf8长度小于目标长度，说明目标在右侧
 6172              		.loc 1 1481 30 view .LVU1659
 6173 00a8 3B79     		ldrb	r3, [r7, #4]	@ zero_extendqisi2
1481:../Bsp/OLED/GUISlim.c ****                     // 如果当前项的utf8长度小于目标长度，说明目标在右侧
 6174              		.loc 1 1481 20 view .LVU1660
 6175 00aa 4B45     		cmp	r3, r9
 6176 00ac F0D2     		bcs	.L474
1483:../Bsp/OLED/GUISlim.c ****                 } 
ARM GAS  C:\Users\fish\AppData\Local\Temp\cc4JAs8f.s 			page 154


 6177              		.loc 1 1483 21 is_stmt 1 view .LVU1661
1483:../Bsp/OLED/GUISlim.c ****                 } 
 6178              		.loc 1 1483 26 is_stmt 0 view .LVU1662
 6179 00ae 651C     		adds	r5, r4, #1
 6180              	.LVL601:
1483:../Bsp/OLED/GUISlim.c ****                 } 
 6181              		.loc 1 1483 26 view .LVU1663
 6182 00b0 F1E7     		b	.L473
 6183              	.L476:
 6184              	.LBB29:
1488:../Bsp/OLED/GUISlim.c ****                 }
1489:../Bsp/OLED/GUISlim.c ****                 else {
1490:../Bsp/OLED/GUISlim.c ****                     // 长度相同，比较UTF-8编码内容
1491:../Bsp/OLED/GUISlim.c ****                     int cmp = memcmp(pMap[mid].utf8, &in[i], utf8_len);
 6185              		.loc 1 1491 21 is_stmt 1 view .LVU1664
 6186              		.loc 1 1491 31 is_stmt 0 view .LVU1665
 6187 00b2 4A46     		mov	r2, r9
 6188 00b4 0099     		ldr	r1, [sp]
 6189 00b6 3846     		mov	r0, r7
 6190 00b8 FFF7FEFF 		bl	memcmp
 6191              	.LVL602:
1492:../Bsp/OLED/GUISlim.c ****                     
1493:../Bsp/OLED/GUISlim.c ****                     if (cmp < 0) {
 6192              		.loc 1 1493 21 is_stmt 1 view .LVU1666
 6193              		.loc 1 1493 24 is_stmt 0 view .LVU1667
 6194 00bc 0028     		cmp	r0, #0
 6195              		.loc 1 1493 24 view .LVU1668
 6196 00be 03DB     		blt	.L488
1494:../Bsp/OLED/GUISlim.c ****                         // 当前项小于目标，目标在右侧
1495:../Bsp/OLED/GUISlim.c ****                         left = mid + 1;
1496:../Bsp/OLED/GUISlim.c ****                     }
1497:../Bsp/OLED/GUISlim.c ****                     else if (cmp > 0) {
 6197              		.loc 1 1497 26 is_stmt 1 view .LVU1669
 6198              		.loc 1 1497 29 is_stmt 0 view .LVU1670
 6199 00c0 0028     		cmp	r0, #0
 6200 00c2 03DD     		ble	.L478
1498:../Bsp/OLED/GUISlim.c ****                         // 当前项大于目标，目标在左侧
1499:../Bsp/OLED/GUISlim.c ****                         right = mid - 1;
 6201              		.loc 1 1499 25 is_stmt 1 view .LVU1671
 6202              		.loc 1 1499 31 is_stmt 0 view .LVU1672
 6203 00c4 661E     		subs	r6, r4, #1
 6204              	.LVL603:
 6205              		.loc 1 1499 31 view .LVU1673
 6206 00c6 E6E7     		b	.L473
 6207              	.L488:
1495:../Bsp/OLED/GUISlim.c ****                     }
 6208              		.loc 1 1495 25 is_stmt 1 view .LVU1674
1495:../Bsp/OLED/GUISlim.c ****                     }
 6209              		.loc 1 1495 30 is_stmt 0 view .LVU1675
 6210 00c8 651C     		adds	r5, r4, #1
 6211              	.LVL604:
1495:../Bsp/OLED/GUISlim.c ****                     }
 6212              		.loc 1 1495 30 view .LVU1676
 6213 00ca E4E7     		b	.L473
 6214              	.L478:
1500:../Bsp/OLED/GUISlim.c ****                     }
1501:../Bsp/OLED/GUISlim.c ****                     else {
ARM GAS  C:\Users\fish\AppData\Local\Temp\cc4JAs8f.s 			page 155


1502:../Bsp/OLED/GUISlim.c ****                         // 找到匹配项
1503:../Bsp/OLED/GUISlim.c ****                         memcpy(out_ptr, pMap[mid].gbk, pMap[mid].gbk_len);
 6215              		.loc 1 1503 25 is_stmt 1 view .LVU1677
 6216 00cc FA79     		ldrb	r2, [r7, #7]	@ zero_extendqisi2
 6217 00ce 791D     		adds	r1, r7, #5
 6218 00d0 019C     		ldr	r4, [sp, #4]
 6219              	.LVL605:
 6220              		.loc 1 1503 25 is_stmt 0 view .LVU1678
 6221 00d2 2046     		mov	r0, r4
 6222              	.LVL606:
 6223              		.loc 1 1503 25 view .LVU1679
 6224 00d4 FFF7FEFF 		bl	memcpy
 6225              	.LVL607:
1504:../Bsp/OLED/GUISlim.c ****                         out_ptr += pMap[mid].gbk_len;
 6226              		.loc 1 1504 25 is_stmt 1 view .LVU1680
 6227              		.loc 1 1504 45 is_stmt 0 view .LVU1681
 6228 00d8 FB79     		ldrb	r3, [r7, #7]	@ zero_extendqisi2
 6229              		.loc 1 1504 33 view .LVU1682
 6230 00da 2246     		mov	r2, r4
 6231 00dc 1A44     		add	r2, r2, r3
 6232 00de 0192     		str	r2, [sp, #4]
 6233              	.LVL608:
1505:../Bsp/OLED/GUISlim.c ****                         found = 1;
 6234              		.loc 1 1505 25 is_stmt 1 view .LVU1683
1506:../Bsp/OLED/GUISlim.c ****                         break;
 6235              		.loc 1 1506 25 view .LVU1684
 6236              		.loc 1 1506 25 is_stmt 0 view .LVU1685
 6237              	.LBE29:
 6238              	.LBE30:
1507:../Bsp/OLED/GUISlim.c ****                     }
1508:../Bsp/OLED/GUISlim.c ****                 }
1509:../Bsp/OLED/GUISlim.c ****             }
1510:../Bsp/OLED/GUISlim.c **** 
1511:../Bsp/OLED/GUISlim.c ****             if (!found) {
 6239              		.loc 1 1511 13 is_stmt 1 view .LVU1686
 6240 00e0 B3E7     		b	.L468
 6241              	.LVL609:
 6242              	.L487:
 6243              		.loc 1 1511 13 view .LVU1687
1512:../Bsp/OLED/GUISlim.c ****                 // 未在表中，可选择跳过、替换为 '?'，或报错
1513:../Bsp/OLED/GUISlim.c ****                 *out_ptr++ = '?'; // 简单处理
 6244              		.loc 1 1513 17 view .LVU1688
 6245              		.loc 1 1513 25 is_stmt 0 view .LVU1689
 6246 00e2 019B     		ldr	r3, [sp, #4]
 6247              	.LVL610:
 6248              		.loc 1 1513 28 view .LVU1690
 6249 00e4 3F22     		movs	r2, #63
 6250 00e6 03F8012B 		strb	r2, [r3], #1
 6251              	.LVL611:
 6252              		.loc 1 1513 25 view .LVU1691
 6253 00ea 0193     		str	r3, [sp, #4]
 6254 00ec ADE7     		b	.L468
 6255              	.LVL612:
 6256              	.L472:
 6257              		.loc 1 1513 25 view .LVU1692
 6258              	.LBE31:
 6259              	.LBE32:
ARM GAS  C:\Users\fish\AppData\Local\Temp\cc4JAs8f.s 			page 156


1514:../Bsp/OLED/GUISlim.c ****             }
1515:../Bsp/OLED/GUISlim.c **** 
1516:../Bsp/OLED/GUISlim.c ****             i += utf8_len;
1517:../Bsp/OLED/GUISlim.c ****         }
1518:../Bsp/OLED/GUISlim.c ****     }
1519:../Bsp/OLED/GUISlim.c **** 
1520:../Bsp/OLED/GUISlim.c ****     *out_ptr = '\0';
 6260              		.loc 1 1520 5 is_stmt 1 view .LVU1693
 6261              		.loc 1 1520 14 is_stmt 0 view .LVU1694
 6262 00ee 0023     		movs	r3, #0
 6263 00f0 019A     		ldr	r2, [sp, #4]
 6264 00f2 1370     		strb	r3, [r2]
1521:../Bsp/OLED/GUISlim.c ****     return output_buf;
 6265              		.loc 1 1521 5 is_stmt 1 view .LVU1695
 6266              		.loc 1 1521 12 is_stmt 0 view .LVU1696
 6267 00f4 0348     		ldr	r0, .L489+4
 6268              	.LVL613:
 6269              	.L466:
1522:../Bsp/OLED/GUISlim.c **** }
 6270              		.loc 1 1522 1 view .LVU1697
 6271 00f6 05B0     		add	sp, sp, #20
 6272              		.cfi_remember_state
 6273              		.cfi_def_cfa_offset 36
 6274              		@ sp needed
 6275 00f8 BDE8F08F 		pop	{r4, r5, r6, r7, r8, r9, r10, fp, pc}
 6276              	.LVL614:
 6277              	.L482:
 6278              		.cfi_restore_state
1437:../Bsp/OLED/GUISlim.c ****     
 6279              		.loc 1 1437 16 view .LVU1698
 6280 00fc 0020     		movs	r0, #0
 6281              	.LVL615:
1437:../Bsp/OLED/GUISlim.c ****     
 6282              		.loc 1 1437 16 view .LVU1699
 6283 00fe FAE7     		b	.L466
 6284              	.L490:
 6285              		.align	2
 6286              	.L489:
 6287 0100 00000000 		.word	GUI_Context
 6288 0104 00000000 		.word	output_buf.1
 6289              		.cfi_endproc
 6290              	.LFE339:
 6292              		.section	.text.mixed_string_to_gbk,"ax",%progbits
 6293              		.align	1
 6294              		.global	mixed_string_to_gbk
 6295              		.syntax unified
 6296              		.thumb
 6297              		.thumb_func
 6299              	mixed_string_to_gbk:
 6300              	.LVL616:
 6301              	.LFB340:
1523:../Bsp/OLED/GUISlim.c **** 
1524:../Bsp/OLED/GUISlim.c **** char* mixed_string_to_gbk(const char* str) {
 6302              		.loc 1 1524 44 is_stmt 1 view -0
 6303              		.cfi_startproc
 6304              		@ args = 0, pretend = 0, frame = 24
 6305              		@ frame_needed = 0, uses_anonymous_args = 0
ARM GAS  C:\Users\fish\AppData\Local\Temp\cc4JAs8f.s 			page 157


 6306              		.loc 1 1524 44 is_stmt 0 view .LVU1701
 6307 0000 2DE9F04F 		push	{r4, r5, r6, r7, r8, r9, r10, fp, lr}
 6308              		.cfi_def_cfa_offset 36
 6309              		.cfi_offset 4, -36
 6310              		.cfi_offset 5, -32
 6311              		.cfi_offset 6, -28
 6312              		.cfi_offset 7, -24
 6313              		.cfi_offset 8, -20
 6314              		.cfi_offset 9, -16
 6315              		.cfi_offset 10, -12
 6316              		.cfi_offset 11, -8
 6317              		.cfi_offset 14, -4
 6318 0004 87B0     		sub	sp, sp, #28
 6319              		.cfi_def_cfa_offset 64
1525:../Bsp/OLED/GUISlim.c ****     static char output_buf[1024] = {0};
 6320              		.loc 1 1525 5 is_stmt 1 view .LVU1702
1526:../Bsp/OLED/GUISlim.c ****     if (!str) return NULL;
 6321              		.loc 1 1526 5 view .LVU1703
 6322              		.loc 1 1526 8 is_stmt 0 view .LVU1704
 6323 0006 0646     		mov	r6, r0
 6324 0008 0028     		cmp	r0, #0
 6325 000a 00F0DB80 		beq	.L491
1527:../Bsp/OLED/GUISlim.c **** 
1528:../Bsp/OLED/GUISlim.c ****     size_t input_len = strlen(str);
 6326              		.loc 1 1528 5 is_stmt 1 view .LVU1705
 6327              		.loc 1 1528 24 is_stmt 0 view .LVU1706
 6328 000e FFF7FEFF 		bl	strlen
 6329              	.LVL617:
 6330              		.loc 1 1528 24 view .LVU1707
 6331 0012 0446     		mov	r4, r0
 6332              	.LVL618:
1529:../Bsp/OLED/GUISlim.c ****     if (input_len > 512)
 6333              		.loc 1 1529 5 is_stmt 1 view .LVU1708
 6334              		.loc 1 1529 8 is_stmt 0 view .LVU1709
 6335 0014 B0F5007F 		cmp	r0, #512
 6336 0018 00F2D780 		bhi	.L519
1530:../Bsp/OLED/GUISlim.c ****         return NULL;
1531:../Bsp/OLED/GUISlim.c ****     
1532:../Bsp/OLED/GUISlim.c ****     char* out_ptr = output_buf;
 6337              		.loc 1 1532 5 is_stmt 1 view .LVU1710
 6338              	.LVL619:
1533:../Bsp/OLED/GUISlim.c ****     const unsigned char* in = (const unsigned char*)str;
 6339              		.loc 1 1533 5 view .LVU1711
1534:../Bsp/OLED/GUISlim.c ****     size_t i = 0;
 6340              		.loc 1 1534 5 view .LVU1712
1535:../Bsp/OLED/GUISlim.c **** 
1536:../Bsp/OLED/GUISlim.c ****     size_t map_size = GUI_Context.pAFont->gbkMapCnt;
 6341              		.loc 1 1536 5 view .LVU1713
 6342              		.loc 1 1536 34 is_stmt 0 view .LVU1714
 6343 001c 6C4B     		ldr	r3, .L528
 6344 001e 1B69     		ldr	r3, [r3, #16]
 6345              		.loc 1 1536 12 view .LVU1715
 6346 0020 5A6A     		ldr	r2, [r3, #36]
 6347 0022 0392     		str	r2, [sp, #12]
 6348              	.LVL620:
1537:../Bsp/OLED/GUISlim.c ****     const Utf8ToGbkMap* pMap = GUI_Context.pAFont->pfUtf2GBKMap;
 6349              		.loc 1 1537 5 is_stmt 1 view .LVU1716
ARM GAS  C:\Users\fish\AppData\Local\Temp\cc4JAs8f.s 			page 158


 6350              		.loc 1 1537 25 is_stmt 0 view .LVU1717
 6351 0024 1B6A     		ldr	r3, [r3, #32]
 6352 0026 0293     		str	r3, [sp, #8]
 6353              	.LVL621:
1538:../Bsp/OLED/GUISlim.c ****     
1539:../Bsp/OLED/GUISlim.c ****     while (i < input_len) {
 6354              		.loc 1 1539 5 is_stmt 1 view .LVU1718
1534:../Bsp/OLED/GUISlim.c **** 
 6355              		.loc 1 1534 12 is_stmt 0 view .LVU1719
 6356 0028 0025     		movs	r5, #0
1532:../Bsp/OLED/GUISlim.c ****     const unsigned char* in = (const unsigned char*)str;
 6357              		.loc 1 1532 11 view .LVU1720
 6358 002a 6A4B     		ldr	r3, .L528+4
 6359              	.LVL622:
1532:../Bsp/OLED/GUISlim.c ****     const unsigned char* in = (const unsigned char*)str;
 6360              		.loc 1 1532 11 view .LVU1721
 6361 002c 0093     		str	r3, [sp]
 6362              		.loc 1 1539 11 view .LVU1722
 6363 002e 19E0     		b	.L493
 6364              	.LVL623:
 6365              	.L494:
 6366              	.LBB33:
1540:../Bsp/OLED/GUISlim.c ****         unsigned char c = in[i];
1541:../Bsp/OLED/GUISlim.c **** 
1542:../Bsp/OLED/GUISlim.c ****         if (c <= 0x7F) {
1543:../Bsp/OLED/GUISlim.c ****             *out_ptr++ = c;
1544:../Bsp/OLED/GUISlim.c ****             i++;
1545:../Bsp/OLED/GUISlim.c ****             continue;
1546:../Bsp/OLED/GUISlim.c ****         }
1547:../Bsp/OLED/GUISlim.c ****         
1548:../Bsp/OLED/GUISlim.c ****         size_t utf8_consumed = 1;
 6367              		.loc 1 1548 9 is_stmt 1 view .LVU1723
 6368              		.loc 1 1548 16 is_stmt 0 view .LVU1724
 6369 0030 0123     		movs	r3, #1
 6370 0032 0493     		str	r3, [sp, #16]
1549:../Bsp/OLED/GUISlim.c ****         size_t gbk_consumed = 1;
 6371              		.loc 1 1549 9 is_stmt 1 view .LVU1725
 6372              		.loc 1 1549 16 is_stmt 0 view .LVU1726
 6373 0034 0593     		str	r3, [sp, #20]
1550:../Bsp/OLED/GUISlim.c ****         int is_utf8 = is_valid_utf8_sequence(in + i, input_len - i, &utf8_consumed);
 6374              		.loc 1 1550 9 is_stmt 1 view .LVU1727
 6375              		.loc 1 1550 23 is_stmt 0 view .LVU1728
 6376 0036 671B     		subs	r7, r4, r5
 6377 0038 04AA     		add	r2, sp, #16
 6378              	.LVL624:
 6379              		.loc 1 1550 23 view .LVU1729
 6380 003a 3946     		mov	r1, r7
 6381 003c 5846     		mov	r0, fp
 6382 003e FFF7FEFF 		bl	is_valid_utf8_sequence
 6383              	.LVL625:
 6384 0042 8046     		mov	r8, r0
 6385              	.LVL626:
1551:../Bsp/OLED/GUISlim.c ****         int is_gbk = is_valid_gbk_sequence(in + i, input_len - i, &gbk_consumed);
 6386              		.loc 1 1551 9 is_stmt 1 view .LVU1730
 6387              		.loc 1 1551 22 is_stmt 0 view .LVU1731
 6388 0044 05AA     		add	r2, sp, #20
 6389 0046 3946     		mov	r1, r7
ARM GAS  C:\Users\fish\AppData\Local\Temp\cc4JAs8f.s 			page 159


 6390 0048 5846     		mov	r0, fp
 6391              	.LVL627:
 6392              		.loc 1 1551 22 view .LVU1732
 6393 004a FFF7FEFF 		bl	is_valid_gbk_sequence
 6394              	.LVL628:
1552:../Bsp/OLED/GUISlim.c ****         
1553:../Bsp/OLED/GUISlim.c ****         if (is_utf8 == 1 && is_gbk != 1) {
 6395              		.loc 1 1553 9 is_stmt 1 view .LVU1733
 6396              		.loc 1 1553 12 is_stmt 0 view .LVU1734
 6397 004e B8F1010F 		cmp	r8, #1
 6398 0052 16D0     		beq	.L521
1554:../Bsp/OLED/GUISlim.c ****                         size_t utf8_len = utf8_consumed;
1555:../Bsp/OLED/GUISlim.c ****             int found = 0;
1556:../Bsp/OLED/GUISlim.c ****             int left = 0;
1557:../Bsp/OLED/GUISlim.c ****             int right = map_size - 1;
1558:../Bsp/OLED/GUISlim.c ****             
1559:../Bsp/OLED/GUISlim.c ****             while (left <= right) {
1560:../Bsp/OLED/GUISlim.c ****                 int mid = left + (right - left) / 2;
1561:../Bsp/OLED/GUISlim.c ****                 
1562:../Bsp/OLED/GUISlim.c ****                 if (pMap[mid].utf8_len < utf8_len) {
1563:../Bsp/OLED/GUISlim.c ****                     left = mid + 1;
1564:../Bsp/OLED/GUISlim.c ****                 } 
1565:../Bsp/OLED/GUISlim.c ****                 else if (pMap[mid].utf8_len > utf8_len) {
1566:../Bsp/OLED/GUISlim.c ****                     right = mid - 1;
1567:../Bsp/OLED/GUISlim.c ****                 }
1568:../Bsp/OLED/GUISlim.c ****                 else {
1569:../Bsp/OLED/GUISlim.c ****                     int cmp = memcmp(pMap[mid].utf8, &in[i], utf8_len);
1570:../Bsp/OLED/GUISlim.c ****                     
1571:../Bsp/OLED/GUISlim.c ****                     if (cmp < 0) {
1572:../Bsp/OLED/GUISlim.c ****                         left = mid + 1;
1573:../Bsp/OLED/GUISlim.c ****                     }
1574:../Bsp/OLED/GUISlim.c ****                     else if (cmp > 0) {
1575:../Bsp/OLED/GUISlim.c ****                         right = mid - 1;
1576:../Bsp/OLED/GUISlim.c ****                     }
1577:../Bsp/OLED/GUISlim.c ****                     else {
1578:../Bsp/OLED/GUISlim.c ****                         memcpy(out_ptr, pMap[mid].gbk, pMap[mid].gbk_len);
1579:../Bsp/OLED/GUISlim.c ****                         out_ptr += pMap[mid].gbk_len;
1580:../Bsp/OLED/GUISlim.c ****                         found = 1;
1581:../Bsp/OLED/GUISlim.c ****                         break;
1582:../Bsp/OLED/GUISlim.c ****                     }
1583:../Bsp/OLED/GUISlim.c ****                 }
1584:../Bsp/OLED/GUISlim.c ****             }
1585:../Bsp/OLED/GUISlim.c ****             
1586:../Bsp/OLED/GUISlim.c ****             if (!found) {
1587:../Bsp/OLED/GUISlim.c ****                 *out_ptr++ = '?';
1588:../Bsp/OLED/GUISlim.c ****             }
1589:../Bsp/OLED/GUISlim.c ****             i += utf8_len;
1590:../Bsp/OLED/GUISlim.c ****         }
1591:../Bsp/OLED/GUISlim.c ****         else if (is_gbk == 1 && is_utf8 != 1) {
 6399              		.loc 1 1591 14 is_stmt 1 view .LVU1735
 6400              		.loc 1 1591 17 is_stmt 0 view .LVU1736
 6401 0054 0128     		cmp	r0, #1
 6402 0056 16D0     		beq	.L497
 6403              	.L507:
1592:../Bsp/OLED/GUISlim.c ****                         *out_ptr++ = in[i];
1593:../Bsp/OLED/GUISlim.c ****             *out_ptr++ = in[i + 1];
1594:../Bsp/OLED/GUISlim.c ****             i += 2;
ARM GAS  C:\Users\fish\AppData\Local\Temp\cc4JAs8f.s 			page 160


1595:../Bsp/OLED/GUISlim.c ****         }
1596:../Bsp/OLED/GUISlim.c ****         else if (is_utf8 == 1 && is_gbk == 1) {
1597:../Bsp/OLED/GUISlim.c ****                         size_t utf8_len = utf8_consumed;
1598:../Bsp/OLED/GUISlim.c ****             int found = 0;
1599:../Bsp/OLED/GUISlim.c ****             int left = 0;
1600:../Bsp/OLED/GUISlim.c ****             int right = map_size - 1;
1601:../Bsp/OLED/GUISlim.c ****             
1602:../Bsp/OLED/GUISlim.c ****             while (left <= right) {
1603:../Bsp/OLED/GUISlim.c ****                 int mid = left + (right - left) / 2;
1604:../Bsp/OLED/GUISlim.c ****                 
1605:../Bsp/OLED/GUISlim.c ****                 if (pMap[mid].utf8_len < utf8_len) {
1606:../Bsp/OLED/GUISlim.c ****                     left = mid + 1;
1607:../Bsp/OLED/GUISlim.c ****                 } 
1608:../Bsp/OLED/GUISlim.c ****                 else if (pMap[mid].utf8_len > utf8_len) {
1609:../Bsp/OLED/GUISlim.c ****                     right = mid - 1;
1610:../Bsp/OLED/GUISlim.c ****                 }
1611:../Bsp/OLED/GUISlim.c ****                 else {
1612:../Bsp/OLED/GUISlim.c ****                     int cmp = memcmp(pMap[mid].utf8, &in[i], utf8_len);
1613:../Bsp/OLED/GUISlim.c ****                     
1614:../Bsp/OLED/GUISlim.c ****                     if (cmp < 0) {
1615:../Bsp/OLED/GUISlim.c ****                         left = mid + 1;
1616:../Bsp/OLED/GUISlim.c ****                     }
1617:../Bsp/OLED/GUISlim.c ****                     else if (cmp > 0) {
1618:../Bsp/OLED/GUISlim.c ****                         right = mid - 1;
1619:../Bsp/OLED/GUISlim.c ****                     }
1620:../Bsp/OLED/GUISlim.c ****                     else {
1621:../Bsp/OLED/GUISlim.c ****                         memcpy(out_ptr, pMap[mid].gbk, pMap[mid].gbk_len);
1622:../Bsp/OLED/GUISlim.c ****                         out_ptr += pMap[mid].gbk_len;
1623:../Bsp/OLED/GUISlim.c ****                         found = 1;
1624:../Bsp/OLED/GUISlim.c ****                         break;
1625:../Bsp/OLED/GUISlim.c ****                     }
1626:../Bsp/OLED/GUISlim.c ****                 }
1627:../Bsp/OLED/GUISlim.c ****             }
1628:../Bsp/OLED/GUISlim.c ****             
1629:../Bsp/OLED/GUISlim.c ****             if (!found) {
1630:../Bsp/OLED/GUISlim.c ****                 *out_ptr++ = '?';
1631:../Bsp/OLED/GUISlim.c ****             }
1632:../Bsp/OLED/GUISlim.c ****             i += utf8_len;
1633:../Bsp/OLED/GUISlim.c ****         }
1634:../Bsp/OLED/GUISlim.c ****         else {
1635:../Bsp/OLED/GUISlim.c ****                         *out_ptr++ = '?';
 6404              		.loc 1 1635 25 is_stmt 1 view .LVU1737
 6405              		.loc 1 1635 33 is_stmt 0 view .LVU1738
 6406 0058 009B     		ldr	r3, [sp]
 6407              	.LVL629:
 6408              		.loc 1 1635 36 view .LVU1739
 6409 005a 3F22     		movs	r2, #63
 6410 005c 03F8012B 		strb	r2, [r3], #1
 6411              	.LVL630:
1636:../Bsp/OLED/GUISlim.c ****             i++;
 6412              		.loc 1 1636 13 is_stmt 1 view .LVU1740
 6413              		.loc 1 1636 14 is_stmt 0 view .LVU1741
 6414 0060 0135     		adds	r5, r5, #1
 6415              	.LVL631:
1635:../Bsp/OLED/GUISlim.c ****             i++;
 6416              		.loc 1 1635 33 view .LVU1742
 6417 0062 0093     		str	r3, [sp]
ARM GAS  C:\Users\fish\AppData\Local\Temp\cc4JAs8f.s 			page 161


 6418              	.LVL632:
 6419              	.L493:
1635:../Bsp/OLED/GUISlim.c ****             i++;
 6420              		.loc 1 1635 33 view .LVU1743
 6421              	.LBE33:
1539:../Bsp/OLED/GUISlim.c ****         unsigned char c = in[i];
 6422              		.loc 1 1539 14 is_stmt 1 view .LVU1744
 6423 0064 A542     		cmp	r5, r4
 6424 0066 80F0A980 		bcs	.L522
 6425              	.LBB42:
1540:../Bsp/OLED/GUISlim.c **** 
 6426              		.loc 1 1540 9 view .LVU1745
1540:../Bsp/OLED/GUISlim.c **** 
 6427              		.loc 1 1540 29 is_stmt 0 view .LVU1746
 6428 006a 06EB050B 		add	fp, r6, r5
1540:../Bsp/OLED/GUISlim.c **** 
 6429              		.loc 1 1540 23 view .LVU1747
 6430 006e 725D     		ldrb	r2, [r6, r5]	@ zero_extendqisi2
 6431              	.LVL633:
1542:../Bsp/OLED/GUISlim.c ****             *out_ptr++ = c;
 6432              		.loc 1 1542 9 is_stmt 1 view .LVU1748
1542:../Bsp/OLED/GUISlim.c ****             *out_ptr++ = c;
 6433              		.loc 1 1542 15 is_stmt 0 view .LVU1749
 6434 0070 7357     		ldrsb	r3, [r6, r5]
1542:../Bsp/OLED/GUISlim.c ****             *out_ptr++ = c;
 6435              		.loc 1 1542 12 view .LVU1750
 6436 0072 002B     		cmp	r3, #0
 6437 0074 DCDB     		blt	.L494
1543:../Bsp/OLED/GUISlim.c ****             i++;
 6438              		.loc 1 1543 13 is_stmt 1 view .LVU1751
1543:../Bsp/OLED/GUISlim.c ****             i++;
 6439              		.loc 1 1543 21 is_stmt 0 view .LVU1752
 6440 0076 009B     		ldr	r3, [sp]
 6441              	.LVL634:
1543:../Bsp/OLED/GUISlim.c ****             i++;
 6442              		.loc 1 1543 24 view .LVU1753
 6443 0078 03F8012B 		strb	r2, [r3], #1
 6444              	.LVL635:
1544:../Bsp/OLED/GUISlim.c ****             continue;
 6445              		.loc 1 1544 13 is_stmt 1 view .LVU1754
1544:../Bsp/OLED/GUISlim.c ****             continue;
 6446              		.loc 1 1544 14 is_stmt 0 view .LVU1755
 6447 007c 0135     		adds	r5, r5, #1
 6448              	.LVL636:
1545:../Bsp/OLED/GUISlim.c ****         }
 6449              		.loc 1 1545 13 is_stmt 1 view .LVU1756
1543:../Bsp/OLED/GUISlim.c ****             i++;
 6450              		.loc 1 1543 21 is_stmt 0 view .LVU1757
 6451 007e 0093     		str	r3, [sp]
 6452 0080 F0E7     		b	.L493
 6453              	.LVL637:
 6454              	.L521:
1553:../Bsp/OLED/GUISlim.c ****                         size_t utf8_len = utf8_consumed;
 6455              		.loc 1 1553 26 discriminator 1 view .LVU1758
 6456 0082 0128     		cmp	r0, #1
 6457 0084 0ED1     		bne	.L523
 6458              	.L497:
ARM GAS  C:\Users\fish\AppData\Local\Temp\cc4JAs8f.s 			page 162


1591:../Bsp/OLED/GUISlim.c ****                         *out_ptr++ = in[i];
 6459              		.loc 1 1591 30 discriminator 1 view .LVU1759
 6460 0086 B8F1010F 		cmp	r8, #1
 6461 008a 50D0     		beq	.L508
1592:../Bsp/OLED/GUISlim.c ****             *out_ptr++ = in[i + 1];
 6462              		.loc 1 1592 25 is_stmt 1 view .LVU1760
 6463              	.LVL638:
1592:../Bsp/OLED/GUISlim.c ****             *out_ptr++ = in[i + 1];
 6464              		.loc 1 1592 40 is_stmt 0 view .LVU1761
 6465 008c 9BF80020 		ldrb	r2, [fp]	@ zero_extendqisi2
1592:../Bsp/OLED/GUISlim.c ****             *out_ptr++ = in[i + 1];
 6466              		.loc 1 1592 36 view .LVU1762
 6467 0090 0099     		ldr	r1, [sp]
 6468 0092 0B46     		mov	r3, r1
 6469 0094 03F8022B 		strb	r2, [r3], #2
1593:../Bsp/OLED/GUISlim.c ****             i += 2;
 6470              		.loc 1 1593 13 is_stmt 1 view .LVU1763
 6471              	.LVL639:
1593:../Bsp/OLED/GUISlim.c ****             i += 2;
 6472              		.loc 1 1593 28 is_stmt 0 view .LVU1764
 6473 0098 7219     		adds	r2, r6, r5
 6474 009a 5278     		ldrb	r2, [r2, #1]	@ zero_extendqisi2
1593:../Bsp/OLED/GUISlim.c ****             i += 2;
 6475              		.loc 1 1593 24 view .LVU1765
 6476 009c 4A70     		strb	r2, [r1, #1]
1594:../Bsp/OLED/GUISlim.c ****         }
 6477              		.loc 1 1594 13 is_stmt 1 view .LVU1766
1594:../Bsp/OLED/GUISlim.c ****         }
 6478              		.loc 1 1594 15 is_stmt 0 view .LVU1767
 6479 009e 0235     		adds	r5, r5, #2
 6480              	.LVL640:
1593:../Bsp/OLED/GUISlim.c ****             i += 2;
 6481              		.loc 1 1593 21 view .LVU1768
 6482 00a0 0093     		str	r3, [sp]
1594:../Bsp/OLED/GUISlim.c ****         }
 6483              		.loc 1 1594 15 view .LVU1769
 6484 00a2 DFE7     		b	.L493
 6485              	.LVL641:
 6486              	.L523:
 6487              	.LBB34:
1554:../Bsp/OLED/GUISlim.c ****             int found = 0;
 6488              		.loc 1 1554 25 is_stmt 1 view .LVU1770
1554:../Bsp/OLED/GUISlim.c ****             int found = 0;
 6489              		.loc 1 1554 32 is_stmt 0 view .LVU1771
 6490 00a4 049B     		ldr	r3, [sp, #16]
 6491 00a6 0193     		str	r3, [sp, #4]
 6492              	.LVL642:
1555:../Bsp/OLED/GUISlim.c ****             int left = 0;
 6493              		.loc 1 1555 13 is_stmt 1 view .LVU1772
1556:../Bsp/OLED/GUISlim.c ****             int right = map_size - 1;
 6494              		.loc 1 1556 13 view .LVU1773
1557:../Bsp/OLED/GUISlim.c ****             
 6495              		.loc 1 1557 13 view .LVU1774
1557:../Bsp/OLED/GUISlim.c ****             
 6496              		.loc 1 1557 34 is_stmt 0 view .LVU1775
 6497 00a8 039B     		ldr	r3, [sp, #12]
 6498              	.LVL643:
ARM GAS  C:\Users\fish\AppData\Local\Temp\cc4JAs8f.s 			page 163


1557:../Bsp/OLED/GUISlim.c ****             
 6499              		.loc 1 1557 34 view .LVU1776
 6500 00aa 03F1FF39 		add	r9, r3, #-1
 6501              	.LVL644:
1559:../Bsp/OLED/GUISlim.c ****                 int mid = left + (right - left) / 2;
 6502              		.loc 1 1559 13 is_stmt 1 view .LVU1777
1556:../Bsp/OLED/GUISlim.c ****             int right = map_size - 1;
 6503              		.loc 1 1556 17 is_stmt 0 view .LVU1778
 6504 00ae 4FF00008 		mov	r8, #0
 6505              	.LVL645:
1559:../Bsp/OLED/GUISlim.c ****                 int mid = left + (right - left) / 2;
 6506              		.loc 1 1559 19 view .LVU1779
 6507 00b2 04E0     		b	.L498
 6508              	.LVL646:
 6509              	.L499:
 6510              	.LBB35:
1565:../Bsp/OLED/GUISlim.c ****                     right = mid - 1;
 6511              		.loc 1 1565 22 is_stmt 1 view .LVU1780
1565:../Bsp/OLED/GUISlim.c ****                     right = mid - 1;
 6512              		.loc 1 1565 25 is_stmt 0 view .LVU1781
 6513 00b4 019A     		ldr	r2, [sp, #4]
 6514 00b6 9342     		cmp	r3, r2
 6515 00b8 14D9     		bls	.L501
1566:../Bsp/OLED/GUISlim.c ****                 }
 6516              		.loc 1 1566 21 is_stmt 1 view .LVU1782
1566:../Bsp/OLED/GUISlim.c ****                 }
 6517              		.loc 1 1566 27 is_stmt 0 view .LVU1783
 6518 00ba 07F1FF39 		add	r9, r7, #-1
 6519              	.LVL647:
 6520              	.L498:
1566:../Bsp/OLED/GUISlim.c ****                 }
 6521              		.loc 1 1566 27 view .LVU1784
 6522              	.LBE35:
1559:../Bsp/OLED/GUISlim.c ****                 int mid = left + (right - left) / 2;
 6523              		.loc 1 1559 25 is_stmt 1 view .LVU1785
 6524 00be C845     		cmp	r8, r9
 6525 00c0 2DDC     		bgt	.L524
 6526              	.LBB37:
1560:../Bsp/OLED/GUISlim.c ****                 
 6527              		.loc 1 1560 17 view .LVU1786
1560:../Bsp/OLED/GUISlim.c ****                 
 6528              		.loc 1 1560 41 is_stmt 0 view .LVU1787
 6529 00c2 A9EB0807 		sub	r7, r9, r8
1560:../Bsp/OLED/GUISlim.c ****                 
 6530              		.loc 1 1560 49 view .LVU1788
 6531 00c6 07EBD777 		add	r7, r7, r7, lsr #31
1560:../Bsp/OLED/GUISlim.c ****                 
 6532              		.loc 1 1560 21 view .LVU1789
 6533 00ca 08EB6707 		add	r7, r8, r7, asr #1
 6534              	.LVL648:
1562:../Bsp/OLED/GUISlim.c ****                     left = mid + 1;
 6535              		.loc 1 1562 17 is_stmt 1 view .LVU1790
1562:../Bsp/OLED/GUISlim.c ****                     left = mid + 1;
 6536              		.loc 1 1562 25 is_stmt 0 view .LVU1791
 6537 00ce 029B     		ldr	r3, [sp, #8]
 6538 00d0 03EBC70A 		add	r10, r3, r7, lsl #3
1562:../Bsp/OLED/GUISlim.c ****                     left = mid + 1;
ARM GAS  C:\Users\fish\AppData\Local\Temp\cc4JAs8f.s 			page 164


 6539              		.loc 1 1562 30 view .LVU1792
 6540 00d4 9AF80430 		ldrb	r3, [r10, #4]	@ zero_extendqisi2
1562:../Bsp/OLED/GUISlim.c ****                     left = mid + 1;
 6541              		.loc 1 1562 20 view .LVU1793
 6542 00d8 019A     		ldr	r2, [sp, #4]
 6543 00da 9342     		cmp	r3, r2
 6544 00dc EAD2     		bcs	.L499
1563:../Bsp/OLED/GUISlim.c ****                 } 
 6545              		.loc 1 1563 21 is_stmt 1 view .LVU1794
1563:../Bsp/OLED/GUISlim.c ****                 } 
 6546              		.loc 1 1563 26 is_stmt 0 view .LVU1795
 6547 00de 07F10108 		add	r8, r7, #1
 6548              	.LVL649:
1563:../Bsp/OLED/GUISlim.c ****                 } 
 6549              		.loc 1 1563 26 view .LVU1796
 6550 00e2 ECE7     		b	.L498
 6551              	.L501:
 6552              	.LBB36:
1569:../Bsp/OLED/GUISlim.c ****                     
 6553              		.loc 1 1569 21 is_stmt 1 view .LVU1797
1569:../Bsp/OLED/GUISlim.c ****                     
 6554              		.loc 1 1569 31 is_stmt 0 view .LVU1798
 6555 00e4 019A     		ldr	r2, [sp, #4]
 6556 00e6 5946     		mov	r1, fp
 6557 00e8 5046     		mov	r0, r10
 6558 00ea FFF7FEFF 		bl	memcmp
 6559              	.LVL650:
1571:../Bsp/OLED/GUISlim.c ****                         left = mid + 1;
 6560              		.loc 1 1571 21 is_stmt 1 view .LVU1799
1571:../Bsp/OLED/GUISlim.c ****                         left = mid + 1;
 6561              		.loc 1 1571 24 is_stmt 0 view .LVU1800
 6562 00ee 0028     		cmp	r0, #0
1571:../Bsp/OLED/GUISlim.c ****                         left = mid + 1;
 6563              		.loc 1 1571 24 view .LVU1801
 6564 00f0 04DB     		blt	.L525
1574:../Bsp/OLED/GUISlim.c ****                         right = mid - 1;
 6565              		.loc 1 1574 26 is_stmt 1 view .LVU1802
1574:../Bsp/OLED/GUISlim.c ****                         right = mid - 1;
 6566              		.loc 1 1574 29 is_stmt 0 view .LVU1803
 6567 00f2 0028     		cmp	r0, #0
 6568 00f4 05DD     		ble	.L503
1575:../Bsp/OLED/GUISlim.c ****                     }
 6569              		.loc 1 1575 25 is_stmt 1 view .LVU1804
1575:../Bsp/OLED/GUISlim.c ****                     }
 6570              		.loc 1 1575 31 is_stmt 0 view .LVU1805
 6571 00f6 07F1FF39 		add	r9, r7, #-1
 6572              	.LVL651:
1575:../Bsp/OLED/GUISlim.c ****                     }
 6573              		.loc 1 1575 31 view .LVU1806
 6574 00fa E0E7     		b	.L498
 6575              	.L525:
1572:../Bsp/OLED/GUISlim.c ****                     }
 6576              		.loc 1 1572 25 is_stmt 1 view .LVU1807
1572:../Bsp/OLED/GUISlim.c ****                     }
 6577              		.loc 1 1572 30 is_stmt 0 view .LVU1808
 6578 00fc 07F10108 		add	r8, r7, #1
 6579              	.LVL652:
ARM GAS  C:\Users\fish\AppData\Local\Temp\cc4JAs8f.s 			page 165


1572:../Bsp/OLED/GUISlim.c ****                     }
 6580              		.loc 1 1572 30 view .LVU1809
 6581 0100 DDE7     		b	.L498
 6582              	.L503:
1578:../Bsp/OLED/GUISlim.c ****                         out_ptr += pMap[mid].gbk_len;
 6583              		.loc 1 1578 25 is_stmt 1 view .LVU1810
 6584 0102 9AF80720 		ldrb	r2, [r10, #7]	@ zero_extendqisi2
 6585 0106 0AF10501 		add	r1, r10, #5
 6586 010a 009F     		ldr	r7, [sp]
 6587              	.LVL653:
1578:../Bsp/OLED/GUISlim.c ****                         out_ptr += pMap[mid].gbk_len;
 6588              		.loc 1 1578 25 is_stmt 0 view .LVU1811
 6589 010c 3846     		mov	r0, r7
 6590              	.LVL654:
1578:../Bsp/OLED/GUISlim.c ****                         out_ptr += pMap[mid].gbk_len;
 6591              		.loc 1 1578 25 view .LVU1812
 6592 010e FFF7FEFF 		bl	memcpy
 6593              	.LVL655:
1579:../Bsp/OLED/GUISlim.c ****                         found = 1;
 6594              		.loc 1 1579 25 is_stmt 1 view .LVU1813
1579:../Bsp/OLED/GUISlim.c ****                         found = 1;
 6595              		.loc 1 1579 45 is_stmt 0 view .LVU1814
 6596 0112 9AF80730 		ldrb	r3, [r10, #7]	@ zero_extendqisi2
1579:../Bsp/OLED/GUISlim.c ****                         found = 1;
 6597              		.loc 1 1579 33 view .LVU1815
 6598 0116 3A46     		mov	r2, r7
 6599 0118 1A44     		add	r2, r2, r3
 6600 011a 0092     		str	r2, [sp]
 6601              	.LVL656:
1580:../Bsp/OLED/GUISlim.c ****                         break;
 6602              		.loc 1 1580 25 is_stmt 1 view .LVU1816
1581:../Bsp/OLED/GUISlim.c ****                     }
 6603              		.loc 1 1581 25 view .LVU1817
1581:../Bsp/OLED/GUISlim.c ****                     }
 6604              		.loc 1 1581 25 is_stmt 0 view .LVU1818
 6605              	.LBE36:
 6606              	.LBE37:
1586:../Bsp/OLED/GUISlim.c ****                 *out_ptr++ = '?';
 6607              		.loc 1 1586 13 is_stmt 1 view .LVU1819
 6608 011c 04E0     		b	.L504
 6609              	.LVL657:
 6610              	.L524:
1586:../Bsp/OLED/GUISlim.c ****                 *out_ptr++ = '?';
 6611              		.loc 1 1586 13 view .LVU1820
1587:../Bsp/OLED/GUISlim.c ****             }
 6612              		.loc 1 1587 17 view .LVU1821
1587:../Bsp/OLED/GUISlim.c ****             }
 6613              		.loc 1 1587 25 is_stmt 0 view .LVU1822
 6614 011e 009B     		ldr	r3, [sp]
 6615              	.LVL658:
1587:../Bsp/OLED/GUISlim.c ****             }
 6616              		.loc 1 1587 28 view .LVU1823
 6617 0120 3F22     		movs	r2, #63
 6618 0122 03F8012B 		strb	r2, [r3], #1
 6619              	.LVL659:
1587:../Bsp/OLED/GUISlim.c ****             }
 6620              		.loc 1 1587 25 view .LVU1824
ARM GAS  C:\Users\fish\AppData\Local\Temp\cc4JAs8f.s 			page 166


 6621 0126 0093     		str	r3, [sp]
 6622              	.LVL660:
 6623              	.L504:
1589:../Bsp/OLED/GUISlim.c ****         }
 6624              		.loc 1 1589 13 is_stmt 1 view .LVU1825
1589:../Bsp/OLED/GUISlim.c ****         }
 6625              		.loc 1 1589 15 is_stmt 0 view .LVU1826
 6626 0128 019B     		ldr	r3, [sp, #4]
 6627 012a 1D44     		add	r5, r5, r3
 6628              	.LVL661:
1589:../Bsp/OLED/GUISlim.c ****         }
 6629              		.loc 1 1589 15 view .LVU1827
 6630              	.LBE34:
1553:../Bsp/OLED/GUISlim.c ****                         size_t utf8_len = utf8_consumed;
 6631              		.loc 1 1553 42 view .LVU1828
 6632 012c 9AE7     		b	.L493
 6633              	.LVL662:
 6634              	.L508:
1596:../Bsp/OLED/GUISlim.c ****                         size_t utf8_len = utf8_consumed;
 6635              		.loc 1 1596 31 discriminator 1 view .LVU1829
 6636 012e 0128     		cmp	r0, #1
 6637 0130 92D1     		bne	.L507
 6638              	.LBB38:
1597:../Bsp/OLED/GUISlim.c ****             int found = 0;
 6639              		.loc 1 1597 25 is_stmt 1 view .LVU1830
1597:../Bsp/OLED/GUISlim.c ****             int found = 0;
 6640              		.loc 1 1597 32 is_stmt 0 view .LVU1831
 6641 0132 049B     		ldr	r3, [sp, #16]
 6642 0134 0193     		str	r3, [sp, #4]
 6643              	.LVL663:
1598:../Bsp/OLED/GUISlim.c ****             int left = 0;
 6644              		.loc 1 1598 13 is_stmt 1 view .LVU1832
1599:../Bsp/OLED/GUISlim.c ****             int right = map_size - 1;
 6645              		.loc 1 1599 13 view .LVU1833
1600:../Bsp/OLED/GUISlim.c ****             
 6646              		.loc 1 1600 13 view .LVU1834
1600:../Bsp/OLED/GUISlim.c ****             
 6647              		.loc 1 1600 34 is_stmt 0 view .LVU1835
 6648 0136 039B     		ldr	r3, [sp, #12]
 6649              	.LVL664:
1600:../Bsp/OLED/GUISlim.c ****             
 6650              		.loc 1 1600 34 view .LVU1836
 6651 0138 03F1FF39 		add	r9, r3, #-1
 6652              	.LVL665:
1602:../Bsp/OLED/GUISlim.c ****                 int mid = left + (right - left) / 2;
 6653              		.loc 1 1602 13 is_stmt 1 view .LVU1837
1599:../Bsp/OLED/GUISlim.c ****             int right = map_size - 1;
 6654              		.loc 1 1599 17 is_stmt 0 view .LVU1838
 6655 013c 4FF00008 		mov	r8, #0
 6656              	.LVL666:
1602:../Bsp/OLED/GUISlim.c ****                 int mid = left + (right - left) / 2;
 6657              		.loc 1 1602 19 view .LVU1839
 6658 0140 04E0     		b	.L509
 6659              	.LVL667:
 6660              	.L510:
 6661              	.LBB39:
1608:../Bsp/OLED/GUISlim.c ****                     right = mid - 1;
ARM GAS  C:\Users\fish\AppData\Local\Temp\cc4JAs8f.s 			page 167


 6662              		.loc 1 1608 22 is_stmt 1 view .LVU1840
1608:../Bsp/OLED/GUISlim.c ****                     right = mid - 1;
 6663              		.loc 1 1608 25 is_stmt 0 view .LVU1841
 6664 0142 019A     		ldr	r2, [sp, #4]
 6665 0144 9342     		cmp	r3, r2
 6666 0146 14D9     		bls	.L512
1609:../Bsp/OLED/GUISlim.c ****                 }
 6667              		.loc 1 1609 21 is_stmt 1 view .LVU1842
1609:../Bsp/OLED/GUISlim.c ****                 }
 6668              		.loc 1 1609 27 is_stmt 0 view .LVU1843
 6669 0148 07F1FF39 		add	r9, r7, #-1
 6670              	.LVL668:
 6671              	.L509:
1609:../Bsp/OLED/GUISlim.c ****                 }
 6672              		.loc 1 1609 27 view .LVU1844
 6673              	.LBE39:
1602:../Bsp/OLED/GUISlim.c ****                 int mid = left + (right - left) / 2;
 6674              		.loc 1 1602 25 is_stmt 1 view .LVU1845
 6675 014c C845     		cmp	r8, r9
 6676 014e 2DDC     		bgt	.L526
 6677              	.LBB41:
1603:../Bsp/OLED/GUISlim.c ****                 
 6678              		.loc 1 1603 17 view .LVU1846
1603:../Bsp/OLED/GUISlim.c ****                 
 6679              		.loc 1 1603 41 is_stmt 0 view .LVU1847
 6680 0150 A9EB0807 		sub	r7, r9, r8
1603:../Bsp/OLED/GUISlim.c ****                 
 6681              		.loc 1 1603 49 view .LVU1848
 6682 0154 07EBD777 		add	r7, r7, r7, lsr #31
1603:../Bsp/OLED/GUISlim.c ****                 
 6683              		.loc 1 1603 21 view .LVU1849
 6684 0158 08EB6707 		add	r7, r8, r7, asr #1
 6685              	.LVL669:
1605:../Bsp/OLED/GUISlim.c ****                     left = mid + 1;
 6686              		.loc 1 1605 17 is_stmt 1 view .LVU1850
1605:../Bsp/OLED/GUISlim.c ****                     left = mid + 1;
 6687              		.loc 1 1605 25 is_stmt 0 view .LVU1851
 6688 015c 029B     		ldr	r3, [sp, #8]
 6689 015e 03EBC70A 		add	r10, r3, r7, lsl #3
1605:../Bsp/OLED/GUISlim.c ****                     left = mid + 1;
 6690              		.loc 1 1605 30 view .LVU1852
 6691 0162 9AF80430 		ldrb	r3, [r10, #4]	@ zero_extendqisi2
1605:../Bsp/OLED/GUISlim.c ****                     left = mid + 1;
 6692              		.loc 1 1605 20 view .LVU1853
 6693 0166 019A     		ldr	r2, [sp, #4]
 6694 0168 9342     		cmp	r3, r2
 6695 016a EAD2     		bcs	.L510
1606:../Bsp/OLED/GUISlim.c ****                 } 
 6696              		.loc 1 1606 21 is_stmt 1 view .LVU1854
1606:../Bsp/OLED/GUISlim.c ****                 } 
 6697              		.loc 1 1606 26 is_stmt 0 view .LVU1855
 6698 016c 07F10108 		add	r8, r7, #1
 6699              	.LVL670:
1606:../Bsp/OLED/GUISlim.c ****                 } 
 6700              		.loc 1 1606 26 view .LVU1856
 6701 0170 ECE7     		b	.L509
 6702              	.L512:
ARM GAS  C:\Users\fish\AppData\Local\Temp\cc4JAs8f.s 			page 168


 6703              	.LBB40:
1612:../Bsp/OLED/GUISlim.c ****                     
 6704              		.loc 1 1612 21 is_stmt 1 view .LVU1857
1612:../Bsp/OLED/GUISlim.c ****                     
 6705              		.loc 1 1612 31 is_stmt 0 view .LVU1858
 6706 0172 019A     		ldr	r2, [sp, #4]
 6707 0174 5946     		mov	r1, fp
 6708 0176 5046     		mov	r0, r10
 6709 0178 FFF7FEFF 		bl	memcmp
 6710              	.LVL671:
1614:../Bsp/OLED/GUISlim.c ****                         left = mid + 1;
 6711              		.loc 1 1614 21 is_stmt 1 view .LVU1859
1614:../Bsp/OLED/GUISlim.c ****                         left = mid + 1;
 6712              		.loc 1 1614 24 is_stmt 0 view .LVU1860
 6713 017c 0028     		cmp	r0, #0
1614:../Bsp/OLED/GUISlim.c ****                         left = mid + 1;
 6714              		.loc 1 1614 24 view .LVU1861
 6715 017e 04DB     		blt	.L527
1617:../Bsp/OLED/GUISlim.c ****                         right = mid - 1;
 6716              		.loc 1 1617 26 is_stmt 1 view .LVU1862
1617:../Bsp/OLED/GUISlim.c ****                         right = mid - 1;
 6717              		.loc 1 1617 29 is_stmt 0 view .LVU1863
 6718 0180 0028     		cmp	r0, #0
 6719 0182 05DD     		ble	.L514
1618:../Bsp/OLED/GUISlim.c ****                     }
 6720              		.loc 1 1618 25 is_stmt 1 view .LVU1864
1618:../Bsp/OLED/GUISlim.c ****                     }
 6721              		.loc 1 1618 31 is_stmt 0 view .LVU1865
 6722 0184 07F1FF39 		add	r9, r7, #-1
 6723              	.LVL672:
1618:../Bsp/OLED/GUISlim.c ****                     }
 6724              		.loc 1 1618 31 view .LVU1866
 6725 0188 E0E7     		b	.L509
 6726              	.L527:
1615:../Bsp/OLED/GUISlim.c ****                     }
 6727              		.loc 1 1615 25 is_stmt 1 view .LVU1867
1615:../Bsp/OLED/GUISlim.c ****                     }
 6728              		.loc 1 1615 30 is_stmt 0 view .LVU1868
 6729 018a 07F10108 		add	r8, r7, #1
 6730              	.LVL673:
1615:../Bsp/OLED/GUISlim.c ****                     }
 6731              		.loc 1 1615 30 view .LVU1869
 6732 018e DDE7     		b	.L509
 6733              	.L514:
1621:../Bsp/OLED/GUISlim.c ****                         out_ptr += pMap[mid].gbk_len;
 6734              		.loc 1 1621 25 is_stmt 1 view .LVU1870
 6735 0190 9AF80720 		ldrb	r2, [r10, #7]	@ zero_extendqisi2
 6736 0194 0AF10501 		add	r1, r10, #5
 6737 0198 009F     		ldr	r7, [sp]
 6738              	.LVL674:
1621:../Bsp/OLED/GUISlim.c ****                         out_ptr += pMap[mid].gbk_len;
 6739              		.loc 1 1621 25 is_stmt 0 view .LVU1871
 6740 019a 3846     		mov	r0, r7
 6741              	.LVL675:
1621:../Bsp/OLED/GUISlim.c ****                         out_ptr += pMap[mid].gbk_len;
 6742              		.loc 1 1621 25 view .LVU1872
 6743 019c FFF7FEFF 		bl	memcpy
ARM GAS  C:\Users\fish\AppData\Local\Temp\cc4JAs8f.s 			page 169


 6744              	.LVL676:
1622:../Bsp/OLED/GUISlim.c ****                         found = 1;
 6745              		.loc 1 1622 25 is_stmt 1 view .LVU1873
1622:../Bsp/OLED/GUISlim.c ****                         found = 1;
 6746              		.loc 1 1622 45 is_stmt 0 view .LVU1874
 6747 01a0 9AF80730 		ldrb	r3, [r10, #7]	@ zero_extendqisi2
1622:../Bsp/OLED/GUISlim.c ****                         found = 1;
 6748              		.loc 1 1622 33 view .LVU1875
 6749 01a4 3A46     		mov	r2, r7
 6750 01a6 1A44     		add	r2, r2, r3
 6751 01a8 0092     		str	r2, [sp]
 6752              	.LVL677:
1623:../Bsp/OLED/GUISlim.c ****                         break;
 6753              		.loc 1 1623 25 is_stmt 1 view .LVU1876
1624:../Bsp/OLED/GUISlim.c ****                     }
 6754              		.loc 1 1624 25 view .LVU1877
1624:../Bsp/OLED/GUISlim.c ****                     }
 6755              		.loc 1 1624 25 is_stmt 0 view .LVU1878
 6756              	.LBE40:
 6757              	.LBE41:
1629:../Bsp/OLED/GUISlim.c ****                 *out_ptr++ = '?';
 6758              		.loc 1 1629 13 is_stmt 1 view .LVU1879
 6759 01aa 04E0     		b	.L515
 6760              	.LVL678:
 6761              	.L526:
1629:../Bsp/OLED/GUISlim.c ****                 *out_ptr++ = '?';
 6762              		.loc 1 1629 13 view .LVU1880
1630:../Bsp/OLED/GUISlim.c ****             }
 6763              		.loc 1 1630 17 view .LVU1881
1630:../Bsp/OLED/GUISlim.c ****             }
 6764              		.loc 1 1630 25 is_stmt 0 view .LVU1882
 6765 01ac 009B     		ldr	r3, [sp]
 6766              	.LVL679:
1630:../Bsp/OLED/GUISlim.c ****             }
 6767              		.loc 1 1630 28 view .LVU1883
 6768 01ae 3F22     		movs	r2, #63
 6769 01b0 03F8012B 		strb	r2, [r3], #1
 6770              	.LVL680:
1630:../Bsp/OLED/GUISlim.c ****             }
 6771              		.loc 1 1630 25 view .LVU1884
 6772 01b4 0093     		str	r3, [sp]
 6773              	.LVL681:
 6774              	.L515:
1632:../Bsp/OLED/GUISlim.c ****         }
 6775              		.loc 1 1632 13 is_stmt 1 view .LVU1885
1632:../Bsp/OLED/GUISlim.c ****         }
 6776              		.loc 1 1632 15 is_stmt 0 view .LVU1886
 6777 01b6 019B     		ldr	r3, [sp, #4]
 6778 01b8 1D44     		add	r5, r5, r3
 6779              	.LVL682:
1632:../Bsp/OLED/GUISlim.c ****         }
 6780              		.loc 1 1632 15 view .LVU1887
 6781              	.LBE38:
1596:../Bsp/OLED/GUISlim.c ****                         size_t utf8_len = utf8_consumed;
 6782              		.loc 1 1596 47 view .LVU1888
 6783 01ba 53E7     		b	.L493
 6784              	.LVL683:
ARM GAS  C:\Users\fish\AppData\Local\Temp\cc4JAs8f.s 			page 170


 6785              	.L522:
1596:../Bsp/OLED/GUISlim.c ****                         size_t utf8_len = utf8_consumed;
 6786              		.loc 1 1596 47 view .LVU1889
 6787              	.LBE42:
1637:../Bsp/OLED/GUISlim.c ****         }
1638:../Bsp/OLED/GUISlim.c ****     }
1639:../Bsp/OLED/GUISlim.c **** 
1640:../Bsp/OLED/GUISlim.c ****     *out_ptr = '\0';
 6788              		.loc 1 1640 5 is_stmt 1 view .LVU1890
 6789              		.loc 1 1640 14 is_stmt 0 view .LVU1891
 6790 01bc 0023     		movs	r3, #0
 6791 01be 009A     		ldr	r2, [sp]
 6792 01c0 1370     		strb	r3, [r2]
1641:../Bsp/OLED/GUISlim.c ****     return output_buf;
 6793              		.loc 1 1641 5 is_stmt 1 view .LVU1892
 6794              		.loc 1 1641 12 is_stmt 0 view .LVU1893
 6795 01c2 0448     		ldr	r0, .L528+4
 6796              	.LVL684:
 6797              	.L491:
1642:../Bsp/OLED/GUISlim.c **** }
 6798              		.loc 1 1642 1 view .LVU1894
 6799 01c4 07B0     		add	sp, sp, #28
 6800              		.cfi_remember_state
 6801              		.cfi_def_cfa_offset 36
 6802              		@ sp needed
 6803 01c6 BDE8F08F 		pop	{r4, r5, r6, r7, r8, r9, r10, fp, pc}
 6804              	.LVL685:
 6805              	.L519:
 6806              		.cfi_restore_state
1530:../Bsp/OLED/GUISlim.c ****     
 6807              		.loc 1 1530 16 view .LVU1895
 6808 01ca 0020     		movs	r0, #0
 6809              	.LVL686:
1530:../Bsp/OLED/GUISlim.c ****     
 6810              		.loc 1 1530 16 view .LVU1896
 6811 01cc FAE7     		b	.L491
 6812              	.L529:
 6813 01ce 00BF     		.align	2
 6814              	.L528:
 6815 01d0 00000000 		.word	GUI_Context
 6816 01d4 00000000 		.word	output_buf.0
 6817              		.cfi_endproc
 6818              	.LFE340:
 6820              		.section	.text.GUI_DispString,"ax",%progbits
 6821              		.align	1
 6822              		.global	GUI_DispString
 6823              		.syntax unified
 6824              		.thumb
 6825              		.thumb_func
 6827              	GUI_DispString:
 6828              	.LVL687:
 6829              	.LFB291:
 781:../Bsp/OLED/GUISlim.c ****   int xAdjust, yAdjust, xOrg;
 6830              		.loc 1 781 48 is_stmt 1 view -0
 6831              		.cfi_startproc
 6832              		@ args = 0, pretend = 0, frame = 16
 6833              		@ frame_needed = 0, uses_anonymous_args = 0
ARM GAS  C:\Users\fish\AppData\Local\Temp\cc4JAs8f.s 			page 171


 782:../Bsp/OLED/GUISlim.c ****   int FontSizeY;
 6834              		.loc 1 782 3 view .LVU1898
 783:../Bsp/OLED/GUISlim.c ****   if (!s)
 6835              		.loc 1 783 3 view .LVU1899
 784:../Bsp/OLED/GUISlim.c ****     return;
 6836              		.loc 1 784 3 view .LVU1900
 784:../Bsp/OLED/GUISlim.c ****     return;
 6837              		.loc 1 784 6 is_stmt 0 view .LVU1901
 6838 0000 0028     		cmp	r0, #0
 6839 0002 00F09C80 		beq	.L547
 781:../Bsp/OLED/GUISlim.c ****   int xAdjust, yAdjust, xOrg;
 6840              		.loc 1 781 48 view .LVU1902
 6841 0006 2DE9F04F 		push	{r4, r5, r6, r7, r8, r9, r10, fp, lr}
 6842              		.cfi_def_cfa_offset 36
 6843              		.cfi_offset 4, -36
 6844              		.cfi_offset 5, -32
 6845              		.cfi_offset 6, -28
 6846              		.cfi_offset 7, -24
 6847              		.cfi_offset 8, -20
 6848              		.cfi_offset 9, -16
 6849              		.cfi_offset 10, -12
 6850              		.cfi_offset 11, -8
 6851              		.cfi_offset 14, -4
 6852 000a 85B0     		sub	sp, sp, #20
 6853              		.cfi_def_cfa_offset 56
 6854 000c 0446     		mov	r4, r0
 786:../Bsp/OLED/GUISlim.c ****   FontSizeY = GUI_GetFontDistY();
 6855              		.loc 1 786 13 is_stmt 1 view .LVU1903
 787:../Bsp/OLED/GUISlim.c ****   xOrg = GUI_Context.DispPosX;
 6856              		.loc 1 787 3 view .LVU1904
 787:../Bsp/OLED/GUISlim.c ****   xOrg = GUI_Context.DispPosX;
 6857              		.loc 1 787 15 is_stmt 0 view .LVU1905
 6858 000e FFF7FEFF 		bl	GUI_GetFontDistY
 6859              	.LVL688:
 787:../Bsp/OLED/GUISlim.c ****   xOrg = GUI_Context.DispPosX;
 6860              		.loc 1 787 15 view .LVU1906
 6861 0012 0190     		str	r0, [sp, #4]
 6862              	.LVL689:
 788:../Bsp/OLED/GUISlim.c ****  /* Adjust vertical position */
 6863              		.loc 1 788 3 is_stmt 1 view .LVU1907
 788:../Bsp/OLED/GUISlim.c ****  /* Adjust vertical position */
 6864              		.loc 1 788 21 is_stmt 0 view .LVU1908
 6865 0014 4A4D     		ldr	r5, .L554
 6866 0016 B5F914B0 		ldrsh	fp, [r5, #20]
 6867              	.LVL690:
 790:../Bsp/OLED/GUISlim.c ****   GUI_Context.DispPosY -= yAdjust;
 6868              		.loc 1 790 3 is_stmt 1 view .LVU1909
 790:../Bsp/OLED/GUISlim.c ****   GUI_Context.DispPosY -= yAdjust;
 6869              		.loc 1 790 13 is_stmt 0 view .LVU1910
 6870 001a FFF7FEFF 		bl	GUI_GetYAdjust
 6871              	.LVL691:
 791:../Bsp/OLED/GUISlim.c ****   char *ss = (char *)s;
 6872              		.loc 1 791 3 is_stmt 1 view .LVU1911
 791:../Bsp/OLED/GUISlim.c ****   char *ss = (char *)s;
 6873              		.loc 1 791 14 is_stmt 0 view .LVU1912
 6874 001e EB8A     		ldrh	r3, [r5, #22]
 791:../Bsp/OLED/GUISlim.c ****   char *ss = (char *)s;
ARM GAS  C:\Users\fish\AppData\Local\Temp\cc4JAs8f.s 			page 172


 6875              		.loc 1 791 24 view .LVU1913
 6876 0020 1FFA80FA 		uxth	r10, r0
 6877 0024 A3EB0A03 		sub	r3, r3, r10
 6878 0028 EB82     		strh	r3, [r5, #22]	@ movhi
 792:../Bsp/OLED/GUISlim.c ****   int butf8 = detect_encoding_by_sequence(s);
 6879              		.loc 1 792 3 is_stmt 1 view .LVU1914
 6880              	.LVL692:
 793:../Bsp/OLED/GUISlim.c ****   if (butf8 == 1)
 6881              		.loc 1 793 3 view .LVU1915
 793:../Bsp/OLED/GUISlim.c ****   if (butf8 == 1)
 6882              		.loc 1 793 15 is_stmt 0 view .LVU1916
 6883 002a 2046     		mov	r0, r4
 6884              	.LVL693:
 793:../Bsp/OLED/GUISlim.c ****   if (butf8 == 1)
 6885              		.loc 1 793 15 view .LVU1917
 6886 002c FFF7FEFF 		bl	detect_encoding_by_sequence
 6887              	.LVL694:
 794:../Bsp/OLED/GUISlim.c **** 	  ss = utf8_string_to_gbk_with_table(s);
 6888              		.loc 1 794 3 is_stmt 1 view .LVU1918
 794:../Bsp/OLED/GUISlim.c **** 	  ss = utf8_string_to_gbk_with_table(s);
 6889              		.loc 1 794 6 is_stmt 0 view .LVU1919
 6890 0030 0128     		cmp	r0, #1
 6891 0032 04D0     		beq	.L550
 796:../Bsp/OLED/GUISlim.c **** 	  ss = mixed_string_to_gbk(s);
 6892              		.loc 1 796 8 is_stmt 1 view .LVU1920
 796:../Bsp/OLED/GUISlim.c **** 	  ss = mixed_string_to_gbk(s);
 6893              		.loc 1 796 11 is_stmt 0 view .LVU1921
 6894 0034 0328     		cmp	r0, #3
 6895 0036 07D0     		beq	.L551
 6896              	.LVL695:
 6897              	.L533:
 798:../Bsp/OLED/GUISlim.c **** 	  return;
 6898              		.loc 1 798 3 is_stmt 1 view .LVU1922
 798:../Bsp/OLED/GUISlim.c **** 	  return;
 6899              		.loc 1 798 6 is_stmt 0 view .LVU1923
 6900 0038 002C     		cmp	r4, #0
 6901 003a 42D1     		bne	.L534
 6902 003c 7CE0     		b	.L530
 6903              	.LVL696:
 6904              	.L550:
 795:../Bsp/OLED/GUISlim.c ****   else if (butf8 == 3)
 6905              		.loc 1 795 4 is_stmt 1 view .LVU1924
 795:../Bsp/OLED/GUISlim.c ****   else if (butf8 == 3)
 6906              		.loc 1 795 9 is_stmt 0 view .LVU1925
 6907 003e 2046     		mov	r0, r4
 6908              	.LVL697:
 795:../Bsp/OLED/GUISlim.c ****   else if (butf8 == 3)
 6909              		.loc 1 795 9 view .LVU1926
 6910 0040 FFF7FEFF 		bl	utf8_string_to_gbk_with_table
 6911              	.LVL698:
 6912 0044 0446     		mov	r4, r0
 6913              	.LVL699:
 795:../Bsp/OLED/GUISlim.c ****   else if (butf8 == 3)
 6914              		.loc 1 795 9 view .LVU1927
 6915 0046 F7E7     		b	.L533
 6916              	.LVL700:
 6917              	.L551:
ARM GAS  C:\Users\fish\AppData\Local\Temp\cc4JAs8f.s 			page 173


 797:../Bsp/OLED/GUISlim.c ****   if (!ss)
 6918              		.loc 1 797 4 is_stmt 1 view .LVU1928
 797:../Bsp/OLED/GUISlim.c ****   if (!ss)
 6919              		.loc 1 797 9 is_stmt 0 view .LVU1929
 6920 0048 2046     		mov	r0, r4
 6921              	.LVL701:
 797:../Bsp/OLED/GUISlim.c ****   if (!ss)
 6922              		.loc 1 797 9 view .LVU1930
 6923 004a FFF7FEFF 		bl	mixed_string_to_gbk
 6924              	.LVL702:
 6925 004e 0446     		mov	r4, r0
 6926              	.LVL703:
 797:../Bsp/OLED/GUISlim.c ****   if (!ss)
 6927              		.loc 1 797 9 view .LVU1931
 6928 0050 F2E7     		b	.L533
 6929              	.LVL704:
 6930              	.L552:
 6931              	.LBB43:
 806:../Bsp/OLED/GUISlim.c ****       case GUI_TA_RIGHT:  xAdjust = xLineSize; break;
 6932              		.loc 1 806 27 is_stmt 1 view .LVU1932
 806:../Bsp/OLED/GUISlim.c ****       case GUI_TA_RIGHT:  xAdjust = xLineSize; break;
 6933              		.loc 1 806 35 is_stmt 0 view .LVU1933
 6934 0052 00EBD072 		add	r2, r0, r0, lsr #31
 6935 0056 5210     		asrs	r2, r2, #1
 6936              	.LVL705:
 806:../Bsp/OLED/GUISlim.c ****       case GUI_TA_RIGHT:  xAdjust = xLineSize; break;
 6937              		.loc 1 806 52 is_stmt 1 view .LVU1934
 6938              	.L535:
 810:../Bsp/OLED/GUISlim.c ****     r.x1 = r.x0 + xLineSize - 1;    
 6939              		.loc 1 810 5 view .LVU1935
 810:../Bsp/OLED/GUISlim.c ****     r.x1 = r.x0 + xLineSize - 1;    
 6940              		.loc 1 810 23 is_stmt 0 view .LVU1936
 6941 0058 394F     		ldr	r7, .L554
 6942 005a BB8A     		ldrh	r3, [r7, #20]
 810:../Bsp/OLED/GUISlim.c ****     r.x1 = r.x0 + xLineSize - 1;    
 6943              		.loc 1 810 33 view .LVU1937
 6944 005c 9B1A     		subs	r3, r3, r2
 6945 005e 1AB2     		sxth	r2, r3
 6946              	.LVL706:
 810:../Bsp/OLED/GUISlim.c ****     r.x1 = r.x0 + xLineSize - 1;    
 6947              		.loc 1 810 33 view .LVU1938
 6948 0060 BA82     		strh	r2, [r7, #20]	@ movhi
 810:../Bsp/OLED/GUISlim.c ****     r.x1 = r.x0 + xLineSize - 1;    
 6949              		.loc 1 810 10 view .LVU1939
 6950 0062 ADF80820 		strh	r2, [sp, #8]	@ movhi
 811:../Bsp/OLED/GUISlim.c ****     r.y0 = GUI_Context.DispPosY;
 6951              		.loc 1 811 5 is_stmt 1 view .LVU1940
 811:../Bsp/OLED/GUISlim.c ****     r.y0 = GUI_Context.DispPosY;
 6952              		.loc 1 811 17 is_stmt 0 view .LVU1941
 6953 0066 85B2     		uxth	r5, r0
 6954 0068 15FA83F3 		uxtah	r3, r5, r3
 6955 006c 9BB2     		uxth	r3, r3
 811:../Bsp/OLED/GUISlim.c ****     r.y0 = GUI_Context.DispPosY;
 6956              		.loc 1 811 29 view .LVU1942
 6957 006e 013B     		subs	r3, r3, #1
 811:../Bsp/OLED/GUISlim.c ****     r.y0 = GUI_Context.DispPosY;
 6958              		.loc 1 811 10 view .LVU1943
ARM GAS  C:\Users\fish\AppData\Local\Temp\cc4JAs8f.s 			page 174


 6959 0070 ADF80C30 		strh	r3, [sp, #12]	@ movhi
 812:../Bsp/OLED/GUISlim.c ****     r.y1 = r.y0 + FontSizeY - 1;    
 6960              		.loc 1 812 5 is_stmt 1 view .LVU1944
 812:../Bsp/OLED/GUISlim.c ****     r.y1 = r.y0 + FontSizeY - 1;    
 6961              		.loc 1 812 23 is_stmt 0 view .LVU1945
 6962 0074 B7F91630 		ldrsh	r3, [r7, #22]
 812:../Bsp/OLED/GUISlim.c ****     r.y1 = r.y0 + FontSizeY - 1;    
 6963              		.loc 1 812 10 view .LVU1946
 6964 0078 ADF80A30 		strh	r3, [sp, #10]	@ movhi
 813:../Bsp/OLED/GUISlim.c ****     GUI__DispLine(ss, LineNumChars, &r);
 6965              		.loc 1 813 5 is_stmt 1 view .LVU1947
 813:../Bsp/OLED/GUISlim.c ****     GUI__DispLine(ss, LineNumChars, &r);
 6966              		.loc 1 813 17 is_stmt 0 view .LVU1948
 6967 007c BDF80490 		ldrh	r9, [sp, #4]
 6968 0080 19FA83F3 		uxtah	r3, r9, r3
 6969 0084 9BB2     		uxth	r3, r3
 813:../Bsp/OLED/GUISlim.c ****     GUI__DispLine(ss, LineNumChars, &r);
 6970              		.loc 1 813 29 view .LVU1949
 6971 0086 013B     		subs	r3, r3, #1
 813:../Bsp/OLED/GUISlim.c ****     GUI__DispLine(ss, LineNumChars, &r);
 6972              		.loc 1 813 10 view .LVU1950
 6973 0088 ADF80E30 		strh	r3, [sp, #14]	@ movhi
 814:../Bsp/OLED/GUISlim.c ****     GUI_Context.DispPosY = r.y0;
 6974              		.loc 1 814 5 is_stmt 1 view .LVU1951
 6975 008c 02AA     		add	r2, sp, #8
 6976 008e 3146     		mov	r1, r6
 6977 0090 2046     		mov	r0, r4
 6978              	.LVL707:
 814:../Bsp/OLED/GUISlim.c ****     GUI_Context.DispPosY = r.y0;
 6979              		.loc 1 814 5 is_stmt 0 view .LVU1952
 6980 0092 FFF7FEFF 		bl	GUI__DispLine
 6981              	.LVL708:
 815:../Bsp/OLED/GUISlim.c ****     ss += GUI_UC__NumChars2NumBytes(ss, LineNumChars);
 6982              		.loc 1 815 5 is_stmt 1 view .LVU1953
 815:../Bsp/OLED/GUISlim.c ****     ss += GUI_UC__NumChars2NumBytes(ss, LineNumChars);
 6983              		.loc 1 815 29 is_stmt 0 view .LVU1954
 6984 0096 BDF90A80 		ldrsh	r8, [sp, #10]
 815:../Bsp/OLED/GUISlim.c ****     ss += GUI_UC__NumChars2NumBytes(ss, LineNumChars);
 6985              		.loc 1 815 26 view .LVU1955
 6986 009a A7F81680 		strh	r8, [r7, #22]	@ movhi
 816:../Bsp/OLED/GUISlim.c ****     if ((*ss == '\n') || (*ss == '\r')) {
 6987              		.loc 1 816 5 is_stmt 1 view .LVU1956
 816:../Bsp/OLED/GUISlim.c ****     if ((*ss == '\n') || (*ss == '\r')) {
 6988              		.loc 1 816 11 is_stmt 0 view .LVU1957
 6989 009e 3146     		mov	r1, r6
 6990 00a0 2046     		mov	r0, r4
 6991 00a2 FFF7FEFF 		bl	GUI_UC__NumChars2NumBytes
 6992              	.LVL709:
 816:../Bsp/OLED/GUISlim.c ****     if ((*ss == '\n') || (*ss == '\r')) {
 6993              		.loc 1 816 8 discriminator 1 view .LVU1958
 6994 00a6 2318     		adds	r3, r4, r0
 6995              	.LVL710:
 817:../Bsp/OLED/GUISlim.c ****       switch (GUI_Context.TextAlign & GUI_TA_HORIZONTAL) { 
 6996              		.loc 1 817 5 is_stmt 1 view .LVU1959
 817:../Bsp/OLED/GUISlim.c ****       switch (GUI_Context.TextAlign & GUI_TA_HORIZONTAL) { 
 6997              		.loc 1 817 10 is_stmt 0 view .LVU1960
 6998 00a8 225C     		ldrb	r2, [r4, r0]	@ zero_extendqisi2
ARM GAS  C:\Users\fish\AppData\Local\Temp\cc4JAs8f.s 			page 175


 817:../Bsp/OLED/GUISlim.c ****       switch (GUI_Context.TextAlign & GUI_TA_HORIZONTAL) { 
 6999              		.loc 1 817 8 view .LVU1961
 7000 00aa 0A2A     		cmp	r2, #10
 7001 00ac 22D0     		beq	.L536
 817:../Bsp/OLED/GUISlim.c ****       switch (GUI_Context.TextAlign & GUI_TA_HORIZONTAL) { 
 7002              		.loc 1 817 23 discriminator 1 view .LVU1962
 7003 00ae 0D2A     		cmp	r2, #13
 7004 00b0 20D0     		beq	.L536
 830:../Bsp/OLED/GUISlim.c ****     }
 7005              		.loc 1 830 7 is_stmt 1 view .LVU1963
 830:../Bsp/OLED/GUISlim.c ****     }
 7006              		.loc 1 830 31 is_stmt 0 view .LVU1964
 7007 00b2 BDF80820 		ldrh	r2, [sp, #8]
 830:../Bsp/OLED/GUISlim.c ****     }
 7008              		.loc 1 830 35 view .LVU1965
 7009 00b6 1544     		add	r5, r5, r2
 830:../Bsp/OLED/GUISlim.c ****     }
 7010              		.loc 1 830 28 view .LVU1966
 7011 00b8 214A     		ldr	r2, .L554
 7012 00ba 9582     		strh	r5, [r2, #20]	@ movhi
 7013              	.L540:
 832:../Bsp/OLED/GUISlim.c ****       break;
 7014              		.loc 1 832 5 is_stmt 1 view .LVU1967
 832:../Bsp/OLED/GUISlim.c ****       break;
 7015              		.loc 1 832 9 is_stmt 0 view .LVU1968
 7016 00bc 1A78     		ldrb	r2, [r3]	@ zero_extendqisi2
 832:../Bsp/OLED/GUISlim.c ****       break;
 7017              		.loc 1 832 8 view .LVU1969
 7018 00be 8AB3     		cbz	r2, .L542
 7019              	.LBE43:
 800:../Bsp/OLED/GUISlim.c ****     GUI_RECT r;
 7020              		.loc 1 800 17 is_stmt 1 view .LVU1970
 7021 00c0 5C1C     		adds	r4, r3, #1
 7022              	.LVL711:
 7023              	.L534:
 800:../Bsp/OLED/GUISlim.c ****     GUI_RECT r;
 7024              		.loc 1 800 10 discriminator 1 view .LVU1971
 7025 00c2 2378     		ldrb	r3, [r4]	@ zero_extendqisi2
 7026 00c4 73B3     		cbz	r3, .L542
 7027              	.LBB44:
 801:../Bsp/OLED/GUISlim.c ****     int LineNumChars = GUI__GetLineNumChars(ss, 0x7fff);
 7028              		.loc 1 801 5 view .LVU1972
 802:../Bsp/OLED/GUISlim.c ****     int xLineSize    = GUI__GetLineDistX(ss, LineNumChars);
 7029              		.loc 1 802 5 view .LVU1973
 802:../Bsp/OLED/GUISlim.c ****     int xLineSize    = GUI__GetLineDistX(ss, LineNumChars);
 7030              		.loc 1 802 24 is_stmt 0 view .LVU1974
 7031 00c6 47F6FF71 		movw	r1, #32767
 7032 00ca 2046     		mov	r0, r4
 7033 00cc FFF7FEFF 		bl	GUI__GetLineNumChars
 7034              	.LVL712:
 7035 00d0 0646     		mov	r6, r0
 7036              	.LVL713:
 803:../Bsp/OLED/GUISlim.c ****   /* Check if x-position needs to be changed due to h-alignment */
 7037              		.loc 1 803 5 is_stmt 1 view .LVU1975
 803:../Bsp/OLED/GUISlim.c ****   /* Check if x-position needs to be changed due to h-alignment */
 7038              		.loc 1 803 24 is_stmt 0 view .LVU1976
 7039 00d2 0146     		mov	r1, r0
ARM GAS  C:\Users\fish\AppData\Local\Temp\cc4JAs8f.s 			page 176


 7040 00d4 2046     		mov	r0, r4
 7041              	.LVL714:
 803:../Bsp/OLED/GUISlim.c ****   /* Check if x-position needs to be changed due to h-alignment */
 7042              		.loc 1 803 24 view .LVU1977
 7043 00d6 FFF7FEFF 		bl	GUI__GetLineDistX
 7044              	.LVL715:
 805:../Bsp/OLED/GUISlim.c ****       case GUI_TA_CENTER: xAdjust = xLineSize / 2; break;
 7045              		.loc 1 805 5 is_stmt 1 view .LVU1978
 805:../Bsp/OLED/GUISlim.c ****       case GUI_TA_CENTER: xAdjust = xLineSize / 2; break;
 7046              		.loc 1 805 24 is_stmt 0 view .LVU1979
 7047 00da 194B     		ldr	r3, .L554
 7048 00dc B3F91A30 		ldrsh	r3, [r3, #26]
 7049 00e0 03F00303 		and	r3, r3, #3
 805:../Bsp/OLED/GUISlim.c ****       case GUI_TA_CENTER: xAdjust = xLineSize / 2; break;
 7050              		.loc 1 805 5 view .LVU1980
 7051 00e4 012B     		cmp	r3, #1
 7052 00e6 03D0     		beq	.L544
 7053 00e8 022B     		cmp	r3, #2
 7054 00ea B2D0     		beq	.L552
 808:../Bsp/OLED/GUISlim.c ****     }
 7055              		.loc 1 808 35 view .LVU1981
 7056 00ec 0022     		movs	r2, #0
 7057 00ee B3E7     		b	.L535
 7058              	.L544:
 805:../Bsp/OLED/GUISlim.c ****       case GUI_TA_CENTER: xAdjust = xLineSize / 2; break;
 7059              		.loc 1 805 5 view .LVU1982
 7060 00f0 0246     		mov	r2, r0
 7061 00f2 B1E7     		b	.L535
 7062              	.LVL716:
 7063              	.L536:
 818:../Bsp/OLED/GUISlim.c ****       case GUI_TA_CENTER:
 7064              		.loc 1 818 7 is_stmt 1 view .LVU1983
 818:../Bsp/OLED/GUISlim.c ****       case GUI_TA_CENTER:
 7065              		.loc 1 818 26 is_stmt 0 view .LVU1984
 7066 00f4 124A     		ldr	r2, .L554
 7067 00f6 B2F91A20 		ldrsh	r2, [r2, #26]
 818:../Bsp/OLED/GUISlim.c ****       case GUI_TA_CENTER:
 7068              		.loc 1 818 7 view .LVU1985
 7069 00fa 02F00302 		and	r2, r2, #3
 7070 00fe 013A     		subs	r2, r2, #1
 7071 0100 012A     		cmp	r2, #1
 7072 0102 0BD9     		bls	.L553
 824:../Bsp/OLED/GUISlim.c ****         break;
 7073              		.loc 1 824 9 is_stmt 1 view .LVU1986
 824:../Bsp/OLED/GUISlim.c ****         break;
 7074              		.loc 1 824 30 is_stmt 0 view .LVU1987
 7075 0104 0E4A     		ldr	r2, .L554
 7076 0106 0021     		movs	r1, #0
 7077 0108 9182     		strh	r1, [r2, #20]	@ movhi
 825:../Bsp/OLED/GUISlim.c ****       }
 7078              		.loc 1 825 9 is_stmt 1 view .LVU1988
 7079              	.L539:
 827:../Bsp/OLED/GUISlim.c ****         GUI_Context.DispPosY += FontSizeY;
 7080              		.loc 1 827 7 view .LVU1989
 827:../Bsp/OLED/GUISlim.c ****         GUI_Context.DispPosY += FontSizeY;
 7081              		.loc 1 827 11 is_stmt 0 view .LVU1990
 7082 010a 1A78     		ldrb	r2, [r3]	@ zero_extendqisi2
ARM GAS  C:\Users\fish\AppData\Local\Temp\cc4JAs8f.s 			page 177


 827:../Bsp/OLED/GUISlim.c ****         GUI_Context.DispPosY += FontSizeY;
 7083              		.loc 1 827 10 view .LVU1991
 7084 010c 0A2A     		cmp	r2, #10
 7085 010e D5D1     		bne	.L540
 828:../Bsp/OLED/GUISlim.c ****     } else {
 7086              		.loc 1 828 9 is_stmt 1 view .LVU1992
 828:../Bsp/OLED/GUISlim.c ****     } else {
 7087              		.loc 1 828 30 is_stmt 0 view .LVU1993
 7088 0110 19FA88F8 		uxtah	r8, r9, r8
 7089 0114 0A4A     		ldr	r2, .L554
 7090 0116 A2F81680 		strh	r8, [r2, #22]	@ movhi
 7091 011a CFE7     		b	.L540
 7092              	.L553:
 821:../Bsp/OLED/GUISlim.c ****         break;
 7093              		.loc 1 821 9 is_stmt 1 view .LVU1994
 821:../Bsp/OLED/GUISlim.c ****         break;
 7094              		.loc 1 821 30 is_stmt 0 view .LVU1995
 7095 011c 084A     		ldr	r2, .L554
 7096 011e A2F814B0 		strh	fp, [r2, #20]	@ movhi
 822:../Bsp/OLED/GUISlim.c ****       default:
 7097              		.loc 1 822 9 is_stmt 1 view .LVU1996
 7098 0122 F2E7     		b	.L539
 7099              	.LVL717:
 7100              	.L542:
 822:../Bsp/OLED/GUISlim.c ****       default:
 7101              		.loc 1 822 9 is_stmt 0 view .LVU1997
 7102              	.LBE44:
 837:../Bsp/OLED/GUISlim.c ****   GUI_Context.TextAlign &= ~GUI_TA_HORIZONTAL;
 7103              		.loc 1 837 3 is_stmt 1 view .LVU1998
 837:../Bsp/OLED/GUISlim.c ****   GUI_Context.TextAlign &= ~GUI_TA_HORIZONTAL;
 7104              		.loc 1 837 14 is_stmt 0 view .LVU1999
 7105 0124 064B     		ldr	r3, .L554
 7106 0126 DA8A     		ldrh	r2, [r3, #22]
 837:../Bsp/OLED/GUISlim.c ****   GUI_Context.TextAlign &= ~GUI_TA_HORIZONTAL;
 7107              		.loc 1 837 24 view .LVU2000
 7108 0128 9244     		add	r10, r10, r2
 7109 012a A3F816A0 		strh	r10, [r3, #22]	@ movhi
 838:../Bsp/OLED/GUISlim.c ****   GUI_UNLOCK();
 7110              		.loc 1 838 3 is_stmt 1 view .LVU2001
 838:../Bsp/OLED/GUISlim.c ****   GUI_UNLOCK();
 7111              		.loc 1 838 14 is_stmt 0 view .LVU2002
 7112 012e B3F91A20 		ldrsh	r2, [r3, #26]
 838:../Bsp/OLED/GUISlim.c ****   GUI_UNLOCK();
 7113              		.loc 1 838 25 view .LVU2003
 7114 0132 22F00302 		bic	r2, r2, #3
 7115 0136 5A83     		strh	r2, [r3, #26]	@ movhi
 839:../Bsp/OLED/GUISlim.c **** }
 7116              		.loc 1 839 15 is_stmt 1 view .LVU2004
 7117              	.L530:
 840:../Bsp/OLED/GUISlim.c **** 
 7118              		.loc 1 840 1 is_stmt 0 view .LVU2005
 7119 0138 05B0     		add	sp, sp, #20
 7120              		.cfi_def_cfa_offset 36
 7121              		@ sp needed
 7122 013a BDE8F08F 		pop	{r4, r5, r6, r7, r8, r9, r10, fp, pc}
 7123              	.LVL718:
 7124              	.L547:
ARM GAS  C:\Users\fish\AppData\Local\Temp\cc4JAs8f.s 			page 178


 7125              		.cfi_def_cfa_offset 0
 7126              		.cfi_restore 4
 7127              		.cfi_restore 5
 7128              		.cfi_restore 6
 7129              		.cfi_restore 7
 7130              		.cfi_restore 8
 7131              		.cfi_restore 9
 7132              		.cfi_restore 10
 7133              		.cfi_restore 11
 7134              		.cfi_restore 14
 840:../Bsp/OLED/GUISlim.c **** 
 7135              		.loc 1 840 1 view .LVU2006
 7136 013e 7047     		bx	lr
 7137              	.L555:
 7138              		.align	2
 7139              	.L554:
 7140 0140 00000000 		.word	GUI_Context
 7141              		.cfi_endproc
 7142              	.LFE291:
 7144              		.section	.text.GUI_DispStringAt,"ax",%progbits
 7145              		.align	1
 7146              		.global	GUI_DispStringAt
 7147              		.syntax unified
 7148              		.thumb
 7149              		.thumb_func
 7151              	GUI_DispStringAt:
 7152              	.LVL719:
 7153              	.LFB292:
 842:../Bsp/OLED/GUISlim.c ****   GUI_LOCK();
 7154              		.loc 1 842 64 is_stmt 1 view -0
 7155              		.cfi_startproc
 7156              		@ args = 0, pretend = 0, frame = 0
 7157              		@ frame_needed = 0, uses_anonymous_args = 0
 842:../Bsp/OLED/GUISlim.c ****   GUI_LOCK();
 7158              		.loc 1 842 64 is_stmt 0 view .LVU2008
 7159 0000 08B5     		push	{r3, lr}
 7160              		.cfi_def_cfa_offset 8
 7161              		.cfi_offset 3, -8
 7162              		.cfi_offset 14, -4
 843:../Bsp/OLED/GUISlim.c ****   GUI_Context.DispPosX = x;
 7163              		.loc 1 843 13 is_stmt 1 view .LVU2009
 844:../Bsp/OLED/GUISlim.c ****   GUI_Context.DispPosY = y;
 7164              		.loc 1 844 3 view .LVU2010
 844:../Bsp/OLED/GUISlim.c ****   GUI_Context.DispPosY = y;
 7165              		.loc 1 844 24 is_stmt 0 view .LVU2011
 7166 0002 034B     		ldr	r3, .L558
 7167 0004 9982     		strh	r1, [r3, #20]	@ movhi
 845:../Bsp/OLED/GUISlim.c ****   GUI_DispString(s);
 7168              		.loc 1 845 3 is_stmt 1 view .LVU2012
 845:../Bsp/OLED/GUISlim.c ****   GUI_DispString(s);
 7169              		.loc 1 845 24 is_stmt 0 view .LVU2013
 7170 0006 DA82     		strh	r2, [r3, #22]	@ movhi
 846:../Bsp/OLED/GUISlim.c ****   GUI_UNLOCK();
 7171              		.loc 1 846 3 is_stmt 1 view .LVU2014
 7172 0008 FFF7FEFF 		bl	GUI_DispString
 7173              	.LVL720:
 847:../Bsp/OLED/GUISlim.c **** }
ARM GAS  C:\Users\fish\AppData\Local\Temp\cc4JAs8f.s 			page 179


 7174              		.loc 1 847 15 view .LVU2015
 848:../Bsp/OLED/GUISlim.c **** 
 7175              		.loc 1 848 1 is_stmt 0 view .LVU2016
 7176 000c 08BD     		pop	{r3, pc}
 7177              	.L559:
 7178 000e 00BF     		.align	2
 7179              	.L558:
 7180 0010 00000000 		.word	GUI_Context
 7181              		.cfi_endproc
 7182              	.LFE292:
 7184              		.section	.text.GUI_DispStringHCenterAt,"ax",%progbits
 7185              		.align	1
 7186              		.global	GUI_DispStringHCenterAt
 7187              		.syntax unified
 7188              		.thumb
 7189              		.thumb_func
 7191              	GUI_DispStringHCenterAt:
 7192              	.LVL721:
 7193              	.LFB294:
 859:../Bsp/OLED/GUISlim.c ****   int Align;
 7194              		.loc 1 859 71 is_stmt 1 view -0
 7195              		.cfi_startproc
 7196              		@ args = 0, pretend = 0, frame = 0
 7197              		@ frame_needed = 0, uses_anonymous_args = 0
 859:../Bsp/OLED/GUISlim.c ****   int Align;
 7198              		.loc 1 859 71 is_stmt 0 view .LVU2018
 7199 0000 F8B5     		push	{r3, r4, r5, r6, r7, lr}
 7200              		.cfi_def_cfa_offset 24
 7201              		.cfi_offset 3, -24
 7202              		.cfi_offset 4, -20
 7203              		.cfi_offset 5, -16
 7204              		.cfi_offset 6, -12
 7205              		.cfi_offset 7, -8
 7206              		.cfi_offset 14, -4
 7207 0002 0546     		mov	r5, r0
 7208 0004 0E46     		mov	r6, r1
 7209 0006 1746     		mov	r7, r2
 860:../Bsp/OLED/GUISlim.c ****   Align = GUI_SetTextAlign((GUI_Context.TextAlign & ~GUI_TA_LEFT) | GUI_TA_CENTER);
 7210              		.loc 1 860 3 is_stmt 1 view .LVU2019
 861:../Bsp/OLED/GUISlim.c ****   GUI_DispStringAt(s, x, y);
 7211              		.loc 1 861 3 view .LVU2020
 861:../Bsp/OLED/GUISlim.c ****   GUI_DispStringAt(s, x, y);
 7212              		.loc 1 861 11 is_stmt 0 view .LVU2021
 7213 0008 084B     		ldr	r3, .L562
 7214 000a 588B     		ldrh	r0, [r3, #26]
 7215              	.LVL722:
 861:../Bsp/OLED/GUISlim.c ****   GUI_DispStringAt(s, x, y);
 7216              		.loc 1 861 11 view .LVU2022
 7217 000c 40F00200 		orr	r0, r0, #2
 7218 0010 00B2     		sxth	r0, r0
 7219 0012 FFF7FEFF 		bl	GUI_SetTextAlign
 7220              	.LVL723:
 861:../Bsp/OLED/GUISlim.c ****   GUI_DispStringAt(s, x, y);
 7221              		.loc 1 861 11 view .LVU2023
 7222 0016 0446     		mov	r4, r0
 7223              	.LVL724:
 862:../Bsp/OLED/GUISlim.c ****   GUI_SetTextAlign(Align);
ARM GAS  C:\Users\fish\AppData\Local\Temp\cc4JAs8f.s 			page 180


 7224              		.loc 1 862 3 is_stmt 1 view .LVU2024
 7225 0018 3A46     		mov	r2, r7
 7226 001a 3146     		mov	r1, r6
 7227 001c 2846     		mov	r0, r5
 7228              	.LVL725:
 862:../Bsp/OLED/GUISlim.c ****   GUI_SetTextAlign(Align);
 7229              		.loc 1 862 3 is_stmt 0 view .LVU2025
 7230 001e FFF7FEFF 		bl	GUI_DispStringAt
 7231              	.LVL726:
 863:../Bsp/OLED/GUISlim.c **** }
 7232              		.loc 1 863 3 is_stmt 1 view .LVU2026
 7233 0022 2046     		mov	r0, r4
 7234 0024 FFF7FEFF 		bl	GUI_SetTextAlign
 7235              	.LVL727:
 864:../Bsp/OLED/GUISlim.c **** 
 7236              		.loc 1 864 1 is_stmt 0 view .LVU2027
 7237 0028 F8BD     		pop	{r3, r4, r5, r6, r7, pc}
 7238              	.LVL728:
 7239              	.L563:
 864:../Bsp/OLED/GUISlim.c **** 
 7240              		.loc 1 864 1 view .LVU2028
 7241 002a 00BF     		.align	2
 7242              	.L562:
 7243 002c 00000000 		.word	GUI_Context
 7244              		.cfi_endproc
 7245              	.LFE294:
 7247              		.section	.text.GUI__DispStringInRect,"ax",%progbits
 7248              		.align	1
 7249              		.global	GUI__DispStringInRect
 7250              		.syntax unified
 7251              		.thumb
 7252              		.thumb_func
 7254              	GUI__DispStringInRect:
 7255              	.LVL729:
 7256              	.LFB298:
 895:../Bsp/OLED/GUISlim.c ****   GUI_RECT r;
 7257              		.loc 1 895 104 is_stmt 1 view -0
 7258              		.cfi_startproc
 7259              		@ args = 0, pretend = 0, frame = 24
 7260              		@ frame_needed = 0, uses_anonymous_args = 0
 895:../Bsp/OLED/GUISlim.c ****   GUI_RECT r;
 7261              		.loc 1 895 104 is_stmt 0 view .LVU2030
 7262 0000 2DE9F04F 		push	{r4, r5, r6, r7, r8, r9, r10, fp, lr}
 7263              		.cfi_def_cfa_offset 36
 7264              		.cfi_offset 4, -36
 7265              		.cfi_offset 5, -32
 7266              		.cfi_offset 6, -28
 7267              		.cfi_offset 7, -24
 7268              		.cfi_offset 8, -20
 7269              		.cfi_offset 9, -16
 7270              		.cfi_offset 10, -12
 7271              		.cfi_offset 11, -8
 7272              		.cfi_offset 14, -4
 7273 0004 87B0     		sub	sp, sp, #28
 7274              		.cfi_def_cfa_offset 64
 7275 0006 0546     		mov	r5, r0
 7276 0008 0C46     		mov	r4, r1
ARM GAS  C:\Users\fish\AppData\Local\Temp\cc4JAs8f.s 			page 181


 7277 000a 9046     		mov	r8, r2
 7278 000c 1E46     		mov	r6, r3
 896:../Bsp/OLED/GUISlim.c ****   GUI_RECT rLine;
 7279              		.loc 1 896 3 is_stmt 1 view .LVU2031
 897:../Bsp/OLED/GUISlim.c ****   int y = 0;
 7280              		.loc 1 897 3 view .LVU2032
 898:../Bsp/OLED/GUISlim.c **** 
 7281              		.loc 1 898 3 view .LVU2033
 7282              	.LVL730:
 900:../Bsp/OLED/GUISlim.c ****   int butf8 = detect_encoding_by_sequence(s);
 7283              		.loc 1 900 3 view .LVU2034
 900:../Bsp/OLED/GUISlim.c ****   int butf8 = detect_encoding_by_sequence(s);
 7284              		.loc 1 900 9 is_stmt 0 view .LVU2035
 7285 000e 0190     		str	r0, [sp, #4]
 901:../Bsp/OLED/GUISlim.c ****   if (butf8 == 1)
 7286              		.loc 1 901 3 is_stmt 1 view .LVU2036
 901:../Bsp/OLED/GUISlim.c ****   if (butf8 == 1)
 7287              		.loc 1 901 15 is_stmt 0 view .LVU2037
 7288 0010 FFF7FEFF 		bl	detect_encoding_by_sequence
 7289              	.LVL731:
 902:../Bsp/OLED/GUISlim.c **** 	  ss = utf8_string_to_gbk_with_table(s);
 7290              		.loc 1 902 3 is_stmt 1 view .LVU2038
 902:../Bsp/OLED/GUISlim.c **** 	  ss = utf8_string_to_gbk_with_table(s);
 7291              		.loc 1 902 6 is_stmt 0 view .LVU2039
 7292 0014 0128     		cmp	r0, #1
 7293 0016 18D0     		beq	.L587
 904:../Bsp/OLED/GUISlim.c **** 	  ss = mixed_string_to_gbk(s);
 7294              		.loc 1 904 8 is_stmt 1 view .LVU2040
 904:../Bsp/OLED/GUISlim.c **** 	  ss = mixed_string_to_gbk(s);
 7295              		.loc 1 904 11 is_stmt 0 view .LVU2041
 7296 0018 0328     		cmp	r0, #3
 7297 001a 1BD0     		beq	.L588
 7298              	.LVL732:
 7299              	.L566:
 906:../Bsp/OLED/GUISlim.c **** 	  return;
 7300              		.loc 1 906 3 is_stmt 1 view .LVU2042
 906:../Bsp/OLED/GUISlim.c **** 	  return;
 7301              		.loc 1 906 7 is_stmt 0 view .LVU2043
 7302 001c DDF804B0 		ldr	fp, [sp, #4]
 906:../Bsp/OLED/GUISlim.c **** 	  return;
 7303              		.loc 1 906 6 view .LVU2044
 7304 0020 BBF1000F 		cmp	fp, #0
 7305 0024 00F0A480 		beq	.L564
 908:../Bsp/OLED/GUISlim.c ****   int FontYSize;
 7306              		.loc 1 908 3 is_stmt 1 view .LVU2045
 7307              	.LVL733:
 909:../Bsp/OLED/GUISlim.c ****   int xLine = 0;
 7308              		.loc 1 909 3 view .LVU2046
 910:../Bsp/OLED/GUISlim.c ****   int LineLen;
 7309              		.loc 1 910 3 view .LVU2047
 911:../Bsp/OLED/GUISlim.c ****   int NumCharsRem;           /* Number of remaining characters */
 7310              		.loc 1 911 3 view .LVU2048
 912:../Bsp/OLED/GUISlim.c ****   FontYSize = GUI_GetFontSizeY();
 7311              		.loc 1 912 3 view .LVU2049
 913:../Bsp/OLED/GUISlim.c ****   if (pRect) {
 7312              		.loc 1 913 3 view .LVU2050
 913:../Bsp/OLED/GUISlim.c ****   if (pRect) {
ARM GAS  C:\Users\fish\AppData\Local\Temp\cc4JAs8f.s 			page 182


 7313              		.loc 1 913 15 is_stmt 0 view .LVU2051
 7314 0028 FFF7FEFF 		bl	GUI_GetFontSizeY
 7315              	.LVL734:
 7316 002c 8146     		mov	r9, r0
 7317              	.LVL735:
 914:../Bsp/OLED/GUISlim.c ****     r = *pRect;
 7318              		.loc 1 914 3 is_stmt 1 view .LVU2052
 914:../Bsp/OLED/GUISlim.c ****     r = *pRect;
 7319              		.loc 1 914 6 is_stmt 0 view .LVU2053
 7320 002e B4B1     		cbz	r4, .L569
 915:../Bsp/OLED/GUISlim.c ****   } else {
 7321              		.loc 1 915 5 is_stmt 1 view .LVU2054
 915:../Bsp/OLED/GUISlim.c ****   } else {
 7322              		.loc 1 915 7 is_stmt 0 view .LVU2055
 7323 0030 04AB     		add	r3, sp, #16
 7324 0032 2068     		ldr	r0, [r4]	@ unaligned
 7325              	.LVL736:
 915:../Bsp/OLED/GUISlim.c ****   } else {
 7326              		.loc 1 915 7 view .LVU2056
 7327 0034 6168     		ldr	r1, [r4, #4]	@ unaligned
 7328 0036 03C3     		stmia	r3!, {r0, r1}
 7329              	.L570:
 920:../Bsp/OLED/GUISlim.c **** 		y = r.y0;
 7330              		.loc 1 920 3 is_stmt 1 view .LVU2057
 920:../Bsp/OLED/GUISlim.c **** 		y = r.y0;
 7331              		.loc 1 920 6 is_stmt 0 view .LVU2058
 7332 0038 18F00C07 		ands	r7, r8, #12
 7333 003c 13D1     		bne	.L584
 921:../Bsp/OLED/GUISlim.c ****   } else {
 7334              		.loc 1 921 3 is_stmt 1 view .LVU2059
 921:../Bsp/OLED/GUISlim.c ****   } else {
 7335              		.loc 1 921 8 is_stmt 0 view .LVU2060
 7336 003e BDF91270 		ldrsh	r7, [sp, #18]
 7337              	.LVL737:
 7338              	.L572:
 944:../Bsp/OLED/GUISlim.c ****     int xLineSize;
 7339              		.loc 1 944 3 is_stmt 1 view .LVU2061
 944:../Bsp/OLED/GUISlim.c ****     int xLineSize;
 7340              		.loc 1 944 38 is_stmt 0 view .LVU2062
 7341 0042 CDF804B0 		str	fp, [sp, #4]
 910:../Bsp/OLED/GUISlim.c ****   int LineLen;
 7342              		.loc 1 910 7 view .LVU2063
 7343 0046 0025     		movs	r5, #0
 944:../Bsp/OLED/GUISlim.c ****     int xLineSize;
 7344              		.loc 1 944 3 view .LVU2064
 7345 0048 74E0     		b	.L577
 7346              	.LVL738:
 7347              	.L587:
 903:../Bsp/OLED/GUISlim.c ****   else if (butf8 == 3)
 7348              		.loc 1 903 4 is_stmt 1 view .LVU2065
 903:../Bsp/OLED/GUISlim.c ****   else if (butf8 == 3)
 7349              		.loc 1 903 9 is_stmt 0 view .LVU2066
 7350 004a 2846     		mov	r0, r5
 7351              	.LVL739:
 903:../Bsp/OLED/GUISlim.c ****   else if (butf8 == 3)
 7352              		.loc 1 903 9 view .LVU2067
 7353 004c FFF7FEFF 		bl	utf8_string_to_gbk_with_table
ARM GAS  C:\Users\fish\AppData\Local\Temp\cc4JAs8f.s 			page 183


 7354              	.LVL740:
 903:../Bsp/OLED/GUISlim.c ****   else if (butf8 == 3)
 7355              		.loc 1 903 7 discriminator 1 view .LVU2068
 7356 0050 0190     		str	r0, [sp, #4]
 7357 0052 E3E7     		b	.L566
 7358              	.LVL741:
 7359              	.L588:
 905:../Bsp/OLED/GUISlim.c ****   if (!ss)
 7360              		.loc 1 905 4 is_stmt 1 view .LVU2069
 905:../Bsp/OLED/GUISlim.c ****   if (!ss)
 7361              		.loc 1 905 9 is_stmt 0 view .LVU2070
 7362 0054 2846     		mov	r0, r5
 7363              	.LVL742:
 905:../Bsp/OLED/GUISlim.c ****   if (!ss)
 7364              		.loc 1 905 9 view .LVU2071
 7365 0056 FFF7FEFF 		bl	mixed_string_to_gbk
 7366              	.LVL743:
 905:../Bsp/OLED/GUISlim.c ****   if (!ss)
 7367              		.loc 1 905 7 discriminator 1 view .LVU2072
 7368 005a 0190     		str	r0, [sp, #4]
 7369 005c DEE7     		b	.L566
 7370              	.LVL744:
 7371              	.L569:
 917:../Bsp/OLED/GUISlim.c ****   }
 7372              		.loc 1 917 5 is_stmt 1 view .LVU2073
 7373 005e 04A8     		add	r0, sp, #16
 7374              	.LVL745:
 917:../Bsp/OLED/GUISlim.c ****   }
 7375              		.loc 1 917 5 is_stmt 0 view .LVU2074
 7376 0060 FFF7FEFF 		bl	GUI_GetClientRect
 7377              	.LVL746:
 7378 0064 E8E7     		b	.L570
 7379              	.L584:
 7380              	.LBB45:
 925:../Bsp/OLED/GUISlim.c ****       LineLen = GUI__GetLineNumChars(ss, NumCharsRem);
 7381              		.loc 1 925 22 view .LVU2075
 7382 0066 3546     		mov	r5, r6
 7383              	.LVL747:
 925:../Bsp/OLED/GUISlim.c ****       LineLen = GUI__GetLineNumChars(ss, NumCharsRem);
 7384              		.loc 1 925 46 view .LVU2076
 7385 0068 4FF0010A 		mov	r10, #1
 7386              	.LVL748:
 7387              	.L571:
 925:../Bsp/OLED/GUISlim.c ****       LineLen = GUI__GetLineNumChars(ss, NumCharsRem);
 7388              		.loc 1 925 51 is_stmt 1 discriminator 1 view .LVU2077
 7389 006c 95B1     		cbz	r5, .L573
 926:../Bsp/OLED/GUISlim.c ****       NumCharsRem -= LineLen;
 7390              		.loc 1 926 7 view .LVU2078
 926:../Bsp/OLED/GUISlim.c ****       NumCharsRem -= LineLen;
 7391              		.loc 1 926 17 is_stmt 0 view .LVU2079
 7392 006e 019C     		ldr	r4, [sp, #4]
 7393 0070 2946     		mov	r1, r5
 7394 0072 2046     		mov	r0, r4
 7395 0074 FFF7FEFF 		bl	GUI__GetLineNumChars
 7396              	.LVL749:
 7397 0078 0146     		mov	r1, r0
 7398              	.LVL750:
ARM GAS  C:\Users\fish\AppData\Local\Temp\cc4JAs8f.s 			page 184


 927:../Bsp/OLED/GUISlim.c ****       ss += GUI_UC__NumChars2NumBytes(ss, LineLen);
 7399              		.loc 1 927 7 is_stmt 1 view .LVU2080
 927:../Bsp/OLED/GUISlim.c ****       ss += GUI_UC__NumChars2NumBytes(ss, LineLen);
 7400              		.loc 1 927 19 is_stmt 0 view .LVU2081
 7401 007a 2D1A     		subs	r5, r5, r0
 7402              	.LVL751:
 928:../Bsp/OLED/GUISlim.c ****       if (GUI__HandleEOLine((const char **)&ss))
 7403              		.loc 1 928 7 is_stmt 1 view .LVU2082
 928:../Bsp/OLED/GUISlim.c ****       if (GUI__HandleEOLine((const char **)&ss))
 7404              		.loc 1 928 13 is_stmt 0 view .LVU2083
 7405 007c 2046     		mov	r0, r4
 7406              	.LVL752:
 928:../Bsp/OLED/GUISlim.c ****       if (GUI__HandleEOLine((const char **)&ss))
 7407              		.loc 1 928 13 view .LVU2084
 7408 007e FFF7FEFF 		bl	GUI_UC__NumChars2NumBytes
 7409              	.LVL753:
 928:../Bsp/OLED/GUISlim.c ****       if (GUI__HandleEOLine((const char **)&ss))
 7410              		.loc 1 928 10 discriminator 1 view .LVU2085
 7411 0082 0444     		add	r4, r4, r0
 7412 0084 0194     		str	r4, [sp, #4]
 929:../Bsp/OLED/GUISlim.c ****         break;
 7413              		.loc 1 929 7 is_stmt 1 view .LVU2086
 929:../Bsp/OLED/GUISlim.c ****         break;
 7414              		.loc 1 929 11 is_stmt 0 view .LVU2087
 7415 0086 01A8     		add	r0, sp, #4
 7416 0088 FFF7FEFF 		bl	GUI__HandleEOLine
 7417              	.LVL754:
 929:../Bsp/OLED/GUISlim.c ****         break;
 7418              		.loc 1 929 10 discriminator 1 view .LVU2088
 7419 008c 10B9     		cbnz	r0, .L573
 925:../Bsp/OLED/GUISlim.c ****       LineLen = GUI__GetLineNumChars(ss, NumCharsRem);
 7420              		.loc 1 925 72 is_stmt 1 discriminator 2 view .LVU2089
 7421 008e 0AF1010A 		add	r10, r10, #1
 7422              	.LVL755:
 925:../Bsp/OLED/GUISlim.c ****       LineLen = GUI__GetLineNumChars(ss, NumCharsRem);
 7423              		.loc 1 925 72 is_stmt 0 discriminator 2 view .LVU2090
 7424 0092 EBE7     		b	.L571
 7425              	.LVL756:
 7426              	.L573:
 933:../Bsp/OLED/GUISlim.c **** 	  case GUI_TA_BASELINE:
 7427              		.loc 1 933 5 is_stmt 1 view .LVU2091
 7428 0094 082F     		cmp	r7, #8
 7429 0096 05D0     		beq	.L575
 7430 0098 0C2F     		cmp	r7, #12
 7431 009a 09D0     		beq	.L576
 7432 009c 042F     		cmp	r7, #4
 7433 009e 01D0     		beq	.L575
 7434 00a0 0027     		movs	r7, #0
 7435 00a2 CEE7     		b	.L572
 7436              	.L575:
 936:../Bsp/OLED/GUISlim.c ****       break;
 7437              		.loc 1 936 4 view .LVU2092
 936:../Bsp/OLED/GUISlim.c ****       break;
 7438              		.loc 1 936 9 is_stmt 0 view .LVU2093
 7439 00a4 BDF91670 		ldrsh	r7, [sp, #22]
 936:../Bsp/OLED/GUISlim.c ****       break;
 7440              		.loc 1 936 13 view .LVU2094
ARM GAS  C:\Users\fish\AppData\Local\Temp\cc4JAs8f.s 			page 185


 7441 00a8 09FB1A77 		mls	r7, r9, r10, r7
 936:../Bsp/OLED/GUISlim.c ****       break;
 7442              		.loc 1 936 6 view .LVU2095
 7443 00ac 0137     		adds	r7, r7, #1
 7444              	.LVL757:
 937:../Bsp/OLED/GUISlim.c **** 	  case GUI_TA_VCENTER:
 7445              		.loc 1 937 7 is_stmt 1 view .LVU2096
 7446 00ae C8E7     		b	.L572
 7447              	.LVL758:
 7448              	.L576:
 939:../Bsp/OLED/GUISlim.c ****       break;
 7449              		.loc 1 939 5 view .LVU2097
 939:../Bsp/OLED/GUISlim.c ****       break;
 7450              		.loc 1 939 10 is_stmt 0 view .LVU2098
 7451 00b0 BDF91270 		ldrsh	r7, [sp, #18]
 939:../Bsp/OLED/GUISlim.c ****       break;
 7452              		.loc 1 939 16 view .LVU2099
 7453 00b4 BDF91630 		ldrsh	r3, [sp, #22]
 939:../Bsp/OLED/GUISlim.c ****       break;
 7454              		.loc 1 939 19 view .LVU2100
 7455 00b8 DB1B     		subs	r3, r3, r7
 939:../Bsp/OLED/GUISlim.c ****       break;
 7456              		.loc 1 939 24 view .LVU2101
 7457 00ba 0133     		adds	r3, r3, #1
 939:../Bsp/OLED/GUISlim.c ****       break;
 7458              		.loc 1 939 27 view .LVU2102
 7459 00bc 09FB1A33 		mls	r3, r9, r10, r3
 939:../Bsp/OLED/GUISlim.c ****       break;
 7460              		.loc 1 939 50 view .LVU2103
 7461 00c0 03EBD373 		add	r3, r3, r3, lsr #31
 939:../Bsp/OLED/GUISlim.c ****       break;
 7462              		.loc 1 939 7 view .LVU2104
 7463 00c4 07EB6307 		add	r7, r7, r3, asr #1
 7464              	.LVL759:
 940:../Bsp/OLED/GUISlim.c **** 	  }
 7465              		.loc 1 940 7 is_stmt 1 view .LVU2105
 7466 00c8 BBE7     		b	.L572
 7467              	.LVL760:
 7468              	.L579:
 940:../Bsp/OLED/GUISlim.c **** 	  }
 7469              		.loc 1 940 7 is_stmt 0 view .LVU2106
 7470              	.LBE45:
 7471              	.LBB46:
 951:../Bsp/OLED/GUISlim.c ****     case GUI_TA_LEFT:
 7472              		.loc 1 951 7 is_stmt 1 view .LVU2107
 951:../Bsp/OLED/GUISlim.c ****     case GUI_TA_LEFT:
 7473              		.loc 1 951 16 is_stmt 0 view .LVU2108
 7474 00ca BDF91050 		ldrsh	r5, [sp, #16]
 7475              	.LVL761:
 951:../Bsp/OLED/GUISlim.c ****     case GUI_TA_LEFT:
 7476              		.loc 1 951 22 view .LVU2109
 7477 00ce BDF91430 		ldrsh	r3, [sp, #20]
 951:../Bsp/OLED/GUISlim.c ****     case GUI_TA_LEFT:
 7478              		.loc 1 951 25 view .LVU2110
 7479 00d2 5B1B     		subs	r3, r3, r5
 951:../Bsp/OLED/GUISlim.c ****     case GUI_TA_LEFT:
 7480              		.loc 1 951 30 view .LVU2111
ARM GAS  C:\Users\fish\AppData\Local\Temp\cc4JAs8f.s 			page 186


 7481 00d4 1B1A     		subs	r3, r3, r0
 951:../Bsp/OLED/GUISlim.c ****     case GUI_TA_LEFT:
 7482              		.loc 1 951 41 view .LVU2112
 7483 00d6 03EBD373 		add	r3, r3, r3, lsr #31
 951:../Bsp/OLED/GUISlim.c ****     case GUI_TA_LEFT:
 7484              		.loc 1 951 13 view .LVU2113
 7485 00da 05EB6305 		add	r5, r5, r3, asr #1
 7486              	.LVL762:
 951:../Bsp/OLED/GUISlim.c ****     case GUI_TA_LEFT:
 7487              		.loc 1 951 45 is_stmt 1 view .LVU2114
 7488              	.L581:
 957:../Bsp/OLED/GUISlim.c ****     rLine.x1 = rLine.x0 + xLineSize-1;
 7489              		.loc 1 957 5 view .LVU2115
 957:../Bsp/OLED/GUISlim.c ****     rLine.x1 = rLine.x0 + xLineSize-1;
 7490              		.loc 1 957 37 is_stmt 0 view .LVU2116
 7491 00de 2BB2     		sxth	r3, r5
 7492 00e0 254A     		ldr	r2, .L589
 7493 00e2 9382     		strh	r3, [r2, #20]	@ movhi
 957:../Bsp/OLED/GUISlim.c ****     rLine.x1 = rLine.x0 + xLineSize-1;
 7494              		.loc 1 957 14 view .LVU2117
 7495 00e4 ADF80830 		strh	r3, [sp, #8]	@ movhi
 958:../Bsp/OLED/GUISlim.c ****     rLine.y0 = GUI_Context.DispPosY = y;
 7496              		.loc 1 958 5 is_stmt 1 view .LVU2118
 958:../Bsp/OLED/GUISlim.c ****     rLine.y0 = GUI_Context.DispPosY = y;
 7497              		.loc 1 958 25 is_stmt 0 view .LVU2119
 7498 00e8 1CFA85FC 		uxtah	ip, ip, r5
 7499 00ec 1FFA8CFC 		uxth	ip, ip
 958:../Bsp/OLED/GUISlim.c ****     rLine.y0 = GUI_Context.DispPosY = y;
 7500              		.loc 1 958 36 view .LVU2120
 7501 00f0 0CF1FF3C 		add	ip, ip, #-1
 958:../Bsp/OLED/GUISlim.c ****     rLine.y0 = GUI_Context.DispPosY = y;
 7502              		.loc 1 958 14 view .LVU2121
 7503 00f4 ADF80CC0 		strh	ip, [sp, #12]	@ movhi
 959:../Bsp/OLED/GUISlim.c ****     rLine.y1 = y + FontYSize-1;
 7504              		.loc 1 959 5 is_stmt 1 view .LVU2122
 959:../Bsp/OLED/GUISlim.c ****     rLine.y1 = y + FontYSize-1;
 7505              		.loc 1 959 37 is_stmt 0 view .LVU2123
 7506 00f8 3BB2     		sxth	r3, r7
 7507 00fa D382     		strh	r3, [r2, #22]	@ movhi
 959:../Bsp/OLED/GUISlim.c ****     rLine.y1 = y + FontYSize-1;
 7508              		.loc 1 959 14 view .LVU2124
 7509 00fc ADF80A30 		strh	r3, [sp, #10]	@ movhi
 960:../Bsp/OLED/GUISlim.c ****     GUI__DispLine(ss, LineLen, &rLine);
 7510              		.loc 1 960 5 is_stmt 1 view .LVU2125
 960:../Bsp/OLED/GUISlim.c ****     GUI__DispLine(ss, LineLen, &rLine);
 7511              		.loc 1 960 18 is_stmt 0 view .LVU2126
 7512 0100 07EB0903 		add	r3, r7, r9
 7513 0104 9BB2     		uxth	r3, r3
 960:../Bsp/OLED/GUISlim.c ****     GUI__DispLine(ss, LineLen, &rLine);
 7514              		.loc 1 960 29 view .LVU2127
 7515 0106 013B     		subs	r3, r3, #1
 960:../Bsp/OLED/GUISlim.c ****     GUI__DispLine(ss, LineLen, &rLine);
 7516              		.loc 1 960 14 view .LVU2128
 7517 0108 ADF80E30 		strh	r3, [sp, #14]	@ movhi
 961:../Bsp/OLED/GUISlim.c ****     ss += GUI_UC__NumChars2NumBytes(ss, LineLen);
 7518              		.loc 1 961 5 is_stmt 1 view .LVU2129
 7519 010c 02AA     		add	r2, sp, #8
ARM GAS  C:\Users\fish\AppData\Local\Temp\cc4JAs8f.s 			page 187


 7520 010e 2146     		mov	r1, r4
 7521 0110 0198     		ldr	r0, [sp, #4]
 7522              	.LVL763:
 961:../Bsp/OLED/GUISlim.c ****     ss += GUI_UC__NumChars2NumBytes(ss, LineLen);
 7523              		.loc 1 961 5 is_stmt 0 view .LVU2130
 7524 0112 FFF7FEFF 		bl	GUI__DispLine
 7525              	.LVL764:
 962:../Bsp/OLED/GUISlim.c ****     y += GUI_GetFontDistY();
 7526              		.loc 1 962 5 is_stmt 1 view .LVU2131
 962:../Bsp/OLED/GUISlim.c ****     y += GUI_GetFontDistY();
 7527              		.loc 1 962 11 is_stmt 0 view .LVU2132
 7528 0116 DDF804A0 		ldr	r10, [sp, #4]
 7529 011a 2146     		mov	r1, r4
 7530 011c 5046     		mov	r0, r10
 7531 011e FFF7FEFF 		bl	GUI_UC__NumChars2NumBytes
 7532              	.LVL765:
 962:../Bsp/OLED/GUISlim.c ****     y += GUI_GetFontDistY();
 7533              		.loc 1 962 8 discriminator 1 view .LVU2133
 7534 0122 5044     		add	r0, r0, r10
 7535 0124 0190     		str	r0, [sp, #4]
 963:../Bsp/OLED/GUISlim.c ****     if (GUI__HandleEOLine((const char **)&ss))
 7536              		.loc 1 963 5 is_stmt 1 view .LVU2134
 963:../Bsp/OLED/GUISlim.c ****     if (GUI__HandleEOLine((const char **)&ss))
 7537              		.loc 1 963 10 is_stmt 0 view .LVU2135
 7538 0126 FFF7FEFF 		bl	GUI_GetFontDistY
 7539              	.LVL766:
 963:../Bsp/OLED/GUISlim.c ****     if (GUI__HandleEOLine((const char **)&ss))
 7540              		.loc 1 963 7 discriminator 1 view .LVU2136
 7541 012a 0744     		add	r7, r7, r0
 7542              	.LVL767:
 964:../Bsp/OLED/GUISlim.c ****       break;
 7543              		.loc 1 964 5 is_stmt 1 view .LVU2137
 964:../Bsp/OLED/GUISlim.c ****       break;
 7544              		.loc 1 964 9 is_stmt 0 view .LVU2138
 7545 012c 01A8     		add	r0, sp, #4
 7546 012e FFF7FEFF 		bl	GUI__HandleEOLine
 7547              	.LVL768:
 964:../Bsp/OLED/GUISlim.c ****       break;
 7548              		.loc 1 964 8 discriminator 1 view .LVU2139
 7549 0132 E8B9     		cbnz	r0, .L564
 7550              	.LVL769:
 7551              	.L577:
 964:../Bsp/OLED/GUISlim.c ****       break;
 7552              		.loc 1 964 8 discriminator 1 view .LVU2140
 7553              	.LBE46:
 944:../Bsp/OLED/GUISlim.c ****     int xLineSize;
 7554              		.loc 1 944 54 is_stmt 1 discriminator 1 view .LVU2141
 7555 0134 E6B1     		cbz	r6, .L564
 7556              	.LBB47:
 945:../Bsp/OLED/GUISlim.c ****     LineLen = GUI__GetLineNumChars(ss, NumCharsRem);
 7557              		.loc 1 945 5 view .LVU2142
 946:../Bsp/OLED/GUISlim.c ****     NumCharsRem -= LineLen;
 7558              		.loc 1 946 5 view .LVU2143
 946:../Bsp/OLED/GUISlim.c ****     NumCharsRem -= LineLen;
 7559              		.loc 1 946 15 is_stmt 0 view .LVU2144
 7560 0136 DDF804A0 		ldr	r10, [sp, #4]
 7561 013a 3146     		mov	r1, r6
ARM GAS  C:\Users\fish\AppData\Local\Temp\cc4JAs8f.s 			page 188


 7562 013c 5046     		mov	r0, r10
 7563 013e FFF7FEFF 		bl	GUI__GetLineNumChars
 7564              	.LVL770:
 7565 0142 0446     		mov	r4, r0
 7566              	.LVL771:
 947:../Bsp/OLED/GUISlim.c ****     xLineSize = GUI__GetLineDistX(ss, LineLen);
 7567              		.loc 1 947 5 is_stmt 1 view .LVU2145
 947:../Bsp/OLED/GUISlim.c ****     xLineSize = GUI__GetLineDistX(ss, LineLen);
 7568              		.loc 1 947 17 is_stmt 0 view .LVU2146
 7569 0144 361A     		subs	r6, r6, r0
 7570              	.LVL772:
 948:../Bsp/OLED/GUISlim.c ****     switch (TextAlign & GUI_TA_HORIZONTAL) {
 7571              		.loc 1 948 5 is_stmt 1 view .LVU2147
 948:../Bsp/OLED/GUISlim.c ****     switch (TextAlign & GUI_TA_HORIZONTAL) {
 7572              		.loc 1 948 17 is_stmt 0 view .LVU2148
 7573 0146 0146     		mov	r1, r0
 7574 0148 5046     		mov	r0, r10
 7575              	.LVL773:
 948:../Bsp/OLED/GUISlim.c ****     switch (TextAlign & GUI_TA_HORIZONTAL) {
 7576              		.loc 1 948 17 view .LVU2149
 7577 014a FFF7FEFF 		bl	GUI__GetLineDistX
 7578              	.LVL774:
 948:../Bsp/OLED/GUISlim.c ****     switch (TextAlign & GUI_TA_HORIZONTAL) {
 7579              		.loc 1 948 17 view .LVU2150
 7580 014e 8446     		mov	ip, r0
 7581              	.LVL775:
 949:../Bsp/OLED/GUISlim.c ****     case GUI_TA_HCENTER:
 7582              		.loc 1 949 5 is_stmt 1 view .LVU2151
 949:../Bsp/OLED/GUISlim.c ****     case GUI_TA_HCENTER:
 7583              		.loc 1 949 23 is_stmt 0 view .LVU2152
 7584 0150 08F00303 		and	r3, r8, #3
 949:../Bsp/OLED/GUISlim.c ****     case GUI_TA_HCENTER:
 7585              		.loc 1 949 5 view .LVU2153
 7586 0154 012B     		cmp	r3, #1
 7587 0156 06D0     		beq	.L578
 7588 0158 022B     		cmp	r3, #2
 7589 015a B6D0     		beq	.L579
 7590 015c 002B     		cmp	r3, #0
 7591 015e BED1     		bne	.L581
 953:../Bsp/OLED/GUISlim.c ****     case GUI_TA_RIGHT:
 7592              		.loc 1 953 7 is_stmt 1 view .LVU2154
 953:../Bsp/OLED/GUISlim.c ****     case GUI_TA_RIGHT:
 7593              		.loc 1 953 16 is_stmt 0 view .LVU2155
 7594 0160 BDF91050 		ldrsh	r5, [sp, #16]
 7595              	.LVL776:
 953:../Bsp/OLED/GUISlim.c ****     case GUI_TA_RIGHT:
 7596              		.loc 1 953 21 is_stmt 1 view .LVU2156
 7597 0164 BBE7     		b	.L581
 7598              	.L578:
 955:../Bsp/OLED/GUISlim.c ****     }
 7599              		.loc 1 955 7 view .LVU2157
 955:../Bsp/OLED/GUISlim.c ****     }
 7600              		.loc 1 955 16 is_stmt 0 view .LVU2158
 7601 0166 BDF91450 		ldrsh	r5, [sp, #20]
 7602              	.LVL777:
 955:../Bsp/OLED/GUISlim.c ****     }
 7603              		.loc 1 955 20 view .LVU2159
ARM GAS  C:\Users\fish\AppData\Local\Temp\cc4JAs8f.s 			page 189


 7604 016a 2D1A     		subs	r5, r5, r0
 955:../Bsp/OLED/GUISlim.c ****     }
 7605              		.loc 1 955 13 view .LVU2160
 7606 016c 0135     		adds	r5, r5, #1
 7607 016e B6E7     		b	.L581
 7608              	.LVL778:
 7609              	.L564:
 955:../Bsp/OLED/GUISlim.c ****     }
 7610              		.loc 1 955 13 view .LVU2161
 7611              	.LBE47:
 969:../Bsp/OLED/GUISlim.c **** 
 7612              		.loc 1 969 1 view .LVU2162
 7613 0170 07B0     		add	sp, sp, #28
 7614              		.cfi_def_cfa_offset 36
 7615              		@ sp needed
 7616 0172 BDE8F08F 		pop	{r4, r5, r6, r7, r8, r9, r10, fp, pc}
 7617              	.LVL779:
 7618              	.L590:
 969:../Bsp/OLED/GUISlim.c **** 
 7619              		.loc 1 969 1 view .LVU2163
 7620 0176 00BF     		.align	2
 7621              	.L589:
 7622 0178 00000000 		.word	GUI_Context
 7623              		.cfi_endproc
 7624              	.LFE298:
 7626              		.section	.text.GUI_DispStringInRectMax,"ax",%progbits
 7627              		.align	1
 7628              		.global	GUI_DispStringInRectMax
 7629              		.syntax unified
 7630              		.thumb
 7631              		.thumb_func
 7633              	GUI_DispStringInRectMax:
 7634              	.LVL780:
 7635              	.LFB301:
 993:../Bsp/OLED/GUISlim.c ****   GUI_RECT Rect_Old, r;
 7636              		.loc 1 993 101 is_stmt 1 view -0
 7637              		.cfi_startproc
 7638              		@ args = 0, pretend = 0, frame = 16
 7639              		@ frame_needed = 0, uses_anonymous_args = 0
 994:../Bsp/OLED/GUISlim.c ****   if (s && pRect) {
 7640              		.loc 1 994 3 view .LVU2165
 995:../Bsp/OLED/GUISlim.c ****     GUI_LOCK();
 7641              		.loc 1 995 3 view .LVU2166
 995:../Bsp/OLED/GUISlim.c ****     GUI_LOCK();
 7642              		.loc 1 995 6 is_stmt 0 view .LVU2167
 7643 0000 08B3     		cbz	r0, .L594
 993:../Bsp/OLED/GUISlim.c ****   GUI_RECT Rect_Old, r;
 7644              		.loc 1 993 101 view .LVU2168
 7645 0002 2DE9F043 		push	{r4, r5, r6, r7, r8, r9, lr}
 7646              		.cfi_def_cfa_offset 28
 7647              		.cfi_offset 4, -28
 7648              		.cfi_offset 5, -24
 7649              		.cfi_offset 6, -20
 7650              		.cfi_offset 7, -16
 7651              		.cfi_offset 8, -12
 7652              		.cfi_offset 9, -8
 7653              		.cfi_offset 14, -4
ARM GAS  C:\Users\fish\AppData\Local\Temp\cc4JAs8f.s 			page 190


 7654 0006 85B0     		sub	sp, sp, #20
 7655              		.cfi_def_cfa_offset 48
 7656 0008 0C46     		mov	r4, r1
 7657 000a 1646     		mov	r6, r2
 7658 000c 1D46     		mov	r5, r3
 7659 000e 8046     		mov	r8, r0
 995:../Bsp/OLED/GUISlim.c ****     GUI_LOCK();
 7660              		.loc 1 995 9 discriminator 1 view .LVU2169
 7661 0010 B1B1     		cbz	r1, .L591
 996:../Bsp/OLED/GUISlim.c ****     Rect_Old = GUI_Context.ClipRect;
 7662              		.loc 1 996 15 is_stmt 1 view .LVU2170
 997:../Bsp/OLED/GUISlim.c ****     GUI__IntersectRects(&r, pRect, &Rect_Old);
 7663              		.loc 1 997 5 view .LVU2171
 997:../Bsp/OLED/GUISlim.c ****     GUI__IntersectRects(&r, pRect, &Rect_Old);
 7664              		.loc 1 997 14 is_stmt 0 view .LVU2172
 7665 0012 0D4B     		ldr	r3, .L597
 7666              	.LVL781:
 997:../Bsp/OLED/GUISlim.c ****     GUI__IntersectRects(&r, pRect, &Rect_Old);
 7667              		.loc 1 997 14 view .LVU2173
 7668 0014 02AF     		add	r7, sp, #8
 7669 0016 93E80300 		ldm	r3, {r0, r1}
 7670              	.LVL782:
 997:../Bsp/OLED/GUISlim.c ****     GUI__IntersectRects(&r, pRect, &Rect_Old);
 7671              		.loc 1 997 14 view .LVU2174
 7672 001a 87E80300 		stm	r7, {r0, r1}
 998:../Bsp/OLED/GUISlim.c ****     LCD_SetClipRectEx(&r);
 7673              		.loc 1 998 5 is_stmt 1 view .LVU2175
 7674 001e 3A46     		mov	r2, r7
 7675              	.LVL783:
 998:../Bsp/OLED/GUISlim.c ****     LCD_SetClipRectEx(&r);
 7676              		.loc 1 998 5 is_stmt 0 view .LVU2176
 7677 0020 2146     		mov	r1, r4
 7678 0022 6846     		mov	r0, sp
 7679 0024 FFF7FEFF 		bl	GUI__IntersectRects
 7680              	.LVL784:
 999:../Bsp/OLED/GUISlim.c ****     GUI__DispStringInRect(s, pRect, TextAlign, MaxLen);
 7681              		.loc 1 999 5 is_stmt 1 view .LVU2177
 7682 0028 6846     		mov	r0, sp
 7683 002a FFF7FEFF 		bl	LCD_SetClipRectEx
 7684              	.LVL785:
1000:../Bsp/OLED/GUISlim.c ****     LCD_SetClipRectEx(&Rect_Old);
 7685              		.loc 1 1000 5 view .LVU2178
 7686 002e 2B46     		mov	r3, r5
 7687 0030 3246     		mov	r2, r6
 7688 0032 2146     		mov	r1, r4
 7689 0034 4046     		mov	r0, r8
 7690 0036 FFF7FEFF 		bl	GUI__DispStringInRect
 7691              	.LVL786:
1001:../Bsp/OLED/GUISlim.c ****     GUI_UNLOCK();
 7692              		.loc 1 1001 5 view .LVU2179
 7693 003a 3846     		mov	r0, r7
 7694 003c FFF7FEFF 		bl	LCD_SetClipRectEx
 7695              	.LVL787:
1002:../Bsp/OLED/GUISlim.c ****   }
 7696              		.loc 1 1002 17 view .LVU2180
 7697              	.L591:
1004:../Bsp/OLED/GUISlim.c **** void GUI_DispStringInRect(const char GUI_UNI_PTR *s, GUI_RECT* pRect, int TextAlign) {
ARM GAS  C:\Users\fish\AppData\Local\Temp\cc4JAs8f.s 			page 191


 7698              		.loc 1 1004 1 is_stmt 0 view .LVU2181
 7699 0040 05B0     		add	sp, sp, #20
 7700              		.cfi_def_cfa_offset 28
 7701              		@ sp needed
 7702 0042 BDE8F083 		pop	{r4, r5, r6, r7, r8, r9, pc}
 7703              	.LVL788:
 7704              	.L594:
 7705              		.cfi_def_cfa_offset 0
 7706              		.cfi_restore 4
 7707              		.cfi_restore 5
 7708              		.cfi_restore 6
 7709              		.cfi_restore 7
 7710              		.cfi_restore 8
 7711              		.cfi_restore 9
 7712              		.cfi_restore 14
1004:../Bsp/OLED/GUISlim.c **** void GUI_DispStringInRect(const char GUI_UNI_PTR *s, GUI_RECT* pRect, int TextAlign) {
 7713              		.loc 1 1004 1 view .LVU2182
 7714 0046 7047     		bx	lr
 7715              	.L598:
 7716              		.align	2
 7717              	.L597:
 7718 0048 00000000 		.word	GUI_Context
 7719              		.cfi_endproc
 7720              	.LFE301:
 7722              		.section	.text.GUI_DispStringInRect,"ax",%progbits
 7723              		.align	1
 7724              		.global	GUI_DispStringInRect
 7725              		.syntax unified
 7726              		.thumb
 7727              		.thumb_func
 7729              	GUI_DispStringInRect:
 7730              	.LVL789:
 7731              	.LFB302:
1005:../Bsp/OLED/GUISlim.c ****   GUI_DispStringInRectMax(s, pRect, TextAlign, 0x7fff);
 7732              		.loc 1 1005 86 is_stmt 1 view -0
 7733              		.cfi_startproc
 7734              		@ args = 0, pretend = 0, frame = 0
 7735              		@ frame_needed = 0, uses_anonymous_args = 0
1005:../Bsp/OLED/GUISlim.c ****   GUI_DispStringInRectMax(s, pRect, TextAlign, 0x7fff);
 7736              		.loc 1 1005 86 is_stmt 0 view .LVU2184
 7737 0000 08B5     		push	{r3, lr}
 7738              		.cfi_def_cfa_offset 8
 7739              		.cfi_offset 3, -8
 7740              		.cfi_offset 14, -4
1006:../Bsp/OLED/GUISlim.c **** }
 7741              		.loc 1 1006 3 is_stmt 1 view .LVU2185
 7742 0002 47F6FF73 		movw	r3, #32767
 7743 0006 FFF7FEFF 		bl	GUI_DispStringInRectMax
 7744              	.LVL790:
1007:../Bsp/OLED/GUISlim.c **** 
 7745              		.loc 1 1007 1 is_stmt 0 view .LVU2186
 7746 000a 08BD     		pop	{r3, pc}
 7747              		.cfi_endproc
 7748              	.LFE302:
 7750              		.section	.text.GUI_DispStringLen,"ax",%progbits
 7751              		.align	1
 7752              		.global	GUI_DispStringLen
ARM GAS  C:\Users\fish\AppData\Local\Temp\cc4JAs8f.s 			page 192


 7753              		.syntax unified
 7754              		.thumb
 7755              		.thumb_func
 7757              	GUI_DispStringLen:
 7758              	.LVL791:
 7759              	.LFB303:
1009:../Bsp/OLED/GUISlim.c ****   U16 Char;
 7760              		.loc 1 1009 68 is_stmt 1 view -0
 7761              		.cfi_startproc
 7762              		@ args = 0, pretend = 0, frame = 8
 7763              		@ frame_needed = 0, uses_anonymous_args = 0
1009:../Bsp/OLED/GUISlim.c ****   U16 Char;
 7764              		.loc 1 1009 68 is_stmt 0 view .LVU2188
 7765 0000 30B5     		push	{r4, r5, lr}
 7766              		.cfi_def_cfa_offset 12
 7767              		.cfi_offset 4, -12
 7768              		.cfi_offset 5, -8
 7769              		.cfi_offset 14, -4
 7770 0002 83B0     		sub	sp, sp, #12
 7771              		.cfi_def_cfa_offset 24
 7772 0004 0546     		mov	r5, r0
 7773 0006 0C46     		mov	r4, r1
1010:../Bsp/OLED/GUISlim.c ****   GUI_LOCK();
 7774              		.loc 1 1010 3 is_stmt 1 view .LVU2189
1011:../Bsp/OLED/GUISlim.c ****   char *ss = (char *)s;
 7775              		.loc 1 1011 13 view .LVU2190
1012:../Bsp/OLED/GUISlim.c ****   int butf8 = detect_encoding_by_sequence(s);
 7776              		.loc 1 1012 3 view .LVU2191
1012:../Bsp/OLED/GUISlim.c ****   int butf8 = detect_encoding_by_sequence(s);
 7777              		.loc 1 1012 9 is_stmt 0 view .LVU2192
 7778 0008 0190     		str	r0, [sp, #4]
1013:../Bsp/OLED/GUISlim.c ****   if (butf8 == 1)
 7779              		.loc 1 1013 3 is_stmt 1 view .LVU2193
1013:../Bsp/OLED/GUISlim.c ****   if (butf8 == 1)
 7780              		.loc 1 1013 15 is_stmt 0 view .LVU2194
 7781 000a FFF7FEFF 		bl	detect_encoding_by_sequence
 7782              	.LVL792:
1014:../Bsp/OLED/GUISlim.c **** 	  ss = utf8_string_to_gbk_with_table(s);
 7783              		.loc 1 1014 3 is_stmt 1 view .LVU2195
1014:../Bsp/OLED/GUISlim.c **** 	  ss = utf8_string_to_gbk_with_table(s);
 7784              		.loc 1 1014 6 is_stmt 0 view .LVU2196
 7785 000e 0128     		cmp	r0, #1
 7786 0010 04D0     		beq	.L611
1016:../Bsp/OLED/GUISlim.c **** 	  ss = mixed_string_to_gbk(s);
 7787              		.loc 1 1016 8 is_stmt 1 view .LVU2197
1016:../Bsp/OLED/GUISlim.c **** 	  ss = mixed_string_to_gbk(s);
 7788              		.loc 1 1016 11 is_stmt 0 view .LVU2198
 7789 0012 0328     		cmp	r0, #3
 7790 0014 07D0     		beq	.L612
 7791              	.LVL793:
 7792              	.L603:
1018:../Bsp/OLED/GUISlim.c **** 	  return;
 7793              		.loc 1 1018 3 is_stmt 1 view .LVU2199
1018:../Bsp/OLED/GUISlim.c **** 	  return;
 7794              		.loc 1 1018 7 is_stmt 0 view .LVU2200
 7795 0016 019B     		ldr	r3, [sp, #4]
1018:../Bsp/OLED/GUISlim.c **** 	  return;
ARM GAS  C:\Users\fish\AppData\Local\Temp\cc4JAs8f.s 			page 193


 7796              		.loc 1 1018 6 view .LVU2201
 7797 0018 73B9     		cbnz	r3, .L604
 7798 001a 1CE0     		b	.L601
 7799              	.LVL794:
 7800              	.L611:
1015:../Bsp/OLED/GUISlim.c ****   else if (butf8 == 3)
 7801              		.loc 1 1015 4 is_stmt 1 view .LVU2202
1015:../Bsp/OLED/GUISlim.c ****   else if (butf8 == 3)
 7802              		.loc 1 1015 9 is_stmt 0 view .LVU2203
 7803 001c 2846     		mov	r0, r5
 7804              	.LVL795:
1015:../Bsp/OLED/GUISlim.c ****   else if (butf8 == 3)
 7805              		.loc 1 1015 9 view .LVU2204
 7806 001e FFF7FEFF 		bl	utf8_string_to_gbk_with_table
 7807              	.LVL796:
1015:../Bsp/OLED/GUISlim.c ****   else if (butf8 == 3)
 7808              		.loc 1 1015 7 discriminator 1 view .LVU2205
 7809 0022 0190     		str	r0, [sp, #4]
 7810 0024 F7E7     		b	.L603
 7811              	.LVL797:
 7812              	.L612:
1017:../Bsp/OLED/GUISlim.c ****   if (!ss)
 7813              		.loc 1 1017 4 is_stmt 1 view .LVU2206
1017:../Bsp/OLED/GUISlim.c ****   if (!ss)
 7814              		.loc 1 1017 9 is_stmt 0 view .LVU2207
 7815 0026 2846     		mov	r0, r5
 7816              	.LVL798:
1017:../Bsp/OLED/GUISlim.c ****   if (!ss)
 7817              		.loc 1 1017 9 view .LVU2208
 7818 0028 FFF7FEFF 		bl	mixed_string_to_gbk
 7819              	.LVL799:
1017:../Bsp/OLED/GUISlim.c ****   if (!ss)
 7820              		.loc 1 1017 7 discriminator 1 view .LVU2209
 7821 002c 0190     		str	r0, [sp, #4]
 7822 002e F2E7     		b	.L603
 7823              	.LVL800:
 7824              	.L607:
1021:../Bsp/OLED/GUISlim.c ****     MaxNumChars--;
 7825              		.loc 1 1021 5 is_stmt 1 view .LVU2210
 7826 0030 1846     		mov	r0, r3
 7827              	.LVL801:
1021:../Bsp/OLED/GUISlim.c ****     MaxNumChars--;
 7828              		.loc 1 1021 5 is_stmt 0 view .LVU2211
 7829 0032 FFF7FEFF 		bl	GUI_DispChar
 7830              	.LVL802:
1022:../Bsp/OLED/GUISlim.c ****   }
 7831              		.loc 1 1022 5 is_stmt 1 view .LVU2212
1022:../Bsp/OLED/GUISlim.c ****   }
 7832              		.loc 1 1022 16 is_stmt 0 view .LVU2213
 7833 0036 013C     		subs	r4, r4, #1
 7834              	.LVL803:
 7835              	.L604:
1020:../Bsp/OLED/GUISlim.c ****     GUI_DispChar(Char);
 7836              		.loc 1 1020 22 is_stmt 1 view .LVU2214
 7837 0038 54B1     		cbz	r4, .L608
1020:../Bsp/OLED/GUISlim.c ****     GUI_DispChar(Char);
 7838              		.loc 1 1020 34 is_stmt 0 discriminator 1 view .LVU2215
ARM GAS  C:\Users\fish\AppData\Local\Temp\cc4JAs8f.s 			page 194


 7839 003a 01A8     		add	r0, sp, #4
 7840 003c FFF7FEFF 		bl	GUI_UC__GetCharCodeInc
 7841              	.LVL804:
1020:../Bsp/OLED/GUISlim.c ****     GUI_DispChar(Char);
 7842              		.loc 1 1020 22 discriminator 1 view .LVU2216
 7843 0040 0346     		mov	r3, r0
 7844 0042 0028     		cmp	r0, #0
 7845 0044 F4D1     		bne	.L607
 7846 0046 03E0     		b	.L608
 7847              	.LVL805:
 7848              	.L609:
1025:../Bsp/OLED/GUISlim.c ****   }
 7849              		.loc 1 1025 5 is_stmt 1 view .LVU2217
 7850 0048 2020     		movs	r0, #32
 7851 004a FFF7FEFF 		bl	GUI_DispChar
 7852              	.LVL806:
1024:../Bsp/OLED/GUISlim.c ****     GUI_DispChar(' ');
 7853              		.loc 1 1024 21 is_stmt 0 view .LVU2218
 7854 004e 2C46     		mov	r4, r5
 7855              	.LVL807:
 7856              	.L608:
1024:../Bsp/OLED/GUISlim.c ****     GUI_DispChar(' ');
 7857              		.loc 1 1024 10 is_stmt 1 view .LVU2219
1024:../Bsp/OLED/GUISlim.c ****     GUI_DispChar(' ');
 7858              		.loc 1 1024 21 is_stmt 0 view .LVU2220
 7859 0050 651E     		subs	r5, r4, #1
 7860              	.LVL808:
1024:../Bsp/OLED/GUISlim.c ****     GUI_DispChar(' ');
 7861              		.loc 1 1024 10 view .LVU2221
 7862 0052 002C     		cmp	r4, #0
 7863 0054 F8D1     		bne	.L609
 7864              	.LVL809:
 7865              	.L601:
1030:../Bsp/OLED/GUISlim.c **** /*********************************************************************
 7866              		.loc 1 1030 1 view .LVU2222
 7867 0056 03B0     		add	sp, sp, #12
 7868              		.cfi_def_cfa_offset 12
 7869              		@ sp needed
 7870 0058 30BD     		pop	{r4, r5, pc}
 7871              		.cfi_endproc
 7872              	.LFE303:
 7874              		.section	.text.GUI_GetTextExtend,"ax",%progbits
 7875              		.align	1
 7876              		.global	GUI_GetTextExtend
 7877              		.syntax unified
 7878              		.thumb
 7879              		.thumb_func
 7881              	GUI_GetTextExtend:
 7882              	.LVL810:
 7883              	.LFB304:
1035:../Bsp/OLED/GUISlim.c ****   int xMax      = 0;
 7884              		.loc 1 1035 86 is_stmt 1 view -0
 7885              		.cfi_startproc
 7886              		@ args = 0, pretend = 0, frame = 8
 7887              		@ frame_needed = 0, uses_anonymous_args = 0
1035:../Bsp/OLED/GUISlim.c ****   int xMax      = 0;
 7888              		.loc 1 1035 86 is_stmt 0 view .LVU2224
ARM GAS  C:\Users\fish\AppData\Local\Temp\cc4JAs8f.s 			page 195


 7889 0000 2DE9F043 		push	{r4, r5, r6, r7, r8, r9, lr}
 7890              		.cfi_def_cfa_offset 28
 7891              		.cfi_offset 4, -28
 7892              		.cfi_offset 5, -24
 7893              		.cfi_offset 6, -20
 7894              		.cfi_offset 7, -16
 7895              		.cfi_offset 8, -12
 7896              		.cfi_offset 9, -8
 7897              		.cfi_offset 14, -4
 7898 0004 83B0     		sub	sp, sp, #12
 7899              		.cfi_def_cfa_offset 40
 7900 0006 8146     		mov	r9, r0
 7901 0008 0D46     		mov	r5, r1
 7902 000a 1446     		mov	r4, r2
1036:../Bsp/OLED/GUISlim.c ****   int NumLines  = 0;
 7903              		.loc 1 1036 3 is_stmt 1 view .LVU2225
 7904              	.LVL811:
1037:../Bsp/OLED/GUISlim.c ****   int LineSizeX = 0;
 7905              		.loc 1 1037 3 view .LVU2226
1038:../Bsp/OLED/GUISlim.c ****   U16 Char;
 7906              		.loc 1 1038 3 view .LVU2227
1039:../Bsp/OLED/GUISlim.c ****   pRect->x0 = GUI_Context.DispPosX;
 7907              		.loc 1 1039 3 view .LVU2228
1040:../Bsp/OLED/GUISlim.c ****   pRect->y0 = GUI_Context.DispPosY;
 7908              		.loc 1 1040 3 view .LVU2229
1040:../Bsp/OLED/GUISlim.c ****   pRect->y0 = GUI_Context.DispPosY;
 7909              		.loc 1 1040 26 is_stmt 0 view .LVU2230
 7910 000c 274B     		ldr	r3, .L633
 7911 000e B3F91420 		ldrsh	r2, [r3, #20]
 7912              	.LVL812:
1040:../Bsp/OLED/GUISlim.c ****   pRect->y0 = GUI_Context.DispPosY;
 7913              		.loc 1 1040 13 view .LVU2231
 7914 0012 0280     		strh	r2, [r0]	@ movhi
1041:../Bsp/OLED/GUISlim.c ****   char *ss = (char *)s;
 7915              		.loc 1 1041 3 is_stmt 1 view .LVU2232
1041:../Bsp/OLED/GUISlim.c ****   char *ss = (char *)s;
 7916              		.loc 1 1041 26 is_stmt 0 view .LVU2233
 7917 0014 B3F91630 		ldrsh	r3, [r3, #22]
1041:../Bsp/OLED/GUISlim.c ****   char *ss = (char *)s;
 7918              		.loc 1 1041 13 view .LVU2234
 7919 0018 4380     		strh	r3, [r0, #2]	@ movhi
1042:../Bsp/OLED/GUISlim.c ****   int butf8 = detect_encoding_by_sequence(s);
 7920              		.loc 1 1042 3 is_stmt 1 view .LVU2235
1042:../Bsp/OLED/GUISlim.c ****   int butf8 = detect_encoding_by_sequence(s);
 7921              		.loc 1 1042 9 is_stmt 0 view .LVU2236
 7922 001a 0191     		str	r1, [sp, #4]
1043:../Bsp/OLED/GUISlim.c ****   if (butf8 == 1)
 7923              		.loc 1 1043 3 is_stmt 1 view .LVU2237
1043:../Bsp/OLED/GUISlim.c ****   if (butf8 == 1)
 7924              		.loc 1 1043 15 is_stmt 0 view .LVU2238
 7925 001c 0846     		mov	r0, r1
 7926              	.LVL813:
1043:../Bsp/OLED/GUISlim.c ****   if (butf8 == 1)
 7927              		.loc 1 1043 15 view .LVU2239
 7928 001e FFF7FEFF 		bl	detect_encoding_by_sequence
 7929              	.LVL814:
1044:../Bsp/OLED/GUISlim.c **** 	  ss = utf8_string_to_gbk_with_table(s);
ARM GAS  C:\Users\fish\AppData\Local\Temp\cc4JAs8f.s 			page 196


 7930              		.loc 1 1044 3 is_stmt 1 view .LVU2240
1044:../Bsp/OLED/GUISlim.c **** 	  ss = utf8_string_to_gbk_with_table(s);
 7931              		.loc 1 1044 6 is_stmt 0 view .LVU2241
 7932 0022 0128     		cmp	r0, #1
 7933 0024 08D0     		beq	.L631
1046:../Bsp/OLED/GUISlim.c **** 	  ss = mixed_string_to_gbk(s);
 7934              		.loc 1 1046 8 is_stmt 1 view .LVU2242
1046:../Bsp/OLED/GUISlim.c **** 	  ss = mixed_string_to_gbk(s);
 7935              		.loc 1 1046 11 is_stmt 0 view .LVU2243
 7936 0026 0328     		cmp	r0, #3
 7937 0028 0BD0     		beq	.L632
 7938              	.LVL815:
 7939              	.L615:
1048:../Bsp/OLED/GUISlim.c **** 	  return;
 7940              		.loc 1 1048 3 is_stmt 1 view .LVU2244
1048:../Bsp/OLED/GUISlim.c **** 	  return;
 7941              		.loc 1 1048 7 is_stmt 0 view .LVU2245
 7942 002a 019B     		ldr	r3, [sp, #4]
1048:../Bsp/OLED/GUISlim.c **** 	  return;
 7943              		.loc 1 1048 6 view .LVU2246
 7944 002c 002B     		cmp	r3, #0
 7945 002e 3AD0     		beq	.L613
1038:../Bsp/OLED/GUISlim.c ****   U16 Char;
 7946              		.loc 1 1038 7 view .LVU2247
 7947 0030 0025     		movs	r5, #0
 7948              	.LVL816:
1037:../Bsp/OLED/GUISlim.c ****   int LineSizeX = 0;
 7949              		.loc 1 1037 7 view .LVU2248
 7950 0032 2F46     		mov	r7, r5
1036:../Bsp/OLED/GUISlim.c ****   int NumLines  = 0;
 7951              		.loc 1 1036 7 view .LVU2249
 7952 0034 A846     		mov	r8, r5
 7953 0036 0DE0     		b	.L616
 7954              	.LVL817:
 7955              	.L631:
1045:../Bsp/OLED/GUISlim.c ****   else if (butf8 == 3)
 7956              		.loc 1 1045 4 is_stmt 1 view .LVU2250
1045:../Bsp/OLED/GUISlim.c ****   else if (butf8 == 3)
 7957              		.loc 1 1045 9 is_stmt 0 view .LVU2251
 7958 0038 2846     		mov	r0, r5
 7959              	.LVL818:
1045:../Bsp/OLED/GUISlim.c ****   else if (butf8 == 3)
 7960              		.loc 1 1045 9 view .LVU2252
 7961 003a FFF7FEFF 		bl	utf8_string_to_gbk_with_table
 7962              	.LVL819:
1045:../Bsp/OLED/GUISlim.c ****   else if (butf8 == 3)
 7963              		.loc 1 1045 7 discriminator 1 view .LVU2253
 7964 003e 0190     		str	r0, [sp, #4]
 7965 0040 F3E7     		b	.L615
 7966              	.LVL820:
 7967              	.L632:
1047:../Bsp/OLED/GUISlim.c ****   if (!ss)
 7968              		.loc 1 1047 4 is_stmt 1 view .LVU2254
1047:../Bsp/OLED/GUISlim.c ****   if (!ss)
 7969              		.loc 1 1047 9 is_stmt 0 view .LVU2255
 7970 0042 2846     		mov	r0, r5
 7971              	.LVL821:
ARM GAS  C:\Users\fish\AppData\Local\Temp\cc4JAs8f.s 			page 197


1047:../Bsp/OLED/GUISlim.c ****   if (!ss)
 7972              		.loc 1 1047 9 view .LVU2256
 7973 0044 FFF7FEFF 		bl	mixed_string_to_gbk
 7974              	.LVL822:
1047:../Bsp/OLED/GUISlim.c ****   if (!ss)
 7975              		.loc 1 1047 7 discriminator 1 view .LVU2257
 7976 0048 0190     		str	r0, [sp, #4]
 7977 004a EEE7     		b	.L615
 7978              	.LVL823:
 7979              	.L620:
1056:../Bsp/OLED/GUISlim.c ****       NumLines++;
 7980              		.loc 1 1056 7 is_stmt 1 view .LVU2258
1057:../Bsp/OLED/GUISlim.c ****       if (!Char) {
 7981              		.loc 1 1057 7 view .LVU2259
1057:../Bsp/OLED/GUISlim.c ****       if (!Char) {
 7982              		.loc 1 1057 15 is_stmt 0 view .LVU2260
 7983 004c 0137     		adds	r7, r7, #1
 7984              	.LVL824:
1058:../Bsp/OLED/GUISlim.c ****         break;
 7985              		.loc 1 1058 7 is_stmt 1 view .LVU2261
1058:../Bsp/OLED/GUISlim.c ****         break;
 7986              		.loc 1 1058 10 is_stmt 0 view .LVU2262
 7987 004e 88B1     		cbz	r0, .L628
1056:../Bsp/OLED/GUISlim.c ****       NumLines++;
 7988              		.loc 1 1056 17 view .LVU2263
 7989 0050 0025     		movs	r5, #0
 7990              	.LVL825:
 7991              	.L622:
1056:../Bsp/OLED/GUISlim.c ****       NumLines++;
 7992              		.loc 1 1056 17 view .LVU2264
 7993 0052 3446     		mov	r4, r6
 7994              	.LVL826:
 7995              	.L616:
1050:../Bsp/OLED/GUISlim.c ****     Char = GUI_UC__GetCharCodeInc((const char **)&ss);
 7996              		.loc 1 1050 10 is_stmt 1 view .LVU2265
1050:../Bsp/OLED/GUISlim.c ****     Char = GUI_UC__GetCharCodeInc((const char **)&ss);
 7997              		.loc 1 1050 21 is_stmt 0 view .LVU2266
 7998 0054 661E     		subs	r6, r4, #1
 7999              	.LVL827:
1050:../Bsp/OLED/GUISlim.c ****     Char = GUI_UC__GetCharCodeInc((const char **)&ss);
 8000              		.loc 1 1050 10 view .LVU2267
 8001 0056 74B1     		cbz	r4, .L621
1051:../Bsp/OLED/GUISlim.c ****     if ((Char == '\n') || (Char == 0)) {
 8002              		.loc 1 1051 5 is_stmt 1 view .LVU2268
1051:../Bsp/OLED/GUISlim.c ****     if ((Char == '\n') || (Char == 0)) {
 8003              		.loc 1 1051 12 is_stmt 0 view .LVU2269
 8004 0058 01A8     		add	r0, sp, #4
 8005 005a FFF7FEFF 		bl	GUI_UC__GetCharCodeInc
 8006              	.LVL828:
1052:../Bsp/OLED/GUISlim.c ****       if (LineSizeX > xMax) {
 8007              		.loc 1 1052 5 is_stmt 1 view .LVU2270
1052:../Bsp/OLED/GUISlim.c ****       if (LineSizeX > xMax) {
 8008              		.loc 1 1052 8 is_stmt 0 view .LVU2271
 8009 005e 0A28     		cmp	r0, #10
 8010 0060 00D0     		beq	.L618
1052:../Bsp/OLED/GUISlim.c ****       if (LineSizeX > xMax) {
 8011              		.loc 1 1052 24 discriminator 1 view .LVU2272
ARM GAS  C:\Users\fish\AppData\Local\Temp\cc4JAs8f.s 			page 198


 8012 0062 18B9     		cbnz	r0, .L619
 8013              	.L618:
1053:../Bsp/OLED/GUISlim.c ****         xMax = LineSizeX;
 8014              		.loc 1 1053 7 is_stmt 1 view .LVU2273
1053:../Bsp/OLED/GUISlim.c ****         xMax = LineSizeX;
 8015              		.loc 1 1053 10 is_stmt 0 view .LVU2274
 8016 0064 A845     		cmp	r8, r5
 8017 0066 F1DA     		bge	.L620
1054:../Bsp/OLED/GUISlim.c ****       }
 8018              		.loc 1 1054 14 view .LVU2275
 8019 0068 A846     		mov	r8, r5
 8020              	.LVL829:
1054:../Bsp/OLED/GUISlim.c ****       }
 8021              		.loc 1 1054 14 view .LVU2276
 8022 006a EFE7     		b	.L620
 8023              	.LVL830:
 8024              	.L619:
1062:../Bsp/OLED/GUISlim.c ****     }
 8025              		.loc 1 1062 7 is_stmt 1 view .LVU2277
1062:../Bsp/OLED/GUISlim.c ****     }
 8026              		.loc 1 1062 20 is_stmt 0 view .LVU2278
 8027 006c FFF7FEFF 		bl	GUI_GetCharDistX
 8028              	.LVL831:
1062:../Bsp/OLED/GUISlim.c ****     }
 8029              		.loc 1 1062 17 discriminator 1 view .LVU2279
 8030 0070 0544     		add	r5, r5, r0
 8031              	.LVL832:
1062:../Bsp/OLED/GUISlim.c ****     }
 8032              		.loc 1 1062 17 discriminator 1 view .LVU2280
 8033 0072 EEE7     		b	.L622
 8034              	.LVL833:
 8035              	.L628:
1056:../Bsp/OLED/GUISlim.c ****       NumLines++;
 8036              		.loc 1 1056 17 view .LVU2281
 8037 0074 0025     		movs	r5, #0
 8038              	.LVL834:
 8039              	.L621:
1065:../Bsp/OLED/GUISlim.c ****     xMax = LineSizeX;
 8040              		.loc 1 1065 3 is_stmt 1 view .LVU2282
1065:../Bsp/OLED/GUISlim.c ****     xMax = LineSizeX;
 8041              		.loc 1 1065 6 is_stmt 0 view .LVU2283
 8042 0076 A845     		cmp	r8, r5
 8043 0078 00DB     		blt	.L624
1065:../Bsp/OLED/GUISlim.c ****     xMax = LineSizeX;
 8044              		.loc 1 1065 6 view .LVU2284
 8045 007a 4546     		mov	r5, r8
 8046              	.LVL835:
 8047              	.L624:
1068:../Bsp/OLED/GUISlim.c ****     NumLines = 1;
 8048              		.loc 1 1068 3 is_stmt 1 view .LVU2285
1068:../Bsp/OLED/GUISlim.c ****     NumLines = 1;
 8049              		.loc 1 1068 6 is_stmt 0 view .LVU2286
 8050 007c 07B9     		cbnz	r7, .L625
1069:../Bsp/OLED/GUISlim.c ****   }
 8051              		.loc 1 1069 14 view .LVU2287
 8052 007e 0127     		movs	r7, #1
 8053              	.LVL836:
ARM GAS  C:\Users\fish\AppData\Local\Temp\cc4JAs8f.s 			page 199


 8054              	.L625:
1071:../Bsp/OLED/GUISlim.c ****   pRect->y1 = pRect->y0 + GUI_Context.pAFont->YSize * NumLines - 1;
 8055              		.loc 1 1071 3 is_stmt 1 view .LVU2288
1071:../Bsp/OLED/GUISlim.c ****   pRect->y1 = pRect->y0 + GUI_Context.pAFont->YSize * NumLines - 1;
 8056              		.loc 1 1071 20 is_stmt 0 view .LVU2289
 8057 0080 B9F80030 		ldrh	r3, [r9]
1071:../Bsp/OLED/GUISlim.c ****   pRect->y1 = pRect->y0 + GUI_Context.pAFont->YSize * NumLines - 1;
 8058              		.loc 1 1071 25 view .LVU2290
 8059 0084 2B44     		add	r3, r3, r5
 8060 0086 9BB2     		uxth	r3, r3
1071:../Bsp/OLED/GUISlim.c ****   pRect->y1 = pRect->y0 + GUI_Context.pAFont->YSize * NumLines - 1;
 8061              		.loc 1 1071 32 view .LVU2291
 8062 0088 013B     		subs	r3, r3, #1
1071:../Bsp/OLED/GUISlim.c ****   pRect->y1 = pRect->y0 + GUI_Context.pAFont->YSize * NumLines - 1;
 8063              		.loc 1 1071 13 view .LVU2292
 8064 008a A9F80430 		strh	r3, [r9, #4]	@ movhi
1072:../Bsp/OLED/GUISlim.c **** //  if (butf8 == 1)
 8065              		.loc 1 1072 3 is_stmt 1 view .LVU2293
1072:../Bsp/OLED/GUISlim.c **** //  if (butf8 == 1)
 8066              		.loc 1 1072 20 is_stmt 0 view .LVU2294
 8067 008e B9F80230 		ldrh	r3, [r9, #2]
1072:../Bsp/OLED/GUISlim.c **** //  if (butf8 == 1)
 8068              		.loc 1 1072 38 view .LVU2295
 8069 0092 064A     		ldr	r2, .L633
 8070 0094 1269     		ldr	r2, [r2, #16]
1072:../Bsp/OLED/GUISlim.c **** //  if (butf8 == 1)
 8071              		.loc 1 1072 45 view .LVU2296
 8072 0096 127D     		ldrb	r2, [r2, #20]	@ zero_extendqisi2
1072:../Bsp/OLED/GUISlim.c **** //  if (butf8 == 1)
 8073              		.loc 1 1072 25 view .LVU2297
 8074 0098 12FB07F2 		smulbb	r2, r2, r7
 8075 009c 1344     		add	r3, r3, r2
 8076 009e 9BB2     		uxth	r3, r3
1072:../Bsp/OLED/GUISlim.c **** //  if (butf8 == 1)
 8077              		.loc 1 1072 64 view .LVU2298
 8078 00a0 013B     		subs	r3, r3, #1
1072:../Bsp/OLED/GUISlim.c **** //  if (butf8 == 1)
 8079              		.loc 1 1072 13 view .LVU2299
 8080 00a2 A9F80630 		strh	r3, [r9, #6]	@ movhi
 8081              	.LVL837:
 8082              	.L613:
1075:../Bsp/OLED/GUISlim.c **** 
 8083              		.loc 1 1075 1 view .LVU2300
 8084 00a6 03B0     		add	sp, sp, #12
 8085              		.cfi_def_cfa_offset 28
 8086              		@ sp needed
 8087 00a8 BDE8F083 		pop	{r4, r5, r6, r7, r8, r9, pc}
 8088              	.LVL838:
 8089              	.L634:
1075:../Bsp/OLED/GUISlim.c **** 
 8090              		.loc 1 1075 1 view .LVU2301
 8091              		.align	2
 8092              	.L633:
 8093 00ac 00000000 		.word	GUI_Context
 8094              		.cfi_endproc
 8095              	.LFE304:
 8097              		.section	.text.GUI_GetStringDistX,"ax",%progbits
ARM GAS  C:\Users\fish\AppData\Local\Temp\cc4JAs8f.s 			page 200


 8098              		.align	1
 8099              		.global	GUI_GetStringDistX
 8100              		.syntax unified
 8101              		.thumb
 8102              		.thumb_func
 8104              	GUI_GetStringDistX:
 8105              	.LVL839:
 8106              	.LFB308:
1103:../Bsp/OLED/GUISlim.c ****   char *ss = (char *)s;
 8107              		.loc 1 1103 52 is_stmt 1 view -0
 8108              		.cfi_startproc
 8109              		@ args = 0, pretend = 0, frame = 0
 8110              		@ frame_needed = 0, uses_anonymous_args = 0
1103:../Bsp/OLED/GUISlim.c ****   char *ss = (char *)s;
 8111              		.loc 1 1103 52 is_stmt 0 view .LVU2303
 8112 0000 10B5     		push	{r4, lr}
 8113              		.cfi_def_cfa_offset 8
 8114              		.cfi_offset 4, -8
 8115              		.cfi_offset 14, -4
 8116 0002 0446     		mov	r4, r0
1104:../Bsp/OLED/GUISlim.c ****   int butf8 = detect_encoding_by_sequence(s);
 8117              		.loc 1 1104 3 is_stmt 1 view .LVU2304
 8118              	.LVL840:
1105:../Bsp/OLED/GUISlim.c ****   if (butf8 == 1)
 8119              		.loc 1 1105 3 view .LVU2305
1105:../Bsp/OLED/GUISlim.c ****   if (butf8 == 1)
 8120              		.loc 1 1105 15 is_stmt 0 view .LVU2306
 8121 0004 FFF7FEFF 		bl	detect_encoding_by_sequence
 8122              	.LVL841:
1106:../Bsp/OLED/GUISlim.c **** 	  ss = utf8_string_to_gbk_with_table(s);
 8123              		.loc 1 1106 3 is_stmt 1 view .LVU2307
1106:../Bsp/OLED/GUISlim.c **** 	  ss = utf8_string_to_gbk_with_table(s);
 8124              		.loc 1 1106 6 is_stmt 0 view .LVU2308
 8125 0008 0128     		cmp	r0, #1
 8126 000a 0AD0     		beq	.L642
1108:../Bsp/OLED/GUISlim.c **** 	  ss = mixed_string_to_gbk(s);
 8127              		.loc 1 1108 8 is_stmt 1 view .LVU2309
1108:../Bsp/OLED/GUISlim.c **** 	  ss = mixed_string_to_gbk(s);
 8128              		.loc 1 1108 11 is_stmt 0 view .LVU2310
 8129 000c 0328     		cmp	r0, #3
 8130 000e 0CD0     		beq	.L643
1104:../Bsp/OLED/GUISlim.c ****   int butf8 = detect_encoding_by_sequence(s);
 8131              		.loc 1 1104 9 view .LVU2311
 8132 0010 2046     		mov	r0, r4
 8133              	.LVL842:
 8134              	.L637:
1110:../Bsp/OLED/GUISlim.c **** 	  return 0;
 8135              		.loc 1 1110 3 is_stmt 1 view .LVU2312
1110:../Bsp/OLED/GUISlim.c **** 	  return 0;
 8136              		.loc 1 1110 6 is_stmt 0 view .LVU2313
 8137 0012 70B1     		cbz	r0, .L640
1112:../Bsp/OLED/GUISlim.c **** //  if (butf8 == 1)
 8138              		.loc 1 1112 3 is_stmt 1 view .LVU2314
1112:../Bsp/OLED/GUISlim.c **** //  if (butf8 == 1)
 8139              		.loc 1 1112 13 is_stmt 0 view .LVU2315
 8140 0014 FFF7FEFF 		bl	GUI__strlen
 8141              	.LVL843:
ARM GAS  C:\Users\fish\AppData\Local\Temp\cc4JAs8f.s 			page 201


1112:../Bsp/OLED/GUISlim.c **** //  if (butf8 == 1)
 8142              		.loc 1 1112 13 view .LVU2316
 8143 0018 0146     		mov	r1, r0
1112:../Bsp/OLED/GUISlim.c **** //  if (butf8 == 1)
 8144              		.loc 1 1112 13 discriminator 1 view .LVU2317
 8145 001a 2046     		mov	r0, r4
 8146 001c FFF7FEFF 		bl	GUI__GetLineDistX
 8147              	.LVL844:
1115:../Bsp/OLED/GUISlim.c **** }
 8148              		.loc 1 1115 3 is_stmt 1 view .LVU2318
 8149              	.L635:
1116:../Bsp/OLED/GUISlim.c **** 
 8150              		.loc 1 1116 1 is_stmt 0 view .LVU2319
 8151 0020 10BD     		pop	{r4, pc}
 8152              	.LVL845:
 8153              	.L642:
1107:../Bsp/OLED/GUISlim.c ****   else if (butf8 == 3)
 8154              		.loc 1 1107 4 is_stmt 1 view .LVU2320
1107:../Bsp/OLED/GUISlim.c ****   else if (butf8 == 3)
 8155              		.loc 1 1107 9 is_stmt 0 view .LVU2321
 8156 0022 2046     		mov	r0, r4
 8157              	.LVL846:
1107:../Bsp/OLED/GUISlim.c ****   else if (butf8 == 3)
 8158              		.loc 1 1107 9 view .LVU2322
 8159 0024 FFF7FEFF 		bl	utf8_string_to_gbk_with_table
 8160              	.LVL847:
1107:../Bsp/OLED/GUISlim.c ****   else if (butf8 == 3)
 8161              		.loc 1 1107 9 view .LVU2323
 8162 0028 F3E7     		b	.L637
 8163              	.LVL848:
 8164              	.L643:
1109:../Bsp/OLED/GUISlim.c ****   if (!ss)
 8165              		.loc 1 1109 4 is_stmt 1 view .LVU2324
1109:../Bsp/OLED/GUISlim.c ****   if (!ss)
 8166              		.loc 1 1109 9 is_stmt 0 view .LVU2325
 8167 002a 2046     		mov	r0, r4
 8168              	.LVL849:
1109:../Bsp/OLED/GUISlim.c ****   if (!ss)
 8169              		.loc 1 1109 9 view .LVU2326
 8170 002c FFF7FEFF 		bl	mixed_string_to_gbk
 8171              	.LVL850:
1109:../Bsp/OLED/GUISlim.c ****   if (!ss)
 8172              		.loc 1 1109 9 view .LVU2327
 8173 0030 EFE7     		b	.L637
 8174              	.L640:
1111:../Bsp/OLED/GUISlim.c ****   int len = GUI__GetLineDistX(s, GUI__strlen(ss));
 8175              		.loc 1 1111 11 view .LVU2328
 8176 0032 0020     		movs	r0, #0
 8177              	.LVL851:
1111:../Bsp/OLED/GUISlim.c ****   int len = GUI__GetLineDistX(s, GUI__strlen(ss));
 8178              		.loc 1 1111 11 view .LVU2329
 8179 0034 F4E7     		b	.L635
 8180              		.cfi_endproc
 8181              	.LFE308:
 8183              		.section	.bss.output_buf.0,"aw",%nobits
 8184              		.align	2
 8187              	output_buf.0:
ARM GAS  C:\Users\fish\AppData\Local\Temp\cc4JAs8f.s 			page 202


 8188 0000 00000000 		.space	1024
 8188      00000000 
 8188      00000000 
 8188      00000000 
 8188      00000000 
 8189              		.section	.bss.output_buf.1,"aw",%nobits
 8190              		.align	2
 8193              	output_buf.1:
 8194 0000 00000000 		.space	1024
 8194      00000000 
 8194      00000000 
 8194      00000000 
 8194      00000000 
 8195              		.global	GUI_DecChar
 8196              		.section	.bss.GUI_DecChar,"aw",%nobits
 8199              	GUI_DecChar:
 8200 0000 00       		.space	1
 8201              		.global	GUI_Context
 8202              		.section	.bss.GUI_Context,"aw",%nobits
 8203              		.align	2
 8206              	GUI_Context:
 8207 0000 00000000 		.space	32
 8207      00000000 
 8207      00000000 
 8207      00000000 
 8207      00000000 
 8208              		.text
 8209              	.Letext0:
 8210              		.file 2 "../Bsp/OLED/GUI.h"
 8211              		.file 3 "C:/STM32/arm-none-eabi-gcc/14.2.1-1.1.1/.content/lib/gcc/arm-none-eabi/14.2.1/include/std
 8212              		.file 4 "C:/STM32/arm-none-eabi-gcc/14.2.1-1.1.1/.content/arm-none-eabi/include/machine/_default_t
 8213              		.file 5 "C:/STM32/arm-none-eabi-gcc/14.2.1-1.1.1/.content/arm-none-eabi/include/sys/_stdint.h"
 8214              		.file 6 "C:/STM32/arm-none-eabi-gcc/14.2.1-1.1.1/.content/arm-none-eabi/include/string.h"
 8215              		.file 7 "../Bsp/OLED/ssd1306.h"
 8216              		.file 8 "<built-in>"
ARM GAS  C:\Users\fish\AppData\Local\Temp\cc4JAs8f.s 			page 203


DEFINED SYMBOLS
                            *ABS*:00000000 GUISlim.c
C:\Users\fish\AppData\Local\Temp\cc4JAs8f.s:21     .text.is_valid_utf8_sequence:00000000 $t
C:\Users\fish\AppData\Local\Temp\cc4JAs8f.s:26     .text.is_valid_utf8_sequence:00000000 is_valid_utf8_sequence
C:\Users\fish\AppData\Local\Temp\cc4JAs8f.s:356    .text.is_valid_gbk_sequence:00000000 $t
C:\Users\fish\AppData\Local\Temp\cc4JAs8f.s:361    .text.is_valid_gbk_sequence:00000000 is_valid_gbk_sequence
C:\Users\fish\AppData\Local\Temp\cc4JAs8f.s:458    .text.get_gbk_char_frequency_score:00000000 $t
C:\Users\fish\AppData\Local\Temp\cc4JAs8f.s:463    .text.get_gbk_char_frequency_score:00000000 get_gbk_char_frequency_score
C:\Users\fish\AppData\Local\Temp\cc4JAs8f.s:558    .text.get_utf8_char_frequency_score:00000000 $t
C:\Users\fish\AppData\Local\Temp\cc4JAs8f.s:563    .text.get_utf8_char_frequency_score:00000000 get_utf8_char_frequency_score
C:\Users\fish\AppData\Local\Temp\cc4JAs8f.s:667    .text.GUIPROP_FindChar:00000000 $t
C:\Users\fish\AppData\Local\Temp\cc4JAs8f.s:672    .text.GUIPROP_FindChar:00000000 GUIPROP_FindChar
C:\Users\fish\AppData\Local\Temp\cc4JAs8f.s:708    .text._GotoY:00000000 $t
C:\Users\fish\AppData\Local\Temp\cc4JAs8f.s:713    .text._GotoY:00000000 _GotoY
C:\Users\fish\AppData\Local\Temp\cc4JAs8f.s:734    .text._GotoY:00000008 $d
C:\Users\fish\AppData\Local\Temp\cc4JAs8f.s:8206   .bss.GUI_Context:00000000 GUI_Context
C:\Users\fish\AppData\Local\Temp\cc4JAs8f.s:739    .text._GotoX:00000000 $t
C:\Users\fish\AppData\Local\Temp\cc4JAs8f.s:744    .text._GotoX:00000000 _GotoX
C:\Users\fish\AppData\Local\Temp\cc4JAs8f.s:765    .text._GotoX:00000008 $d
C:\Users\fish\AppData\Local\Temp\cc4JAs8f.s:770    .text.DB2SJIS:00000000 $t
C:\Users\fish\AppData\Local\Temp\cc4JAs8f.s:775    .text.DB2SJIS:00000000 DB2SJIS
C:\Users\fish\AppData\Local\Temp\cc4JAs8f.s:793    .text._GetLineLen_SJIS:00000000 $t
C:\Users\fish\AppData\Local\Temp\cc4JAs8f.s:798    .text._GetLineLen_SJIS:00000000 _GetLineLen_SJIS
C:\Users\fish\AppData\Local\Temp\cc4JAs8f.s:864    .text._GetCharCode:00000000 $t
C:\Users\fish\AppData\Local\Temp\cc4JAs8f.s:869    .text._GetCharCode:00000000 _GetCharCode
C:\Users\fish\AppData\Local\Temp\cc4JAs8f.s:887    .text._GetCharSize:00000000 $t
C:\Users\fish\AppData\Local\Temp\cc4JAs8f.s:892    .text._GetCharSize:00000000 _GetCharSize
C:\Users\fish\AppData\Local\Temp\cc4JAs8f.s:910    .text.LCD_GetXSize:00000000 $t
C:\Users\fish\AppData\Local\Temp\cc4JAs8f.s:916    .text.LCD_GetXSize:00000000 LCD_GetXSize
C:\Users\fish\AppData\Local\Temp\cc4JAs8f.s:931    .text.LCD_GetYSize:00000000 $t
C:\Users\fish\AppData\Local\Temp\cc4JAs8f.s:937    .text.LCD_GetYSize:00000000 LCD_GetYSize
C:\Users\fish\AppData\Local\Temp\cc4JAs8f.s:952    .text.GUI_GetXSize:00000000 $t
C:\Users\fish\AppData\Local\Temp\cc4JAs8f.s:958    .text.GUI_GetXSize:00000000 GUI_GetXSize
C:\Users\fish\AppData\Local\Temp\cc4JAs8f.s:978    .text.GUI_GetYSize:00000000 $t
C:\Users\fish\AppData\Local\Temp\cc4JAs8f.s:984    .text.GUI_GetYSize:00000000 GUI_GetYSize
C:\Users\fish\AppData\Local\Temp\cc4JAs8f.s:1004   .text.LCD_GetRect:00000000 $t
C:\Users\fish\AppData\Local\Temp\cc4JAs8f.s:1010   .text.LCD_GetRect:00000000 LCD_GetRect
C:\Users\fish\AppData\Local\Temp\cc4JAs8f.s:1053   .text.GUI_Init:00000000 $t
C:\Users\fish\AppData\Local\Temp\cc4JAs8f.s:1059   .text.GUI_Init:00000000 GUI_Init
C:\Users\fish\AppData\Local\Temp\cc4JAs8f.s:1127   .text.GUI_Init:00000038 $d
C:\Users\fish\AppData\Local\Temp\cc4JAs8f.s:8199   .bss.GUI_DecChar:00000000 GUI_DecChar
C:\Users\fish\AppData\Local\Temp\cc4JAs8f.s:1134   .text.GUI_SetFont:00000000 $t
C:\Users\fish\AppData\Local\Temp\cc4JAs8f.s:1140   .text.GUI_SetFont:00000000 GUI_SetFont
C:\Users\fish\AppData\Local\Temp\cc4JAs8f.s:1174   .text.GUI_SetFont:00000010 $d
C:\Users\fish\AppData\Local\Temp\cc4JAs8f.s:1179   .text.GUI_GetFont:00000000 $t
C:\Users\fish\AppData\Local\Temp\cc4JAs8f.s:1185   .text.GUI_GetFont:00000000 GUI_GetFont
C:\Users\fish\AppData\Local\Temp\cc4JAs8f.s:1205   .text.GUI_GetFont:00000008 $d
C:\Users\fish\AppData\Local\Temp\cc4JAs8f.s:1210   .text.detect_encoding_comprehensive:00000000 $t
C:\Users\fish\AppData\Local\Temp\cc4JAs8f.s:1216   .text.detect_encoding_comprehensive:00000000 detect_encoding_comprehensive
C:\Users\fish\AppData\Local\Temp\cc4JAs8f.s:1763   .text.detect_encoding_comprehensive:000001b4 $d
C:\Users\fish\AppData\Local\Temp\cc4JAs8f.s:1768   .text.detect_encoding_by_sequence:00000000 $t
C:\Users\fish\AppData\Local\Temp\cc4JAs8f.s:1774   .text.detect_encoding_by_sequence:00000000 detect_encoding_by_sequence
C:\Users\fish\AppData\Local\Temp\cc4JAs8f.s:1796   .text.DrawBitLine1BPP:00000000 $t
C:\Users\fish\AppData\Local\Temp\cc4JAs8f.s:1802   .text.DrawBitLine1BPP:00000000 DrawBitLine1BPP
C:\Users\fish\AppData\Local\Temp\cc4JAs8f.s:1840   .text.DrawBitLine1BPP:0000001e $d
C:\Users\fish\AppData\Local\Temp\cc4JAs8f.s:2108   .text.DrawBitLine1BPP:0000015c $d
C:\Users\fish\AppData\Local\Temp\cc4JAs8f.s:2113   .text.LCD_L0_DrawBitmap1BPP:00000000 $t
ARM GAS  C:\Users\fish\AppData\Local\Temp\cc4JAs8f.s 			page 204


C:\Users\fish\AppData\Local\Temp\cc4JAs8f.s:2119   .text.LCD_L0_DrawBitmap1BPP:00000000 LCD_L0_DrawBitmap1BPP
C:\Users\fish\AppData\Local\Temp\cc4JAs8f.s:2185   .text.LCD_DrawBitmap1BPP:00000000 $t
C:\Users\fish\AppData\Local\Temp\cc4JAs8f.s:2191   .text.LCD_DrawBitmap1BPP:00000000 LCD_DrawBitmap1BPP
C:\Users\fish\AppData\Local\Temp\cc4JAs8f.s:2348   .text.LCD_DrawBitmap1BPP:00000090 $d
C:\Users\fish\AppData\Local\Temp\cc4JAs8f.s:2353   .text.GUIPROP_DispChar:00000000 $t
C:\Users\fish\AppData\Local\Temp\cc4JAs8f.s:2359   .text.GUIPROP_DispChar:00000000 GUIPROP_DispChar
C:\Users\fish\AppData\Local\Temp\cc4JAs8f.s:2504   .text.GUIPROP_DispChar:00000088 $d
C:\Users\fish\AppData\Local\Temp\cc4JAs8f.s:2511   .text.GUIPROP_GetCharDistX:00000000 $t
C:\Users\fish\AppData\Local\Temp\cc4JAs8f.s:2517   .text.GUIPROP_GetCharDistX:00000000 GUIPROP_GetCharDistX
C:\Users\fish\AppData\Local\Temp\cc4JAs8f.s:2573   .text.GUIPROP_GetCharDistX:00000028 $d
C:\Users\fish\AppData\Local\Temp\cc4JAs8f.s:2578   .text.GUIPROP_GetFontInfo:00000000 $t
C:\Users\fish\AppData\Local\Temp\cc4JAs8f.s:2584   .text.GUIPROP_GetFontInfo:00000000 GUIPROP_GetFontInfo
C:\Users\fish\AppData\Local\Temp\cc4JAs8f.s:2602   .text.GUIPROP_IsInFont:00000000 $t
C:\Users\fish\AppData\Local\Temp\cc4JAs8f.s:2608   .text.GUIPROP_IsInFont:00000000 GUIPROP_IsInFont
C:\Users\fish\AppData\Local\Temp\cc4JAs8f.s:2640   .text.GUI_GetFontDistY:00000000 $t
C:\Users\fish\AppData\Local\Temp\cc4JAs8f.s:2646   .text.GUI_GetFontDistY:00000000 GUI_GetFontDistY
C:\Users\fish\AppData\Local\Temp\cc4JAs8f.s:2670   .text.GUI_GetFontDistY:00000008 $d
C:\Users\fish\AppData\Local\Temp\cc4JAs8f.s:2675   .text.GUI_GetCharDistX:00000000 $t
C:\Users\fish\AppData\Local\Temp\cc4JAs8f.s:2681   .text.GUI_GetCharDistX:00000000 GUI_GetCharDistX
C:\Users\fish\AppData\Local\Temp\cc4JAs8f.s:2711   .text.GUI_GetCharDistX:0000000c $d
C:\Users\fish\AppData\Local\Temp\cc4JAs8f.s:2716   .text._GetLineDistX_SJIS:00000000 $t
C:\Users\fish\AppData\Local\Temp\cc4JAs8f.s:2721   .text._GetLineDistX_SJIS:00000000 _GetLineDistX_SJIS
C:\Users\fish\AppData\Local\Temp\cc4JAs8f.s:2820   .text.GUI_DispNextLine:00000000 $t
C:\Users\fish\AppData\Local\Temp\cc4JAs8f.s:2826   .text.GUI_DispNextLine:00000000 GUI_DispNextLine
C:\Users\fish\AppData\Local\Temp\cc4JAs8f.s:2853   .text.GUI_DispNextLine:00000010 $d
C:\Users\fish\AppData\Local\Temp\cc4JAs8f.s:2858   .text.GL_DispChar:00000000 $t
C:\Users\fish\AppData\Local\Temp\cc4JAs8f.s:2864   .text.GL_DispChar:00000000 GL_DispChar
C:\Users\fish\AppData\Local\Temp\cc4JAs8f.s:2908   .text.GL_DispChar:0000001c $d
C:\Users\fish\AppData\Local\Temp\cc4JAs8f.s:2913   .text._DispLine_SJIS:00000000 $t
C:\Users\fish\AppData\Local\Temp\cc4JAs8f.s:2918   .text._DispLine_SJIS:00000000 _DispLine_SJIS
C:\Users\fish\AppData\Local\Temp\cc4JAs8f.s:2995   .text._DispLine:00000000 $t
C:\Users\fish\AppData\Local\Temp\cc4JAs8f.s:3000   .text._DispLine:00000000 _DispLine
C:\Users\fish\AppData\Local\Temp\cc4JAs8f.s:3021   .text.GUI_GetYAdjust:00000000 $t
C:\Users\fish\AppData\Local\Temp\cc4JAs8f.s:3027   .text.GUI_GetYAdjust:00000000 GUI_GetYAdjust
C:\Users\fish\AppData\Local\Temp\cc4JAs8f.s:3097   .text.GUI_GetYAdjust:00000038 $d
C:\Users\fish\AppData\Local\Temp\cc4JAs8f.s:3102   .text.GUI_GotoY:00000000 $t
C:\Users\fish\AppData\Local\Temp\cc4JAs8f.s:3108   .text.GUI_GotoY:00000000 GUI_GotoY
C:\Users\fish\AppData\Local\Temp\cc4JAs8f.s:3134   .text.GUI_GotoX:00000000 $t
C:\Users\fish\AppData\Local\Temp\cc4JAs8f.s:3140   .text.GUI_GotoX:00000000 GUI_GotoX
C:\Users\fish\AppData\Local\Temp\cc4JAs8f.s:3166   .text.GUI_GotoXY:00000000 $t
C:\Users\fish\AppData\Local\Temp\cc4JAs8f.s:3172   .text.GUI_GotoXY:00000000 GUI_GotoXY
C:\Users\fish\AppData\Local\Temp\cc4JAs8f.s:3215   .text.GUI_ClearRect:00000000 $t
C:\Users\fish\AppData\Local\Temp\cc4JAs8f.s:3221   .text.GUI_ClearRect:00000000 GUI_ClearRect
C:\Users\fish\AppData\Local\Temp\cc4JAs8f.s:3263   .text.GUI_Clear:00000000 $t
C:\Users\fish\AppData\Local\Temp\cc4JAs8f.s:3269   .text.GUI_Clear:00000000 GUI_Clear
C:\Users\fish\AppData\Local\Temp\cc4JAs8f.s:3304   .text.GUI_DispCEOL:00000000 $t
C:\Users\fish\AppData\Local\Temp\cc4JAs8f.s:3310   .text.GUI_DispCEOL:00000000 GUI_DispCEOL
C:\Users\fish\AppData\Local\Temp\cc4JAs8f.s:3351   .text.GUI_DispCEOL:00000024 $d
C:\Users\fish\AppData\Local\Temp\cc4JAs8f.s:3356   .text.GUI_DispChar:00000000 $t
C:\Users\fish\AppData\Local\Temp\cc4JAs8f.s:3362   .text.GUI_DispChar:00000000 GUI_DispChar
C:\Users\fish\AppData\Local\Temp\cc4JAs8f.s:3385   .text.GUI_DispCharAt:00000000 $t
C:\Users\fish\AppData\Local\Temp\cc4JAs8f.s:3391   .text.GUI_DispCharAt:00000000 GUI_DispCharAt
C:\Users\fish\AppData\Local\Temp\cc4JAs8f.s:3420   .text.GUI_DispCharAt:00000010 $d
C:\Users\fish\AppData\Local\Temp\cc4JAs8f.s:3425   .text.GUI_UC_GetCharSize:00000000 $t
C:\Users\fish\AppData\Local\Temp\cc4JAs8f.s:3431   .text.GUI_UC_GetCharSize:00000000 GUI_UC_GetCharSize
C:\Users\fish\AppData\Local\Temp\cc4JAs8f.s:3457   .text.GUI_UC_GetCharCode:00000000 $t
C:\Users\fish\AppData\Local\Temp\cc4JAs8f.s:3463   .text.GUI_UC_GetCharCode:00000000 GUI_UC_GetCharCode
ARM GAS  C:\Users\fish\AppData\Local\Temp\cc4JAs8f.s 			page 205


C:\Users\fish\AppData\Local\Temp\cc4JAs8f.s:3489   .text.GUI_UC__GetCharCodeInc:00000000 $t
C:\Users\fish\AppData\Local\Temp\cc4JAs8f.s:3495   .text.GUI_UC__GetCharCodeInc:00000000 GUI_UC__GetCharCodeInc
C:\Users\fish\AppData\Local\Temp\cc4JAs8f.s:3545   .text.GUI_UC__NumChars2NumBytes:00000000 $t
C:\Users\fish\AppData\Local\Temp\cc4JAs8f.s:3551   .text.GUI_UC__NumChars2NumBytes:00000000 GUI_UC__NumChars2NumBytes
C:\Users\fish\AppData\Local\Temp\cc4JAs8f.s:3608   .text.GUI_UC__NumBytes2NumChars:00000000 $t
C:\Users\fish\AppData\Local\Temp\cc4JAs8f.s:3614   .text.GUI_UC__NumBytes2NumChars:00000000 GUI_UC__NumBytes2NumChars
C:\Users\fish\AppData\Local\Temp\cc4JAs8f.s:3669   .text.GUI__GetLineNumChars:00000000 $t
C:\Users\fish\AppData\Local\Temp\cc4JAs8f.s:3675   .text.GUI__GetLineNumChars:00000000 GUI__GetLineNumChars
C:\Users\fish\AppData\Local\Temp\cc4JAs8f.s:3698   .text.GUI__GetLineDistX:00000000 $t
C:\Users\fish\AppData\Local\Temp\cc4JAs8f.s:3704   .text.GUI__GetLineDistX:00000000 GUI__GetLineDistX
C:\Users\fish\AppData\Local\Temp\cc4JAs8f.s:3727   .text.GUI__DispLine:00000000 $t
C:\Users\fish\AppData\Local\Temp\cc4JAs8f.s:3733   .text.GUI__DispLine:00000000 GUI__DispLine
C:\Users\fish\AppData\Local\Temp\cc4JAs8f.s:3785   .text.GUI__DispLine:00000030 $d
C:\Users\fish\AppData\Local\Temp\cc4JAs8f.s:3790   .text.GUI_SetTextAlign:00000000 $t
C:\Users\fish\AppData\Local\Temp\cc4JAs8f.s:3796   .text.GUI_SetTextAlign:00000000 GUI_SetTextAlign
C:\Users\fish\AppData\Local\Temp\cc4JAs8f.s:3824   .text.GUI_SetTextAlign:0000000c $d
C:\Users\fish\AppData\Local\Temp\cc4JAs8f.s:3829   .text.GUI_GetFontSizeY:00000000 $t
C:\Users\fish\AppData\Local\Temp\cc4JAs8f.s:3835   .text.GUI_GetFontSizeY:00000000 GUI_GetFontSizeY
C:\Users\fish\AppData\Local\Temp\cc4JAs8f.s:3859   .text.GUI_GetFontSizeY:00000008 $d
C:\Users\fish\AppData\Local\Temp\cc4JAs8f.s:3864   .text.GUI_GetClientRect:00000000 $t
C:\Users\fish\AppData\Local\Temp\cc4JAs8f.s:3870   .text.GUI_GetClientRect:00000000 GUI_GetClientRect
C:\Users\fish\AppData\Local\Temp\cc4JAs8f.s:3918   .text.GUI__HandleEOLine:00000000 $t
C:\Users\fish\AppData\Local\Temp\cc4JAs8f.s:3924   .text.GUI__HandleEOLine:00000000 GUI__HandleEOLine
C:\Users\fish\AppData\Local\Temp\cc4JAs8f.s:3973   .text.GUI__IntersectRects:00000000 $t
C:\Users\fish\AppData\Local\Temp\cc4JAs8f.s:3979   .text.GUI__IntersectRects:00000000 GUI__IntersectRects
C:\Users\fish\AppData\Local\Temp\cc4JAs8f.s:4063   .text.LCD_SetClipRectEx:00000000 $t
C:\Users\fish\AppData\Local\Temp\cc4JAs8f.s:4069   .text.LCD_SetClipRectEx:00000000 LCD_SetClipRectEx
C:\Users\fish\AppData\Local\Temp\cc4JAs8f.s:4108   .text.LCD_SetClipRectEx:0000001c $d
C:\Users\fish\AppData\Local\Temp\cc4JAs8f.s:4113   .text.GUI_GetDispPosX:00000000 $t
C:\Users\fish\AppData\Local\Temp\cc4JAs8f.s:4119   .text.GUI_GetDispPosX:00000000 GUI_GetDispPosX
C:\Users\fish\AppData\Local\Temp\cc4JAs8f.s:4141   .text.GUI_GetDispPosX:00000008 $d
C:\Users\fish\AppData\Local\Temp\cc4JAs8f.s:4146   .text.GUI_GetDispPosY:00000000 $t
C:\Users\fish\AppData\Local\Temp\cc4JAs8f.s:4152   .text.GUI_GetDispPosY:00000000 GUI_GetDispPosY
C:\Users\fish\AppData\Local\Temp\cc4JAs8f.s:4174   .text.GUI_GetDispPosY:00000008 $d
C:\Users\fish\AppData\Local\Temp\cc4JAs8f.s:4179   .text.GUI__strlen:00000000 $t
C:\Users\fish\AppData\Local\Temp\cc4JAs8f.s:4185   .text.GUI__strlen:00000000 GUI__strlen
C:\Users\fish\AppData\Local\Temp\cc4JAs8f.s:4228   .text.GUI_GetFontInfo:00000000 $t
C:\Users\fish\AppData\Local\Temp\cc4JAs8f.s:4234   .text.GUI_GetFontInfo:00000000 GUI_GetFontInfo
C:\Users\fish\AppData\Local\Temp\cc4JAs8f.s:4273   .text.GUI_GetFontInfo:00000014 $d
C:\Users\fish\AppData\Local\Temp\cc4JAs8f.s:4278   .text.GUI_GetYSizeOfFont:00000000 $t
C:\Users\fish\AppData\Local\Temp\cc4JAs8f.s:4284   .text.GUI_GetYSizeOfFont:00000000 GUI_GetYSizeOfFont
C:\Users\fish\AppData\Local\Temp\cc4JAs8f.s:4302   .text.GUI_GetYDistOfFont:00000000 $t
C:\Users\fish\AppData\Local\Temp\cc4JAs8f.s:4308   .text.GUI_GetYDistOfFont:00000000 GUI_GetYDistOfFont
C:\Users\fish\AppData\Local\Temp\cc4JAs8f.s:4326   .text.GUI_GetTextAlign:00000000 $t
C:\Users\fish\AppData\Local\Temp\cc4JAs8f.s:4332   .text.GUI_GetTextAlign:00000000 GUI_GetTextAlign
C:\Users\fish\AppData\Local\Temp\cc4JAs8f.s:4354   .text.GUI_GetTextAlign:00000008 $d
C:\Users\fish\AppData\Local\Temp\cc4JAs8f.s:4359   .text.GUI_IsInFont:00000000 $t
C:\Users\fish\AppData\Local\Temp\cc4JAs8f.s:4365   .text.GUI_IsInFont:00000000 GUI_IsInFont
C:\Users\fish\AppData\Local\Temp\cc4JAs8f.s:4402   .text.GUI_IsInFont:00000014 $d
C:\Users\fish\AppData\Local\Temp\cc4JAs8f.s:4407   .text.GUI_Update:00000000 $t
C:\Users\fish\AppData\Local\Temp\cc4JAs8f.s:4413   .text.GUI_Update:00000000 GUI_Update
C:\Users\fish\AppData\Local\Temp\cc4JAs8f.s:4432   .text.GL_DrawBitmap:00000000 $t
C:\Users\fish\AppData\Local\Temp\cc4JAs8f.s:4438   .text.GL_DrawBitmap:00000000 GL_DrawBitmap
C:\Users\fish\AppData\Local\Temp\cc4JAs8f.s:4479   .text.GUI_DrawBitmap:00000000 $t
C:\Users\fish\AppData\Local\Temp\cc4JAs8f.s:4485   .text.GUI_DrawBitmap:00000000 GUI_DrawBitmap
C:\Users\fish\AppData\Local\Temp\cc4JAs8f.s:4508   .text.LCD_DrawPixel:00000000 $t
C:\Users\fish\AppData\Local\Temp\cc4JAs8f.s:4514   .text.LCD_DrawPixel:00000000 LCD_DrawPixel
ARM GAS  C:\Users\fish\AppData\Local\Temp\cc4JAs8f.s 			page 206


C:\Users\fish\AppData\Local\Temp\cc4JAs8f.s:4569   .text.LCD_DrawPixel:0000003c $d
C:\Users\fish\AppData\Local\Temp\cc4JAs8f.s:4574   .text.Draw8Point:00000000 $t
C:\Users\fish\AppData\Local\Temp\cc4JAs8f.s:4579   .text.Draw8Point:00000000 Draw8Point
C:\Users\fish\AppData\Local\Temp\cc4JAs8f.s:4676   .text.LCD_DrawHLine:00000000 $t
C:\Users\fish\AppData\Local\Temp\cc4JAs8f.s:4682   .text.LCD_DrawHLine:00000000 LCD_DrawHLine
C:\Users\fish\AppData\Local\Temp\cc4JAs8f.s:4755   .text.LCD_DrawHLine:00000050 $d
C:\Users\fish\AppData\Local\Temp\cc4JAs8f.s:4760   .text.LCD_DrawVLine:00000000 $t
C:\Users\fish\AppData\Local\Temp\cc4JAs8f.s:4766   .text.LCD_DrawVLine:00000000 LCD_DrawVLine
C:\Users\fish\AppData\Local\Temp\cc4JAs8f.s:4839   .text.LCD_DrawVLine:00000050 $d
C:\Users\fish\AppData\Local\Temp\cc4JAs8f.s:4844   .text._DrawRect:00000000 $t
C:\Users\fish\AppData\Local\Temp\cc4JAs8f.s:4849   .text._DrawRect:00000000 _DrawRect
C:\Users\fish\AppData\Local\Temp\cc4JAs8f.s:4903   .text.GL_DrawCircle:00000000 $t
C:\Users\fish\AppData\Local\Temp\cc4JAs8f.s:4909   .text.GL_DrawCircle:00000000 GL_DrawCircle
C:\Users\fish\AppData\Local\Temp\cc4JAs8f.s:5006   .text.GL_DrawCircle:00000068 $d
C:\Users\fish\AppData\Local\Temp\cc4JAs8f.s:5011   .text.GUI_DrawCircle:00000000 $t
C:\Users\fish\AppData\Local\Temp\cc4JAs8f.s:5017   .text.GUI_DrawCircle:00000000 GUI_DrawCircle
C:\Users\fish\AppData\Local\Temp\cc4JAs8f.s:5040   .text.GL_FillCircle:00000000 $t
C:\Users\fish\AppData\Local\Temp\cc4JAs8f.s:5046   .text.GL_FillCircle:00000000 GL_FillCircle
C:\Users\fish\AppData\Local\Temp\cc4JAs8f.s:5177   .text.GL_FillCircle:000000a0 $d
C:\Users\fish\AppData\Local\Temp\cc4JAs8f.s:5182   .text.GUI_FillCircle:00000000 $t
C:\Users\fish\AppData\Local\Temp\cc4JAs8f.s:5188   .text.GUI_FillCircle:00000000 GUI_FillCircle
C:\Users\fish\AppData\Local\Temp\cc4JAs8f.s:5211   .text.GL_FillEllipse:00000000 $t
C:\Users\fish\AppData\Local\Temp\cc4JAs8f.s:5217   .text.GL_FillEllipse:00000000 GL_FillEllipse
C:\Users\fish\AppData\Local\Temp\cc4JAs8f.s:5344   .text.GUI_FillEllipse:00000000 $t
C:\Users\fish\AppData\Local\Temp\cc4JAs8f.s:5350   .text.GUI_FillEllipse:00000000 GUI_FillEllipse
C:\Users\fish\AppData\Local\Temp\cc4JAs8f.s:5373   .text.GL_DrawEllipse:00000000 $t
C:\Users\fish\AppData\Local\Temp\cc4JAs8f.s:5379   .text.GL_DrawEllipse:00000000 GL_DrawEllipse
C:\Users\fish\AppData\Local\Temp\cc4JAs8f.s:5579   .text.GL_DrawEllipse:000000fc $d
C:\Users\fish\AppData\Local\Temp\cc4JAs8f.s:5584   .text.GUI_DrawEllipse:00000000 $t
C:\Users\fish\AppData\Local\Temp\cc4JAs8f.s:5590   .text.GUI_DrawEllipse:00000000 GUI_DrawEllipse
C:\Users\fish\AppData\Local\Temp\cc4JAs8f.s:5613   .text.GUI_DrawHLine:00000000 $t
C:\Users\fish\AppData\Local\Temp\cc4JAs8f.s:5619   .text.GUI_DrawHLine:00000000 GUI_DrawHLine
C:\Users\fish\AppData\Local\Temp\cc4JAs8f.s:5649   .text.GUI_DrawVLine:00000000 $t
C:\Users\fish\AppData\Local\Temp\cc4JAs8f.s:5655   .text.GUI_DrawVLine:00000000 GUI_DrawVLine
C:\Users\fish\AppData\Local\Temp\cc4JAs8f.s:5678   .text.GUI_DrawLine:00000000 $t
C:\Users\fish\AppData\Local\Temp\cc4JAs8f.s:5684   .text.GUI_DrawLine:00000000 GUI_DrawLine
C:\Users\fish\AppData\Local\Temp\cc4JAs8f.s:5726   .text.GUI_DrawLine:0000001c $d
C:\Users\fish\AppData\Local\Temp\cc4JAs8f.s:5731   .text.GUI_DrawPixel:00000000 $t
C:\Users\fish\AppData\Local\Temp\cc4JAs8f.s:5737   .text.GUI_DrawPixel:00000000 GUI_DrawPixel
C:\Users\fish\AppData\Local\Temp\cc4JAs8f.s:5758   .text.GUI_DrawPoint:00000000 $t
C:\Users\fish\AppData\Local\Temp\cc4JAs8f.s:5764   .text.GUI_DrawPoint:00000000 GUI_DrawPoint
C:\Users\fish\AppData\Local\Temp\cc4JAs8f.s:5818   .text.GUI_DrawPoint:00000038 $d
C:\Users\fish\AppData\Local\Temp\cc4JAs8f.s:5823   .text.GUI_DrawRect:00000000 $t
C:\Users\fish\AppData\Local\Temp\cc4JAs8f.s:5829   .text.GUI_DrawRect:00000000 GUI_DrawRect
C:\Users\fish\AppData\Local\Temp\cc4JAs8f.s:5852   .text.GUI_FillRect:00000000 $t
C:\Users\fish\AppData\Local\Temp\cc4JAs8f.s:5858   .text.GUI_FillRect:00000000 GUI_FillRect
C:\Users\fish\AppData\Local\Temp\cc4JAs8f.s:5906   .text.GUI_SetColor:00000000 $t
C:\Users\fish\AppData\Local\Temp\cc4JAs8f.s:5912   .text.GUI_SetColor:00000000 GUI_SetColor
C:\Users\fish\AppData\Local\Temp\cc4JAs8f.s:5939   .text.GUI_SetColor:00000010 $d
C:\Users\fish\AppData\Local\Temp\cc4JAs8f.s:5944   .text.GUI_GetColor:00000000 $t
C:\Users\fish\AppData\Local\Temp\cc4JAs8f.s:5950   .text.GUI_GetColor:00000000 GUI_GetColor
C:\Users\fish\AppData\Local\Temp\cc4JAs8f.s:5970   .text.GUI_GetColor:00000008 $d
C:\Users\fish\AppData\Local\Temp\cc4JAs8f.s:5975   .text.utf8_string_to_gbk_with_table:00000000 $t
C:\Users\fish\AppData\Local\Temp\cc4JAs8f.s:5981   .text.utf8_string_to_gbk_with_table:00000000 utf8_string_to_gbk_with_table
C:\Users\fish\AppData\Local\Temp\cc4JAs8f.s:6287   .text.utf8_string_to_gbk_with_table:00000100 $d
C:\Users\fish\AppData\Local\Temp\cc4JAs8f.s:8193   .bss.output_buf.1:00000000 output_buf.1
C:\Users\fish\AppData\Local\Temp\cc4JAs8f.s:6293   .text.mixed_string_to_gbk:00000000 $t
ARM GAS  C:\Users\fish\AppData\Local\Temp\cc4JAs8f.s 			page 207


C:\Users\fish\AppData\Local\Temp\cc4JAs8f.s:6299   .text.mixed_string_to_gbk:00000000 mixed_string_to_gbk
C:\Users\fish\AppData\Local\Temp\cc4JAs8f.s:6815   .text.mixed_string_to_gbk:000001d0 $d
C:\Users\fish\AppData\Local\Temp\cc4JAs8f.s:8187   .bss.output_buf.0:00000000 output_buf.0
C:\Users\fish\AppData\Local\Temp\cc4JAs8f.s:6821   .text.GUI_DispString:00000000 $t
C:\Users\fish\AppData\Local\Temp\cc4JAs8f.s:6827   .text.GUI_DispString:00000000 GUI_DispString
C:\Users\fish\AppData\Local\Temp\cc4JAs8f.s:7140   .text.GUI_DispString:00000140 $d
C:\Users\fish\AppData\Local\Temp\cc4JAs8f.s:7145   .text.GUI_DispStringAt:00000000 $t
C:\Users\fish\AppData\Local\Temp\cc4JAs8f.s:7151   .text.GUI_DispStringAt:00000000 GUI_DispStringAt
C:\Users\fish\AppData\Local\Temp\cc4JAs8f.s:7180   .text.GUI_DispStringAt:00000010 $d
C:\Users\fish\AppData\Local\Temp\cc4JAs8f.s:7185   .text.GUI_DispStringHCenterAt:00000000 $t
C:\Users\fish\AppData\Local\Temp\cc4JAs8f.s:7191   .text.GUI_DispStringHCenterAt:00000000 GUI_DispStringHCenterAt
C:\Users\fish\AppData\Local\Temp\cc4JAs8f.s:7243   .text.GUI_DispStringHCenterAt:0000002c $d
C:\Users\fish\AppData\Local\Temp\cc4JAs8f.s:7248   .text.GUI__DispStringInRect:00000000 $t
C:\Users\fish\AppData\Local\Temp\cc4JAs8f.s:7254   .text.GUI__DispStringInRect:00000000 GUI__DispStringInRect
C:\Users\fish\AppData\Local\Temp\cc4JAs8f.s:7622   .text.GUI__DispStringInRect:00000178 $d
C:\Users\fish\AppData\Local\Temp\cc4JAs8f.s:7627   .text.GUI_DispStringInRectMax:00000000 $t
C:\Users\fish\AppData\Local\Temp\cc4JAs8f.s:7633   .text.GUI_DispStringInRectMax:00000000 GUI_DispStringInRectMax
C:\Users\fish\AppData\Local\Temp\cc4JAs8f.s:7718   .text.GUI_DispStringInRectMax:00000048 $d
C:\Users\fish\AppData\Local\Temp\cc4JAs8f.s:7723   .text.GUI_DispStringInRect:00000000 $t
C:\Users\fish\AppData\Local\Temp\cc4JAs8f.s:7729   .text.GUI_DispStringInRect:00000000 GUI_DispStringInRect
C:\Users\fish\AppData\Local\Temp\cc4JAs8f.s:7751   .text.GUI_DispStringLen:00000000 $t
C:\Users\fish\AppData\Local\Temp\cc4JAs8f.s:7757   .text.GUI_DispStringLen:00000000 GUI_DispStringLen
C:\Users\fish\AppData\Local\Temp\cc4JAs8f.s:7875   .text.GUI_GetTextExtend:00000000 $t
C:\Users\fish\AppData\Local\Temp\cc4JAs8f.s:7881   .text.GUI_GetTextExtend:00000000 GUI_GetTextExtend
C:\Users\fish\AppData\Local\Temp\cc4JAs8f.s:8093   .text.GUI_GetTextExtend:000000ac $d
C:\Users\fish\AppData\Local\Temp\cc4JAs8f.s:8098   .text.GUI_GetStringDistX:00000000 $t
C:\Users\fish\AppData\Local\Temp\cc4JAs8f.s:8104   .text.GUI_GetStringDistX:00000000 GUI_GetStringDistX
C:\Users\fish\AppData\Local\Temp\cc4JAs8f.s:8184   .bss.output_buf.0:00000000 $d
C:\Users\fish\AppData\Local\Temp\cc4JAs8f.s:8190   .bss.output_buf.1:00000000 $d
C:\Users\fish\AppData\Local\Temp\cc4JAs8f.s:8200   .bss.GUI_DecChar:00000000 $d
C:\Users\fish\AppData\Local\Temp\cc4JAs8f.s:8203   .bss.GUI_Context:00000000 $d
C:\Users\fish\AppData\Local\Temp\cc4JAs8f.s:1847   .text.DrawBitLine1BPP:00000025 $d
C:\Users\fish\AppData\Local\Temp\cc4JAs8f.s:1847   .text.DrawBitLine1BPP:00000026 $t

UNDEFINED SYMBOLS
SSD1306_init
GUI_Font8_ASCII
strlen
SSD1306_DrawPixel
SSD1306_DrawFilledRectangle
SSD1306_UpdateScreen
SSD1306_DrawLine
memcmp
memcpy
