ARM GAS  C:\Users\fish\AppData\Local\Temp\ccQbeEVV.s 			page 1


   1              		.cpu cortex-m4
   2              		.arch armv7e-m
   3              		.fpu fpv4-sp-d16
   4              		.eabi_attribute 27, 1
   5              		.eabi_attribute 28, 1
   6              		.eabi_attribute 20, 1
   7              		.eabi_attribute 21, 1
   8              		.eabi_attribute 23, 3
   9              		.eabi_attribute 24, 1
  10              		.eabi_attribute 25, 1
  11              		.eabi_attribute 26, 1
  12              		.eabi_attribute 30, 1
  13              		.eabi_attribute 34, 1
  14              		.eabi_attribute 18, 4
  15              		.file	"ssd1306.c"
  16              		.text
  17              	.Ltext0:
  18              		.cfi_sections	.debug_frame
  19              		.file 1 "../Bsp/OLED/ssd1306.c"
  20              		.section	.text.OLED_WriteData,"ax",%progbits
  21              		.align	1
  22              		.syntax unified
  23              		.thumb
  24              		.thumb_func
  26              	OLED_WriteData:
  27              	.LVL0:
  28              	.LFB244:
   1:../Bsp/OLED/ssd1306.c **** /**
   2:../Bsp/OLED/ssd1306.c ****  * @file    ssd1306.c
   3:../Bsp/OLED/ssd1306.c ****  * @brief   SSD1306/SH1106 OLED显示驱动实现
   4:../Bsp/OLED/ssd1306.c ****  * @details 支持SSD1306和SH1106两种OLED控制芯片
   5:../Bsp/OLED/ssd1306.c ****  *          - 自动检测芯片类型（通过I2C读取验证）
   6:../Bsp/OLED/ssd1306.c ****  *          - 支持硬件I2C和软件模拟I2C
   7:../Bsp/OLED/ssd1306.c ****  *          - 提供完整的图形绘制API
   8:../Bsp/OLED/ssd1306.c ****  * @author  HDU.ZYU
   9:../Bsp/OLED/ssd1306.c ****  * @date    2026
  10:../Bsp/OLED/ssd1306.c ****  */
  11:../Bsp/OLED/ssd1306.c **** 
  12:../Bsp/OLED/ssd1306.c **** #include "ssd1306.h"
  13:../Bsp/OLED/ssd1306.c **** #include "cmsis_os.h"
  14:../Bsp/OLED/ssd1306.c **** 
  15:../Bsp/OLED/ssd1306.c **** #ifdef OLED_I2C_HARD
  16:../Bsp/OLED/ssd1306.c **** #include "i2c.h"
  17:../Bsp/OLED/ssd1306.c **** #endif
  18:../Bsp/OLED/ssd1306.c **** 
  19:../Bsp/OLED/ssd1306.c **** /* ==================== 显示方向配置 ==================== */
  20:../Bsp/OLED/ssd1306.c **** 
  21:../Bsp/OLED/ssd1306.c **** /** @brief X轴翻转配置 (0=正常, 1=翻转) */
  22:../Bsp/OLED/ssd1306.c **** #define OLED_FLIP_X    1
  23:../Bsp/OLED/ssd1306.c **** 
  24:../Bsp/OLED/ssd1306.c **** /** @brief Y轴翻转配置 (0=正常, 1=翻转) */
  25:../Bsp/OLED/ssd1306.c **** #define OLED_FLIP_Y    1
  26:../Bsp/OLED/ssd1306.c **** 
  27:../Bsp/OLED/ssd1306.c **** /* ==================== 宏定义 ==================== */
  28:../Bsp/OLED/ssd1306.c **** 
  29:../Bsp/OLED/ssd1306.c **** /** @brief 取绝对值 */
  30:../Bsp/OLED/ssd1306.c **** #define ABS(x)   ((x) > 0 ? (x) : -(x))
ARM GAS  C:\Users\fish\AppData\Local\Temp\ccQbeEVV.s 			page 2


  31:../Bsp/OLED/ssd1306.c **** 
  32:../Bsp/OLED/ssd1306.c **** /* ==================== 私有变量 ==================== */
  33:../Bsp/OLED/ssd1306.c **** 
  34:../Bsp/OLED/ssd1306.c **** /** @brief 显存缓冲区 (128x64像素, 8页, 每页128字节) */
  35:../Bsp/OLED/ssd1306.c **** static volatile uint8_t SSD1306_Buffer[SSD1306_WIDTH * SSD1306_HEIGHT / 8];
  36:../Bsp/OLED/ssd1306.c **** 
  37:../Bsp/OLED/ssd1306.c **** /** @brief 透明绘制标志 (1=透明模式, 背景色不绘制) */
  38:../Bsp/OLED/ssd1306.c **** static unsigned char SSD_Trans = 0;
  39:../Bsp/OLED/ssd1306.c **** 
  40:../Bsp/OLED/ssd1306.c **** /* ==================== 芯片类型定义 ==================== */
  41:../Bsp/OLED/ssd1306.c **** 
  42:../Bsp/OLED/ssd1306.c **** /**
  43:../Bsp/OLED/ssd1306.c ****  * @brief OLED芯片类型枚举
  44:../Bsp/OLED/ssd1306.c ****  */
  45:../Bsp/OLED/ssd1306.c **** typedef enum {
  46:../Bsp/OLED/ssd1306.c ****     CHIP_UNKNOWN = 0,   /**< 未识别 */
  47:../Bsp/OLED/ssd1306.c ****     CHIP_SSD1306  = 1,  /**< SSD1306芯片 */
  48:../Bsp/OLED/ssd1306.c ****     CHIP_SH1106   = 2   /**< SH1106芯片 */
  49:../Bsp/OLED/ssd1306.c **** } OLED_ChipTypeDef;
  50:../Bsp/OLED/ssd1306.c **** 
  51:../Bsp/OLED/ssd1306.c **** /** @brief 当前识别到的芯片类型 */
  52:../Bsp/OLED/ssd1306.c **** OLED_ChipTypeDef OLED_ChipType = CHIP_UNKNOWN;
  53:../Bsp/OLED/ssd1306.c **** 
  54:../Bsp/OLED/ssd1306.c **** /* ==================== 私有结构体 ==================== */
  55:../Bsp/OLED/ssd1306.c **** 
  56:../Bsp/OLED/ssd1306.c **** /**
  57:../Bsp/OLED/ssd1306.c ****  * @brief SSD1306状态结构体
  58:../Bsp/OLED/ssd1306.c ****  */
  59:../Bsp/OLED/ssd1306.c **** typedef struct {
  60:../Bsp/OLED/ssd1306.c ****     uint16_t CurrentX;      /**< 当前X坐标 */
  61:../Bsp/OLED/ssd1306.c ****     uint16_t CurrentY;      /**< 当前Y坐标 */
  62:../Bsp/OLED/ssd1306.c ****     uint8_t Inverted;       /**< 反色显示标志 */
  63:../Bsp/OLED/ssd1306.c ****     uint8_t Initialized;    /**< 初始化完成标志 */
  64:../Bsp/OLED/ssd1306.c **** } SSD1306_t;
  65:../Bsp/OLED/ssd1306.c **** 
  66:../Bsp/OLED/ssd1306.c **** /** @brief SSD1306实例 */
  67:../Bsp/OLED/ssd1306.c **** static SSD1306_t SSD1306;
  68:../Bsp/OLED/ssd1306.c **** 
  69:../Bsp/OLED/ssd1306.c **** /* ==================== 底层I/O函数 ==================== */
  70:../Bsp/OLED/ssd1306.c **** 
  71:../Bsp/OLED/ssd1306.c **** #ifdef OLED_I2C_HARD
  72:../Bsp/OLED/ssd1306.c **** /**
  73:../Bsp/OLED/ssd1306.c ****  * @brief   写入命令（硬件I2C版本）
  74:../Bsp/OLED/ssd1306.c ****  * @param   cmd: 命令字节
  75:../Bsp/OLED/ssd1306.c ****  */
  76:../Bsp/OLED/ssd1306.c **** static void OLED_WriteCmd(uint8_t cmd)
  77:../Bsp/OLED/ssd1306.c **** {
  78:../Bsp/OLED/ssd1306.c ****     HAL_I2C_Mem_Write(&hi2c1, SSD1306_I2C_ADDR, 0x00, I2C_MEMADD_SIZE_8BIT, &cmd, 1, 100);
  79:../Bsp/OLED/ssd1306.c **** }
  80:../Bsp/OLED/ssd1306.c **** 
  81:../Bsp/OLED/ssd1306.c **** /**
  82:../Bsp/OLED/ssd1306.c ****  * @brief   写入数据（硬件I2C版本）
  83:../Bsp/OLED/ssd1306.c ****  * @param   dat: 数据字节
  84:../Bsp/OLED/ssd1306.c ****  */
  85:../Bsp/OLED/ssd1306.c **** static void OLED_WriteData(uint8_t dat)
  86:../Bsp/OLED/ssd1306.c **** {
  29              		.loc 1 86 1 view -0
ARM GAS  C:\Users\fish\AppData\Local\Temp\ccQbeEVV.s 			page 3


  30              		.cfi_startproc
  31              		@ args = 0, pretend = 0, frame = 8
  32              		@ frame_needed = 0, uses_anonymous_args = 0
  33              		.loc 1 86 1 is_stmt 0 view .LVU1
  34 0000 00B5     		push	{lr}
  35              		.cfi_def_cfa_offset 4
  36              		.cfi_offset 14, -4
  37 0002 87B0     		sub	sp, sp, #28
  38              		.cfi_def_cfa_offset 32
  39 0004 8DF81700 		strb	r0, [sp, #23]
  87:../Bsp/OLED/ssd1306.c ****     HAL_I2C_Mem_Write(&hi2c1, SSD1306_I2C_ADDR, 0x40, I2C_MEMADD_SIZE_8BIT, &dat, 1, 100);
  40              		.loc 1 87 5 is_stmt 1 view .LVU2
  41 0008 6423     		movs	r3, #100
  42 000a 0293     		str	r3, [sp, #8]
  43 000c 0123     		movs	r3, #1
  44 000e 0193     		str	r3, [sp, #4]
  45 0010 0DF11702 		add	r2, sp, #23
  46 0014 0092     		str	r2, [sp]
  47 0016 4022     		movs	r2, #64
  48 0018 7821     		movs	r1, #120
  49 001a 0348     		ldr	r0, .L3
  50              	.LVL1:
  51              		.loc 1 87 5 is_stmt 0 view .LVU3
  52 001c FFF7FEFF 		bl	HAL_I2C_Mem_Write
  53              	.LVL2:
  88:../Bsp/OLED/ssd1306.c **** }
  54              		.loc 1 88 1 view .LVU4
  55 0020 07B0     		add	sp, sp, #28
  56              		.cfi_def_cfa_offset 4
  57              		@ sp needed
  58 0022 5DF804FB 		ldr	pc, [sp], #4
  59              	.L4:
  60 0026 00BF     		.align	2
  61              	.L3:
  62 0028 00000000 		.word	hi2c1
  63              		.cfi_endproc
  64              	.LFE244:
  66              		.section	.text.OLED_WriteCmd,"ax",%progbits
  67              		.align	1
  68              		.syntax unified
  69              		.thumb
  70              		.thumb_func
  72              	OLED_WriteCmd:
  73              	.LVL3:
  74              	.LFB243:
  77:../Bsp/OLED/ssd1306.c ****     HAL_I2C_Mem_Write(&hi2c1, SSD1306_I2C_ADDR, 0x00, I2C_MEMADD_SIZE_8BIT, &cmd, 1, 100);
  75              		.loc 1 77 1 is_stmt 1 view -0
  76              		.cfi_startproc
  77              		@ args = 0, pretend = 0, frame = 8
  78              		@ frame_needed = 0, uses_anonymous_args = 0
  77:../Bsp/OLED/ssd1306.c ****     HAL_I2C_Mem_Write(&hi2c1, SSD1306_I2C_ADDR, 0x00, I2C_MEMADD_SIZE_8BIT, &cmd, 1, 100);
  79              		.loc 1 77 1 is_stmt 0 view .LVU6
  80 0000 00B5     		push	{lr}
  81              		.cfi_def_cfa_offset 4
  82              		.cfi_offset 14, -4
  83 0002 87B0     		sub	sp, sp, #28
  84              		.cfi_def_cfa_offset 32
ARM GAS  C:\Users\fish\AppData\Local\Temp\ccQbeEVV.s 			page 4


  85 0004 8DF81700 		strb	r0, [sp, #23]
  78:../Bsp/OLED/ssd1306.c **** }
  86              		.loc 1 78 5 is_stmt 1 view .LVU7
  87 0008 6423     		movs	r3, #100
  88 000a 0293     		str	r3, [sp, #8]
  89 000c 0123     		movs	r3, #1
  90 000e 0193     		str	r3, [sp, #4]
  91 0010 0DF11702 		add	r2, sp, #23
  92 0014 0092     		str	r2, [sp]
  93 0016 0022     		movs	r2, #0
  94 0018 7821     		movs	r1, #120
  95 001a 0348     		ldr	r0, .L7
  96              	.LVL4:
  78:../Bsp/OLED/ssd1306.c **** }
  97              		.loc 1 78 5 is_stmt 0 view .LVU8
  98 001c FFF7FEFF 		bl	HAL_I2C_Mem_Write
  99              	.LVL5:
  79:../Bsp/OLED/ssd1306.c **** 
 100              		.loc 1 79 1 view .LVU9
 101 0020 07B0     		add	sp, sp, #28
 102              		.cfi_def_cfa_offset 4
 103              		@ sp needed
 104 0022 5DF804FB 		ldr	pc, [sp], #4
 105              	.L8:
 106 0026 00BF     		.align	2
 107              	.L7:
 108 0028 00000000 		.word	hi2c1
 109              		.cfi_endproc
 110              	.LFE243:
 112              		.section	.text.OLED_ReadData,"ax",%progbits
 113              		.align	1
 114              		.syntax unified
 115              		.thumb
 116              		.thumb_func
 118              	OLED_ReadData:
 119              	.LVL6:
 120              	.LFB245:
  89:../Bsp/OLED/ssd1306.c **** 
  90:../Bsp/OLED/ssd1306.c **** /**
  91:../Bsp/OLED/ssd1306.c ****  * @brief   读取数据（硬件I2C版本）
  92:../Bsp/OLED/ssd1306.c ****  * @details SH1106需要先发送控制字节0x40，再读取数据
  93:../Bsp/OLED/ssd1306.c ****  * @param   out_data: 读取到的数据指针
  94:../Bsp/OLED/ssd1306.c ****  * @return  HAL状态
  95:../Bsp/OLED/ssd1306.c ****  */
  96:../Bsp/OLED/ssd1306.c **** static HAL_StatusTypeDef OLED_ReadData(uint8_t *out_data)
  97:../Bsp/OLED/ssd1306.c **** {
 121              		.loc 1 97 1 is_stmt 1 view -0
 122              		.cfi_startproc
 123              		@ args = 0, pretend = 0, frame = 0
 124              		@ frame_needed = 0, uses_anonymous_args = 0
 125              		.loc 1 97 1 is_stmt 0 view .LVU11
 126 0000 00B5     		push	{lr}
 127              		.cfi_def_cfa_offset 4
 128              		.cfi_offset 14, -4
 129 0002 85B0     		sub	sp, sp, #20
 130              		.cfi_def_cfa_offset 24
  98:../Bsp/OLED/ssd1306.c ****     return HAL_I2C_Mem_Read(&hi2c1, SSD1306_I2C_ADDR, 0x40, I2C_MEMADD_SIZE_8BIT, out_data, 1, 100)
ARM GAS  C:\Users\fish\AppData\Local\Temp\ccQbeEVV.s 			page 5


 131              		.loc 1 98 5 is_stmt 1 view .LVU12
 132              		.loc 1 98 12 is_stmt 0 view .LVU13
 133 0004 6423     		movs	r3, #100
 134 0006 0293     		str	r3, [sp, #8]
 135 0008 0123     		movs	r3, #1
 136 000a 0193     		str	r3, [sp, #4]
 137 000c 0090     		str	r0, [sp]
 138 000e 4022     		movs	r2, #64
 139 0010 7821     		movs	r1, #120
 140 0012 0348     		ldr	r0, .L11
 141              	.LVL7:
 142              		.loc 1 98 12 view .LVU14
 143 0014 FFF7FEFF 		bl	HAL_I2C_Mem_Read
 144              	.LVL8:
  99:../Bsp/OLED/ssd1306.c **** }
 145              		.loc 1 99 1 view .LVU15
 146 0018 05B0     		add	sp, sp, #20
 147              		.cfi_def_cfa_offset 4
 148              		@ sp needed
 149 001a 5DF804FB 		ldr	pc, [sp], #4
 150              	.L12:
 151 001e 00BF     		.align	2
 152              	.L11:
 153 0020 00000000 		.word	hi2c1
 154              		.cfi_endproc
 155              	.LFE245:
 157              		.section	.text.OLED_DetectChip,"ax",%progbits
 158              		.align	1
 159              		.global	OLED_DetectChip
 160              		.syntax unified
 161              		.thumb
 162              		.thumb_func
 164              	OLED_DetectChip:
 165              	.LFB246:
 100:../Bsp/OLED/ssd1306.c **** #else
 101:../Bsp/OLED/ssd1306.c **** /**
 102:../Bsp/OLED/ssd1306.c ****  * @brief   写入命令（软件I2C版本）
 103:../Bsp/OLED/ssd1306.c ****  * @param   cmd: 命令字节
 104:../Bsp/OLED/ssd1306.c ****  */
 105:../Bsp/OLED/ssd1306.c **** static void OLED_WriteCmd(uint8_t cmd)
 106:../Bsp/OLED/ssd1306.c **** {
 107:../Bsp/OLED/ssd1306.c ****     OLED_IIC_Start();
 108:../Bsp/OLED/ssd1306.c ****     OLED_IIC_SendByte(SSD1306_I2C_ADDR);
 109:../Bsp/OLED/ssd1306.c ****     OLED_IIC_SendByte(0x00);
 110:../Bsp/OLED/ssd1306.c ****     OLED_IIC_SendByte(cmd);
 111:../Bsp/OLED/ssd1306.c ****     OLED_IIC_Stop();
 112:../Bsp/OLED/ssd1306.c **** }
 113:../Bsp/OLED/ssd1306.c **** 
 114:../Bsp/OLED/ssd1306.c **** /**
 115:../Bsp/OLED/ssd1306.c ****  * @brief   写入数据（软件I2C版本）
 116:../Bsp/OLED/ssd1306.c ****  * @param   dat: 数据字节
 117:../Bsp/OLED/ssd1306.c ****  */
 118:../Bsp/OLED/ssd1306.c **** static void OLED_WriteData(uint8_t dat)
 119:../Bsp/OLED/ssd1306.c **** {
 120:../Bsp/OLED/ssd1306.c ****     OLED_IIC_Start();
 121:../Bsp/OLED/ssd1306.c ****     OLED_IIC_SendByte(SSD1306_I2C_ADDR);
 122:../Bsp/OLED/ssd1306.c ****     OLED_IIC_SendByte(0x40);
ARM GAS  C:\Users\fish\AppData\Local\Temp\ccQbeEVV.s 			page 6


 123:../Bsp/OLED/ssd1306.c ****     OLED_IIC_SendByte(dat);
 124:../Bsp/OLED/ssd1306.c ****     OLED_IIC_Stop();
 125:../Bsp/OLED/ssd1306.c **** }
 126:../Bsp/OLED/ssd1306.c **** 
 127:../Bsp/OLED/ssd1306.c **** /**
 128:../Bsp/OLED/ssd1306.c ****  * @brief   读取数据（软件I2C版本）
 129:../Bsp/OLED/ssd1306.c ****  * @details I2C读取时序：
 130:../Bsp/OLED/ssd1306.c ****  *          START → 设备地址(写) → 控制字节(0x40) → 
 131:../Bsp/OLED/ssd1306.c ****  *          RESTART → 设备地址(读) → 读取数据 → STOP
 132:../Bsp/OLED/ssd1306.c ****  * @return  读取到的数据字节
 133:../Bsp/OLED/ssd1306.c ****  */
 134:../Bsp/OLED/ssd1306.c **** static uint8_t OLED_ReadData(void)
 135:../Bsp/OLED/ssd1306.c **** {
 136:../Bsp/OLED/ssd1306.c ****     uint8_t dat;
 137:../Bsp/OLED/ssd1306.c **** 
 138:../Bsp/OLED/ssd1306.c ****     OLED_IIC_Start();
 139:../Bsp/OLED/ssd1306.c ****     OLED_IIC_SendByte(SSD1306_I2C_ADDR);
 140:../Bsp/OLED/ssd1306.c ****     OLED_IIC_SendByte(0x40);
 141:../Bsp/OLED/ssd1306.c ****     OLED_IIC_Start();
 142:../Bsp/OLED/ssd1306.c ****     OLED_IIC_SendByte(SSD1306_I2C_ADDR | 0x01);
 143:../Bsp/OLED/ssd1306.c ****     dat = OLED_IIC_ReadByte(0);
 144:../Bsp/OLED/ssd1306.c ****     OLED_IIC_Stop();
 145:../Bsp/OLED/ssd1306.c **** 
 146:../Bsp/OLED/ssd1306.c ****     return dat;
 147:../Bsp/OLED/ssd1306.c **** }
 148:../Bsp/OLED/ssd1306.c **** #endif
 149:../Bsp/OLED/ssd1306.c **** 
 150:../Bsp/OLED/ssd1306.c **** /* ==================== 芯片检测函数 ==================== */
 151:../Bsp/OLED/ssd1306.c **** 
 152:../Bsp/OLED/ssd1306.c **** /**
 153:../Bsp/OLED/ssd1306.c ****  * @brief   检测OLED芯片类型
 154:../Bsp/OLED/ssd1306.c ****  * @details 检测原理：
 155:../Bsp/OLED/ssd1306.c ****  *          - SH1106支持I2C读取显存数据
 156:../Bsp/OLED/ssd1306.c ****  *          - SSD1306不支持I2C读取显存
 157:../Bsp/OLED/ssd1306.c ****  *          
 158:../Bsp/OLED/ssd1306.c ****  *          检测方法：
 159:../Bsp/OLED/ssd1306.c ****  *          1. 向显存写入测试数据(0xA5, 0x5A)
 160:../Bsp/OLED/ssd1306.c ****  *          2. 尝试读取显存数据
 161:../Bsp/OLED/ssd1306.c ****  *          3. SH1106能读回写入的数据（第一个字节是dummy byte）
 162:../Bsp/OLED/ssd1306.c ****  *          4. SSD1306无法读取，返回不匹配的数据
 163:../Bsp/OLED/ssd1306.c ****  *          
 164:../Bsp/OLED/ssd1306.c ****  * @return  1: SH1106芯片
 165:../Bsp/OLED/ssd1306.c ****  * @return  0: SSD1306芯片
 166:../Bsp/OLED/ssd1306.c ****  */
 167:../Bsp/OLED/ssd1306.c **** uint8_t OLED_DetectChip(void)
 168:../Bsp/OLED/ssd1306.c **** {
 166              		.loc 1 168 1 is_stmt 1 view -0
 167              		.cfi_startproc
 168              		@ args = 0, pretend = 0, frame = 8
 169              		@ frame_needed = 0, uses_anonymous_args = 0
 170 0000 30B5     		push	{r4, r5, lr}
 171              		.cfi_def_cfa_offset 12
 172              		.cfi_offset 4, -12
 173              		.cfi_offset 5, -8
 174              		.cfi_offset 14, -4
 175 0002 83B0     		sub	sp, sp, #12
 176              		.cfi_def_cfa_offset 24
ARM GAS  C:\Users\fish\AppData\Local\Temp\ccQbeEVV.s 			page 7


 169:../Bsp/OLED/ssd1306.c ****     uint8_t dummy, read_val1, read_val2;
 177              		.loc 1 169 5 view .LVU17
 170:../Bsp/OLED/ssd1306.c ****     uint8_t test1 = 0xA5;
 178              		.loc 1 170 5 view .LVU18
 179              	.LVL9:
 171:../Bsp/OLED/ssd1306.c ****     uint8_t test2 = 0x5A;
 180              		.loc 1 171 5 view .LVU19
 172:../Bsp/OLED/ssd1306.c **** 
 173:../Bsp/OLED/ssd1306.c ****     osDelay(20);
 181              		.loc 1 173 5 view .LVU20
 182 0004 1420     		movs	r0, #20
 183 0006 FFF7FEFF 		bl	osDelay
 184              	.LVL10:
 174:../Bsp/OLED/ssd1306.c **** 
 175:../Bsp/OLED/ssd1306.c ****     OLED_WriteCmd(0xAE);
 185              		.loc 1 175 5 view .LVU21
 186 000a AE20     		movs	r0, #174
 187 000c FFF7FEFF 		bl	OLED_WriteCmd
 188              	.LVL11:
 176:../Bsp/OLED/ssd1306.c ****     osDelay(10);
 189              		.loc 1 176 5 view .LVU22
 190 0010 0A20     		movs	r0, #10
 191 0012 FFF7FEFF 		bl	osDelay
 192              	.LVL12:
 177:../Bsp/OLED/ssd1306.c **** 
 178:../Bsp/OLED/ssd1306.c ****     OLED_WriteCmd(0xB0);
 193              		.loc 1 178 5 view .LVU23
 194 0016 B020     		movs	r0, #176
 195 0018 FFF7FEFF 		bl	OLED_WriteCmd
 196              	.LVL13:
 179:../Bsp/OLED/ssd1306.c ****     OLED_WriteCmd(0x00);
 197              		.loc 1 179 5 view .LVU24
 198 001c 0020     		movs	r0, #0
 199 001e FFF7FEFF 		bl	OLED_WriteCmd
 200              	.LVL14:
 180:../Bsp/OLED/ssd1306.c ****     OLED_WriteCmd(0x10);
 201              		.loc 1 180 5 view .LVU25
 202 0022 1020     		movs	r0, #16
 203 0024 FFF7FEFF 		bl	OLED_WriteCmd
 204              	.LVL15:
 181:../Bsp/OLED/ssd1306.c **** 
 182:../Bsp/OLED/ssd1306.c ****     OLED_WriteData(test1);
 205              		.loc 1 182 5 view .LVU26
 206 0028 A520     		movs	r0, #165
 207 002a FFF7FEFF 		bl	OLED_WriteData
 208              	.LVL16:
 183:../Bsp/OLED/ssd1306.c ****     osDelay(2);
 209              		.loc 1 183 5 view .LVU27
 210 002e 0220     		movs	r0, #2
 211 0030 FFF7FEFF 		bl	osDelay
 212              	.LVL17:
 184:../Bsp/OLED/ssd1306.c ****     OLED_WriteData(test2);
 213              		.loc 1 184 5 view .LVU28
 214 0034 5A20     		movs	r0, #90
 215 0036 FFF7FEFF 		bl	OLED_WriteData
 216              	.LVL18:
 185:../Bsp/OLED/ssd1306.c ****     osDelay(5);
ARM GAS  C:\Users\fish\AppData\Local\Temp\ccQbeEVV.s 			page 8


 217              		.loc 1 185 5 view .LVU29
 218 003a 0520     		movs	r0, #5
 219 003c FFF7FEFF 		bl	osDelay
 220              	.LVL19:
 186:../Bsp/OLED/ssd1306.c **** 
 187:../Bsp/OLED/ssd1306.c ****     OLED_WriteCmd(0xB0);
 221              		.loc 1 187 5 view .LVU30
 222 0040 B020     		movs	r0, #176
 223 0042 FFF7FEFF 		bl	OLED_WriteCmd
 224              	.LVL20:
 188:../Bsp/OLED/ssd1306.c ****     OLED_WriteCmd(0x00);
 225              		.loc 1 188 5 view .LVU31
 226 0046 0020     		movs	r0, #0
 227 0048 FFF7FEFF 		bl	OLED_WriteCmd
 228              	.LVL21:
 189:../Bsp/OLED/ssd1306.c ****     OLED_WriteCmd(0x10);
 229              		.loc 1 189 5 view .LVU32
 230 004c 1020     		movs	r0, #16
 231 004e FFF7FEFF 		bl	OLED_WriteCmd
 232              	.LVL22:
 190:../Bsp/OLED/ssd1306.c ****     osDelay(2);
 233              		.loc 1 190 5 view .LVU33
 234 0052 0220     		movs	r0, #2
 235 0054 FFF7FEFF 		bl	osDelay
 236              	.LVL23:
 191:../Bsp/OLED/ssd1306.c **** 
 192:../Bsp/OLED/ssd1306.c **** #ifdef OLED_I2C_HARD
 193:../Bsp/OLED/ssd1306.c ****     if (OLED_ReadData(&dummy) != HAL_OK) {
 237              		.loc 1 193 5 view .LVU34
 238              		.loc 1 193 9 is_stmt 0 view .LVU35
 239 0058 0DF10700 		add	r0, sp, #7
 240 005c FFF7FEFF 		bl	OLED_ReadData
 241              	.LVL24:
 242              		.loc 1 193 8 discriminator 1 view .LVU36
 243 0060 18B1     		cbz	r0, .L19
 194:../Bsp/OLED/ssd1306.c ****         return 0;
 244              		.loc 1 194 16 view .LVU37
 245 0062 0024     		movs	r4, #0
 246              	.L14:
 195:../Bsp/OLED/ssd1306.c ****     }
 196:../Bsp/OLED/ssd1306.c ****     osDelay(2);
 197:../Bsp/OLED/ssd1306.c **** 
 198:../Bsp/OLED/ssd1306.c ****     if (OLED_ReadData(&read_val1) != HAL_OK) {
 199:../Bsp/OLED/ssd1306.c ****         return 0;
 200:../Bsp/OLED/ssd1306.c ****     }
 201:../Bsp/OLED/ssd1306.c ****     osDelay(2);
 202:../Bsp/OLED/ssd1306.c **** 
 203:../Bsp/OLED/ssd1306.c ****     if (OLED_ReadData(&read_val2) != HAL_OK) {
 204:../Bsp/OLED/ssd1306.c ****         return 0;
 205:../Bsp/OLED/ssd1306.c ****     }
 206:../Bsp/OLED/ssd1306.c **** #else
 207:../Bsp/OLED/ssd1306.c ****     dummy = OLED_ReadData();
 208:../Bsp/OLED/ssd1306.c ****     osDelay(2);
 209:../Bsp/OLED/ssd1306.c ****     read_val1 = OLED_ReadData();
 210:../Bsp/OLED/ssd1306.c ****     osDelay(2);
 211:../Bsp/OLED/ssd1306.c ****     read_val2 = OLED_ReadData();
 212:../Bsp/OLED/ssd1306.c **** #endif
ARM GAS  C:\Users\fish\AppData\Local\Temp\ccQbeEVV.s 			page 9


 213:../Bsp/OLED/ssd1306.c **** 
 214:../Bsp/OLED/ssd1306.c ****     if (read_val1 == test1 && read_val2 == test2) {
 215:../Bsp/OLED/ssd1306.c ****         return 1;
 216:../Bsp/OLED/ssd1306.c ****     }
 217:../Bsp/OLED/ssd1306.c **** 
 218:../Bsp/OLED/ssd1306.c ****     return 0;
 219:../Bsp/OLED/ssd1306.c **** }
 247              		.loc 1 219 1 view .LVU38
 248 0064 2046     		mov	r0, r4
 249 0066 03B0     		add	sp, sp, #12
 250              		.cfi_remember_state
 251              		.cfi_def_cfa_offset 12
 252              		@ sp needed
 253 0068 30BD     		pop	{r4, r5, pc}
 254              	.L19:
 255              		.cfi_restore_state
 256 006a 0446     		mov	r4, r0
 196:../Bsp/OLED/ssd1306.c **** 
 257              		.loc 1 196 5 is_stmt 1 view .LVU39
 258 006c 0220     		movs	r0, #2
 259 006e FFF7FEFF 		bl	osDelay
 260              	.LVL25:
 198:../Bsp/OLED/ssd1306.c ****         return 0;
 261              		.loc 1 198 5 view .LVU40
 198:../Bsp/OLED/ssd1306.c ****         return 0;
 262              		.loc 1 198 9 is_stmt 0 view .LVU41
 263 0072 0DF10600 		add	r0, sp, #6
 264 0076 FFF7FEFF 		bl	OLED_ReadData
 265              	.LVL26:
 198:../Bsp/OLED/ssd1306.c ****         return 0;
 266              		.loc 1 198 8 discriminator 1 view .LVU42
 267 007a 0546     		mov	r5, r0
 268 007c 0028     		cmp	r0, #0
 269 007e F1D1     		bne	.L14
 201:../Bsp/OLED/ssd1306.c **** 
 270              		.loc 1 201 5 is_stmt 1 view .LVU43
 271 0080 0220     		movs	r0, #2
 272 0082 FFF7FEFF 		bl	osDelay
 273              	.LVL27:
 203:../Bsp/OLED/ssd1306.c ****         return 0;
 274              		.loc 1 203 5 view .LVU44
 203:../Bsp/OLED/ssd1306.c ****         return 0;
 275              		.loc 1 203 9 is_stmt 0 view .LVU45
 276 0086 0DF10500 		add	r0, sp, #5
 277 008a FFF7FEFF 		bl	OLED_ReadData
 278              	.LVL28:
 203:../Bsp/OLED/ssd1306.c ****         return 0;
 279              		.loc 1 203 8 discriminator 1 view .LVU46
 280 008e 0446     		mov	r4, r0
 281 0090 48B9     		cbnz	r0, .L16
 214:../Bsp/OLED/ssd1306.c ****         return 1;
 282              		.loc 1 214 5 is_stmt 1 view .LVU47
 214:../Bsp/OLED/ssd1306.c ****         return 1;
 283              		.loc 1 214 19 is_stmt 0 view .LVU48
 284 0092 9DF80630 		ldrb	r3, [sp, #6]	@ zero_extendqisi2
 214:../Bsp/OLED/ssd1306.c ****         return 1;
 285              		.loc 1 214 8 view .LVU49
ARM GAS  C:\Users\fish\AppData\Local\Temp\ccQbeEVV.s 			page 10


 286 0096 A52B     		cmp	r3, #165
 287 0098 E4D1     		bne	.L14
 214:../Bsp/OLED/ssd1306.c ****         return 1;
 288              		.loc 1 214 41 discriminator 1 view .LVU50
 289 009a 9DF80530 		ldrb	r3, [sp, #5]	@ zero_extendqisi2
 214:../Bsp/OLED/ssd1306.c ****         return 1;
 290              		.loc 1 214 28 discriminator 1 view .LVU51
 291 009e 5A2B     		cmp	r3, #90
 292 00a0 E0D1     		bne	.L14
 215:../Bsp/OLED/ssd1306.c ****     }
 293              		.loc 1 215 16 view .LVU52
 294 00a2 0124     		movs	r4, #1
 295 00a4 DEE7     		b	.L14
 296              	.L16:
 204:../Bsp/OLED/ssd1306.c ****     }
 297              		.loc 1 204 16 view .LVU53
 298 00a6 2C46     		mov	r4, r5
 299 00a8 DCE7     		b	.L14
 300              		.cfi_endproc
 301              	.LFE246:
 303              		.section	.text.OLED_SelfDetect,"ax",%progbits
 304              		.align	1
 305              		.global	OLED_SelfDetect
 306              		.syntax unified
 307              		.thumb
 308              		.thumb_func
 310              	OLED_SelfDetect:
 311              	.LFB247:
 220:../Bsp/OLED/ssd1306.c **** 
 221:../Bsp/OLED/ssd1306.c **** /**
 222:../Bsp/OLED/ssd1306.c ****  * @brief   OLED上电自检
 223:../Bsp/OLED/ssd1306.c ****  * @details 自动检测连接的OLED芯片类型并保存结果
 224:../Bsp/OLED/ssd1306.c ****  */
 225:../Bsp/OLED/ssd1306.c **** void OLED_SelfDetect(void)
 226:../Bsp/OLED/ssd1306.c **** {
 312              		.loc 1 226 1 is_stmt 1 view -0
 313              		.cfi_startproc
 314              		@ args = 0, pretend = 0, frame = 0
 315              		@ frame_needed = 0, uses_anonymous_args = 0
 316 0000 08B5     		push	{r3, lr}
 317              		.cfi_def_cfa_offset 8
 318              		.cfi_offset 3, -8
 319              		.cfi_offset 14, -4
 227:../Bsp/OLED/ssd1306.c ****     osDelay(50);
 320              		.loc 1 227 5 view .LVU55
 321 0002 3220     		movs	r0, #50
 322 0004 FFF7FEFF 		bl	osDelay
 323              	.LVL29:
 228:../Bsp/OLED/ssd1306.c **** 
 229:../Bsp/OLED/ssd1306.c ****     if (OLED_DetectChip()) {
 324              		.loc 1 229 5 view .LVU56
 325              		.loc 1 229 9 is_stmt 0 view .LVU57
 326 0008 FFF7FEFF 		bl	OLED_DetectChip
 327              	.LVL30:
 328              		.loc 1 229 8 discriminator 1 view .LVU58
 329 000c 18B1     		cbz	r0, .L21
 230:../Bsp/OLED/ssd1306.c ****         OLED_ChipType = CHIP_SH1106;
ARM GAS  C:\Users\fish\AppData\Local\Temp\ccQbeEVV.s 			page 11


 330              		.loc 1 230 9 is_stmt 1 view .LVU59
 331              		.loc 1 230 23 is_stmt 0 view .LVU60
 332 000e 044B     		ldr	r3, .L24
 333 0010 0222     		movs	r2, #2
 334 0012 1A70     		strb	r2, [r3]
 335              	.L20:
 231:../Bsp/OLED/ssd1306.c ****     } else {
 232:../Bsp/OLED/ssd1306.c ****         OLED_ChipType = CHIP_SSD1306;
 233:../Bsp/OLED/ssd1306.c ****     }
 234:../Bsp/OLED/ssd1306.c **** }
 336              		.loc 1 234 1 view .LVU61
 337 0014 08BD     		pop	{r3, pc}
 338              	.L21:
 232:../Bsp/OLED/ssd1306.c ****     }
 339              		.loc 1 232 9 is_stmt 1 view .LVU62
 232:../Bsp/OLED/ssd1306.c ****     }
 340              		.loc 1 232 23 is_stmt 0 view .LVU63
 341 0016 024B     		ldr	r3, .L24
 342 0018 0122     		movs	r2, #1
 343 001a 1A70     		strb	r2, [r3]
 344              		.loc 1 234 1 view .LVU64
 345 001c FAE7     		b	.L20
 346              	.L25:
 347 001e 00BF     		.align	2
 348              	.L24:
 349 0020 00000000 		.word	OLED_ChipType
 350              		.cfi_endproc
 351              	.LFE247:
 353              		.section	.text.SetSSDTrans,"ax",%progbits
 354              		.align	1
 355              		.global	SetSSDTrans
 356              		.syntax unified
 357              		.thumb
 358              		.thumb_func
 360              	SetSSDTrans:
 361              	.LVL31:
 362              	.LFB248:
 235:../Bsp/OLED/ssd1306.c **** 
 236:../Bsp/OLED/ssd1306.c **** /* ==================== 基本操作函数 ==================== */
 237:../Bsp/OLED/ssd1306.c **** 
 238:../Bsp/OLED/ssd1306.c **** /**
 239:../Bsp/OLED/ssd1306.c ****  * @brief   设置透明绘制模式
 240:../Bsp/OLED/ssd1306.c ****  * @param   btran: 1=透明模式, 0=正常模式
 241:../Bsp/OLED/ssd1306.c ****  * @note    透明模式下，背景色(COLOR_B)不会被绘制
 242:../Bsp/OLED/ssd1306.c ****  */
 243:../Bsp/OLED/ssd1306.c **** void SetSSDTrans(unsigned char btran)
 244:../Bsp/OLED/ssd1306.c **** {
 363              		.loc 1 244 1 is_stmt 1 view -0
 364              		.cfi_startproc
 365              		@ args = 0, pretend = 0, frame = 0
 366              		@ frame_needed = 0, uses_anonymous_args = 0
 367              		@ link register save eliminated.
 245:../Bsp/OLED/ssd1306.c ****     SSD_Trans = btran ? 1 : 0;
 368              		.loc 1 245 5 view .LVU66
 369              		.loc 1 245 27 is_stmt 0 view .LVU67
 370 0000 0038     		subs	r0, r0, #0
 371              		.loc 1 245 27 view .LVU68
ARM GAS  C:\Users\fish\AppData\Local\Temp\ccQbeEVV.s 			page 12


 372 0002 18BF     		it	ne
 373 0004 0120     		movne	r0, #1
 374              	.LVL32:
 375              		.loc 1 245 15 view .LVU69
 376 0006 014B     		ldr	r3, .L27
 377 0008 1870     		strb	r0, [r3]
 246:../Bsp/OLED/ssd1306.c **** }
 378              		.loc 1 246 1 view .LVU70
 379 000a 7047     		bx	lr
 380              	.L28:
 381              		.align	2
 382              	.L27:
 383 000c 00000000 		.word	SSD_Trans
 384              		.cfi_endproc
 385              	.LFE248:
 387              		.section	.text.SSD1306_WriteByte,"ax",%progbits
 388              		.align	1
 389              		.global	SSD1306_WriteByte
 390              		.syntax unified
 391              		.thumb
 392              		.thumb_func
 394              	SSD1306_WriteByte:
 395              	.LVL33:
 396              	.LFB249:
 247:../Bsp/OLED/ssd1306.c **** 
 248:../Bsp/OLED/ssd1306.c **** /**
 249:../Bsp/OLED/ssd1306.c ****  * @brief   写入单字节数据或命令
 250:../Bsp/OLED/ssd1306.c ****  * @param   dat: 数据字节
 251:../Bsp/OLED/ssd1306.c ****  * @param   cmd: OLED_CMD(命令) 或 OLED_DATA(数据)
 252:../Bsp/OLED/ssd1306.c ****  */
 253:../Bsp/OLED/ssd1306.c **** void SSD1306_WriteByte(uint8_t dat, uint8_t cmd)
 254:../Bsp/OLED/ssd1306.c **** {
 397              		.loc 1 254 1 is_stmt 1 view -0
 398              		.cfi_startproc
 399              		@ args = 0, pretend = 0, frame = 8
 400              		@ frame_needed = 0, uses_anonymous_args = 0
 401              		.loc 1 254 1 is_stmt 0 view .LVU72
 402 0000 00B5     		push	{lr}
 403              		.cfi_def_cfa_offset 4
 404              		.cfi_offset 14, -4
 405 0002 87B0     		sub	sp, sp, #28
 406              		.cfi_def_cfa_offset 32
 407 0004 0A46     		mov	r2, r1
 408 0006 8DF81700 		strb	r0, [sp, #23]
 255:../Bsp/OLED/ssd1306.c **** #ifndef OLED_I2C_HARD
 256:../Bsp/OLED/ssd1306.c ****     OLED_IIC_Start();
 257:../Bsp/OLED/ssd1306.c ****     OLED_IIC_SendByte(SSD1306_I2C_ADDR);
 258:../Bsp/OLED/ssd1306.c ****     OLED_IIC_SendByte(cmd);
 259:../Bsp/OLED/ssd1306.c ****     OLED_IIC_SendByte(dat);
 260:../Bsp/OLED/ssd1306.c ****     OLED_IIC_Stop();
 261:../Bsp/OLED/ssd1306.c **** #else
 262:../Bsp/OLED/ssd1306.c ****     HAL_I2C_Mem_Write(&hi2c1, SSD1306_I2C_ADDR, cmd, I2C_MEMADD_SIZE_8BIT, &dat, 1, 100);
 409              		.loc 1 262 5 is_stmt 1 view .LVU73
 410 000a 6423     		movs	r3, #100
 411 000c 0293     		str	r3, [sp, #8]
 412 000e 0123     		movs	r3, #1
 413 0010 0193     		str	r3, [sp, #4]
ARM GAS  C:\Users\fish\AppData\Local\Temp\ccQbeEVV.s 			page 13


 414 0012 0DF11701 		add	r1, sp, #23
 415              	.LVL34:
 416              		.loc 1 262 5 is_stmt 0 view .LVU74
 417 0016 0091     		str	r1, [sp]
 418 0018 7821     		movs	r1, #120
 419 001a 0348     		ldr	r0, .L31
 420              	.LVL35:
 421              		.loc 1 262 5 view .LVU75
 422 001c FFF7FEFF 		bl	HAL_I2C_Mem_Write
 423              	.LVL36:
 263:../Bsp/OLED/ssd1306.c **** #endif
 264:../Bsp/OLED/ssd1306.c **** }
 424              		.loc 1 264 1 view .LVU76
 425 0020 07B0     		add	sp, sp, #28
 426              		.cfi_def_cfa_offset 4
 427              		@ sp needed
 428 0022 5DF804FB 		ldr	pc, [sp], #4
 429              	.L32:
 430 0026 00BF     		.align	2
 431              	.L31:
 432 0028 00000000 		.word	hi2c1
 433              		.cfi_endproc
 434              	.LFE249:
 436              		.section	.text.SSD1306_WriteMuliByte,"ax",%progbits
 437              		.align	1
 438              		.global	SSD1306_WriteMuliByte
 439              		.syntax unified
 440              		.thumb
 441              		.thumb_func
 443              	SSD1306_WriteMuliByte:
 444              	.LVL37:
 445              	.LFB250:
 265:../Bsp/OLED/ssd1306.c **** 
 266:../Bsp/OLED/ssd1306.c **** /**
 267:../Bsp/OLED/ssd1306.c ****  * @brief   写入多字节数据
 268:../Bsp/OLED/ssd1306.c ****  * @param   data: 数据指针
 269:../Bsp/OLED/ssd1306.c ****  * @param   count: 数据长度
 270:../Bsp/OLED/ssd1306.c ****  * @param   cmd: OLED_CMD(命令) 或 OLED_DATA(数据)
 271:../Bsp/OLED/ssd1306.c ****  */
 272:../Bsp/OLED/ssd1306.c **** void SSD1306_WriteMuliByte(uint8_t* data, uint16_t count, uint8_t cmd)
 273:../Bsp/OLED/ssd1306.c **** {
 446              		.loc 1 273 1 is_stmt 1 view -0
 447              		.cfi_startproc
 448              		@ args = 0, pretend = 0, frame = 0
 449              		@ frame_needed = 0, uses_anonymous_args = 0
 450              		.loc 1 273 1 is_stmt 0 view .LVU78
 451 0000 00B5     		push	{lr}
 452              		.cfi_def_cfa_offset 4
 453              		.cfi_offset 14, -4
 454 0002 85B0     		sub	sp, sp, #20
 455              		.cfi_def_cfa_offset 24
 274:../Bsp/OLED/ssd1306.c **** #ifndef OLED_I2C_HARD
 275:../Bsp/OLED/ssd1306.c ****     uint16_t i;
 276:../Bsp/OLED/ssd1306.c ****     OLED_IIC_Start();
 277:../Bsp/OLED/ssd1306.c ****     OLED_IIC_SendByte(SSD1306_I2C_ADDR);
 278:../Bsp/OLED/ssd1306.c ****     OLED_IIC_SendByte(cmd);
 279:../Bsp/OLED/ssd1306.c ****     for (i = 0; i < count; i++)
ARM GAS  C:\Users\fish\AppData\Local\Temp\ccQbeEVV.s 			page 14


 280:../Bsp/OLED/ssd1306.c ****     {
 281:../Bsp/OLED/ssd1306.c ****         OLED_IIC_SendByte(data[i]);
 282:../Bsp/OLED/ssd1306.c ****     }
 283:../Bsp/OLED/ssd1306.c ****     OLED_IIC_Stop();
 284:../Bsp/OLED/ssd1306.c **** #else
 285:../Bsp/OLED/ssd1306.c ****     HAL_I2C_Mem_Write(&hi2c1, SSD1306_I2C_ADDR, cmd, I2C_MEMADD_SIZE_8BIT, data, count, 100);
 456              		.loc 1 285 5 is_stmt 1 view .LVU79
 457 0004 6423     		movs	r3, #100
 458 0006 0293     		str	r3, [sp, #8]
 459 0008 0191     		str	r1, [sp, #4]
 460 000a 0090     		str	r0, [sp]
 461 000c 0123     		movs	r3, #1
 462 000e 7821     		movs	r1, #120
 463              	.LVL38:
 464              		.loc 1 285 5 is_stmt 0 view .LVU80
 465 0010 0248     		ldr	r0, .L35
 466              	.LVL39:
 467              		.loc 1 285 5 view .LVU81
 468 0012 FFF7FEFF 		bl	HAL_I2C_Mem_Write
 469              	.LVL40:
 286:../Bsp/OLED/ssd1306.c **** #endif
 287:../Bsp/OLED/ssd1306.c **** }
 470              		.loc 1 287 1 view .LVU82
 471 0016 05B0     		add	sp, sp, #20
 472              		.cfi_def_cfa_offset 4
 473              		@ sp needed
 474 0018 5DF804FB 		ldr	pc, [sp], #4
 475              	.L36:
 476              		.align	2
 477              	.L35:
 478 001c 00000000 		.word	hi2c1
 479              		.cfi_endproc
 480              	.LFE250:
 482              		.section	.text.SSD1306_UpdateScreen,"ax",%progbits
 483              		.align	1
 484              		.global	SSD1306_UpdateScreen
 485              		.syntax unified
 486              		.thumb
 487              		.thumb_func
 489              	SSD1306_UpdateScreen:
 490              	.LFB252:
 288:../Bsp/OLED/ssd1306.c **** 
 289:../Bsp/OLED/ssd1306.c **** /**
 290:../Bsp/OLED/ssd1306.c ****  * @brief   初始化OLED显示屏
 291:../Bsp/OLED/ssd1306.c ****  * @details 自动检测芯片类型并完成初始化配置
 292:../Bsp/OLED/ssd1306.c ****  *          - 支持SSD1306和SH1106两种芯片
 293:../Bsp/OLED/ssd1306.c ****  *          - 配置显示参数、电荷泵、对比度等
 294:../Bsp/OLED/ssd1306.c ****  */
 295:../Bsp/OLED/ssd1306.c **** void SSD1306_init(void)
 296:../Bsp/OLED/ssd1306.c **** {
 297:../Bsp/OLED/ssd1306.c ****     int tick = HAL_GetTick();
 298:../Bsp/OLED/ssd1306.c ****     if (tick < 100)
 299:../Bsp/OLED/ssd1306.c ****         osDelay(100 - tick);
 300:../Bsp/OLED/ssd1306.c **** 
 301:../Bsp/OLED/ssd1306.c ****     uint8_t seg_com[2];
 302:../Bsp/OLED/ssd1306.c **** 
 303:../Bsp/OLED/ssd1306.c ****     osDelay(100);
ARM GAS  C:\Users\fish\AppData\Local\Temp\ccQbeEVV.s 			page 15


 304:../Bsp/OLED/ssd1306.c **** 
 305:../Bsp/OLED/ssd1306.c ****     seg_com[0] = OLED_FLIP_X ? 0xA0 : 0xA1;
 306:../Bsp/OLED/ssd1306.c ****     seg_com[1] = OLED_FLIP_Y ? 0xC0 : 0xC8;
 307:../Bsp/OLED/ssd1306.c **** 
 308:../Bsp/OLED/ssd1306.c ****     OLED_SelfDetect();
 309:../Bsp/OLED/ssd1306.c **** 
 310:../Bsp/OLED/ssd1306.c ****     SSD1306_WriteByte(0xAE, OLED_CMD);
 311:../Bsp/OLED/ssd1306.c ****     osDelay(10);
 312:../Bsp/OLED/ssd1306.c **** 
 313:../Bsp/OLED/ssd1306.c ****     SSD1306_WriteByte(0xD5, OLED_CMD);
 314:../Bsp/OLED/ssd1306.c ****     SSD1306_WriteByte(0xF0, OLED_CMD);
 315:../Bsp/OLED/ssd1306.c **** 
 316:../Bsp/OLED/ssd1306.c ****     SSD1306_WriteByte(0xA8, OLED_CMD);
 317:../Bsp/OLED/ssd1306.c ****     SSD1306_WriteByte(0x3F, OLED_CMD);
 318:../Bsp/OLED/ssd1306.c **** 
 319:../Bsp/OLED/ssd1306.c ****     SSD1306_WriteByte(0xD3, OLED_CMD);
 320:../Bsp/OLED/ssd1306.c ****     SSD1306_WriteByte(0x00, OLED_CMD);
 321:../Bsp/OLED/ssd1306.c **** 
 322:../Bsp/OLED/ssd1306.c ****     SSD1306_WriteByte(0x40, OLED_CMD);
 323:../Bsp/OLED/ssd1306.c **** 
 324:../Bsp/OLED/ssd1306.c ****     SSD1306_WriteByte(seg_com[0], OLED_CMD);
 325:../Bsp/OLED/ssd1306.c ****     SSD1306_WriteByte(seg_com[1], OLED_CMD);
 326:../Bsp/OLED/ssd1306.c **** 
 327:../Bsp/OLED/ssd1306.c ****     SSD1306_WriteByte(0x81, OLED_CMD);
 328:../Bsp/OLED/ssd1306.c ****     SSD1306_WriteByte(200, OLED_CMD);
 329:../Bsp/OLED/ssd1306.c **** 
 330:../Bsp/OLED/ssd1306.c ****     SSD1306_WriteByte(0xA4, OLED_CMD);
 331:../Bsp/OLED/ssd1306.c ****     SSD1306_WriteByte(0xA6, OLED_CMD);
 332:../Bsp/OLED/ssd1306.c **** 
 333:../Bsp/OLED/ssd1306.c ****     SSD1306_WriteByte(0x20, OLED_CMD);
 334:../Bsp/OLED/ssd1306.c ****     SSD1306_WriteByte(0x02, OLED_CMD);
 335:../Bsp/OLED/ssd1306.c **** 
 336:../Bsp/OLED/ssd1306.c ****     SSD1306_WriteByte(0xDA, OLED_CMD);
 337:../Bsp/OLED/ssd1306.c ****     SSD1306_WriteByte(0x12, OLED_CMD);
 338:../Bsp/OLED/ssd1306.c **** 
 339:../Bsp/OLED/ssd1306.c ****     SSD1306_WriteByte(0xD9, OLED_CMD);
 340:../Bsp/OLED/ssd1306.c ****     SSD1306_WriteByte(0xF1, OLED_CMD);
 341:../Bsp/OLED/ssd1306.c **** 
 342:../Bsp/OLED/ssd1306.c ****     SSD1306_WriteByte(0xDB, OLED_CMD);
 343:../Bsp/OLED/ssd1306.c ****     SSD1306_WriteByte(0x20, OLED_CMD);
 344:../Bsp/OLED/ssd1306.c **** 
 345:../Bsp/OLED/ssd1306.c ****     SSD1306_WriteByte(0x8D, OLED_CMD);
 346:../Bsp/OLED/ssd1306.c ****     SSD1306_WriteByte(0x14, OLED_CMD);
 347:../Bsp/OLED/ssd1306.c **** 
 348:../Bsp/OLED/ssd1306.c ****     SSD1306_WriteByte(0xAD, OLED_CMD);
 349:../Bsp/OLED/ssd1306.c ****     SSD1306_WriteByte(0x8B, OLED_CMD);
 350:../Bsp/OLED/ssd1306.c ****     SSD1306_WriteByte(0x33, OLED_CMD);
 351:../Bsp/OLED/ssd1306.c **** 
 352:../Bsp/OLED/ssd1306.c ****     SSD1306_Fill(GUI_COLOR_BLACK);
 353:../Bsp/OLED/ssd1306.c ****     SSD1306_UpdateScreen();
 354:../Bsp/OLED/ssd1306.c ****     SSD1306_WriteByte(0xAF, OLED_CMD);
 355:../Bsp/OLED/ssd1306.c **** 
 356:../Bsp/OLED/ssd1306.c ****     SSD1306.CurrentX = SSD1306.CurrentY = 0;
 357:../Bsp/OLED/ssd1306.c ****     SSD1306.Initialized = 1;
 358:../Bsp/OLED/ssd1306.c **** }
 359:../Bsp/OLED/ssd1306.c **** 
 360:../Bsp/OLED/ssd1306.c **** /**
ARM GAS  C:\Users\fish\AppData\Local\Temp\ccQbeEVV.s 			page 16


 361:../Bsp/OLED/ssd1306.c ****  * @brief   更新屏幕显示
 362:../Bsp/OLED/ssd1306.c ****  * @details 将显存缓冲区的内容发送到OLED屏幕
 363:../Bsp/OLED/ssd1306.c ****  *          根据芯片类型使用不同的列起始地址：
 364:../Bsp/OLED/ssd1306.c ****  *          - SSD1306: 列起始地址为0
 365:../Bsp/OLED/ssd1306.c ****  *          - SH1106: 列起始地址为2
 366:../Bsp/OLED/ssd1306.c ****  */
 367:../Bsp/OLED/ssd1306.c **** void SSD1306_UpdateScreen(void)
 368:../Bsp/OLED/ssd1306.c **** {
 491              		.loc 1 368 1 is_stmt 1 view -0
 492              		.cfi_startproc
 493              		@ args = 0, pretend = 0, frame = 0
 494              		@ frame_needed = 0, uses_anonymous_args = 0
 495 0000 38B5     		push	{r3, r4, r5, lr}
 496              		.cfi_def_cfa_offset 16
 497              		.cfi_offset 3, -16
 498              		.cfi_offset 4, -12
 499              		.cfi_offset 5, -8
 500              		.cfi_offset 14, -4
 369:../Bsp/OLED/ssd1306.c ****     uint8_t m, st;
 501              		.loc 1 369 5 view .LVU84
 370:../Bsp/OLED/ssd1306.c ****     st = (OLED_ChipType == CHIP_SH1106) ? 0x02 : 0x00;
 502              		.loc 1 370 5 view .LVU85
 503              		.loc 1 370 25 is_stmt 0 view .LVU86
 504 0002 104B     		ldr	r3, .L43
 505 0004 1D78     		ldrb	r5, [r3]	@ zero_extendqisi2
 506              		.loc 1 370 8 view .LVU87
 507 0006 022D     		cmp	r5, #2
 508 0008 00D0     		beq	.L38
 509              		.loc 1 370 8 discriminator 2 view .LVU88
 510 000a 0025     		movs	r5, #0
 511              	.L38:
 512              	.LVL41:
 371:../Bsp/OLED/ssd1306.c **** 
 372:../Bsp/OLED/ssd1306.c ****     for (m = 0; m < 8; m++)
 513              		.loc 1 372 5 is_stmt 1 view .LVU89
 514              		.loc 1 372 12 is_stmt 0 view .LVU90
 515 000c 0024     		movs	r4, #0
 516              		.loc 1 372 5 view .LVU91
 517 000e 16E0     		b	.L39
 518              	.LVL42:
 519              	.L40:
 373:../Bsp/OLED/ssd1306.c ****     {
 374:../Bsp/OLED/ssd1306.c ****         SSD1306_WriteByte(0xb0 + m, OLED_CMD);
 520              		.loc 1 374 9 is_stmt 1 view .LVU92
 521 0010 A4F15000 		sub	r0, r4, #80
 522 0014 0021     		movs	r1, #0
 523 0016 C0B2     		uxtb	r0, r0
 524 0018 FFF7FEFF 		bl	SSD1306_WriteByte
 525              	.LVL43:
 375:../Bsp/OLED/ssd1306.c ****         SSD1306_WriteByte(st, OLED_CMD);
 526              		.loc 1 375 9 view .LVU93
 527 001c 0021     		movs	r1, #0
 528 001e 2846     		mov	r0, r5
 529 0020 FFF7FEFF 		bl	SSD1306_WriteByte
 530              	.LVL44:
 376:../Bsp/OLED/ssd1306.c ****         SSD1306_WriteByte(0x10, OLED_CMD);
 531              		.loc 1 376 9 view .LVU94
ARM GAS  C:\Users\fish\AppData\Local\Temp\ccQbeEVV.s 			page 17


 532 0024 0021     		movs	r1, #0
 533 0026 1020     		movs	r0, #16
 534 0028 FFF7FEFF 		bl	SSD1306_WriteByte
 535              	.LVL45:
 377:../Bsp/OLED/ssd1306.c ****         SSD1306_WriteMuliByte((uint8_t *)&SSD1306_Buffer[128 * m], 128, OLED_DATA);
 536              		.loc 1 377 9 view .LVU95
 537 002c 4022     		movs	r2, #64
 538 002e 8021     		movs	r1, #128
 539 0030 0548     		ldr	r0, .L43+4
 540 0032 00EBC410 		add	r0, r0, r4, lsl #7
 541 0036 FFF7FEFF 		bl	SSD1306_WriteMuliByte
 542              	.LVL46:
 372:../Bsp/OLED/ssd1306.c ****     {
 543              		.loc 1 372 25 discriminator 3 view .LVU96
 544 003a 0134     		adds	r4, r4, #1
 545              	.LVL47:
 372:../Bsp/OLED/ssd1306.c ****     {
 546              		.loc 1 372 25 is_stmt 0 discriminator 3 view .LVU97
 547 003c E4B2     		uxtb	r4, r4
 548              	.LVL48:
 549              	.L39:
 372:../Bsp/OLED/ssd1306.c ****     {
 550              		.loc 1 372 19 is_stmt 1 discriminator 1 view .LVU98
 551 003e 072C     		cmp	r4, #7
 552 0040 E6D9     		bls	.L40
 378:../Bsp/OLED/ssd1306.c ****     }
 379:../Bsp/OLED/ssd1306.c **** }
 553              		.loc 1 379 1 is_stmt 0 view .LVU99
 554 0042 38BD     		pop	{r3, r4, r5, pc}
 555              	.LVL49:
 556              	.L44:
 557              		.loc 1 379 1 view .LVU100
 558              		.align	2
 559              	.L43:
 560 0044 00000000 		.word	OLED_ChipType
 561 0048 00000000 		.word	SSD1306_Buffer
 562              		.cfi_endproc
 563              	.LFE252:
 565              		.section	.text.SSD1306_Fill,"ax",%progbits
 566              		.align	1
 567              		.global	SSD1306_Fill
 568              		.syntax unified
 569              		.thumb
 570              		.thumb_func
 572              	SSD1306_Fill:
 573              	.LVL50:
 574              	.LFB253:
 380:../Bsp/OLED/ssd1306.c **** 
 381:../Bsp/OLED/ssd1306.c **** /**
 382:../Bsp/OLED/ssd1306.c ****  * @brief   填充整个屏幕
 383:../Bsp/OLED/ssd1306.c ****  * @param   color: 填充颜色 (GUI_COLOR_BLACK=黑色, GUI_COLOR_WHITE=白色)
 384:../Bsp/OLED/ssd1306.c ****  */
 385:../Bsp/OLED/ssd1306.c **** void SSD1306_Fill(GUI_COLOR color)
 386:../Bsp/OLED/ssd1306.c **** {
 575              		.loc 1 386 1 is_stmt 1 view -0
 576              		.cfi_startproc
 577              		@ args = 0, pretend = 0, frame = 0
ARM GAS  C:\Users\fish\AppData\Local\Temp\ccQbeEVV.s 			page 18


 578              		@ frame_needed = 0, uses_anonymous_args = 0
 579              		.loc 1 386 1 is_stmt 0 view .LVU102
 580 0000 08B5     		push	{r3, lr}
 581              		.cfi_def_cfa_offset 8
 582              		.cfi_offset 3, -8
 583              		.cfi_offset 14, -4
 387:../Bsp/OLED/ssd1306.c ****     memset((void *)SSD1306_Buffer, (color == GUI_COLOR_BLACK) ? 0x00 : 0xFF, sizeof(SSD1306_Buffer)
 584              		.loc 1 387 5 is_stmt 1 view .LVU103
 585 0002 30B9     		cbnz	r0, .L47
 586              		.loc 1 387 5 is_stmt 0 discriminator 1 view .LVU104
 587 0004 0021     		movs	r1, #0
 588              	.L46:
 589              		.loc 1 387 5 discriminator 4 view .LVU105
 590 0006 4FF48062 		mov	r2, #1024
 591 000a 0348     		ldr	r0, .L49
 592              	.LVL51:
 593              		.loc 1 387 5 discriminator 4 view .LVU106
 594 000c FFF7FEFF 		bl	memset
 595              	.LVL52:
 388:../Bsp/OLED/ssd1306.c **** }
 596              		.loc 1 388 1 view .LVU107
 597 0010 08BD     		pop	{r3, pc}
 598              	.LVL53:
 599              	.L47:
 387:../Bsp/OLED/ssd1306.c ****     memset((void *)SSD1306_Buffer, (color == GUI_COLOR_BLACK) ? 0x00 : 0xFF, sizeof(SSD1306_Buffer)
 600              		.loc 1 387 5 discriminator 2 view .LVU108
 601 0012 FF21     		movs	r1, #255
 602 0014 F7E7     		b	.L46
 603              	.L50:
 604 0016 00BF     		.align	2
 605              	.L49:
 606 0018 00000000 		.word	SSD1306_Buffer
 607              		.cfi_endproc
 608              	.LFE253:
 610              		.section	.text.SSD1306_init,"ax",%progbits
 611              		.align	1
 612              		.global	SSD1306_init
 613              		.syntax unified
 614              		.thumb
 615              		.thumb_func
 617              	SSD1306_init:
 618              	.LFB251:
 296:../Bsp/OLED/ssd1306.c ****     int tick = HAL_GetTick();
 619              		.loc 1 296 1 is_stmt 1 view -0
 620              		.cfi_startproc
 621              		@ args = 0, pretend = 0, frame = 8
 622              		@ frame_needed = 0, uses_anonymous_args = 0
 623 0000 30B5     		push	{r4, r5, lr}
 624              		.cfi_def_cfa_offset 12
 625              		.cfi_offset 4, -12
 626              		.cfi_offset 5, -8
 627              		.cfi_offset 14, -4
 628 0002 83B0     		sub	sp, sp, #12
 629              		.cfi_def_cfa_offset 24
 297:../Bsp/OLED/ssd1306.c ****     if (tick < 100)
 630              		.loc 1 297 5 view .LVU110
 297:../Bsp/OLED/ssd1306.c ****     if (tick < 100)
ARM GAS  C:\Users\fish\AppData\Local\Temp\ccQbeEVV.s 			page 19


 631              		.loc 1 297 16 is_stmt 0 view .LVU111
 632 0004 FFF7FEFF 		bl	HAL_GetTick
 633              	.LVL54:
 298:../Bsp/OLED/ssd1306.c ****         osDelay(100 - tick);
 634              		.loc 1 298 5 is_stmt 1 view .LVU112
 298:../Bsp/OLED/ssd1306.c ****         osDelay(100 - tick);
 635              		.loc 1 298 8 is_stmt 0 view .LVU113
 636 0008 6328     		cmp	r0, #99
 637 000a 40F38B80 		ble	.L54
 638              	.LVL55:
 639              	.L52:
 301:../Bsp/OLED/ssd1306.c **** 
 640              		.loc 1 301 5 is_stmt 1 view .LVU114
 303:../Bsp/OLED/ssd1306.c **** 
 641              		.loc 1 303 5 view .LVU115
 642 000e 6420     		movs	r0, #100
 643 0010 FFF7FEFF 		bl	osDelay
 644              	.LVL56:
 305:../Bsp/OLED/ssd1306.c ****     seg_com[1] = OLED_FLIP_Y ? 0xC0 : 0xC8;
 645              		.loc 1 305 5 view .LVU116
 305:../Bsp/OLED/ssd1306.c ****     seg_com[1] = OLED_FLIP_Y ? 0xC0 : 0xC8;
 646              		.loc 1 305 16 is_stmt 0 view .LVU117
 647 0014 A025     		movs	r5, #160
 648 0016 8DF80450 		strb	r5, [sp, #4]
 306:../Bsp/OLED/ssd1306.c **** 
 649              		.loc 1 306 5 is_stmt 1 view .LVU118
 306:../Bsp/OLED/ssd1306.c **** 
 650              		.loc 1 306 16 is_stmt 0 view .LVU119
 651 001a C024     		movs	r4, #192
 652 001c 8DF80540 		strb	r4, [sp, #5]
 308:../Bsp/OLED/ssd1306.c **** 
 653              		.loc 1 308 5 is_stmt 1 view .LVU120
 654 0020 FFF7FEFF 		bl	OLED_SelfDetect
 655              	.LVL57:
 310:../Bsp/OLED/ssd1306.c ****     osDelay(10);
 656              		.loc 1 310 5 view .LVU121
 657 0024 0021     		movs	r1, #0
 658 0026 AE20     		movs	r0, #174
 659 0028 FFF7FEFF 		bl	SSD1306_WriteByte
 660              	.LVL58:
 311:../Bsp/OLED/ssd1306.c **** 
 661              		.loc 1 311 5 view .LVU122
 662 002c 0A20     		movs	r0, #10
 663 002e FFF7FEFF 		bl	osDelay
 664              	.LVL59:
 313:../Bsp/OLED/ssd1306.c ****     SSD1306_WriteByte(0xF0, OLED_CMD);
 665              		.loc 1 313 5 view .LVU123
 666 0032 0021     		movs	r1, #0
 667 0034 D520     		movs	r0, #213
 668 0036 FFF7FEFF 		bl	SSD1306_WriteByte
 669              	.LVL60:
 314:../Bsp/OLED/ssd1306.c **** 
 670              		.loc 1 314 5 view .LVU124
 671 003a 0021     		movs	r1, #0
 672 003c F020     		movs	r0, #240
 673 003e FFF7FEFF 		bl	SSD1306_WriteByte
 674              	.LVL61:
ARM GAS  C:\Users\fish\AppData\Local\Temp\ccQbeEVV.s 			page 20


 316:../Bsp/OLED/ssd1306.c ****     SSD1306_WriteByte(0x3F, OLED_CMD);
 675              		.loc 1 316 5 view .LVU125
 676 0042 0021     		movs	r1, #0
 677 0044 A820     		movs	r0, #168
 678 0046 FFF7FEFF 		bl	SSD1306_WriteByte
 679              	.LVL62:
 317:../Bsp/OLED/ssd1306.c **** 
 680              		.loc 1 317 5 view .LVU126
 681 004a 0021     		movs	r1, #0
 682 004c 3F20     		movs	r0, #63
 683 004e FFF7FEFF 		bl	SSD1306_WriteByte
 684              	.LVL63:
 319:../Bsp/OLED/ssd1306.c ****     SSD1306_WriteByte(0x00, OLED_CMD);
 685              		.loc 1 319 5 view .LVU127
 686 0052 0021     		movs	r1, #0
 687 0054 D320     		movs	r0, #211
 688 0056 FFF7FEFF 		bl	SSD1306_WriteByte
 689              	.LVL64:
 320:../Bsp/OLED/ssd1306.c **** 
 690              		.loc 1 320 5 view .LVU128
 691 005a 0021     		movs	r1, #0
 692 005c 0846     		mov	r0, r1
 693 005e FFF7FEFF 		bl	SSD1306_WriteByte
 694              	.LVL65:
 322:../Bsp/OLED/ssd1306.c **** 
 695              		.loc 1 322 5 view .LVU129
 696 0062 0021     		movs	r1, #0
 697 0064 4020     		movs	r0, #64
 698 0066 FFF7FEFF 		bl	SSD1306_WriteByte
 699              	.LVL66:
 324:../Bsp/OLED/ssd1306.c ****     SSD1306_WriteByte(seg_com[1], OLED_CMD);
 700              		.loc 1 324 5 view .LVU130
 701 006a 0021     		movs	r1, #0
 702 006c 2846     		mov	r0, r5
 703 006e FFF7FEFF 		bl	SSD1306_WriteByte
 704              	.LVL67:
 325:../Bsp/OLED/ssd1306.c **** 
 705              		.loc 1 325 5 view .LVU131
 706 0072 0021     		movs	r1, #0
 707 0074 2046     		mov	r0, r4
 708 0076 FFF7FEFF 		bl	SSD1306_WriteByte
 709              	.LVL68:
 327:../Bsp/OLED/ssd1306.c ****     SSD1306_WriteByte(200, OLED_CMD);
 710              		.loc 1 327 5 view .LVU132
 711 007a 0021     		movs	r1, #0
 712 007c 8120     		movs	r0, #129
 713 007e FFF7FEFF 		bl	SSD1306_WriteByte
 714              	.LVL69:
 328:../Bsp/OLED/ssd1306.c **** 
 715              		.loc 1 328 5 view .LVU133
 716 0082 0021     		movs	r1, #0
 717 0084 C820     		movs	r0, #200
 718 0086 FFF7FEFF 		bl	SSD1306_WriteByte
 719              	.LVL70:
 330:../Bsp/OLED/ssd1306.c ****     SSD1306_WriteByte(0xA6, OLED_CMD);
 720              		.loc 1 330 5 view .LVU134
 721 008a 0021     		movs	r1, #0
ARM GAS  C:\Users\fish\AppData\Local\Temp\ccQbeEVV.s 			page 21


 722 008c A420     		movs	r0, #164
 723 008e FFF7FEFF 		bl	SSD1306_WriteByte
 724              	.LVL71:
 331:../Bsp/OLED/ssd1306.c **** 
 725              		.loc 1 331 5 view .LVU135
 726 0092 0021     		movs	r1, #0
 727 0094 A620     		movs	r0, #166
 728 0096 FFF7FEFF 		bl	SSD1306_WriteByte
 729              	.LVL72:
 333:../Bsp/OLED/ssd1306.c ****     SSD1306_WriteByte(0x02, OLED_CMD);
 730              		.loc 1 333 5 view .LVU136
 731 009a 0021     		movs	r1, #0
 732 009c 2020     		movs	r0, #32
 733 009e FFF7FEFF 		bl	SSD1306_WriteByte
 734              	.LVL73:
 334:../Bsp/OLED/ssd1306.c **** 
 735              		.loc 1 334 5 view .LVU137
 736 00a2 0021     		movs	r1, #0
 737 00a4 0220     		movs	r0, #2
 738 00a6 FFF7FEFF 		bl	SSD1306_WriteByte
 739              	.LVL74:
 336:../Bsp/OLED/ssd1306.c ****     SSD1306_WriteByte(0x12, OLED_CMD);
 740              		.loc 1 336 5 view .LVU138
 741 00aa 0021     		movs	r1, #0
 742 00ac DA20     		movs	r0, #218
 743 00ae FFF7FEFF 		bl	SSD1306_WriteByte
 744              	.LVL75:
 337:../Bsp/OLED/ssd1306.c **** 
 745              		.loc 1 337 5 view .LVU139
 746 00b2 0021     		movs	r1, #0
 747 00b4 1220     		movs	r0, #18
 748 00b6 FFF7FEFF 		bl	SSD1306_WriteByte
 749              	.LVL76:
 339:../Bsp/OLED/ssd1306.c ****     SSD1306_WriteByte(0xF1, OLED_CMD);
 750              		.loc 1 339 5 view .LVU140
 751 00ba 0021     		movs	r1, #0
 752 00bc D920     		movs	r0, #217
 753 00be FFF7FEFF 		bl	SSD1306_WriteByte
 754              	.LVL77:
 340:../Bsp/OLED/ssd1306.c **** 
 755              		.loc 1 340 5 view .LVU141
 756 00c2 0021     		movs	r1, #0
 757 00c4 F120     		movs	r0, #241
 758 00c6 FFF7FEFF 		bl	SSD1306_WriteByte
 759              	.LVL78:
 342:../Bsp/OLED/ssd1306.c ****     SSD1306_WriteByte(0x20, OLED_CMD);
 760              		.loc 1 342 5 view .LVU142
 761 00ca 0021     		movs	r1, #0
 762 00cc DB20     		movs	r0, #219
 763 00ce FFF7FEFF 		bl	SSD1306_WriteByte
 764              	.LVL79:
 343:../Bsp/OLED/ssd1306.c **** 
 765              		.loc 1 343 5 view .LVU143
 766 00d2 0021     		movs	r1, #0
 767 00d4 2020     		movs	r0, #32
 768 00d6 FFF7FEFF 		bl	SSD1306_WriteByte
 769              	.LVL80:
ARM GAS  C:\Users\fish\AppData\Local\Temp\ccQbeEVV.s 			page 22


 345:../Bsp/OLED/ssd1306.c ****     SSD1306_WriteByte(0x14, OLED_CMD);
 770              		.loc 1 345 5 view .LVU144
 771 00da 0021     		movs	r1, #0
 772 00dc 8D20     		movs	r0, #141
 773 00de FFF7FEFF 		bl	SSD1306_WriteByte
 774              	.LVL81:
 346:../Bsp/OLED/ssd1306.c **** 
 775              		.loc 1 346 5 view .LVU145
 776 00e2 0021     		movs	r1, #0
 777 00e4 1420     		movs	r0, #20
 778 00e6 FFF7FEFF 		bl	SSD1306_WriteByte
 779              	.LVL82:
 348:../Bsp/OLED/ssd1306.c ****     SSD1306_WriteByte(0x8B, OLED_CMD);
 780              		.loc 1 348 5 view .LVU146
 781 00ea 0021     		movs	r1, #0
 782 00ec AD20     		movs	r0, #173
 783 00ee FFF7FEFF 		bl	SSD1306_WriteByte
 784              	.LVL83:
 349:../Bsp/OLED/ssd1306.c ****     SSD1306_WriteByte(0x33, OLED_CMD);
 785              		.loc 1 349 5 view .LVU147
 786 00f2 0021     		movs	r1, #0
 787 00f4 8B20     		movs	r0, #139
 788 00f6 FFF7FEFF 		bl	SSD1306_WriteByte
 789              	.LVL84:
 350:../Bsp/OLED/ssd1306.c **** 
 790              		.loc 1 350 5 view .LVU148
 791 00fa 0021     		movs	r1, #0
 792 00fc 3320     		movs	r0, #51
 793 00fe FFF7FEFF 		bl	SSD1306_WriteByte
 794              	.LVL85:
 352:../Bsp/OLED/ssd1306.c ****     SSD1306_UpdateScreen();
 795              		.loc 1 352 5 view .LVU149
 796 0102 0020     		movs	r0, #0
 797 0104 FFF7FEFF 		bl	SSD1306_Fill
 798              	.LVL86:
 353:../Bsp/OLED/ssd1306.c ****     SSD1306_WriteByte(0xAF, OLED_CMD);
 799              		.loc 1 353 5 view .LVU150
 800 0108 FFF7FEFF 		bl	SSD1306_UpdateScreen
 801              	.LVL87:
 354:../Bsp/OLED/ssd1306.c **** 
 802              		.loc 1 354 5 view .LVU151
 803 010c 0021     		movs	r1, #0
 804 010e AF20     		movs	r0, #175
 805 0110 FFF7FEFF 		bl	SSD1306_WriteByte
 806              	.LVL88:
 356:../Bsp/OLED/ssd1306.c ****     SSD1306.Initialized = 1;
 807              		.loc 1 356 5 view .LVU152
 356:../Bsp/OLED/ssd1306.c ****     SSD1306.Initialized = 1;
 808              		.loc 1 356 41 is_stmt 0 view .LVU153
 809 0114 064B     		ldr	r3, .L55
 810 0116 0022     		movs	r2, #0
 811 0118 5A80     		strh	r2, [r3, #2]	@ movhi
 356:../Bsp/OLED/ssd1306.c ****     SSD1306.Initialized = 1;
 812              		.loc 1 356 22 view .LVU154
 813 011a 1A80     		strh	r2, [r3]	@ movhi
 357:../Bsp/OLED/ssd1306.c **** }
 814              		.loc 1 357 5 is_stmt 1 view .LVU155
ARM GAS  C:\Users\fish\AppData\Local\Temp\ccQbeEVV.s 			page 23


 357:../Bsp/OLED/ssd1306.c **** }
 815              		.loc 1 357 25 is_stmt 0 view .LVU156
 816 011c 0122     		movs	r2, #1
 817 011e 5A71     		strb	r2, [r3, #5]
 358:../Bsp/OLED/ssd1306.c **** 
 818              		.loc 1 358 1 view .LVU157
 819 0120 03B0     		add	sp, sp, #12
 820              		.cfi_remember_state
 821              		.cfi_def_cfa_offset 12
 822              		@ sp needed
 823 0122 30BD     		pop	{r4, r5, pc}
 824              	.LVL89:
 825              	.L54:
 826              		.cfi_restore_state
 299:../Bsp/OLED/ssd1306.c **** 
 827              		.loc 1 299 9 is_stmt 1 view .LVU158
 828 0124 C0F16400 		rsb	r0, r0, #100
 829              	.LVL90:
 299:../Bsp/OLED/ssd1306.c **** 
 830              		.loc 1 299 9 is_stmt 0 view .LVU159
 831 0128 FFF7FEFF 		bl	osDelay
 832              	.LVL91:
 833 012c 6FE7     		b	.L52
 834              	.L56:
 835 012e 00BF     		.align	2
 836              	.L55:
 837 0130 00000000 		.word	SSD1306
 838              		.cfi_endproc
 839              	.LFE251:
 841              		.section	.text.SSD1306_ToggleInvert,"ax",%progbits
 842              		.align	1
 843              		.global	SSD1306_ToggleInvert
 844              		.syntax unified
 845              		.thumb
 846              		.thumb_func
 848              	SSD1306_ToggleInvert:
 849              	.LFB254:
 389:../Bsp/OLED/ssd1306.c **** 
 390:../Bsp/OLED/ssd1306.c **** /**
 391:../Bsp/OLED/ssd1306.c ****  * @brief   切换显示反色状态
 392:../Bsp/OLED/ssd1306.c ****  * @details 将显存缓冲区所有数据取反，实现反色效果
 393:../Bsp/OLED/ssd1306.c ****  */
 394:../Bsp/OLED/ssd1306.c **** void SSD1306_ToggleInvert(void)
 395:../Bsp/OLED/ssd1306.c **** {
 850              		.loc 1 395 1 is_stmt 1 view -0
 851              		.cfi_startproc
 852              		@ args = 0, pretend = 0, frame = 0
 853              		@ frame_needed = 0, uses_anonymous_args = 0
 854              		@ link register save eliminated.
 396:../Bsp/OLED/ssd1306.c ****     uint16_t i;
 855              		.loc 1 396 5 view .LVU161
 397:../Bsp/OLED/ssd1306.c **** 
 398:../Bsp/OLED/ssd1306.c ****     SSD1306.Inverted = !SSD1306.Inverted;
 856              		.loc 1 398 5 view .LVU162
 857              		.loc 1 398 32 is_stmt 0 view .LVU163
 858 0000 094A     		ldr	r2, .L60
 859 0002 1379     		ldrb	r3, [r2, #4]	@ zero_extendqisi2
ARM GAS  C:\Users\fish\AppData\Local\Temp\ccQbeEVV.s 			page 24


 860              		.loc 1 398 24 view .LVU164
 861 0004 B3FA83F3 		clz	r3, r3
 862 0008 5B09     		lsrs	r3, r3, #5
 863              		.loc 1 398 22 view .LVU165
 864 000a 1371     		strb	r3, [r2, #4]
 399:../Bsp/OLED/ssd1306.c **** 
 400:../Bsp/OLED/ssd1306.c ****     for (i = 0; i < sizeof(SSD1306_Buffer); i++) {
 865              		.loc 1 400 5 is_stmt 1 view .LVU166
 866              	.LVL92:
 867              		.loc 1 400 12 is_stmt 0 view .LVU167
 868 000c 0023     		movs	r3, #0
 869              		.loc 1 400 5 view .LVU168
 870 000e 06E0     		b	.L58
 871              	.LVL93:
 872              	.L59:
 401:../Bsp/OLED/ssd1306.c ****         SSD1306_Buffer[i] = ~SSD1306_Buffer[i];
 873              		.loc 1 401 9 is_stmt 1 view .LVU169
 874              		.loc 1 401 44 is_stmt 0 view .LVU170
 875 0010 0649     		ldr	r1, .L60+4
 876 0012 CA5C     		ldrb	r2, [r1, r3]	@ zero_extendqisi2
 877              		.loc 1 401 27 view .LVU171
 878 0014 D243     		mvns	r2, r2
 879 0016 D2B2     		uxtb	r2, r2
 880 0018 CA54     		strb	r2, [r1, r3]
 400:../Bsp/OLED/ssd1306.c ****         SSD1306_Buffer[i] = ~SSD1306_Buffer[i];
 881              		.loc 1 400 46 is_stmt 1 discriminator 3 view .LVU172
 882 001a 0133     		adds	r3, r3, #1
 883              	.LVL94:
 400:../Bsp/OLED/ssd1306.c ****         SSD1306_Buffer[i] = ~SSD1306_Buffer[i];
 884              		.loc 1 400 46 is_stmt 0 discriminator 3 view .LVU173
 885 001c 9BB2     		uxth	r3, r3
 886              	.LVL95:
 887              	.L58:
 400:../Bsp/OLED/ssd1306.c ****         SSD1306_Buffer[i] = ~SSD1306_Buffer[i];
 888              		.loc 1 400 19 is_stmt 1 discriminator 1 view .LVU174
 889 001e B3F5806F 		cmp	r3, #1024
 890 0022 F5D3     		bcc	.L59
 402:../Bsp/OLED/ssd1306.c ****     }
 403:../Bsp/OLED/ssd1306.c **** }
 891              		.loc 1 403 1 is_stmt 0 view .LVU175
 892 0024 7047     		bx	lr
 893              	.L61:
 894 0026 00BF     		.align	2
 895              	.L60:
 896 0028 00000000 		.word	SSD1306
 897 002c 00000000 		.word	SSD1306_Buffer
 898              		.cfi_endproc
 899              	.LFE254:
 901              		.section	.text.SSD1306_DrawPixel,"ax",%progbits
 902              		.align	1
 903              		.global	SSD1306_DrawPixel
 904              		.syntax unified
 905              		.thumb
 906              		.thumb_func
 908              	SSD1306_DrawPixel:
 909              	.LVL96:
 910              	.LFB255:
ARM GAS  C:\Users\fish\AppData\Local\Temp\ccQbeEVV.s 			page 25


 404:../Bsp/OLED/ssd1306.c **** 
 405:../Bsp/OLED/ssd1306.c **** /**
 406:../Bsp/OLED/ssd1306.c ****  * @brief   绘制单个像素点
 407:../Bsp/OLED/ssd1306.c ****  * @param   x: X坐标 (0 ~ 127)
 408:../Bsp/OLED/ssd1306.c ****  * @param   y: Y坐标 (0 ~ 63)
 409:../Bsp/OLED/ssd1306.c ****  * @param   color: 像素颜色
 410:../Bsp/OLED/ssd1306.c ****  * @note    显存结构：每8行为一页，共8页
 411:../Bsp/OLED/ssd1306.c ****  *          字节内低位对应上面的像素
 412:../Bsp/OLED/ssd1306.c ****  */
 413:../Bsp/OLED/ssd1306.c **** void SSD1306_DrawPixel(uint16_t x, uint16_t y, GUI_COLOR color)
 414:../Bsp/OLED/ssd1306.c **** {
 911              		.loc 1 414 1 is_stmt 1 view -0
 912              		.cfi_startproc
 913              		@ args = 0, pretend = 0, frame = 0
 914              		@ frame_needed = 0, uses_anonymous_args = 0
 915              		@ link register save eliminated.
 415:../Bsp/OLED/ssd1306.c ****     if (x >= SSD1306_WIDTH || y >= SSD1306_HEIGHT) {
 916              		.loc 1 415 5 view .LVU177
 917              		.loc 1 415 8 is_stmt 0 view .LVU178
 918 0000 7F28     		cmp	r0, #127
 919 0002 31D8     		bhi	.L68
 920              		.loc 1 415 28 discriminator 1 view .LVU179
 921 0004 3F29     		cmp	r1, #63
 922 0006 2FD8     		bhi	.L68
 416:../Bsp/OLED/ssd1306.c ****         return;
 417:../Bsp/OLED/ssd1306.c ****     }
 418:../Bsp/OLED/ssd1306.c ****     if (SSD_Trans && color == COLOR_B)
 923              		.loc 1 418 5 is_stmt 1 view .LVU180
 924              		.loc 1 418 9 is_stmt 0 view .LVU181
 925 0008 184B     		ldr	r3, .L71
 926 000a 1B78     		ldrb	r3, [r3]	@ zero_extendqisi2
 927              		.loc 1 418 8 view .LVU182
 928 000c 33B1     		cbz	r3, .L64
 929              		.loc 1 418 31 discriminator 1 view .LVU183
 930 000e 184B     		ldr	r3, .L71+4
 931 0010 1B7F     		ldrb	r3, [r3, #28]	@ zero_extendqisi2
 932 0012 013B     		subs	r3, r3, #1
 933 0014 18BF     		it	ne
 934 0016 0123     		movne	r3, #1
 935              		.loc 1 418 19 discriminator 1 view .LVU184
 936 0018 9A42     		cmp	r2, r3
 937 001a 25D0     		beq	.L68
 938              	.L64:
 414:../Bsp/OLED/ssd1306.c ****     if (x >= SSD1306_WIDTH || y >= SSD1306_HEIGHT) {
 939              		.loc 1 414 1 view .LVU185
 940 001c 10B4     		push	{r4}
 941              		.cfi_def_cfa_offset 4
 942              		.cfi_offset 4, -4
 419:../Bsp/OLED/ssd1306.c ****         return;
 420:../Bsp/OLED/ssd1306.c **** 
 421:../Bsp/OLED/ssd1306.c ****     if (SSD1306.Inverted) {
 943              		.loc 1 421 5 is_stmt 1 view .LVU186
 944              		.loc 1 421 16 is_stmt 0 view .LVU187
 945 001e 154B     		ldr	r3, .L71+8
 946 0020 1B79     		ldrb	r3, [r3, #4]	@ zero_extendqisi2
 947              		.loc 1 421 8 view .LVU188
 948 0022 13B1     		cbz	r3, .L65
ARM GAS  C:\Users\fish\AppData\Local\Temp\ccQbeEVV.s 			page 26


 422:../Bsp/OLED/ssd1306.c ****         color = (GUI_COLOR)!color;
 949              		.loc 1 422 9 is_stmt 1 view .LVU189
 950              		.loc 1 422 17 is_stmt 0 view .LVU190
 951 0024 B2FA82F2 		clz	r2, r2
 952              	.LVL97:
 953              		.loc 1 422 17 view .LVU191
 954 0028 5209     		lsrs	r2, r2, #5
 955              	.L65:
 956              	.LVL98:
 423:../Bsp/OLED/ssd1306.c ****     }
 424:../Bsp/OLED/ssd1306.c **** 
 425:../Bsp/OLED/ssd1306.c ****     if (color == GUI_COLOR_WHITE) {
 957              		.loc 1 425 5 is_stmt 1 view .LVU192
 958              		.loc 1 425 8 is_stmt 0 view .LVU193
 959 002a 012A     		cmp	r2, #1
 960 002c 0FD0     		beq	.L70
 426:../Bsp/OLED/ssd1306.c ****         SSD1306_Buffer[x + (y / 8) * SSD1306_WIDTH] |= 1 << (y % 8);
 427:../Bsp/OLED/ssd1306.c ****     } else {
 428:../Bsp/OLED/ssd1306.c ****         SSD1306_Buffer[x + (y / 8) * SSD1306_WIDTH] &= ~(1 << (y % 8));
 961              		.loc 1 428 9 is_stmt 1 view .LVU194
 962              		.loc 1 428 23 is_stmt 0 view .LVU195
 963 002e CB08     		lsrs	r3, r1, #3
 964 0030 00EBC310 		add	r0, r0, r3, lsl #7
 965              	.LVL99:
 966              		.loc 1 428 23 view .LVU196
 967 0034 104C     		ldr	r4, .L71+12
 968 0036 225C     		ldrb	r2, [r4, r0]	@ zero_extendqisi2
 969              	.LVL100:
 970              		.loc 1 428 66 view .LVU197
 971 0038 01F00701 		and	r1, r1, #7
 972              	.LVL101:
 973              		.loc 1 428 60 view .LVU198
 974 003c 0123     		movs	r3, #1
 975 003e 8B40     		lsls	r3, r3, r1
 976              		.loc 1 428 53 view .LVU199
 977 0040 DB43     		mvns	r3, r3
 978 0042 5BB2     		sxtb	r3, r3
 979 0044 1340     		ands	r3, r3, r2
 980 0046 2354     		strb	r3, [r4, r0]
 981              	.L62:
 429:../Bsp/OLED/ssd1306.c ****     }
 430:../Bsp/OLED/ssd1306.c **** }
 982              		.loc 1 430 1 view .LVU200
 983 0048 5DF8044B 		ldr	r4, [sp], #4
 984              		.cfi_remember_state
 985              		.cfi_restore 4
 986              		.cfi_def_cfa_offset 0
 987 004c 7047     		bx	lr
 988              	.LVL102:
 989              	.L70:
 990              		.cfi_restore_state
 426:../Bsp/OLED/ssd1306.c ****         SSD1306_Buffer[x + (y / 8) * SSD1306_WIDTH] |= 1 << (y % 8);
 991              		.loc 1 426 9 is_stmt 1 view .LVU201
 426:../Bsp/OLED/ssd1306.c ****         SSD1306_Buffer[x + (y / 8) * SSD1306_WIDTH] |= 1 << (y % 8);
 992              		.loc 1 426 23 is_stmt 0 view .LVU202
 993 004e CA08     		lsrs	r2, r1, #3
 994              	.LVL103:
ARM GAS  C:\Users\fish\AppData\Local\Temp\ccQbeEVV.s 			page 27


 426:../Bsp/OLED/ssd1306.c ****         SSD1306_Buffer[x + (y / 8) * SSD1306_WIDTH] |= 1 << (y % 8);
 995              		.loc 1 426 23 view .LVU203
 996 0050 00EBC212 		add	r2, r0, r2, lsl #7
 997 0054 0848     		ldr	r0, .L71+12
 998              	.LVL104:
 426:../Bsp/OLED/ssd1306.c ****         SSD1306_Buffer[x + (y / 8) * SSD1306_WIDTH] |= 1 << (y % 8);
 999              		.loc 1 426 23 view .LVU204
 1000 0056 835C     		ldrb	r3, [r0, r2]	@ zero_extendqisi2
 426:../Bsp/OLED/ssd1306.c ****         SSD1306_Buffer[x + (y / 8) * SSD1306_WIDTH] |= 1 << (y % 8);
 1001              		.loc 1 426 64 view .LVU205
 1002 0058 01F00704 		and	r4, r1, #7
 426:../Bsp/OLED/ssd1306.c ****         SSD1306_Buffer[x + (y / 8) * SSD1306_WIDTH] |= 1 << (y % 8);
 1003              		.loc 1 426 58 view .LVU206
 1004 005c 0121     		movs	r1, #1
 1005              	.LVL105:
 426:../Bsp/OLED/ssd1306.c ****         SSD1306_Buffer[x + (y / 8) * SSD1306_WIDTH] |= 1 << (y % 8);
 1006              		.loc 1 426 58 view .LVU207
 1007 005e A140     		lsls	r1, r1, r4
 426:../Bsp/OLED/ssd1306.c ****         SSD1306_Buffer[x + (y / 8) * SSD1306_WIDTH] |= 1 << (y % 8);
 1008              		.loc 1 426 53 view .LVU208
 1009 0060 0B43     		orrs	r3, r3, r1
 1010 0062 DBB2     		uxtb	r3, r3
 1011 0064 8354     		strb	r3, [r0, r2]
 1012 0066 EFE7     		b	.L62
 1013              	.LVL106:
 1014              	.L68:
 1015              		.cfi_def_cfa_offset 0
 1016              		.cfi_restore 4
 426:../Bsp/OLED/ssd1306.c ****         SSD1306_Buffer[x + (y / 8) * SSD1306_WIDTH] |= 1 << (y % 8);
 1017              		.loc 1 426 53 view .LVU209
 1018 0068 7047     		bx	lr
 1019              	.L72:
 1020 006a 00BF     		.align	2
 1021              	.L71:
 1022 006c 00000000 		.word	SSD_Trans
 1023 0070 00000000 		.word	GUI_Context
 1024 0074 00000000 		.word	SSD1306
 1025 0078 00000000 		.word	SSD1306_Buffer
 1026              		.cfi_endproc
 1027              	.LFE255:
 1029              		.section	.text.SSD1306_GotoXY,"ax",%progbits
 1030              		.align	1
 1031              		.global	SSD1306_GotoXY
 1032              		.syntax unified
 1033              		.thumb
 1034              		.thumb_func
 1036              	SSD1306_GotoXY:
 1037              	.LVL107:
 1038              	.LFB256:
 431:../Bsp/OLED/ssd1306.c **** 
 432:../Bsp/OLED/ssd1306.c **** /**
 433:../Bsp/OLED/ssd1306.c ****  * @brief   设置绘图光标位置
 434:../Bsp/OLED/ssd1306.c ****  * @param   x: X坐标
 435:../Bsp/OLED/ssd1306.c ****  * @param   y: Y坐标
 436:../Bsp/OLED/ssd1306.c ****  */
 437:../Bsp/OLED/ssd1306.c **** void SSD1306_GotoXY(uint16_t x, uint16_t y)
 438:../Bsp/OLED/ssd1306.c **** {
ARM GAS  C:\Users\fish\AppData\Local\Temp\ccQbeEVV.s 			page 28


 1039              		.loc 1 438 1 is_stmt 1 view -0
 1040              		.cfi_startproc
 1041              		@ args = 0, pretend = 0, frame = 0
 1042              		@ frame_needed = 0, uses_anonymous_args = 0
 1043              		@ link register save eliminated.
 439:../Bsp/OLED/ssd1306.c ****     SSD1306.CurrentX = x;
 1044              		.loc 1 439 5 view .LVU211
 1045              		.loc 1 439 22 is_stmt 0 view .LVU212
 1046 0000 014B     		ldr	r3, .L74
 1047 0002 1880     		strh	r0, [r3]	@ movhi
 440:../Bsp/OLED/ssd1306.c ****     SSD1306.CurrentY = y;
 1048              		.loc 1 440 5 is_stmt 1 view .LVU213
 1049              		.loc 1 440 22 is_stmt 0 view .LVU214
 1050 0004 5980     		strh	r1, [r3, #2]	@ movhi
 441:../Bsp/OLED/ssd1306.c **** }
 1051              		.loc 1 441 1 view .LVU215
 1052 0006 7047     		bx	lr
 1053              	.L75:
 1054              		.align	2
 1055              	.L74:
 1056 0008 00000000 		.word	SSD1306
 1057              		.cfi_endproc
 1058              	.LFE256:
 1060              		.section	.text.SSD1306_DrawLine,"ax",%progbits
 1061              		.align	1
 1062              		.global	SSD1306_DrawLine
 1063              		.syntax unified
 1064              		.thumb
 1065              		.thumb_func
 1067              	SSD1306_DrawLine:
 1068              	.LVL108:
 1069              	.LFB257:
 442:../Bsp/OLED/ssd1306.c **** 
 443:../Bsp/OLED/ssd1306.c **** /**
 444:../Bsp/OLED/ssd1306.c ****  * @brief   绘制直线
 445:../Bsp/OLED/ssd1306.c ****  * @param   x0: 起点X坐标
 446:../Bsp/OLED/ssd1306.c ****  * @param   y0: 起点Y坐标
 447:../Bsp/OLED/ssd1306.c ****  * @param   x1: 终点X坐标
 448:../Bsp/OLED/ssd1306.c ****  * @param   y1: 终点Y坐标
 449:../Bsp/OLED/ssd1306.c ****  * @param   c: 线条颜色
 450:../Bsp/OLED/ssd1306.c ****  * @note    使用Bresenham算法
 451:../Bsp/OLED/ssd1306.c ****  */
 452:../Bsp/OLED/ssd1306.c **** void SSD1306_DrawLine(uint16_t x0, uint16_t y0, uint16_t x1, uint16_t y1, GUI_COLOR c)
 453:../Bsp/OLED/ssd1306.c **** {
 1070              		.loc 1 453 1 is_stmt 1 view -0
 1071              		.cfi_startproc
 1072              		@ args = 4, pretend = 0, frame = 8
 1073              		@ frame_needed = 0, uses_anonymous_args = 0
 1074              		.loc 1 453 1 is_stmt 0 view .LVU217
 1075 0000 2DE9F04F 		push	{r4, r5, r6, r7, r8, r9, r10, fp, lr}
 1076              		.cfi_def_cfa_offset 36
 1077              		.cfi_offset 4, -36
 1078              		.cfi_offset 5, -32
 1079              		.cfi_offset 6, -28
 1080              		.cfi_offset 7, -24
 1081              		.cfi_offset 8, -20
 1082              		.cfi_offset 9, -16
ARM GAS  C:\Users\fish\AppData\Local\Temp\ccQbeEVV.s 			page 29


 1083              		.cfi_offset 10, -12
 1084              		.cfi_offset 11, -8
 1085              		.cfi_offset 14, -4
 1086 0004 83B0     		sub	sp, sp, #12
 1087              		.cfi_def_cfa_offset 48
 1088 0006 0446     		mov	r4, r0
 1089 0008 0E46     		mov	r6, r1
 1090 000a 1746     		mov	r7, r2
 1091 000c 9946     		mov	r9, r3
 1092 000e 9DF83080 		ldrb	r8, [sp, #48]	@ zero_extendqisi2
 454:../Bsp/OLED/ssd1306.c ****     int16_t dx, dy, sx, sy, err, e2, i, tmp;
 1093              		.loc 1 454 5 is_stmt 1 view .LVU218
 455:../Bsp/OLED/ssd1306.c **** 
 456:../Bsp/OLED/ssd1306.c ****     if (x0 >= SSD1306_WIDTH) {
 1094              		.loc 1 456 5 view .LVU219
 1095              		.loc 1 456 8 is_stmt 0 view .LVU220
 1096 0012 7F28     		cmp	r0, #127
 1097 0014 00D9     		bls	.L77
 457:../Bsp/OLED/ssd1306.c ****         x0 = SSD1306_WIDTH - 1;
 1098              		.loc 1 457 12 view .LVU221
 1099 0016 7F24     		movs	r4, #127
 1100              	.L77:
 1101              	.LVL109:
 458:../Bsp/OLED/ssd1306.c ****     }
 459:../Bsp/OLED/ssd1306.c ****     if (x1 >= SSD1306_WIDTH) {
 1102              		.loc 1 459 5 is_stmt 1 view .LVU222
 1103              		.loc 1 459 8 is_stmt 0 view .LVU223
 1104 0018 7F2F     		cmp	r7, #127
 1105 001a 00D9     		bls	.L78
 460:../Bsp/OLED/ssd1306.c ****         x1 = SSD1306_WIDTH - 1;
 1106              		.loc 1 460 12 view .LVU224
 1107 001c 7F27     		movs	r7, #127
 1108              	.L78:
 1109              	.LVL110:
 461:../Bsp/OLED/ssd1306.c ****     }
 462:../Bsp/OLED/ssd1306.c ****     if (y0 >= SSD1306_HEIGHT) {
 1110              		.loc 1 462 5 is_stmt 1 view .LVU225
 1111              		.loc 1 462 8 is_stmt 0 view .LVU226
 1112 001e 3F2E     		cmp	r6, #63
 1113 0020 00D9     		bls	.L79
 463:../Bsp/OLED/ssd1306.c ****         y0 = SSD1306_HEIGHT - 1;
 1114              		.loc 1 463 12 view .LVU227
 1115 0022 3F26     		movs	r6, #63
 1116              	.L79:
 1117              	.LVL111:
 464:../Bsp/OLED/ssd1306.c ****     }
 465:../Bsp/OLED/ssd1306.c ****     if (y1 >= SSD1306_HEIGHT) {
 1118              		.loc 1 465 5 is_stmt 1 view .LVU228
 1119              		.loc 1 465 8 is_stmt 0 view .LVU229
 1120 0024 B9F13F0F 		cmp	r9, #63
 1121 0028 01D9     		bls	.L80
 466:../Bsp/OLED/ssd1306.c ****         y1 = SSD1306_HEIGHT - 1;
 1122              		.loc 1 466 12 view .LVU230
 1123 002a 4FF03F09 		mov	r9, #63
 1124              	.L80:
 1125              	.LVL112:
 467:../Bsp/OLED/ssd1306.c ****     }
ARM GAS  C:\Users\fish\AppData\Local\Temp\ccQbeEVV.s 			page 30


 468:../Bsp/OLED/ssd1306.c **** 
 469:../Bsp/OLED/ssd1306.c ****     dx = (x0 < x1) ? (x1 - x0) : (x0 - x1);
 1126              		.loc 1 469 5 is_stmt 1 view .LVU231
 1127              		.loc 1 469 8 is_stmt 0 view .LVU232
 1128 002e BC42     		cmp	r4, r7
 1129 0030 1FD2     		bcs	.L81
 1130              		.loc 1 469 26 discriminator 1 view .LVU233
 1131 0032 A7EB040A 		sub	r10, r7, r4
 1132              		.loc 1 469 8 discriminator 1 view .LVU234
 1133 0036 0FFA8AFA 		sxth	r10, r10
 1134              	.L82:
 1135              	.LVL113:
 470:../Bsp/OLED/ssd1306.c ****     dy = (y0 < y1) ? (y1 - y0) : (y0 - y1);
 1136              		.loc 1 470 5 is_stmt 1 view .LVU235
 1137              		.loc 1 470 8 is_stmt 0 view .LVU236
 1138 003a 4E45     		cmp	r6, r9
 1139 003c 1ED2     		bcs	.L83
 1140              		.loc 1 470 26 discriminator 1 view .LVU237
 1141 003e A9EB060B 		sub	fp, r9, r6
 1142              		.loc 1 470 8 discriminator 1 view .LVU238
 1143 0042 0FFA8BFB 		sxth	fp, fp
 1144              	.L84:
 1145              	.LVL114:
 471:../Bsp/OLED/ssd1306.c ****     sx = (x0 < x1) ? 1 : -1;
 1146              		.loc 1 471 5 is_stmt 1 view .LVU239
 1147              		.loc 1 471 8 is_stmt 0 view .LVU240
 1148 0046 BC42     		cmp	r4, r7
 1149 0048 1DD2     		bcs	.L107
 1150              		.loc 1 471 8 discriminator 1 view .LVU241
 1151 004a 0122     		movs	r2, #1
 1152              	.L85:
 1153              	.LVL115:
 472:../Bsp/OLED/ssd1306.c ****     sy = (y0 < y1) ? 1 : -1;
 1154              		.loc 1 472 5 is_stmt 1 view .LVU242
 1155              		.loc 1 472 8 is_stmt 0 view .LVU243
 1156 004c 4E45     		cmp	r6, r9
 1157 004e 1DD2     		bcs	.L108
 1158              		.loc 1 472 8 discriminator 1 view .LVU244
 1159 0050 0121     		movs	r1, #1
 1160              	.L86:
 1161              	.LVL116:
 473:../Bsp/OLED/ssd1306.c ****     err = ((dx > dy) ? dx : -dy) / 2;
 1162              		.loc 1 473 5 is_stmt 1 view .LVU245
 1163              		.loc 1 473 9 is_stmt 0 view .LVU246
 1164 0052 DA45     		cmp	r10, fp
 1165 0054 1DDD     		ble	.L87
 1166              		.loc 1 473 9 discriminator 1 view .LVU247
 1167 0056 0AEBDA75 		add	r5, r10, r10, lsr #31
 1168 005a 6D10     		asrs	r5, r5, #1
 1169              	.L88:
 1170              	.LVL117:
 474:../Bsp/OLED/ssd1306.c **** 
 475:../Bsp/OLED/ssd1306.c ****     if (dx == 0) {
 1171              		.loc 1 475 5 is_stmt 1 view .LVU248
 1172              		.loc 1 475 8 is_stmt 0 view .LVU249
 1173 005c BAF1000F 		cmp	r10, #0
 1174 0060 1DD0     		beq	.L112
ARM GAS  C:\Users\fish\AppData\Local\Temp\ccQbeEVV.s 			page 31


 476:../Bsp/OLED/ssd1306.c ****         if (y1 < y0) {
 477:../Bsp/OLED/ssd1306.c ****             tmp = y1;
 478:../Bsp/OLED/ssd1306.c ****             y1 = y0;
 479:../Bsp/OLED/ssd1306.c ****             y0 = tmp;
 480:../Bsp/OLED/ssd1306.c ****         }
 481:../Bsp/OLED/ssd1306.c **** 
 482:../Bsp/OLED/ssd1306.c ****         if (x1 < x0) {
 483:../Bsp/OLED/ssd1306.c ****             tmp = x1;
 484:../Bsp/OLED/ssd1306.c ****             x1 = x0;
 485:../Bsp/OLED/ssd1306.c ****             x0 = tmp;
 486:../Bsp/OLED/ssd1306.c ****         }
 487:../Bsp/OLED/ssd1306.c **** 
 488:../Bsp/OLED/ssd1306.c ****         for (i = y0; i <= y1; i++) {
 489:../Bsp/OLED/ssd1306.c ****             SSD1306_DrawPixel(x0, i, c);
 490:../Bsp/OLED/ssd1306.c ****         }
 491:../Bsp/OLED/ssd1306.c **** 
 492:../Bsp/OLED/ssd1306.c ****         return;
 493:../Bsp/OLED/ssd1306.c ****     }
 494:../Bsp/OLED/ssd1306.c **** 
 495:../Bsp/OLED/ssd1306.c ****     if (dy == 0) {
 1175              		.loc 1 495 5 is_stmt 1 view .LVU250
 1176              		.loc 1 495 8 is_stmt 0 view .LVU251
 1177 0062 BBF1000F 		cmp	fp, #0
 1178 0066 33D0     		beq	.L113
 1179 0068 0092     		str	r2, [sp]
 1180 006a CDF80490 		str	r9, [sp, #4]
 1181 006e 8946     		mov	r9, r1
 1182              	.LVL118:
 1183              		.loc 1 495 8 view .LVU252
 1184 0070 44E0     		b	.L95
 1185              	.LVL119:
 1186              	.L81:
 469:../Bsp/OLED/ssd1306.c ****     dy = (y0 < y1) ? (y1 - y0) : (y0 - y1);
 1187              		.loc 1 469 38 discriminator 2 view .LVU253
 1188 0072 A4EB070A 		sub	r10, r4, r7
 469:../Bsp/OLED/ssd1306.c ****     dy = (y0 < y1) ? (y1 - y0) : (y0 - y1);
 1189              		.loc 1 469 8 discriminator 2 view .LVU254
 1190 0076 0FFA8AFA 		sxth	r10, r10
 1191 007a DEE7     		b	.L82
 1192              	.LVL120:
 1193              	.L83:
 470:../Bsp/OLED/ssd1306.c ****     sx = (x0 < x1) ? 1 : -1;
 1194              		.loc 1 470 38 discriminator 2 view .LVU255
 1195 007c A6EB090B 		sub	fp, r6, r9
 470:../Bsp/OLED/ssd1306.c ****     sx = (x0 < x1) ? 1 : -1;
 1196              		.loc 1 470 8 discriminator 2 view .LVU256
 1197 0080 0FFA8BFB 		sxth	fp, fp
 1198 0084 DFE7     		b	.L84
 1199              	.LVL121:
 1200              	.L107:
 471:../Bsp/OLED/ssd1306.c ****     sy = (y0 < y1) ? 1 : -1;
 1201              		.loc 1 471 8 discriminator 2 view .LVU257
 1202 0086 4FF0FF32 		mov	r2, #-1
 1203 008a DFE7     		b	.L85
 1204              	.LVL122:
 1205              	.L108:
 472:../Bsp/OLED/ssd1306.c ****     err = ((dx > dy) ? dx : -dy) / 2;
ARM GAS  C:\Users\fish\AppData\Local\Temp\ccQbeEVV.s 			page 32


 1206              		.loc 1 472 8 discriminator 2 view .LVU258
 1207 008c 4FF0FF31 		mov	r1, #-1
 1208 0090 DFE7     		b	.L86
 1209              	.LVL123:
 1210              	.L87:
 473:../Bsp/OLED/ssd1306.c **** 
 1211              		.loc 1 473 9 discriminator 2 view .LVU259
 1212 0092 0BEBDB75 		add	r5, fp, fp, lsr #31
 1213 0096 6D10     		asrs	r5, r5, #1
 1214 0098 6D42     		rsbs	r5, r5, #0
 1215 009a 2DB2     		sxth	r5, r5
 1216 009c DEE7     		b	.L88
 1217              	.LVL124:
 1218              	.L112:
 476:../Bsp/OLED/ssd1306.c ****             tmp = y1;
 1219              		.loc 1 476 9 is_stmt 1 view .LVU260
 476:../Bsp/OLED/ssd1306.c ****             tmp = y1;
 1220              		.loc 1 476 12 is_stmt 0 view .LVU261
 1221 009e 4E45     		cmp	r6, r9
 1222 00a0 02D8     		bhi	.L90
 1223 00a2 4B46     		mov	r3, r9
 1224 00a4 B146     		mov	r9, r6
 1225              	.LVL125:
 476:../Bsp/OLED/ssd1306.c ****             tmp = y1;
 1226              		.loc 1 476 12 view .LVU262
 1227 00a6 1E46     		mov	r6, r3
 1228              	.LVL126:
 1229              	.L90:
 482:../Bsp/OLED/ssd1306.c ****             tmp = x1;
 1230              		.loc 1 482 9 is_stmt 1 view .LVU263
 482:../Bsp/OLED/ssd1306.c ****             tmp = x1;
 1231              		.loc 1 482 12 is_stmt 0 view .LVU264
 1232 00a8 BC42     		cmp	r4, r7
 1233 00aa 00D8     		bhi	.L91
 1234 00ac 2746     		mov	r7, r4
 1235              	.LVL127:
 1236              	.L91:
 488:../Bsp/OLED/ssd1306.c ****             SSD1306_DrawPixel(x0, i, c);
 1237              		.loc 1 488 9 is_stmt 1 view .LVU265
 488:../Bsp/OLED/ssd1306.c ****             SSD1306_DrawPixel(x0, i, c);
 1238              		.loc 1 488 16 is_stmt 0 view .LVU266
 1239 00ae 0FFA89F9 		sxth	r9, r9
 1240              	.LVL128:
 488:../Bsp/OLED/ssd1306.c ****             SSD1306_DrawPixel(x0, i, c);
 1241              		.loc 1 488 9 view .LVU267
 1242 00b2 0AE0     		b	.L92
 1243              	.LVL129:
 1244              	.L93:
 489:../Bsp/OLED/ssd1306.c ****         }
 1245              		.loc 1 489 13 is_stmt 1 view .LVU268
 1246 00b4 1FFA89F9 		uxth	r9, r9
 489:../Bsp/OLED/ssd1306.c ****         }
 1247              		.loc 1 489 13 is_stmt 0 view .LVU269
 1248 00b8 4246     		mov	r2, r8
 1249 00ba 4946     		mov	r1, r9
 1250 00bc 3846     		mov	r0, r7
 1251 00be FFF7FEFF 		bl	SSD1306_DrawPixel
ARM GAS  C:\Users\fish\AppData\Local\Temp\ccQbeEVV.s 			page 33


 1252              	.LVL130:
 488:../Bsp/OLED/ssd1306.c ****             SSD1306_DrawPixel(x0, i, c);
 1253              		.loc 1 488 32 is_stmt 1 discriminator 3 view .LVU270
 1254 00c2 09F10109 		add	r9, r9, #1
 1255              	.LVL131:
 488:../Bsp/OLED/ssd1306.c ****             SSD1306_DrawPixel(x0, i, c);
 1256              		.loc 1 488 32 is_stmt 0 discriminator 3 view .LVU271
 1257 00c6 0FFA89F9 		sxth	r9, r9
 1258              	.LVL132:
 1259              	.L92:
 488:../Bsp/OLED/ssd1306.c ****             SSD1306_DrawPixel(x0, i, c);
 1260              		.loc 1 488 24 is_stmt 1 discriminator 1 view .LVU272
 1261 00ca B145     		cmp	r9, r6
 1262 00cc F2DD     		ble	.L93
 1263 00ce 30E0     		b	.L76
 1264              	.LVL133:
 1265              	.L113:
 496:../Bsp/OLED/ssd1306.c ****         if (y1 < y0) {
 1266              		.loc 1 496 9 view .LVU273
 1267              		.loc 1 496 12 is_stmt 0 view .LVU274
 1268 00d0 4E45     		cmp	r6, r9
 1269 00d2 00D8     		bhi	.L96
 1270 00d4 B146     		mov	r9, r6
 1271              	.LVL134:
 1272              	.L96:
 497:../Bsp/OLED/ssd1306.c ****             tmp = y1;
 498:../Bsp/OLED/ssd1306.c ****             y1 = y0;
 499:../Bsp/OLED/ssd1306.c ****             y0 = tmp;
 500:../Bsp/OLED/ssd1306.c ****         }
 501:../Bsp/OLED/ssd1306.c **** 
 502:../Bsp/OLED/ssd1306.c ****         if (x1 < x0) {
 1273              		.loc 1 502 9 is_stmt 1 view .LVU275
 1274              		.loc 1 502 12 is_stmt 0 view .LVU276
 1275 00d6 BC42     		cmp	r4, r7
 1276 00d8 02D8     		bhi	.L97
 1277 00da 3B46     		mov	r3, r7
 1278 00dc 2746     		mov	r7, r4
 1279              	.LVL135:
 1280              		.loc 1 502 12 view .LVU277
 1281 00de 1C46     		mov	r4, r3
 1282              	.LVL136:
 1283              	.L97:
 503:../Bsp/OLED/ssd1306.c ****             tmp = x1;
 504:../Bsp/OLED/ssd1306.c ****             x1 = x0;
 505:../Bsp/OLED/ssd1306.c ****             x0 = tmp;
 506:../Bsp/OLED/ssd1306.c ****         }
 507:../Bsp/OLED/ssd1306.c **** 
 508:../Bsp/OLED/ssd1306.c ****         for (i = x0; i <= x1; i++) {
 1284              		.loc 1 508 9 is_stmt 1 view .LVU278
 1285              		.loc 1 508 16 is_stmt 0 view .LVU279
 1286 00e0 3FB2     		sxth	r7, r7
 1287              	.LVL137:
 1288              		.loc 1 508 9 view .LVU280
 1289 00e2 07E0     		b	.L98
 1290              	.LVL138:
 1291              	.L99:
 509:../Bsp/OLED/ssd1306.c ****             SSD1306_DrawPixel(i, y0, c);
ARM GAS  C:\Users\fish\AppData\Local\Temp\ccQbeEVV.s 			page 34


 1292              		.loc 1 509 13 is_stmt 1 view .LVU281
 1293 00e4 BFB2     		uxth	r7, r7
 1294              		.loc 1 509 13 is_stmt 0 view .LVU282
 1295 00e6 4246     		mov	r2, r8
 1296 00e8 4946     		mov	r1, r9
 1297 00ea 3846     		mov	r0, r7
 1298 00ec FFF7FEFF 		bl	SSD1306_DrawPixel
 1299              	.LVL139:
 508:../Bsp/OLED/ssd1306.c ****             SSD1306_DrawPixel(i, y0, c);
 1300              		.loc 1 508 32 is_stmt 1 discriminator 3 view .LVU283
 1301 00f0 0137     		adds	r7, r7, #1
 1302              	.LVL140:
 508:../Bsp/OLED/ssd1306.c ****             SSD1306_DrawPixel(i, y0, c);
 1303              		.loc 1 508 32 is_stmt 0 discriminator 3 view .LVU284
 1304 00f2 3FB2     		sxth	r7, r7
 1305              	.LVL141:
 1306              	.L98:
 508:../Bsp/OLED/ssd1306.c ****             SSD1306_DrawPixel(i, y0, c);
 1307              		.loc 1 508 24 is_stmt 1 discriminator 1 view .LVU285
 1308 00f4 A742     		cmp	r7, r4
 1309 00f6 F5DD     		ble	.L99
 1310 00f8 1BE0     		b	.L76
 1311              	.LVL142:
 1312              	.L102:
 502:../Bsp/OLED/ssd1306.c ****             tmp = x1;
 1313              		.loc 1 502 12 is_stmt 0 view .LVU286
 1314 00fa 1D46     		mov	r5, r3
 1315              	.LVL143:
 1316              	.L95:
 510:../Bsp/OLED/ssd1306.c ****         }
 511:../Bsp/OLED/ssd1306.c **** 
 512:../Bsp/OLED/ssd1306.c ****         return;
 513:../Bsp/OLED/ssd1306.c ****     }
 514:../Bsp/OLED/ssd1306.c **** 
 515:../Bsp/OLED/ssd1306.c ****     while (1) {
 1317              		.loc 1 515 5 is_stmt 1 view .LVU287
 516:../Bsp/OLED/ssd1306.c ****         SSD1306_DrawPixel(x0, y0, c);
 1318              		.loc 1 516 9 view .LVU288
 1319 00fc 4246     		mov	r2, r8
 1320 00fe 3146     		mov	r1, r6
 1321 0100 2046     		mov	r0, r4
 1322 0102 FFF7FEFF 		bl	SSD1306_DrawPixel
 1323              	.LVL144:
 517:../Bsp/OLED/ssd1306.c ****         if (x0 == x1 && y0 == y1) {
 1324              		.loc 1 517 9 view .LVU289
 1325              		.loc 1 517 12 is_stmt 0 view .LVU290
 1326 0106 BC42     		cmp	r4, r7
 1327 0108 10D0     		beq	.L114
 1328              	.L100:
 518:../Bsp/OLED/ssd1306.c ****             break;
 519:../Bsp/OLED/ssd1306.c ****         }
 520:../Bsp/OLED/ssd1306.c ****         e2 = err;
 1329              		.loc 1 520 9 is_stmt 1 view .LVU291
 1330              	.LVL145:
 521:../Bsp/OLED/ssd1306.c ****         if (e2 > -dx) {
 1331              		.loc 1 521 9 view .LVU292
 1332              		.loc 1 521 18 is_stmt 0 view .LVU293
ARM GAS  C:\Users\fish\AppData\Local\Temp\ccQbeEVV.s 			page 35


 1333 010a CAF10003 		rsb	r3, r10, #0
 1334              		.loc 1 521 12 view .LVU294
 1335 010e 9D42     		cmp	r5, r3
 1336 0110 12DD     		ble	.L109
 522:../Bsp/OLED/ssd1306.c ****             err -= dy;
 1337              		.loc 1 522 13 is_stmt 1 view .LVU295
 1338              		.loc 1 522 17 is_stmt 0 view .LVU296
 1339 0112 A5EB0B03 		sub	r3, r5, fp
 1340 0116 1BB2     		sxth	r3, r3
 1341              	.LVL146:
 523:../Bsp/OLED/ssd1306.c ****             x0 += sx;
 1342              		.loc 1 523 13 is_stmt 1 view .LVU297
 1343              		.loc 1 523 16 is_stmt 0 view .LVU298
 1344 0118 009A     		ldr	r2, [sp]
 1345 011a 1444     		add	r4, r4, r2
 1346              	.LVL147:
 1347              		.loc 1 523 16 view .LVU299
 1348 011c A4B2     		uxth	r4, r4
 1349              	.LVL148:
 1350              	.L101:
 524:../Bsp/OLED/ssd1306.c ****         }
 525:../Bsp/OLED/ssd1306.c ****         if (e2 < dy) {
 1351              		.loc 1 525 9 is_stmt 1 view .LVU300
 1352              		.loc 1 525 12 is_stmt 0 view .LVU301
 1353 011e 5D45     		cmp	r5, fp
 1354 0120 EBDA     		bge	.L102
 526:../Bsp/OLED/ssd1306.c ****             err += dx;
 1355              		.loc 1 526 13 is_stmt 1 view .LVU302
 1356              		.loc 1 526 17 is_stmt 0 view .LVU303
 1357 0122 5344     		add	r3, r3, r10
 1358              	.LVL149:
 1359              		.loc 1 526 17 view .LVU304
 1360 0124 1BB2     		sxth	r3, r3
 1361              	.LVL150:
 527:../Bsp/OLED/ssd1306.c ****             y0 += sy;
 1362              		.loc 1 527 13 is_stmt 1 view .LVU305
 1363              		.loc 1 527 16 is_stmt 0 view .LVU306
 1364 0126 4E44     		add	r6, r6, r9
 1365              	.LVL151:
 1366              		.loc 1 527 16 view .LVU307
 1367 0128 B6B2     		uxth	r6, r6
 1368              	.LVL152:
 1369              		.loc 1 527 16 view .LVU308
 1370 012a E6E7     		b	.L102
 1371              	.LVL153:
 1372              	.L114:
 517:../Bsp/OLED/ssd1306.c ****             break;
 1373              		.loc 1 517 22 discriminator 1 view .LVU309
 1374 012c 019B     		ldr	r3, [sp, #4]
 1375 012e 9E42     		cmp	r6, r3
 1376 0130 EBD1     		bne	.L100
 1377              	.LVL154:
 1378              	.L76:
 528:../Bsp/OLED/ssd1306.c ****         }
 529:../Bsp/OLED/ssd1306.c ****     }
 530:../Bsp/OLED/ssd1306.c **** }
 1379              		.loc 1 530 1 view .LVU310
ARM GAS  C:\Users\fish\AppData\Local\Temp\ccQbeEVV.s 			page 36


 1380 0132 03B0     		add	sp, sp, #12
 1381              		.cfi_remember_state
 1382              		.cfi_def_cfa_offset 36
 1383              		@ sp needed
 1384 0134 BDE8F08F 		pop	{r4, r5, r6, r7, r8, r9, r10, fp, pc}
 1385              	.LVL155:
 1386              	.L109:
 1387              		.cfi_restore_state
 1388              		.loc 1 530 1 view .LVU311
 1389 0138 2B46     		mov	r3, r5
 1390 013a F0E7     		b	.L101
 1391              		.cfi_endproc
 1392              	.LFE257:
 1394              		.section	.text.SSD1306_DrawRectangle,"ax",%progbits
 1395              		.align	1
 1396              		.global	SSD1306_DrawRectangle
 1397              		.syntax unified
 1398              		.thumb
 1399              		.thumb_func
 1401              	SSD1306_DrawRectangle:
 1402              	.LVL156:
 1403              	.LFB258:
 531:../Bsp/OLED/ssd1306.c **** 
 532:../Bsp/OLED/ssd1306.c **** /**
 533:../Bsp/OLED/ssd1306.c ****  * @brief   绘制矩形边框
 534:../Bsp/OLED/ssd1306.c ****  * @param   x: 左上角X坐标
 535:../Bsp/OLED/ssd1306.c ****  * @param   y: 左上角Y坐标
 536:../Bsp/OLED/ssd1306.c ****  * @param   w: 宽度
 537:../Bsp/OLED/ssd1306.c ****  * @param   h: 高度
 538:../Bsp/OLED/ssd1306.c ****  * @param   c: 边框颜色
 539:../Bsp/OLED/ssd1306.c ****  */
 540:../Bsp/OLED/ssd1306.c **** void SSD1306_DrawRectangle(uint16_t x, uint16_t y, uint16_t w, uint16_t h, GUI_COLOR c)
 541:../Bsp/OLED/ssd1306.c **** {
 1404              		.loc 1 541 1 is_stmt 1 view -0
 1405              		.cfi_startproc
 1406              		@ args = 4, pretend = 0, frame = 0
 1407              		@ frame_needed = 0, uses_anonymous_args = 0
 1408              		.loc 1 541 1 is_stmt 0 view .LVU313
 1409 0000 2DE9F041 		push	{r4, r5, r6, r7, r8, lr}
 1410              		.cfi_def_cfa_offset 24
 1411              		.cfi_offset 4, -24
 1412              		.cfi_offset 5, -20
 1413              		.cfi_offset 6, -16
 1414              		.cfi_offset 7, -12
 1415              		.cfi_offset 8, -8
 1416              		.cfi_offset 14, -4
 1417 0004 82B0     		sub	sp, sp, #8
 1418              		.cfi_def_cfa_offset 32
 1419 0006 9DF82080 		ldrb	r8, [sp, #32]	@ zero_extendqisi2
 542:../Bsp/OLED/ssd1306.c ****     if (x >= SSD1306_WIDTH || y >= SSD1306_HEIGHT) {
 1420              		.loc 1 542 5 is_stmt 1 view .LVU314
 1421              		.loc 1 542 8 is_stmt 0 view .LVU315
 1422 000a 7F28     		cmp	r0, #127
 1423 000c 34D8     		bhi	.L115
 1424 000e 0646     		mov	r6, r0
 1425 0010 0F46     		mov	r7, r1
 1426 0012 1D46     		mov	r5, r3
ARM GAS  C:\Users\fish\AppData\Local\Temp\ccQbeEVV.s 			page 37


 1427              		.loc 1 542 28 discriminator 1 view .LVU316
 1428 0014 3F29     		cmp	r1, #63
 1429 0016 2FD8     		bhi	.L115
 543:../Bsp/OLED/ssd1306.c ****         return;
 544:../Bsp/OLED/ssd1306.c ****     }
 545:../Bsp/OLED/ssd1306.c **** 
 546:../Bsp/OLED/ssd1306.c ****     if ((x + w) >= SSD1306_WIDTH) {
 1430              		.loc 1 546 5 is_stmt 1 view .LVU317
 1431              		.loc 1 546 12 is_stmt 0 view .LVU318
 1432 0018 8318     		adds	r3, r0, r2
 1433              	.LVL157:
 1434              		.loc 1 546 8 view .LVU319
 1435 001a 7F2B     		cmp	r3, #127
 1436 001c 02DD     		ble	.L117
 547:../Bsp/OLED/ssd1306.c ****         w = SSD1306_WIDTH - x;
 1437              		.loc 1 547 9 is_stmt 1 view .LVU320
 1438              		.loc 1 547 11 is_stmt 0 view .LVU321
 1439 001e C0F18002 		rsb	r2, r0, #128
 1440              	.LVL158:
 1441              		.loc 1 547 11 view .LVU322
 1442 0022 92B2     		uxth	r2, r2
 1443              	.L117:
 1444              	.LVL159:
 548:../Bsp/OLED/ssd1306.c ****     }
 549:../Bsp/OLED/ssd1306.c ****     if ((y + h) >= SSD1306_HEIGHT) {
 1445              		.loc 1 549 5 is_stmt 1 view .LVU323
 1446              		.loc 1 549 12 is_stmt 0 view .LVU324
 1447 0024 7B19     		adds	r3, r7, r5
 1448              		.loc 1 549 8 view .LVU325
 1449 0026 3F2B     		cmp	r3, #63
 1450 0028 02DD     		ble	.L118
 550:../Bsp/OLED/ssd1306.c ****         h = SSD1306_HEIGHT - y;
 1451              		.loc 1 550 9 is_stmt 1 view .LVU326
 1452              		.loc 1 550 11 is_stmt 0 view .LVU327
 1453 002a C7F14005 		rsb	r5, r7, #64
 1454              	.LVL160:
 1455              		.loc 1 550 11 view .LVU328
 1456 002e ADB2     		uxth	r5, r5
 1457              	.L118:
 1458              	.LVL161:
 551:../Bsp/OLED/ssd1306.c ****     }
 552:../Bsp/OLED/ssd1306.c **** 
 553:../Bsp/OLED/ssd1306.c ****     SSD1306_DrawLine(x, y, x + w, y, c);
 1459              		.loc 1 553 5 is_stmt 1 view .LVU329
 1460 0030 9419     		adds	r4, r2, r6
 1461 0032 A4B2     		uxth	r4, r4
 1462 0034 CDF80080 		str	r8, [sp]
 1463 0038 3B46     		mov	r3, r7
 1464 003a 2246     		mov	r2, r4
 1465              	.LVL162:
 1466              		.loc 1 553 5 is_stmt 0 view .LVU330
 1467 003c 3946     		mov	r1, r7
 1468              	.LVL163:
 1469              		.loc 1 553 5 view .LVU331
 1470 003e 3046     		mov	r0, r6
 1471              	.LVL164:
 1472              		.loc 1 553 5 view .LVU332
ARM GAS  C:\Users\fish\AppData\Local\Temp\ccQbeEVV.s 			page 38


 1473 0040 FFF7FEFF 		bl	SSD1306_DrawLine
 1474              	.LVL165:
 554:../Bsp/OLED/ssd1306.c ****     SSD1306_DrawLine(x, y + h, x + w, y + h, c);
 1475              		.loc 1 554 5 is_stmt 1 view .LVU333
 1476 0044 3D44     		add	r5, r5, r7
 1477              	.LVL166:
 1478              		.loc 1 554 5 is_stmt 0 view .LVU334
 1479 0046 ADB2     		uxth	r5, r5
 1480 0048 CDF80080 		str	r8, [sp]
 1481 004c 2B46     		mov	r3, r5
 1482 004e 2246     		mov	r2, r4
 1483 0050 2946     		mov	r1, r5
 1484 0052 3046     		mov	r0, r6
 1485 0054 FFF7FEFF 		bl	SSD1306_DrawLine
 1486              	.LVL167:
 555:../Bsp/OLED/ssd1306.c ****     SSD1306_DrawLine(x, y, x, y + h, c);
 1487              		.loc 1 555 5 is_stmt 1 view .LVU335
 1488 0058 CDF80080 		str	r8, [sp]
 1489 005c 2B46     		mov	r3, r5
 1490 005e 3246     		mov	r2, r6
 1491 0060 3946     		mov	r1, r7
 1492 0062 3046     		mov	r0, r6
 1493 0064 FFF7FEFF 		bl	SSD1306_DrawLine
 1494              	.LVL168:
 556:../Bsp/OLED/ssd1306.c ****     SSD1306_DrawLine(x + w, y, x + w, y + h, c);
 1495              		.loc 1 556 5 view .LVU336
 1496 0068 CDF80080 		str	r8, [sp]
 1497 006c 2B46     		mov	r3, r5
 1498 006e 2246     		mov	r2, r4
 1499 0070 3946     		mov	r1, r7
 1500 0072 2046     		mov	r0, r4
 1501 0074 FFF7FEFF 		bl	SSD1306_DrawLine
 1502              	.LVL169:
 1503              	.L115:
 557:../Bsp/OLED/ssd1306.c **** }
 1504              		.loc 1 557 1 is_stmt 0 view .LVU337
 1505 0078 02B0     		add	sp, sp, #8
 1506              		.cfi_def_cfa_offset 24
 1507              		@ sp needed
 1508 007a BDE8F081 		pop	{r4, r5, r6, r7, r8, pc}
 1509              		.loc 1 557 1 view .LVU338
 1510              		.cfi_endproc
 1511              	.LFE258:
 1513              		.section	.text.SSD1306_DrawFilledRectangle,"ax",%progbits
 1514              		.align	1
 1515              		.global	SSD1306_DrawFilledRectangle
 1516              		.syntax unified
 1517              		.thumb
 1518              		.thumb_func
 1520              	SSD1306_DrawFilledRectangle:
 1521              	.LVL170:
 1522              	.LFB259:
 558:../Bsp/OLED/ssd1306.c **** 
 559:../Bsp/OLED/ssd1306.c **** /**
 560:../Bsp/OLED/ssd1306.c ****  * @brief   绘制填充矩形
 561:../Bsp/OLED/ssd1306.c ****  * @param   x: 左上角X坐标
 562:../Bsp/OLED/ssd1306.c ****  * @param   y: 左上角Y坐标
ARM GAS  C:\Users\fish\AppData\Local\Temp\ccQbeEVV.s 			page 39


 563:../Bsp/OLED/ssd1306.c ****  * @param   w: 宽度
 564:../Bsp/OLED/ssd1306.c ****  * @param   h: 高度
 565:../Bsp/OLED/ssd1306.c ****  * @param   c: 填充颜色
 566:../Bsp/OLED/ssd1306.c ****  */
 567:../Bsp/OLED/ssd1306.c **** void SSD1306_DrawFilledRectangle(uint16_t x, uint16_t y, uint16_t w, uint16_t h, GUI_COLOR c)
 568:../Bsp/OLED/ssd1306.c **** {
 1523              		.loc 1 568 1 is_stmt 1 view -0
 1524              		.cfi_startproc
 1525              		@ args = 4, pretend = 0, frame = 0
 1526              		@ frame_needed = 0, uses_anonymous_args = 0
 1527              		.loc 1 568 1 is_stmt 0 view .LVU340
 1528 0000 2DE9F043 		push	{r4, r5, r6, r7, r8, r9, lr}
 1529              		.cfi_def_cfa_offset 28
 1530              		.cfi_offset 4, -28
 1531              		.cfi_offset 5, -24
 1532              		.cfi_offset 6, -20
 1533              		.cfi_offset 7, -16
 1534              		.cfi_offset 8, -12
 1535              		.cfi_offset 9, -8
 1536              		.cfi_offset 14, -4
 1537 0004 83B0     		sub	sp, sp, #12
 1538              		.cfi_def_cfa_offset 40
 1539 0006 9DF82890 		ldrb	r9, [sp, #40]	@ zero_extendqisi2
 569:../Bsp/OLED/ssd1306.c ****     uint8_t i;
 1540              		.loc 1 569 5 is_stmt 1 view .LVU341
 570:../Bsp/OLED/ssd1306.c **** 
 571:../Bsp/OLED/ssd1306.c ****     if (x >= SSD1306_WIDTH || y >= SSD1306_HEIGHT) {
 1541              		.loc 1 571 5 view .LVU342
 1542              		.loc 1 571 8 is_stmt 0 view .LVU343
 1543 000a 7F28     		cmp	r0, #127
 1544 000c 23D8     		bhi	.L120
 1545 000e 0546     		mov	r5, r0
 1546 0010 0F46     		mov	r7, r1
 1547 0012 9046     		mov	r8, r2
 1548 0014 1E46     		mov	r6, r3
 1549              		.loc 1 571 28 discriminator 1 view .LVU344
 1550 0016 3F29     		cmp	r1, #63
 1551 0018 1DD8     		bhi	.L120
 572:../Bsp/OLED/ssd1306.c ****         return;
 573:../Bsp/OLED/ssd1306.c ****     }
 574:../Bsp/OLED/ssd1306.c **** 
 575:../Bsp/OLED/ssd1306.c ****     if ((x + w) >= SSD1306_WIDTH) {
 1552              		.loc 1 575 5 is_stmt 1 view .LVU345
 1553              		.loc 1 575 12 is_stmt 0 view .LVU346
 1554 001a 8318     		adds	r3, r0, r2
 1555              	.LVL171:
 1556              		.loc 1 575 8 view .LVU347
 1557 001c 7F2B     		cmp	r3, #127
 1558 001e 03DD     		ble	.L122
 576:../Bsp/OLED/ssd1306.c ****         w = SSD1306_WIDTH - x;
 1559              		.loc 1 576 9 is_stmt 1 view .LVU348
 1560              		.loc 1 576 11 is_stmt 0 view .LVU349
 1561 0020 C0F18008 		rsb	r8, r0, #128
 1562 0024 1FFA88F8 		uxth	r8, r8
 1563              	.L122:
 1564              	.LVL172:
 577:../Bsp/OLED/ssd1306.c ****     }
ARM GAS  C:\Users\fish\AppData\Local\Temp\ccQbeEVV.s 			page 40


 578:../Bsp/OLED/ssd1306.c ****     if ((y + h) >= SSD1306_HEIGHT) {
 1565              		.loc 1 578 5 is_stmt 1 view .LVU350
 1566              		.loc 1 578 12 is_stmt 0 view .LVU351
 1567 0028 BB19     		adds	r3, r7, r6
 1568              		.loc 1 578 8 view .LVU352
 1569 002a 3F2B     		cmp	r3, #63
 1570 002c 02DD     		ble	.L123
 579:../Bsp/OLED/ssd1306.c ****         h = SSD1306_HEIGHT - y;
 1571              		.loc 1 579 9 is_stmt 1 view .LVU353
 1572              		.loc 1 579 11 is_stmt 0 view .LVU354
 1573 002e C7F14006 		rsb	r6, r7, #64
 1574              	.LVL173:
 1575              		.loc 1 579 11 view .LVU355
 1576 0032 B6B2     		uxth	r6, r6
 1577              	.L123:
 1578              	.LVL174:
 580:../Bsp/OLED/ssd1306.c ****     }
 581:../Bsp/OLED/ssd1306.c **** 
 582:../Bsp/OLED/ssd1306.c ****     for (i = 0; i <= h; i++) {
 1579              		.loc 1 582 5 is_stmt 1 view .LVU356
 1580              		.loc 1 582 12 is_stmt 0 view .LVU357
 1581 0034 0024     		movs	r4, #0
 1582              		.loc 1 582 5 view .LVU358
 1583 0036 0CE0     		b	.L124
 1584              	.LVL175:
 1585              	.L125:
 583:../Bsp/OLED/ssd1306.c ****         SSD1306_DrawLine(x, y + i, x + w, y + i, c);
 1586              		.loc 1 583 9 is_stmt 1 view .LVU359
 1587 0038 E119     		adds	r1, r4, r7
 1588 003a 89B2     		uxth	r1, r1
 1589 003c 08EB0502 		add	r2, r8, r5
 1590 0040 CDF80090 		str	r9, [sp]
 1591 0044 0B46     		mov	r3, r1
 1592 0046 92B2     		uxth	r2, r2
 1593 0048 2846     		mov	r0, r5
 1594 004a FFF7FEFF 		bl	SSD1306_DrawLine
 1595              	.LVL176:
 582:../Bsp/OLED/ssd1306.c ****         SSD1306_DrawLine(x, y + i, x + w, y + i, c);
 1596              		.loc 1 582 26 discriminator 3 view .LVU360
 1597 004e 0134     		adds	r4, r4, #1
 1598              	.LVL177:
 582:../Bsp/OLED/ssd1306.c ****         SSD1306_DrawLine(x, y + i, x + w, y + i, c);
 1599              		.loc 1 582 26 is_stmt 0 discriminator 3 view .LVU361
 1600 0050 E4B2     		uxtb	r4, r4
 1601              	.LVL178:
 1602              	.L124:
 582:../Bsp/OLED/ssd1306.c ****         SSD1306_DrawLine(x, y + i, x + w, y + i, c);
 1603              		.loc 1 582 19 is_stmt 1 discriminator 1 view .LVU362
 1604 0052 B442     		cmp	r4, r6
 1605 0054 F0D9     		bls	.L125
 1606              	.LVL179:
 1607              	.L120:
 584:../Bsp/OLED/ssd1306.c ****     }
 585:../Bsp/OLED/ssd1306.c **** }
 1608              		.loc 1 585 1 is_stmt 0 view .LVU363
 1609 0056 03B0     		add	sp, sp, #12
 1610              		.cfi_def_cfa_offset 28
ARM GAS  C:\Users\fish\AppData\Local\Temp\ccQbeEVV.s 			page 41


 1611              		@ sp needed
 1612 0058 BDE8F083 		pop	{r4, r5, r6, r7, r8, r9, pc}
 1613              		.loc 1 585 1 view .LVU364
 1614              		.cfi_endproc
 1615              	.LFE259:
 1617              		.section	.text.SSD1306_DrawTriangle,"ax",%progbits
 1618              		.align	1
 1619              		.global	SSD1306_DrawTriangle
 1620              		.syntax unified
 1621              		.thumb
 1622              		.thumb_func
 1624              	SSD1306_DrawTriangle:
 1625              	.LVL180:
 1626              	.LFB260:
 586:../Bsp/OLED/ssd1306.c **** 
 587:../Bsp/OLED/ssd1306.c **** /**
 588:../Bsp/OLED/ssd1306.c ****  * @brief   绘制三角形边框
 589:../Bsp/OLED/ssd1306.c ****  * @param   x1, y1: 第一个顶点坐标
 590:../Bsp/OLED/ssd1306.c ****  * @param   x2, y2: 第二个顶点坐标
 591:../Bsp/OLED/ssd1306.c ****  * @param   x3, y3: 第三个顶点坐标
 592:../Bsp/OLED/ssd1306.c ****  * @param   color: 边框颜色
 593:../Bsp/OLED/ssd1306.c ****  */
 594:../Bsp/OLED/ssd1306.c **** void SSD1306_DrawTriangle(uint16_t x1, uint16_t y1, uint16_t x2, uint16_t y2, uint16_t x3, uint16_t
 595:../Bsp/OLED/ssd1306.c **** {
 1627              		.loc 1 595 1 is_stmt 1 view -0
 1628              		.cfi_startproc
 1629              		@ args = 12, pretend = 0, frame = 0
 1630              		@ frame_needed = 0, uses_anonymous_args = 0
 1631              		.loc 1 595 1 is_stmt 0 view .LVU366
 1632 0000 2DE9F047 		push	{r4, r5, r6, r7, r8, r9, r10, lr}
 1633              		.cfi_def_cfa_offset 32
 1634              		.cfi_offset 4, -32
 1635              		.cfi_offset 5, -28
 1636              		.cfi_offset 6, -24
 1637              		.cfi_offset 7, -20
 1638              		.cfi_offset 8, -16
 1639              		.cfi_offset 9, -12
 1640              		.cfi_offset 10, -8
 1641              		.cfi_offset 14, -4
 1642 0004 82B0     		sub	sp, sp, #8
 1643              		.cfi_def_cfa_offset 40
 1644 0006 0446     		mov	r4, r0
 1645 0008 0D46     		mov	r5, r1
 1646 000a 1746     		mov	r7, r2
 1647 000c 9846     		mov	r8, r3
 1648 000e BDF82890 		ldrh	r9, [sp, #40]
 1649 0012 BDF82CA0 		ldrh	r10, [sp, #44]
 1650 0016 9DF83060 		ldrb	r6, [sp, #48]	@ zero_extendqisi2
 596:../Bsp/OLED/ssd1306.c ****     SSD1306_DrawLine(x1, y1, x2, y2, color);
 1651              		.loc 1 596 5 is_stmt 1 view .LVU367
 1652 001a 0096     		str	r6, [sp]
 1653 001c FFF7FEFF 		bl	SSD1306_DrawLine
 1654              	.LVL181:
 597:../Bsp/OLED/ssd1306.c ****     SSD1306_DrawLine(x2, y2, x3, y3, color);
 1655              		.loc 1 597 5 view .LVU368
 1656 0020 0096     		str	r6, [sp]
 1657 0022 5346     		mov	r3, r10
ARM GAS  C:\Users\fish\AppData\Local\Temp\ccQbeEVV.s 			page 42


 1658 0024 4A46     		mov	r2, r9
 1659 0026 4146     		mov	r1, r8
 1660 0028 3846     		mov	r0, r7
 1661 002a FFF7FEFF 		bl	SSD1306_DrawLine
 1662              	.LVL182:
 598:../Bsp/OLED/ssd1306.c ****     SSD1306_DrawLine(x3, y3, x1, y1, color);
 1663              		.loc 1 598 5 view .LVU369
 1664 002e 0096     		str	r6, [sp]
 1665 0030 2B46     		mov	r3, r5
 1666 0032 2246     		mov	r2, r4
 1667 0034 5146     		mov	r1, r10
 1668 0036 4846     		mov	r0, r9
 1669 0038 FFF7FEFF 		bl	SSD1306_DrawLine
 1670              	.LVL183:
 599:../Bsp/OLED/ssd1306.c **** }
 1671              		.loc 1 599 1 is_stmt 0 view .LVU370
 1672 003c 02B0     		add	sp, sp, #8
 1673              		.cfi_def_cfa_offset 32
 1674              		@ sp needed
 1675 003e BDE8F087 		pop	{r4, r5, r6, r7, r8, r9, r10, pc}
 1676              		.loc 1 599 1 view .LVU371
 1677              		.cfi_endproc
 1678              	.LFE260:
 1680              		.section	.text.SSD1306_DrawFilledTriangle,"ax",%progbits
 1681              		.align	1
 1682              		.global	SSD1306_DrawFilledTriangle
 1683              		.syntax unified
 1684              		.thumb
 1685              		.thumb_func
 1687              	SSD1306_DrawFilledTriangle:
 1688              	.LVL184:
 1689              	.LFB261:
 600:../Bsp/OLED/ssd1306.c **** 
 601:../Bsp/OLED/ssd1306.c **** /**
 602:../Bsp/OLED/ssd1306.c ****  * @brief   绘制填充三角形
 603:../Bsp/OLED/ssd1306.c ****  * @param   x1, y1: 第一个顶点坐标
 604:../Bsp/OLED/ssd1306.c ****  * @param   x2, y2: 第二个顶点坐标
 605:../Bsp/OLED/ssd1306.c ****  * @param   x3, y3: 第三个顶点坐标
 606:../Bsp/OLED/ssd1306.c ****  * @param   color: 填充颜色
 607:../Bsp/OLED/ssd1306.c ****  */
 608:../Bsp/OLED/ssd1306.c **** void SSD1306_DrawFilledTriangle(uint16_t x1, uint16_t y1, uint16_t x2, uint16_t y2, uint16_t x3, ui
 609:../Bsp/OLED/ssd1306.c **** {
 1690              		.loc 1 609 1 is_stmt 1 view -0
 1691              		.cfi_startproc
 1692              		@ args = 12, pretend = 0, frame = 32
 1693              		@ frame_needed = 0, uses_anonymous_args = 0
 1694              		.loc 1 609 1 is_stmt 0 view .LVU373
 1695 0000 2DE9F04F 		push	{r4, r5, r6, r7, r8, r9, r10, fp, lr}
 1696              		.cfi_def_cfa_offset 36
 1697              		.cfi_offset 4, -36
 1698              		.cfi_offset 5, -32
 1699              		.cfi_offset 6, -28
 1700              		.cfi_offset 7, -24
 1701              		.cfi_offset 8, -20
 1702              		.cfi_offset 9, -16
 1703              		.cfi_offset 10, -12
 1704              		.cfi_offset 11, -8
ARM GAS  C:\Users\fish\AppData\Local\Temp\ccQbeEVV.s 			page 43


 1705              		.cfi_offset 14, -4
 1706 0004 8BB0     		sub	sp, sp, #44
 1707              		.cfi_def_cfa_offset 80
 1708 0006 BDF85040 		ldrh	r4, [sp, #80]
 1709 000a 0594     		str	r4, [sp, #20]
 1710 000c BDF85440 		ldrh	r4, [sp, #84]
 1711 0010 0694     		str	r4, [sp, #24]
 1712 0012 9DF85840 		ldrb	r4, [sp, #88]	@ zero_extendqisi2
 1713 0016 0794     		str	r4, [sp, #28]
 610:../Bsp/OLED/ssd1306.c ****     int16_t deltax = 0, deltay = 0, x = 0, y = 0, xinc1 = 0, xinc2 = 0,
 1714              		.loc 1 610 5 is_stmt 1 view .LVU374
 1715              	.LVL185:
 611:../Bsp/OLED/ssd1306.c ****     yinc1 = 0, yinc2 = 0, den = 0, num = 0, numadd = 0, numpixels = 0,
 612:../Bsp/OLED/ssd1306.c ****     curpixel = 0;
 613:../Bsp/OLED/ssd1306.c **** 
 614:../Bsp/OLED/ssd1306.c ****     deltax = ABS(x2 - x1);
 1716              		.loc 1 614 5 view .LVU375
 1717              		.loc 1 614 14 is_stmt 0 view .LVU376
 1718 0018 A2EB000A 		sub	r10, r2, r0
 1719 001c BAF1000F 		cmp	r10, #0
 1720 0020 B8BF     		it	lt
 1721 0022 CAF1000A 		rsblt	r10, r10, #0
 1722              		.loc 1 614 12 view .LVU377
 1723 0026 0FFA8AFA 		sxth	r10, r10
 1724              	.LVL186:
 615:../Bsp/OLED/ssd1306.c ****     deltay = ABS(y2 - y1);
 1725              		.loc 1 615 5 is_stmt 1 view .LVU378
 1726              		.loc 1 615 14 is_stmt 0 view .LVU379
 1727 002a A3EB010C 		sub	ip, r3, r1
 1728 002e BCF1000F 		cmp	ip, #0
 1729 0032 B8BF     		it	lt
 1730 0034 CCF1000C 		rsblt	ip, ip, #0
 1731              		.loc 1 615 12 view .LVU380
 1732 0038 0FFA8CFB 		sxth	fp, ip
 1733              	.LVL187:
 616:../Bsp/OLED/ssd1306.c ****     x = x1;
 1734              		.loc 1 616 5 is_stmt 1 view .LVU381
 1735              		.loc 1 616 7 is_stmt 0 view .LVU382
 1736 003c 04B2     		sxth	r4, r0
 1737              	.LVL188:
 617:../Bsp/OLED/ssd1306.c ****     y = y1;
 1738              		.loc 1 617 5 is_stmt 1 view .LVU383
 1739              		.loc 1 617 7 is_stmt 0 view .LVU384
 1740 003e 0EB2     		sxth	r6, r1
 1741              	.LVL189:
 618:../Bsp/OLED/ssd1306.c **** 
 619:../Bsp/OLED/ssd1306.c ****     if (x2 >= x1) {
 1742              		.loc 1 619 5 is_stmt 1 view .LVU385
 1743              		.loc 1 619 8 is_stmt 0 view .LVU386
 1744 0040 8242     		cmp	r2, r0
 1745 0042 13D3     		bcc	.L137
 620:../Bsp/OLED/ssd1306.c ****         xinc1 = 1;
 1746              		.loc 1 620 15 view .LVU387
 1747 0044 0122     		movs	r2, #1
 1748              	.LVL190:
 1749              		.loc 1 620 15 view .LVU388
 1750 0046 0892     		str	r2, [sp, #32]
ARM GAS  C:\Users\fish\AppData\Local\Temp\ccQbeEVV.s 			page 44


 1751              	.L130:
 1752              	.LVL191:
 621:../Bsp/OLED/ssd1306.c ****         xinc2 = 1;
 622:../Bsp/OLED/ssd1306.c ****     } else {
 623:../Bsp/OLED/ssd1306.c ****         xinc1 = -1;
 624:../Bsp/OLED/ssd1306.c ****         xinc2 = -1;
 625:../Bsp/OLED/ssd1306.c ****     }
 626:../Bsp/OLED/ssd1306.c **** 
 627:../Bsp/OLED/ssd1306.c ****     if (y2 >= y1) {
 1753              		.loc 1 627 5 is_stmt 1 view .LVU389
 1754              		.loc 1 627 8 is_stmt 0 view .LVU390
 1755 0048 8B42     		cmp	r3, r1
 1756 004a 13D3     		bcc	.L138
 628:../Bsp/OLED/ssd1306.c ****         yinc1 = 1;
 1757              		.loc 1 628 15 view .LVU391
 1758 004c 0123     		movs	r3, #1
 1759              	.LVL192:
 1760              		.loc 1 628 15 view .LVU392
 1761 004e 0993     		str	r3, [sp, #36]
 1762              	.L131:
 1763              	.LVL193:
 629:../Bsp/OLED/ssd1306.c ****         yinc2 = 1;
 630:../Bsp/OLED/ssd1306.c ****     } else {
 631:../Bsp/OLED/ssd1306.c ****         yinc1 = -1;
 632:../Bsp/OLED/ssd1306.c ****         yinc2 = -1;
 633:../Bsp/OLED/ssd1306.c ****     }
 634:../Bsp/OLED/ssd1306.c **** 
 635:../Bsp/OLED/ssd1306.c ****     if (deltax >= deltay) {
 1764              		.loc 1 635 5 is_stmt 1 view .LVU393
 1765              		.loc 1 635 8 is_stmt 0 view .LVU394
 1766 0050 DA45     		cmp	r10, fp
 1767 0052 13DB     		blt	.L132
 636:../Bsp/OLED/ssd1306.c ****         xinc1 = 0;
 1768              		.loc 1 636 9 is_stmt 1 view .LVU395
 1769              	.LVL194:
 637:../Bsp/OLED/ssd1306.c ****         yinc2 = 0;
 1770              		.loc 1 637 9 view .LVU396
 638:../Bsp/OLED/ssd1306.c ****         den = deltax;
 1771              		.loc 1 638 9 view .LVU397
 639:../Bsp/OLED/ssd1306.c ****         num = deltax / 2;
 1772              		.loc 1 639 9 view .LVU398
 1773              		.loc 1 639 13 is_stmt 0 view .LVU399
 1774 0054 0AEBDA78 		add	r8, r10, r10, lsr #31
 1775 0058 48F34F08 		sbfx	r8, r8, #1, #16
 1776              	.LVL195:
 640:../Bsp/OLED/ssd1306.c ****         numadd = deltay;
 1777              		.loc 1 640 9 is_stmt 1 view .LVU400
 641:../Bsp/OLED/ssd1306.c ****         numpixels = deltax;
 1778              		.loc 1 641 9 view .LVU401
 1779              		.loc 1 641 9 is_stmt 0 view .LVU402
 1780 005c 089B     		ldr	r3, [sp, #32]
 1781 005e 0393     		str	r3, [sp, #12]
 637:../Bsp/OLED/ssd1306.c ****         den = deltax;
 1782              		.loc 1 637 15 view .LVU403
 1783 0060 0023     		movs	r3, #0
 1784 0062 0893     		str	r3, [sp, #32]
 1785              	.LVL196:
ARM GAS  C:\Users\fish\AppData\Local\Temp\ccQbeEVV.s 			page 45


 636:../Bsp/OLED/ssd1306.c ****         yinc2 = 0;
 1786              		.loc 1 636 15 view .LVU404
 1787 0064 0493     		str	r3, [sp, #16]
 1788              	.LVL197:
 1789              	.L133:
 642:../Bsp/OLED/ssd1306.c ****     } else {
 643:../Bsp/OLED/ssd1306.c ****         xinc2 = 0;
 644:../Bsp/OLED/ssd1306.c ****         yinc1 = 0;
 645:../Bsp/OLED/ssd1306.c ****         den = deltay;
 646:../Bsp/OLED/ssd1306.c ****         num = deltay / 2;
 647:../Bsp/OLED/ssd1306.c ****         numadd = deltax;
 648:../Bsp/OLED/ssd1306.c ****         numpixels = deltay;
 649:../Bsp/OLED/ssd1306.c ****     }
 650:../Bsp/OLED/ssd1306.c **** 
 651:../Bsp/OLED/ssd1306.c ****     for (curpixel = 0; curpixel <= numpixels; curpixel++) {
 1790              		.loc 1 651 5 is_stmt 1 view .LVU405
 1791              		.loc 1 651 19 is_stmt 0 view .LVU406
 1792 0066 4FF00009 		mov	r9, #0
 1793              		.loc 1 651 5 view .LVU407
 1794 006a 1EE0     		b	.L134
 1795              	.LVL198:
 1796              	.L137:
 623:../Bsp/OLED/ssd1306.c ****         xinc2 = -1;
 1797              		.loc 1 623 15 view .LVU408
 1798 006c 4FF0FF32 		mov	r2, #-1
 1799              	.LVL199:
 623:../Bsp/OLED/ssd1306.c ****         xinc2 = -1;
 1800              		.loc 1 623 15 view .LVU409
 1801 0070 0892     		str	r2, [sp, #32]
 1802 0072 E9E7     		b	.L130
 1803              	.LVL200:
 1804              	.L138:
 631:../Bsp/OLED/ssd1306.c ****         yinc2 = -1;
 1805              		.loc 1 631 15 view .LVU410
 1806 0074 4FF0FF33 		mov	r3, #-1
 1807              	.LVL201:
 631:../Bsp/OLED/ssd1306.c ****         yinc2 = -1;
 1808              		.loc 1 631 15 view .LVU411
 1809 0078 0993     		str	r3, [sp, #36]
 1810 007a E9E7     		b	.L131
 1811              	.LVL202:
 1812              	.L132:
 643:../Bsp/OLED/ssd1306.c ****         yinc1 = 0;
 1813              		.loc 1 643 9 is_stmt 1 view .LVU412
 644:../Bsp/OLED/ssd1306.c ****         den = deltay;
 1814              		.loc 1 644 9 view .LVU413
 645:../Bsp/OLED/ssd1306.c ****         num = deltay / 2;
 1815              		.loc 1 645 9 view .LVU414
 646:../Bsp/OLED/ssd1306.c ****         numadd = deltax;
 1816              		.loc 1 646 9 view .LVU415
 646:../Bsp/OLED/ssd1306.c ****         numadd = deltax;
 1817              		.loc 1 646 13 is_stmt 0 view .LVU416
 1818 007c 0BEBDB78 		add	r8, fp, fp, lsr #31
 1819 0080 48F34F08 		sbfx	r8, r8, #1, #16
 1820              	.LVL203:
 647:../Bsp/OLED/ssd1306.c ****         numpixels = deltay;
 1821              		.loc 1 647 9 is_stmt 1 view .LVU417
ARM GAS  C:\Users\fish\AppData\Local\Temp\ccQbeEVV.s 			page 46


 648:../Bsp/OLED/ssd1306.c ****     }
 1822              		.loc 1 648 9 view .LVU418
 646:../Bsp/OLED/ssd1306.c ****         numadd = deltax;
 1823              		.loc 1 646 13 is_stmt 0 view .LVU419
 1824 0084 5346     		mov	r3, r10
 645:../Bsp/OLED/ssd1306.c ****         num = deltay / 2;
 1825              		.loc 1 645 13 view .LVU420
 1826 0086 DA46     		mov	r10, fp
 1827              	.LVL204:
 647:../Bsp/OLED/ssd1306.c ****         numpixels = deltay;
 1828              		.loc 1 647 16 view .LVU421
 1829 0088 9B46     		mov	fp, r3
 1830              	.LVL205:
 646:../Bsp/OLED/ssd1306.c ****         numadd = deltax;
 1831              		.loc 1 646 13 view .LVU422
 1832 008a 099B     		ldr	r3, [sp, #36]
 1833              	.LVL206:
 646:../Bsp/OLED/ssd1306.c ****         numadd = deltax;
 1834              		.loc 1 646 13 view .LVU423
 1835 008c 0493     		str	r3, [sp, #16]
 644:../Bsp/OLED/ssd1306.c ****         den = deltay;
 1836              		.loc 1 644 15 view .LVU424
 1837 008e 0023     		movs	r3, #0
 1838 0090 0993     		str	r3, [sp, #36]
 1839              	.LVL207:
 643:../Bsp/OLED/ssd1306.c ****         yinc1 = 0;
 1840              		.loc 1 643 15 view .LVU425
 1841 0092 0393     		str	r3, [sp, #12]
 1842 0094 E7E7     		b	.L133
 1843              	.LVL208:
 1844              	.L135:
 652:../Bsp/OLED/ssd1306.c ****         SSD1306_DrawLine(x, y, x3, y3, color);
 653:../Bsp/OLED/ssd1306.c **** 
 654:../Bsp/OLED/ssd1306.c ****         num += numadd;
 655:../Bsp/OLED/ssd1306.c ****         if (num >= den) {
 656:../Bsp/OLED/ssd1306.c ****             num -= den;
 657:../Bsp/OLED/ssd1306.c ****             x += xinc1;
 658:../Bsp/OLED/ssd1306.c ****             y += yinc1;
 659:../Bsp/OLED/ssd1306.c ****         }
 660:../Bsp/OLED/ssd1306.c ****         x += xinc2;
 1845              		.loc 1 660 9 is_stmt 1 view .LVU426
 1846              		.loc 1 660 11 is_stmt 0 view .LVU427
 1847 0096 039B     		ldr	r3, [sp, #12]
 1848 0098 1C44     		add	r4, r4, r3
 1849              	.LVL209:
 1850              		.loc 1 660 11 view .LVU428
 1851 009a 24B2     		sxth	r4, r4
 1852              	.LVL210:
 661:../Bsp/OLED/ssd1306.c ****         y += yinc2;
 1853              		.loc 1 661 9 is_stmt 1 view .LVU429
 1854              		.loc 1 661 11 is_stmt 0 view .LVU430
 1855 009c 049B     		ldr	r3, [sp, #16]
 1856 009e 1E44     		add	r6, r6, r3
 1857              	.LVL211:
 1858              		.loc 1 661 11 view .LVU431
 1859 00a0 36B2     		sxth	r6, r6
 1860              	.LVL212:
ARM GAS  C:\Users\fish\AppData\Local\Temp\ccQbeEVV.s 			page 47


 651:../Bsp/OLED/ssd1306.c ****         SSD1306_DrawLine(x, y, x3, y3, color);
 1861              		.loc 1 651 55 is_stmt 1 discriminator 2 view .LVU432
 1862 00a2 09F10109 		add	r9, r9, #1
 1863              	.LVL213:
 651:../Bsp/OLED/ssd1306.c ****         SSD1306_DrawLine(x, y, x3, y3, color);
 1864              		.loc 1 651 55 is_stmt 0 discriminator 2 view .LVU433
 1865 00a6 0FFA89F9 		sxth	r9, r9
 1866              	.LVL214:
 1867              	.L134:
 651:../Bsp/OLED/ssd1306.c ****         SSD1306_DrawLine(x, y, x3, y3, color);
 1868              		.loc 1 651 33 is_stmt 1 discriminator 1 view .LVU434
 1869 00aa CA45     		cmp	r10, r9
 1870 00ac 1BDB     		blt	.L140
 652:../Bsp/OLED/ssd1306.c ****         SSD1306_DrawLine(x, y, x3, y3, color);
 1871              		.loc 1 652 9 view .LVU435
 1872 00ae A7B2     		uxth	r7, r4
 1873 00b0 B5B2     		uxth	r5, r6
 1874 00b2 079B     		ldr	r3, [sp, #28]
 1875 00b4 0093     		str	r3, [sp]
 1876 00b6 069B     		ldr	r3, [sp, #24]
 1877 00b8 059A     		ldr	r2, [sp, #20]
 1878 00ba 2946     		mov	r1, r5
 1879 00bc 3846     		mov	r0, r7
 1880 00be FFF7FEFF 		bl	SSD1306_DrawLine
 1881              	.LVL215:
 654:../Bsp/OLED/ssd1306.c ****         if (num >= den) {
 1882              		.loc 1 654 9 view .LVU436
 654:../Bsp/OLED/ssd1306.c ****         if (num >= den) {
 1883              		.loc 1 654 13 is_stmt 0 view .LVU437
 1884 00c2 D844     		add	r8, r8, fp
 1885              	.LVL216:
 654:../Bsp/OLED/ssd1306.c ****         if (num >= den) {
 1886              		.loc 1 654 13 view .LVU438
 1887 00c4 1FFA88F3 		uxth	r3, r8
 1888 00c8 0FFA88F8 		sxth	r8, r8
 1889              	.LVL217:
 655:../Bsp/OLED/ssd1306.c ****             num -= den;
 1890              		.loc 1 655 9 is_stmt 1 view .LVU439
 655:../Bsp/OLED/ssd1306.c ****             num -= den;
 1891              		.loc 1 655 12 is_stmt 0 view .LVU440
 1892 00cc C245     		cmp	r10, r8
 1893 00ce E2DC     		bgt	.L135
 656:../Bsp/OLED/ssd1306.c ****             x += xinc1;
 1894              		.loc 1 656 13 is_stmt 1 view .LVU441
 656:../Bsp/OLED/ssd1306.c ****             x += xinc1;
 1895              		.loc 1 656 17 is_stmt 0 view .LVU442
 1896 00d0 A3EB0A03 		sub	r3, r3, r10
 1897 00d4 0FFA83F8 		sxth	r8, r3
 1898              	.LVL218:
 657:../Bsp/OLED/ssd1306.c ****             y += yinc1;
 1899              		.loc 1 657 13 is_stmt 1 view .LVU443
 657:../Bsp/OLED/ssd1306.c ****             y += yinc1;
 1900              		.loc 1 657 15 is_stmt 0 view .LVU444
 1901 00d8 089B     		ldr	r3, [sp, #32]
 1902 00da 1F44     		add	r7, r7, r3
 1903 00dc 3CB2     		sxth	r4, r7
 1904              	.LVL219:
ARM GAS  C:\Users\fish\AppData\Local\Temp\ccQbeEVV.s 			page 48


 658:../Bsp/OLED/ssd1306.c ****         }
 1905              		.loc 1 658 13 is_stmt 1 view .LVU445
 658:../Bsp/OLED/ssd1306.c ****         }
 1906              		.loc 1 658 15 is_stmt 0 view .LVU446
 1907 00de 099B     		ldr	r3, [sp, #36]
 1908 00e0 1D44     		add	r5, r5, r3
 1909 00e2 2EB2     		sxth	r6, r5
 1910              	.LVL220:
 658:../Bsp/OLED/ssd1306.c ****         }
 1911              		.loc 1 658 15 view .LVU447
 1912 00e4 D7E7     		b	.L135
 1913              	.LVL221:
 1914              	.L140:
 662:../Bsp/OLED/ssd1306.c ****     }
 663:../Bsp/OLED/ssd1306.c **** }
 1915              		.loc 1 663 1 view .LVU448
 1916 00e6 0BB0     		add	sp, sp, #44
 1917              		.cfi_def_cfa_offset 36
 1918              		@ sp needed
 1919 00e8 BDE8F08F 		pop	{r4, r5, r6, r7, r8, r9, r10, fp, pc}
 1920              		.loc 1 663 1 view .LVU449
 1921              		.cfi_endproc
 1922              	.LFE261:
 1924              		.section	.text.SSD1306_DrawCircle,"ax",%progbits
 1925              		.align	1
 1926              		.global	SSD1306_DrawCircle
 1927              		.syntax unified
 1928              		.thumb
 1929              		.thumb_func
 1931              	SSD1306_DrawCircle:
 1932              	.LVL222:
 1933              	.LFB262:
 664:../Bsp/OLED/ssd1306.c **** 
 665:../Bsp/OLED/ssd1306.c **** /**
 666:../Bsp/OLED/ssd1306.c ****  * @brief   绘制圆形边框
 667:../Bsp/OLED/ssd1306.c ****  * @param   x0: 圆心X坐标
 668:../Bsp/OLED/ssd1306.c ****  * @param   y0: 圆心Y坐标
 669:../Bsp/OLED/ssd1306.c ****  * @param   r: 半径
 670:../Bsp/OLED/ssd1306.c ****  * @param   c: 边框颜色
 671:../Bsp/OLED/ssd1306.c ****  * @note    使用中点圆算法(Midpoint Circle Algorithm)
 672:../Bsp/OLED/ssd1306.c ****  */
 673:../Bsp/OLED/ssd1306.c **** void SSD1306_DrawCircle(int16_t x0, int16_t y0, int16_t r, GUI_COLOR c)
 674:../Bsp/OLED/ssd1306.c **** {
 1934              		.loc 1 674 1 is_stmt 1 view -0
 1935              		.cfi_startproc
 1936              		@ args = 0, pretend = 0, frame = 24
 1937              		@ frame_needed = 0, uses_anonymous_args = 0
 1938              		.loc 1 674 1 is_stmt 0 view .LVU451
 1939 0000 2DE9F04F 		push	{r4, r5, r6, r7, r8, r9, r10, fp, lr}
 1940              		.cfi_def_cfa_offset 36
 1941              		.cfi_offset 4, -36
 1942              		.cfi_offset 5, -32
 1943              		.cfi_offset 6, -28
 1944              		.cfi_offset 7, -24
 1945              		.cfi_offset 8, -20
 1946              		.cfi_offset 9, -16
 1947              		.cfi_offset 10, -12
ARM GAS  C:\Users\fish\AppData\Local\Temp\ccQbeEVV.s 			page 49


 1948              		.cfi_offset 11, -8
 1949              		.cfi_offset 14, -4
 1950 0004 87B0     		sub	sp, sp, #28
 1951              		.cfi_def_cfa_offset 64
 1952 0006 0192     		str	r2, [sp, #4]
 1953 0008 1E46     		mov	r6, r3
 675:../Bsp/OLED/ssd1306.c ****     int16_t f = 1 - r;
 1954              		.loc 1 675 5 is_stmt 1 view .LVU452
 1955              		.loc 1 675 19 is_stmt 0 view .LVU453
 1956 000a 94B2     		uxth	r4, r2
 1957 000c C4F10103 		rsb	r3, r4, #1
 1958              	.LVL223:
 1959              		.loc 1 675 13 view .LVU454
 1960 0010 0FFA83F9 		sxth	r9, r3
 1961              	.LVL224:
 676:../Bsp/OLED/ssd1306.c ****     int16_t ddF_x = 1;
 1962              		.loc 1 676 5 is_stmt 1 view .LVU455
 677:../Bsp/OLED/ssd1306.c ****     int16_t ddF_y = -2 * r;
 1963              		.loc 1 677 5 view .LVU456
 1964              		.loc 1 677 24 is_stmt 0 view .LVU457
 1965 0014 C4EBC433 		rsb	r3, r4, r4, lsl #15
 1966 0018 5B00     		lsls	r3, r3, #1
 1967              		.loc 1 677 13 view .LVU458
 1968 001a 1BB2     		sxth	r3, r3
 1969 001c 0593     		str	r3, [sp, #20]
 1970              	.LVL225:
 678:../Bsp/OLED/ssd1306.c ****     int16_t x = 0;
 1971              		.loc 1 678 5 is_stmt 1 view .LVU459
 679:../Bsp/OLED/ssd1306.c ****     int16_t y = r;
 1972              		.loc 1 679 5 view .LVU460
 680:../Bsp/OLED/ssd1306.c **** 
 681:../Bsp/OLED/ssd1306.c ****     SSD1306_DrawPixel(x0, y0 + r, c);
 1973              		.loc 1 681 5 view .LVU461
 1974 001e 1FFA80FB 		uxth	fp, r0
 1975 0022 1FFA81FA 		uxth	r10, r1
 1976 0026 04EB0A01 		add	r1, r4, r10
 1977              	.LVL226:
 1978              		.loc 1 681 5 is_stmt 0 view .LVU462
 1979 002a 3246     		mov	r2, r6
 1980              	.LVL227:
 1981              		.loc 1 681 5 view .LVU463
 1982 002c 89B2     		uxth	r1, r1
 1983 002e 5846     		mov	r0, fp
 1984              		.loc 1 681 5 view .LVU464
 1985 0030 FFF7FEFF 		bl	SSD1306_DrawPixel
 1986              	.LVL228:
 682:../Bsp/OLED/ssd1306.c ****     SSD1306_DrawPixel(x0, y0 - r, c);
 1987              		.loc 1 682 5 is_stmt 1 view .LVU465
 1988 0034 AAEB0401 		sub	r1, r10, r4
 1989 0038 3246     		mov	r2, r6
 1990 003a 89B2     		uxth	r1, r1
 1991 003c 5846     		mov	r0, fp
 1992 003e FFF7FEFF 		bl	SSD1306_DrawPixel
 1993              	.LVL229:
 683:../Bsp/OLED/ssd1306.c ****     SSD1306_DrawPixel(x0 + r, y0, c);
 1994              		.loc 1 683 5 view .LVU466
 1995 0042 04EB0B00 		add	r0, r4, fp
ARM GAS  C:\Users\fish\AppData\Local\Temp\ccQbeEVV.s 			page 50


 1996 0046 3246     		mov	r2, r6
 1997 0048 5146     		mov	r1, r10
 1998 004a 80B2     		uxth	r0, r0
 1999 004c FFF7FEFF 		bl	SSD1306_DrawPixel
 2000              	.LVL230:
 684:../Bsp/OLED/ssd1306.c ****     SSD1306_DrawPixel(x0 - r, y0, c);
 2001              		.loc 1 684 5 view .LVU467
 2002 0050 ABEB0400 		sub	r0, fp, r4
 2003 0054 3246     		mov	r2, r6
 2004 0056 5146     		mov	r1, r10
 2005 0058 80B2     		uxth	r0, r0
 2006 005a FFF7FEFF 		bl	SSD1306_DrawPixel
 2007              	.LVL231:
 685:../Bsp/OLED/ssd1306.c **** 
 686:../Bsp/OLED/ssd1306.c ****     while (x < y) {
 2008              		.loc 1 686 5 view .LVU468
 678:../Bsp/OLED/ssd1306.c ****     int16_t y = r;
 2009              		.loc 1 678 13 is_stmt 0 view .LVU469
 2010 005e 0023     		movs	r3, #0
 2011 0060 0293     		str	r3, [sp, #8]
 676:../Bsp/OLED/ssd1306.c ****     int16_t ddF_y = -2 * r;
 2012              		.loc 1 676 13 view .LVU470
 2013 0062 0123     		movs	r3, #1
 2014 0064 0493     		str	r3, [sp, #16]
 2015              		.loc 1 686 11 view .LVU471
 2016 0066 52E0     		b	.L142
 2017              	.LVL232:
 2018              	.L143:
 687:../Bsp/OLED/ssd1306.c ****         if (f >= 0) {
 688:../Bsp/OLED/ssd1306.c ****             y--;
 689:../Bsp/OLED/ssd1306.c ****             ddF_y += 2;
 690:../Bsp/OLED/ssd1306.c ****             f += ddF_y;
 691:../Bsp/OLED/ssd1306.c ****         }
 692:../Bsp/OLED/ssd1306.c ****         x++;
 2019              		.loc 1 692 9 is_stmt 1 view .LVU472
 2020              		.loc 1 692 10 is_stmt 0 view .LVU473
 2021 0068 029B     		ldr	r3, [sp, #8]
 2022 006a 0133     		adds	r3, r3, #1
 2023 006c 9DB2     		uxth	r5, r3
 2024 006e 1BB2     		sxth	r3, r3
 2025 0070 0293     		str	r3, [sp, #8]
 2026              	.LVL233:
 693:../Bsp/OLED/ssd1306.c ****         ddF_x += 2;
 2027              		.loc 1 693 9 is_stmt 1 view .LVU474
 2028              		.loc 1 693 15 is_stmt 0 view .LVU475
 2029 0072 049B     		ldr	r3, [sp, #16]
 2030 0074 0233     		adds	r3, r3, #2
 2031 0076 1AB2     		sxth	r2, r3
 2032 0078 0492     		str	r2, [sp, #16]
 2033              	.LVL234:
 694:../Bsp/OLED/ssd1306.c ****         f += ddF_x;
 2034              		.loc 1 694 9 is_stmt 1 view .LVU476
 2035              		.loc 1 694 11 is_stmt 0 view .LVU477
 2036 007a 19FA83F3 		uxtah	r3, r9, r3
 2037 007e 0FFA83F9 		sxth	r9, r3
 2038              	.LVL235:
 695:../Bsp/OLED/ssd1306.c **** 
ARM GAS  C:\Users\fish\AppData\Local\Temp\ccQbeEVV.s 			page 51


 696:../Bsp/OLED/ssd1306.c ****         SSD1306_DrawPixel(x0 + x, y0 + y, c);
 2039              		.loc 1 696 9 is_stmt 1 view .LVU478
 2040 0082 0BEB0503 		add	r3, fp, r5
 2041 0086 9BB2     		uxth	r3, r3
 2042 0088 BDF80440 		ldrh	r4, [sp, #4]
 2043 008c 0AEB0408 		add	r8, r10, r4
 2044 0090 1FFA88F8 		uxth	r8, r8
 2045 0094 3246     		mov	r2, r6
 2046 0096 4146     		mov	r1, r8
 2047 0098 0393     		str	r3, [sp, #12]
 2048 009a 1846     		mov	r0, r3
 2049 009c FFF7FEFF 		bl	SSD1306_DrawPixel
 2050              	.LVL236:
 697:../Bsp/OLED/ssd1306.c ****         SSD1306_DrawPixel(x0 - x, y0 + y, c);
 2051              		.loc 1 697 9 view .LVU479
 2052 00a0 ABEB0507 		sub	r7, fp, r5
 2053 00a4 BFB2     		uxth	r7, r7
 2054 00a6 3246     		mov	r2, r6
 2055 00a8 4146     		mov	r1, r8
 2056 00aa 3846     		mov	r0, r7
 2057 00ac FFF7FEFF 		bl	SSD1306_DrawPixel
 2058              	.LVL237:
 698:../Bsp/OLED/ssd1306.c ****         SSD1306_DrawPixel(x0 + x, y0 - y, c);
 2059              		.loc 1 698 9 view .LVU480
 2060 00b0 AAEB0408 		sub	r8, r10, r4
 2061 00b4 1FFA88F8 		uxth	r8, r8
 2062 00b8 3246     		mov	r2, r6
 2063 00ba 4146     		mov	r1, r8
 2064 00bc 0398     		ldr	r0, [sp, #12]
 2065 00be FFF7FEFF 		bl	SSD1306_DrawPixel
 2066              	.LVL238:
 699:../Bsp/OLED/ssd1306.c ****         SSD1306_DrawPixel(x0 - x, y0 - y, c);
 2067              		.loc 1 699 9 view .LVU481
 2068 00c2 3246     		mov	r2, r6
 2069 00c4 4146     		mov	r1, r8
 2070 00c6 3846     		mov	r0, r7
 2071 00c8 FFF7FEFF 		bl	SSD1306_DrawPixel
 2072              	.LVL239:
 700:../Bsp/OLED/ssd1306.c **** 
 701:../Bsp/OLED/ssd1306.c ****         SSD1306_DrawPixel(x0 + y, y0 + x, c);
 2073              		.loc 1 701 9 view .LVU482
 2074 00cc 0BEB0407 		add	r7, fp, r4
 2075 00d0 BFB2     		uxth	r7, r7
 2076 00d2 0AEB0508 		add	r8, r10, r5
 2077 00d6 1FFA88F8 		uxth	r8, r8
 2078 00da 3246     		mov	r2, r6
 2079 00dc 4146     		mov	r1, r8
 2080 00de 3846     		mov	r0, r7
 2081 00e0 FFF7FEFF 		bl	SSD1306_DrawPixel
 2082              	.LVL240:
 702:../Bsp/OLED/ssd1306.c ****         SSD1306_DrawPixel(x0 - y, y0 + x, c);
 2083              		.loc 1 702 9 view .LVU483
 2084 00e4 ABEB0404 		sub	r4, fp, r4
 2085 00e8 A4B2     		uxth	r4, r4
 2086 00ea 3246     		mov	r2, r6
 2087 00ec 4146     		mov	r1, r8
 2088 00ee 2046     		mov	r0, r4
ARM GAS  C:\Users\fish\AppData\Local\Temp\ccQbeEVV.s 			page 52


 2089 00f0 FFF7FEFF 		bl	SSD1306_DrawPixel
 2090              	.LVL241:
 703:../Bsp/OLED/ssd1306.c ****         SSD1306_DrawPixel(x0 + y, y0 - x, c);
 2091              		.loc 1 703 9 view .LVU484
 2092 00f4 AAEB0505 		sub	r5, r10, r5
 2093 00f8 ADB2     		uxth	r5, r5
 2094 00fa 3246     		mov	r2, r6
 2095 00fc 2946     		mov	r1, r5
 2096 00fe 3846     		mov	r0, r7
 2097 0100 FFF7FEFF 		bl	SSD1306_DrawPixel
 2098              	.LVL242:
 704:../Bsp/OLED/ssd1306.c ****         SSD1306_DrawPixel(x0 - y, y0 - x, c);
 2099              		.loc 1 704 9 view .LVU485
 2100 0104 3246     		mov	r2, r6
 2101 0106 2946     		mov	r1, r5
 2102 0108 2046     		mov	r0, r4
 2103 010a FFF7FEFF 		bl	SSD1306_DrawPixel
 2104              	.LVL243:
 2105              	.L142:
 686:../Bsp/OLED/ssd1306.c ****         if (f >= 0) {
 2106              		.loc 1 686 14 view .LVU486
 2107 010e 029B     		ldr	r3, [sp, #8]
 2108 0110 019A     		ldr	r2, [sp, #4]
 2109 0112 9342     		cmp	r3, r2
 2110 0114 0FDA     		bge	.L146
 687:../Bsp/OLED/ssd1306.c ****             y--;
 2111              		.loc 1 687 9 view .LVU487
 687:../Bsp/OLED/ssd1306.c ****             y--;
 2112              		.loc 1 687 12 is_stmt 0 view .LVU488
 2113 0116 B9F1000F 		cmp	r9, #0
 2114 011a A5DB     		blt	.L143
 688:../Bsp/OLED/ssd1306.c ****             ddF_y += 2;
 2115              		.loc 1 688 13 is_stmt 1 view .LVU489
 688:../Bsp/OLED/ssd1306.c ****             ddF_y += 2;
 2116              		.loc 1 688 14 is_stmt 0 view .LVU490
 2117 011c 019B     		ldr	r3, [sp, #4]
 2118 011e 013B     		subs	r3, r3, #1
 2119 0120 1BB2     		sxth	r3, r3
 2120 0122 0193     		str	r3, [sp, #4]
 2121              	.LVL244:
 689:../Bsp/OLED/ssd1306.c ****             f += ddF_y;
 2122              		.loc 1 689 13 is_stmt 1 view .LVU491
 689:../Bsp/OLED/ssd1306.c ****             f += ddF_y;
 2123              		.loc 1 689 19 is_stmt 0 view .LVU492
 2124 0124 059B     		ldr	r3, [sp, #20]
 2125 0126 0233     		adds	r3, r3, #2
 2126 0128 1AB2     		sxth	r2, r3
 2127 012a 0592     		str	r2, [sp, #20]
 2128              	.LVL245:
 690:../Bsp/OLED/ssd1306.c ****         }
 2129              		.loc 1 690 13 is_stmt 1 view .LVU493
 690:../Bsp/OLED/ssd1306.c ****         }
 2130              		.loc 1 690 15 is_stmt 0 view .LVU494
 2131 012c 19FA83F3 		uxtah	r3, r9, r3
 2132 0130 0FFA83F9 		sxth	r9, r3
 2133              	.LVL246:
 690:../Bsp/OLED/ssd1306.c ****         }
ARM GAS  C:\Users\fish\AppData\Local\Temp\ccQbeEVV.s 			page 53


 2134              		.loc 1 690 15 view .LVU495
 2135 0134 98E7     		b	.L143
 2136              	.LVL247:
 2137              	.L146:
 705:../Bsp/OLED/ssd1306.c ****     }
 706:../Bsp/OLED/ssd1306.c **** }
 2138              		.loc 1 706 1 view .LVU496
 2139 0136 07B0     		add	sp, sp, #28
 2140              		.cfi_def_cfa_offset 36
 2141              		@ sp needed
 2142 0138 BDE8F08F 		pop	{r4, r5, r6, r7, r8, r9, r10, fp, pc}
 2143              		.loc 1 706 1 view .LVU497
 2144              		.cfi_endproc
 2145              	.LFE262:
 2147              		.section	.text.SSD1306_DrawFilledCircle,"ax",%progbits
 2148              		.align	1
 2149              		.global	SSD1306_DrawFilledCircle
 2150              		.syntax unified
 2151              		.thumb
 2152              		.thumb_func
 2154              	SSD1306_DrawFilledCircle:
 2155              	.LVL248:
 2156              	.LFB263:
 707:../Bsp/OLED/ssd1306.c **** 
 708:../Bsp/OLED/ssd1306.c **** /**
 709:../Bsp/OLED/ssd1306.c ****  * @brief   绘制填充圆形
 710:../Bsp/OLED/ssd1306.c ****  * @param   x0: 圆心X坐标
 711:../Bsp/OLED/ssd1306.c ****  * @param   y0: 圆心Y坐标
 712:../Bsp/OLED/ssd1306.c ****  * @param   r: 半径
 713:../Bsp/OLED/ssd1306.c ****  * @param   c: 填充颜色
 714:../Bsp/OLED/ssd1306.c ****  */
 715:../Bsp/OLED/ssd1306.c **** void SSD1306_DrawFilledCircle(int16_t x0, int16_t y0, int16_t r, GUI_COLOR c)
 716:../Bsp/OLED/ssd1306.c **** {
 2157              		.loc 1 716 1 is_stmt 1 view -0
 2158              		.cfi_startproc
 2159              		@ args = 0, pretend = 0, frame = 16
 2160              		@ frame_needed = 0, uses_anonymous_args = 0
 2161              		.loc 1 716 1 is_stmt 0 view .LVU499
 2162 0000 2DE9F04F 		push	{r4, r5, r6, r7, r8, r9, r10, fp, lr}
 2163              		.cfi_def_cfa_offset 36
 2164              		.cfi_offset 4, -36
 2165              		.cfi_offset 5, -32
 2166              		.cfi_offset 6, -28
 2167              		.cfi_offset 7, -24
 2168              		.cfi_offset 8, -20
 2169              		.cfi_offset 9, -16
 2170              		.cfi_offset 10, -12
 2171              		.cfi_offset 11, -8
 2172              		.cfi_offset 14, -4
 2173 0004 87B0     		sub	sp, sp, #28
 2174              		.cfi_def_cfa_offset 64
 2175 0006 0292     		str	r2, [sp, #8]
 2176 0008 9A46     		mov	r10, r3
 717:../Bsp/OLED/ssd1306.c ****     int16_t f = 1 - r;
 2177              		.loc 1 717 5 is_stmt 1 view .LVU500
 2178              		.loc 1 717 19 is_stmt 0 view .LVU501
 2179 000a 95B2     		uxth	r5, r2
ARM GAS  C:\Users\fish\AppData\Local\Temp\ccQbeEVV.s 			page 54


 2180 000c C5F10104 		rsb	r4, r5, #1
 2181              		.loc 1 717 13 view .LVU502
 2182 0010 24B2     		sxth	r4, r4
 2183              	.LVL249:
 718:../Bsp/OLED/ssd1306.c ****     int16_t ddF_x = 1;
 2184              		.loc 1 718 5 is_stmt 1 view .LVU503
 719:../Bsp/OLED/ssd1306.c ****     int16_t ddF_y = -2 * r;
 2185              		.loc 1 719 5 view .LVU504
 2186              		.loc 1 719 24 is_stmt 0 view .LVU505
 2187 0012 C5EBC533 		rsb	r3, r5, r5, lsl #15
 2188              	.LVL250:
 2189              		.loc 1 719 24 view .LVU506
 2190 0016 5B00     		lsls	r3, r3, #1
 2191              		.loc 1 719 13 view .LVU507
 2192 0018 1BB2     		sxth	r3, r3
 2193 001a 0593     		str	r3, [sp, #20]
 2194              	.LVL251:
 720:../Bsp/OLED/ssd1306.c ****     int16_t x = 0;
 2195              		.loc 1 720 5 is_stmt 1 view .LVU508
 721:../Bsp/OLED/ssd1306.c ****     int16_t y = r;
 2196              		.loc 1 721 5 view .LVU509
 722:../Bsp/OLED/ssd1306.c **** 
 723:../Bsp/OLED/ssd1306.c ****     SSD1306_DrawPixel(x0, y0 + r, c);
 2197              		.loc 1 723 5 view .LVU510
 2198 001c 1FFA80FB 		uxth	fp, r0
 2199 0020 8FB2     		uxth	r7, r1
 2200 0022 E919     		adds	r1, r5, r7
 2201              	.LVL252:
 2202              		.loc 1 723 5 is_stmt 0 view .LVU511
 2203 0024 5246     		mov	r2, r10
 2204              	.LVL253:
 2205              		.loc 1 723 5 view .LVU512
 2206 0026 89B2     		uxth	r1, r1
 2207 0028 5846     		mov	r0, fp
 2208              		.loc 1 723 5 view .LVU513
 2209 002a FFF7FEFF 		bl	SSD1306_DrawPixel
 2210              	.LVL254:
 724:../Bsp/OLED/ssd1306.c ****     SSD1306_DrawPixel(x0, y0 - r, c);
 2211              		.loc 1 724 5 is_stmt 1 view .LVU514
 2212 002e 791B     		subs	r1, r7, r5
 2213 0030 5246     		mov	r2, r10
 2214 0032 89B2     		uxth	r1, r1
 2215 0034 5846     		mov	r0, fp
 2216 0036 FFF7FEFF 		bl	SSD1306_DrawPixel
 2217              	.LVL255:
 725:../Bsp/OLED/ssd1306.c ****     SSD1306_DrawPixel(x0 + r, y0, c);
 2218              		.loc 1 725 5 view .LVU515
 2219 003a 05EB0B06 		add	r6, r5, fp
 2220 003e B6B2     		uxth	r6, r6
 2221 0040 5246     		mov	r2, r10
 2222 0042 3946     		mov	r1, r7
 2223 0044 3046     		mov	r0, r6
 2224 0046 FFF7FEFF 		bl	SSD1306_DrawPixel
 2225              	.LVL256:
 726:../Bsp/OLED/ssd1306.c ****     SSD1306_DrawPixel(x0 - r, y0, c);
 2226              		.loc 1 726 5 view .LVU516
 2227 004a ABEB0505 		sub	r5, fp, r5
ARM GAS  C:\Users\fish\AppData\Local\Temp\ccQbeEVV.s 			page 55


 2228              	.LVL257:
 2229              		.loc 1 726 5 is_stmt 0 view .LVU517
 2230 004e ADB2     		uxth	r5, r5
 2231 0050 5246     		mov	r2, r10
 2232 0052 3946     		mov	r1, r7
 2233 0054 2846     		mov	r0, r5
 2234 0056 FFF7FEFF 		bl	SSD1306_DrawPixel
 2235              	.LVL258:
 727:../Bsp/OLED/ssd1306.c ****     SSD1306_DrawLine(x0 - r, y0, x0 + r, y0, c);
 2236              		.loc 1 727 5 is_stmt 1 view .LVU518
 2237 005a CDF800A0 		str	r10, [sp]
 2238 005e 3B46     		mov	r3, r7
 2239 0060 3246     		mov	r2, r6
 2240 0062 3946     		mov	r1, r7
 2241 0064 2846     		mov	r0, r5
 2242 0066 FFF7FEFF 		bl	SSD1306_DrawLine
 2243              	.LVL259:
 728:../Bsp/OLED/ssd1306.c **** 
 729:../Bsp/OLED/ssd1306.c ****     while (x < y) {
 2244              		.loc 1 729 5 view .LVU519
 720:../Bsp/OLED/ssd1306.c ****     int16_t y = r;
 2245              		.loc 1 720 13 is_stmt 0 view .LVU520
 2246 006a 0023     		movs	r3, #0
 2247 006c 0393     		str	r3, [sp, #12]
 718:../Bsp/OLED/ssd1306.c ****     int16_t ddF_y = -2 * r;
 2248              		.loc 1 718 13 view .LVU521
 2249 006e 0123     		movs	r3, #1
 2250 0070 0493     		str	r3, [sp, #16]
 2251              		.loc 1 729 11 view .LVU522
 2252 0072 40E0     		b	.L148
 2253              	.LVL260:
 2254              	.L149:
 730:../Bsp/OLED/ssd1306.c ****         if (f >= 0) {
 731:../Bsp/OLED/ssd1306.c ****             y--;
 732:../Bsp/OLED/ssd1306.c ****             ddF_y += 2;
 733:../Bsp/OLED/ssd1306.c ****             f += ddF_y;
 734:../Bsp/OLED/ssd1306.c ****         }
 735:../Bsp/OLED/ssd1306.c ****         x++;
 2255              		.loc 1 735 9 is_stmt 1 view .LVU523
 2256              		.loc 1 735 10 is_stmt 0 view .LVU524
 2257 0074 039B     		ldr	r3, [sp, #12]
 2258 0076 0133     		adds	r3, r3, #1
 2259 0078 9DB2     		uxth	r5, r3
 2260 007a 1BB2     		sxth	r3, r3
 2261 007c 0393     		str	r3, [sp, #12]
 2262              	.LVL261:
 736:../Bsp/OLED/ssd1306.c ****         ddF_x += 2;
 2263              		.loc 1 736 9 is_stmt 1 view .LVU525
 2264              		.loc 1 736 15 is_stmt 0 view .LVU526
 2265 007e 049B     		ldr	r3, [sp, #16]
 2266 0080 0233     		adds	r3, r3, #2
 2267 0082 1AB2     		sxth	r2, r3
 2268 0084 0492     		str	r2, [sp, #16]
 2269              	.LVL262:
 737:../Bsp/OLED/ssd1306.c ****         f += ddF_x;
 2270              		.loc 1 737 9 is_stmt 1 view .LVU527
 2271              		.loc 1 737 11 is_stmt 0 view .LVU528
ARM GAS  C:\Users\fish\AppData\Local\Temp\ccQbeEVV.s 			page 56


 2272 0086 14FA83F3 		uxtah	r3, r4, r3
 2273 008a 1CB2     		sxth	r4, r3
 2274              	.LVL263:
 738:../Bsp/OLED/ssd1306.c **** 
 739:../Bsp/OLED/ssd1306.c ****         SSD1306_DrawLine(x0 - x, y0 + y, x0 + x, y0 + y, c);
 2275              		.loc 1 739 9 is_stmt 1 view .LVU529
 2276 008c ABEB0509 		sub	r9, fp, r5
 2277 0090 1FFA89F9 		uxth	r9, r9
 2278 0094 BDF80860 		ldrh	r6, [sp, #8]
 2279 0098 B919     		adds	r1, r7, r6
 2280 009a 89B2     		uxth	r1, r1
 2281 009c 0BEB0508 		add	r8, fp, r5
 2282 00a0 1FFA88F8 		uxth	r8, r8
 2283 00a4 CDF800A0 		str	r10, [sp]
 2284 00a8 0B46     		mov	r3, r1
 2285 00aa 4246     		mov	r2, r8
 2286 00ac 4846     		mov	r0, r9
 2287 00ae FFF7FEFF 		bl	SSD1306_DrawLine
 2288              	.LVL264:
 740:../Bsp/OLED/ssd1306.c ****         SSD1306_DrawLine(x0 + x, y0 - y, x0 - x, y0 - y, c);
 2289              		.loc 1 740 9 view .LVU530
 2290 00b2 B91B     		subs	r1, r7, r6
 2291 00b4 89B2     		uxth	r1, r1
 2292 00b6 CDF800A0 		str	r10, [sp]
 2293 00ba 0B46     		mov	r3, r1
 2294 00bc 4A46     		mov	r2, r9
 2295 00be 4046     		mov	r0, r8
 2296 00c0 FFF7FEFF 		bl	SSD1306_DrawLine
 2297              	.LVL265:
 741:../Bsp/OLED/ssd1306.c **** 
 742:../Bsp/OLED/ssd1306.c ****         SSD1306_DrawLine(x0 + y, y0 + x, x0 - y, y0 + x, c);
 2298              		.loc 1 742 9 view .LVU531
 2299 00c4 0BEB0608 		add	r8, fp, r6
 2300 00c8 1FFA88F8 		uxth	r8, r8
 2301 00cc 7919     		adds	r1, r7, r5
 2302 00ce 89B2     		uxth	r1, r1
 2303 00d0 ABEB0606 		sub	r6, fp, r6
 2304 00d4 B6B2     		uxth	r6, r6
 2305 00d6 CDF800A0 		str	r10, [sp]
 2306 00da 0B46     		mov	r3, r1
 2307 00dc 3246     		mov	r2, r6
 2308 00de 4046     		mov	r0, r8
 2309 00e0 FFF7FEFF 		bl	SSD1306_DrawLine
 2310              	.LVL266:
 743:../Bsp/OLED/ssd1306.c ****         SSD1306_DrawLine(x0 + y, y0 - x, x0 - y, y0 - x, c);
 2311              		.loc 1 743 9 view .LVU532
 2312 00e4 791B     		subs	r1, r7, r5
 2313 00e6 89B2     		uxth	r1, r1
 2314 00e8 CDF800A0 		str	r10, [sp]
 2315 00ec 0B46     		mov	r3, r1
 2316 00ee 3246     		mov	r2, r6
 2317 00f0 4046     		mov	r0, r8
 2318 00f2 FFF7FEFF 		bl	SSD1306_DrawLine
 2319              	.LVL267:
 2320              	.L148:
 729:../Bsp/OLED/ssd1306.c ****         if (f >= 0) {
 2321              		.loc 1 729 14 view .LVU533
ARM GAS  C:\Users\fish\AppData\Local\Temp\ccQbeEVV.s 			page 57


 2322 00f6 039B     		ldr	r3, [sp, #12]
 2323 00f8 029A     		ldr	r2, [sp, #8]
 2324 00fa 9342     		cmp	r3, r2
 2325 00fc 0DDA     		bge	.L152
 730:../Bsp/OLED/ssd1306.c ****             y--;
 2326              		.loc 1 730 9 view .LVU534
 730:../Bsp/OLED/ssd1306.c ****             y--;
 2327              		.loc 1 730 12 is_stmt 0 view .LVU535
 2328 00fe 002C     		cmp	r4, #0
 2329 0100 B8DB     		blt	.L149
 731:../Bsp/OLED/ssd1306.c ****             ddF_y += 2;
 2330              		.loc 1 731 13 is_stmt 1 view .LVU536
 731:../Bsp/OLED/ssd1306.c ****             ddF_y += 2;
 2331              		.loc 1 731 14 is_stmt 0 view .LVU537
 2332 0102 029B     		ldr	r3, [sp, #8]
 2333 0104 013B     		subs	r3, r3, #1
 2334 0106 1BB2     		sxth	r3, r3
 2335 0108 0293     		str	r3, [sp, #8]
 2336              	.LVL268:
 732:../Bsp/OLED/ssd1306.c ****             f += ddF_y;
 2337              		.loc 1 732 13 is_stmt 1 view .LVU538
 732:../Bsp/OLED/ssd1306.c ****             f += ddF_y;
 2338              		.loc 1 732 19 is_stmt 0 view .LVU539
 2339 010a 059B     		ldr	r3, [sp, #20]
 2340 010c 0233     		adds	r3, r3, #2
 2341 010e 1AB2     		sxth	r2, r3
 2342 0110 0592     		str	r2, [sp, #20]
 2343              	.LVL269:
 733:../Bsp/OLED/ssd1306.c ****         }
 2344              		.loc 1 733 13 is_stmt 1 view .LVU540
 733:../Bsp/OLED/ssd1306.c ****         }
 2345              		.loc 1 733 15 is_stmt 0 view .LVU541
 2346 0112 14FA83F3 		uxtah	r3, r4, r3
 2347 0116 1CB2     		sxth	r4, r3
 2348              	.LVL270:
 733:../Bsp/OLED/ssd1306.c ****         }
 2349              		.loc 1 733 15 view .LVU542
 2350 0118 ACE7     		b	.L149
 2351              	.LVL271:
 2352              	.L152:
 744:../Bsp/OLED/ssd1306.c ****     }
 745:../Bsp/OLED/ssd1306.c **** }
 2353              		.loc 1 745 1 view .LVU543
 2354 011a 07B0     		add	sp, sp, #28
 2355              		.cfi_def_cfa_offset 36
 2356              		@ sp needed
 2357 011c BDE8F08F 		pop	{r4, r5, r6, r7, r8, r9, r10, fp, pc}
 2358              		.loc 1 745 1 view .LVU544
 2359              		.cfi_endproc
 2360              	.LFE263:
 2362              		.section	.text.SSD1306_ON,"ax",%progbits
 2363              		.align	1
 2364              		.global	SSD1306_ON
 2365              		.syntax unified
 2366              		.thumb
 2367              		.thumb_func
 2369              	SSD1306_ON:
ARM GAS  C:\Users\fish\AppData\Local\Temp\ccQbeEVV.s 			page 58


 2370              	.LFB264:
 746:../Bsp/OLED/ssd1306.c **** 
 747:../Bsp/OLED/ssd1306.c **** /**
 748:../Bsp/OLED/ssd1306.c ****  * @brief   开启OLED显示
 749:../Bsp/OLED/ssd1306.c ****  * @details 开启电荷泵并打开显示
 750:../Bsp/OLED/ssd1306.c ****  */
 751:../Bsp/OLED/ssd1306.c **** void SSD1306_ON(void)
 752:../Bsp/OLED/ssd1306.c **** {
 2371              		.loc 1 752 1 is_stmt 1 view -0
 2372              		.cfi_startproc
 2373              		@ args = 0, pretend = 0, frame = 0
 2374              		@ frame_needed = 0, uses_anonymous_args = 0
 2375 0000 08B5     		push	{r3, lr}
 2376              		.cfi_def_cfa_offset 8
 2377              		.cfi_offset 3, -8
 2378              		.cfi_offset 14, -4
 753:../Bsp/OLED/ssd1306.c ****     SSD1306_WriteByte(0x8D, OLED_CMD);
 2379              		.loc 1 753 5 view .LVU546
 2380 0002 0021     		movs	r1, #0
 2381 0004 8D20     		movs	r0, #141
 2382 0006 FFF7FEFF 		bl	SSD1306_WriteByte
 2383              	.LVL272:
 754:../Bsp/OLED/ssd1306.c ****     SSD1306_WriteByte(0x14, OLED_CMD);
 2384              		.loc 1 754 5 view .LVU547
 2385 000a 0021     		movs	r1, #0
 2386 000c 1420     		movs	r0, #20
 2387 000e FFF7FEFF 		bl	SSD1306_WriteByte
 2388              	.LVL273:
 755:../Bsp/OLED/ssd1306.c ****     SSD1306_WriteByte(0xAF, OLED_CMD);
 2389              		.loc 1 755 5 view .LVU548
 2390 0012 0021     		movs	r1, #0
 2391 0014 AF20     		movs	r0, #175
 2392 0016 FFF7FEFF 		bl	SSD1306_WriteByte
 2393              	.LVL274:
 756:../Bsp/OLED/ssd1306.c **** }
 2394              		.loc 1 756 1 is_stmt 0 view .LVU549
 2395 001a 08BD     		pop	{r3, pc}
 2396              		.cfi_endproc
 2397              	.LFE264:
 2399              		.section	.text.SSD1306_OFF,"ax",%progbits
 2400              		.align	1
 2401              		.global	SSD1306_OFF
 2402              		.syntax unified
 2403              		.thumb
 2404              		.thumb_func
 2406              	SSD1306_OFF:
 2407              	.LFB265:
 757:../Bsp/OLED/ssd1306.c **** 
 758:../Bsp/OLED/ssd1306.c **** /**
 759:../Bsp/OLED/ssd1306.c ****  * @brief   关闭OLED显示
 760:../Bsp/OLED/ssd1306.c ****  * @details 关闭电荷泵并关闭显示
 761:../Bsp/OLED/ssd1306.c ****  */
 762:../Bsp/OLED/ssd1306.c **** void SSD1306_OFF(void)
 763:../Bsp/OLED/ssd1306.c **** {
 2408              		.loc 1 763 1 is_stmt 1 view -0
 2409              		.cfi_startproc
 2410              		@ args = 0, pretend = 0, frame = 0
ARM GAS  C:\Users\fish\AppData\Local\Temp\ccQbeEVV.s 			page 59


 2411              		@ frame_needed = 0, uses_anonymous_args = 0
 2412 0000 08B5     		push	{r3, lr}
 2413              		.cfi_def_cfa_offset 8
 2414              		.cfi_offset 3, -8
 2415              		.cfi_offset 14, -4
 764:../Bsp/OLED/ssd1306.c ****     SSD1306_WriteByte(0x8D, OLED_CMD);
 2416              		.loc 1 764 5 view .LVU551
 2417 0002 0021     		movs	r1, #0
 2418 0004 8D20     		movs	r0, #141
 2419 0006 FFF7FEFF 		bl	SSD1306_WriteByte
 2420              	.LVL275:
 765:../Bsp/OLED/ssd1306.c ****     SSD1306_WriteByte(0x10, OLED_CMD);
 2421              		.loc 1 765 5 view .LVU552
 2422 000a 0021     		movs	r1, #0
 2423 000c 1020     		movs	r0, #16
 2424 000e FFF7FEFF 		bl	SSD1306_WriteByte
 2425              	.LVL276:
 766:../Bsp/OLED/ssd1306.c ****     SSD1306_WriteByte(0xAE, OLED_CMD);
 2426              		.loc 1 766 5 view .LVU553
 2427 0012 0021     		movs	r1, #0
 2428 0014 AE20     		movs	r0, #174
 2429 0016 FFF7FEFF 		bl	SSD1306_WriteByte
 2430              	.LVL277:
 767:../Bsp/OLED/ssd1306.c **** }
 2431              		.loc 1 767 1 is_stmt 0 view .LVU554
 2432 001a 08BD     		pop	{r3, pc}
 2433              		.cfi_endproc
 2434              	.LFE265:
 2436              		.section	.bss.SSD1306,"aw",%nobits
 2437              		.align	2
 2440              	SSD1306:
 2441 0000 00000000 		.space	6
 2441      0000
 2442              		.global	OLED_ChipType
 2443              		.section	.bss.OLED_ChipType,"aw",%nobits
 2446              	OLED_ChipType:
 2447 0000 00       		.space	1
 2448              		.section	.bss.SSD_Trans,"aw",%nobits
 2451              	SSD_Trans:
 2452 0000 00       		.space	1
 2453              		.section	.bss.SSD1306_Buffer,"aw",%nobits
 2454              		.align	2
 2457              	SSD1306_Buffer:
 2458 0000 00000000 		.space	1024
 2458      00000000 
 2458      00000000 
 2458      00000000 
 2458      00000000 
 2459              		.text
 2460              	.Letext0:
 2461              		.file 2 "C:/STM32/arm-none-eabi-gcc/14.2.1-1.1.1/.content/arm-none-eabi/include/machine/_default_t
 2462              		.file 3 "C:/STM32/arm-none-eabi-gcc/14.2.1-1.1.1/.content/arm-none-eabi/include/sys/_stdint.h"
 2463              		.file 4 "Drivers/CMSIS/Device/ST/STM32F4xx/Include/stm32f407xx.h"
 2464              		.file 5 "Drivers/STM32F4xx_HAL_Driver/Inc/stm32f4xx_hal_def.h"
 2465              		.file 6 "Drivers/STM32F4xx_HAL_Driver/Inc/stm32f4xx_hal_dma.h"
 2466              		.file 7 "Drivers/STM32F4xx_HAL_Driver/Inc/stm32f4xx_hal_i2c.h"
 2467              		.file 8 "../Bsp/OLED/gui.h"
ARM GAS  C:\Users\fish\AppData\Local\Temp\ccQbeEVV.s 			page 60


 2468              		.file 9 "Middlewares/Third_Party/FreeRTOS/Source/CMSIS_RTOS_V2/cmsis_os2.h"
 2469              		.file 10 "Core/Inc/i2c.h"
 2470              		.file 11 "C:/STM32/arm-none-eabi-gcc/14.2.1-1.1.1/.content/arm-none-eabi/include/string.h"
 2471              		.file 12 "Drivers/STM32F4xx_HAL_Driver/Inc/stm32f4xx_hal.h"
ARM GAS  C:\Users\fish\AppData\Local\Temp\ccQbeEVV.s 			page 61

