ARM GAS  C:\Users\fish\AppData\Local\Temp\ccIMbRKB.s 			page 1


   1              		.cpu cortex-m4
   2              		.arch armv7e-m
   3              		.fpu fpv4-sp-d16
   4              		.eabi_attribute 27, 1
   5              		.eabi_attribute 28, 1
   6              		.eabi_attribute 20, 1
   7              		.eabi_attribute 21, 1
   8              		.eabi_attribute 23, 3
   9              		.eabi_attribute 24, 1
  10              		.eabi_attribute 25, 1
  11              		.eabi_attribute 26, 1
  12              		.eabi_attribute 30, 1
  13              		.eabi_attribute 34, 1
  14              		.eabi_attribute 18, 4
  15              		.file	"esp01s.c"
  16              		.text
  17              	.Ltext0:
  18              		.cfi_sections	.debug_frame
  19              		.file 1 "../Bsp/ESP01/esp01s.c"
  20              		.section	.text.DecToBcd,"ax",%progbits
  21              		.align	1
  22              		.syntax unified
  23              		.thumb
  24              		.thumb_func
  26              	DecToBcd:
  27              	.LVL0:
  28              	.LFB270:
   1:../Bsp/ESP01/esp01s.c **** /**
   2:../Bsp/ESP01/esp01s.c ****  * @file    esp01s.c
   3:../Bsp/ESP01/esp01s.c ****  * @brief   ESP-01S WiFiๆจกๅ้ฉฑๅจๅฎ็ฐ - ๅบไบUartDrv้็จไธฒๅฃ้ฉฑๅจ
   4:../Bsp/ESP01/esp01s.c ****  * @version 1.0
   5:../Bsp/ESP01/esp01s.c ****  *
   6:../Bsp/ESP01/esp01s.c ****  * @par ๆถๆ่ฏดๆ
   7:../Bsp/ESP01/esp01s.c ****  *   ้ฉฑๅจๅ้จ็ปดๆคๅไพๅฎไพ s_esp01s,็จๆทๆ ้ๅฎไนESP01S_tๅ้ใ
   8:../Bsp/ESP01/esp01s.c ****  *   ้ป่ฎค้็ฝฎ่งไธๆน s_defaultConfig,ๅฏ็ดๆฅๅจๆญคไฟฎๆนใ
   9:../Bsp/ESP01/esp01s.c ****  *
  10:../Bsp/ESP01/esp01s.c ****  * @par NTPๆๆถๅๆจกๅผ่ชๅจๅ้
  11:../Bsp/ESP01/esp01s.c ****  *   1. ATๆไปคSNTP (AT+CIPSNTPCFG + AT+CIPSNTPTIME) - ้่ฆๅบไปถv1.7.0+
  12:../Bsp/ESP01/esp01s.c ****  *   2. UDP NTPๅ่ฎฎ - ้่ฟUDP็ด่ฟNTPๆๅกๅจๅ้/่งฃๆNTPๆฅๆ,้็จๆนๆก
  13:../Bsp/ESP01/esp01s.c ****  *   ๅๅฐ่ฏๆนๅผ1,่ฅ่ฟๅ็ๅนดไปฝ<=2000(่ฏดๆๅบไปถไธๆฏๆ),ๅ่ชๅจๅ้ๅฐๆนๅผ2ใ
  14:../Bsp/ESP01/esp01s.c ****  *
  15:../Bsp/ESP01/esp01s.c ****  * @par ESP8266ๅ่ฟๆฅ้ๅถ
  16:../Bsp/ESP01/esp01s.c ****  *   ESP8266ๅ่ฟๆฅๆจกๅผ(CIPMUX=0)ไธๅช่ฝ็ปดๆไธๆก่ฟๆฅ,
  17:../Bsp/ESP01/esp01s.c ****  *   UDP NTP้่ฆๅๅณ้ญๅทฒๆ่ฟๆฅ,่ทๅๆถ้ดๅๅๅปบ็ซTCP่ฟๆฅใ
  18:../Bsp/ESP01/esp01s.c ****  *   ๅ ๆญคNTPๆๆถๅฟ้กปๅจTCP่ฟๆฅไนๅ่ฟ่ก(ESP01S_Startๅทฒ่ชๅจๅค็)ใ
  19:../Bsp/ESP01/esp01s.c ****  *
  20:../Bsp/ESP01/esp01s.c ****  * @par ็ถๆๆบ
  21:../Bsp/ESP01/esp01s.c ****  *   IDLE โ AT_OK โ WIFI_CONNECTING โ WIFI_CONNECTED
  22:../Bsp/ESP01/esp01s.c ****  *        โ TCP_CONNECTING โ TCP_CONNECTED โ TRANSPARENT
  23:../Bsp/ESP01/esp01s.c ****  *   ็ถๆ็ฑATๅๅบๅจๅ่ฐไธญๆจๅจ,ESP01S_Startไธญ้่ฟๆฏ่พ็ถๆๅผๅคๆญๅ้ถๆฎตๆฏๅฆๆ
  24:../Bsp/ESP01/esp01s.c ****  */
  25:../Bsp/ESP01/esp01s.c **** 
  26:../Bsp/ESP01/esp01s.c **** #include "esp01s.h"
  27:../Bsp/ESP01/esp01s.c **** #include "rtc.h"
  28:../Bsp/ESP01/esp01s.c **** 
  29:../Bsp/ESP01/esp01s.c **** #ifndef ESP01S_NO_FREERTOS
  30:../Bsp/ESP01/esp01s.c **** #include "cmsis_os.h"
ARM GAS  C:\Users\fish\AppData\Local\Temp\ccIMbRKB.s 			page 2


  31:../Bsp/ESP01/esp01s.c **** #define ESP01S_DELAY(ms)    osDelay(ms)
  32:../Bsp/ESP01/esp01s.c **** #else
  33:../Bsp/ESP01/esp01s.c **** #define ESP01S_DELAY(ms)    HAL_Delay(ms)
  34:../Bsp/ESP01/esp01s.c **** #endif
  35:../Bsp/ESP01/esp01s.c **** #include <stdio.h>
  36:../Bsp/ESP01/esp01s.c **** #include <stdlib.h>
  37:../Bsp/ESP01/esp01s.c **** #include <string.h>
  38:../Bsp/ESP01/esp01s.c **** 
  39:../Bsp/ESP01/esp01s.c **** /* ====== ๅ้จๅฎไพไธ้ป่ฎค้็ฝฎ ====== */
  40:../Bsp/ESP01/esp01s.c **** 
  41:../Bsp/ESP01/esp01s.c **** /**
  42:../Bsp/ESP01/esp01s.c ****  * @brief  ESP01S้ฉฑๅจๅฎไพ็ปๆ(ๅ้จไฝฟ็จ,ไธๆด้ฒ็ป็จๆท)
  43:../Bsp/ESP01/esp01s.c ****  * @note   ้็จๅไพๆจกๅผ,ๆดไธช้ฉฑๅจๅชๆไธไธชๅฎไพ s_esp01sใ
  44:../Bsp/ESP01/esp01s.c ****  *         pUartDrv: ๅบๅฑไธฒๅฃ้ฉฑๅจ,้่ฟๅฎๅ้ATๆไปคๅๆฅๆถๅๅบ
  45:../Bsp/ESP01/esp01s.c ****  *         config:   ๅฝๅ็ๆ็้็ฝฎ(WiFi/TCP/NTPๅๆฐ)
  46:../Bsp/ESP01/esp01s.c ****  *         state:    ็ถๆๆบๅฝๅ็ถๆ
  47:../Bsp/ESP01/esp01s.c ****  *         strAPName/strESPName: ็ผๅญๆฅ่ฏขๅฐ็็ญ็นๅ/APๅ,็จไบๅคๆญๆฏๅฆ้่ฆ้ๆฐ่ฟ
  48:../Bsp/ESP01/esp01s.c ****  *         pDataCb/pUserCtx: ้ไผ ๆฐๆฎๆฅๆถๅ่ฐ
  49:../Bsp/ESP01/esp01s.c ****  *         ntpTime/ntpTimeValid: ๆ่ฟไธๆฌกNTPๆๆถ็ปๆ
  50:../Bsp/ESP01/esp01s.c ****  *         ntpUdpPending: UDP NTP็ญๅพๆ ๅฟ(ๅ่ฐไธญๆ นๆฎๆญคๆ ๅฟไผๅ่งฃๆ+IPDๆฐๆฎ)
  51:../Bsp/ESP01/esp01s.c ****  *         ntpTick: NTPๆๆถๆๅๆถ็HAL_Tickๅผ,็จไบๆถ้ดๆจ็ฎๅๅปถ่ฟ่กฅๅฟ
  52:../Bsp/ESP01/esp01s.c ****  *         ntpUnixTimestamp: NTPๆๆถๆถ็UTC Unixๆถ้ดๆณ,็จไบๆจ็ฎๅฝๅๆถ้ด
  53:../Bsp/ESP01/esp01s.c ****  */
  54:../Bsp/ESP01/esp01s.c **** typedef struct {
  55:../Bsp/ESP01/esp01s.c ****     UartDrv_t            *pUartDrv;        /**< ๅบๅฑไธฒๅฃ้ฉฑๅจๆ้(ESP01S้ไฟกไธฒๅฃ) */
  56:../Bsp/ESP01/esp01s.c ****     ESP01S_Config_t       config;          /**< ๅฝๅ็ๆ็้็ฝฎๅๆฐ */
  57:../Bsp/ESP01/esp01s.c ****     ESP01S_State_t        state;           /**< ็ถๆๆบๅฝๅ็ถๆ */
  58:../Bsp/ESP01/esp01s.c ****     char                  strAPName[32];   /**< ็ผๅญ: ๅฝๅ่ฟๆฅ็็ญ็นๅ็งฐ */
  59:../Bsp/ESP01/esp01s.c ****     char                  strESPName[32];  /**< ็ผๅญ: ๆจกๅ่ช่บซAPๅ็งฐ */
  60:../Bsp/ESP01/esp01s.c ****     ESP01S_DataCallback_t pDataCb;         /**< ้ไผ ๆฐๆฎๆฅๆถๅ่ฐๅฝๆฐ */
  61:../Bsp/ESP01/esp01s.c ****     void                 *pUserCtx;        /**< ้ไผ ๅ่ฐ็จๆทไธไธๆ */
  62:../Bsp/ESP01/esp01s.c **** #ifndef ESP01S_NO_FREERTOS
  63:../Bsp/ESP01/esp01s.c ****     osMessageQueueId_t    rxQueue;         /**< ้ไผ ๆฐๆฎๆฅๆถ้ๅๅฅๆ */
  64:../Bsp/ESP01/esp01s.c **** #endif
  65:../Bsp/ESP01/esp01s.c ****     ESP01S_NtpTime_t      ntpTime;         /**< ๆ่ฟไธๆฌกNTPๆๆถๆถ้ด(ๆฌๅฐๆถ้ด) */
  66:../Bsp/ESP01/esp01s.c ****     uint8_t               ntpTimeValid;    /**< NTPๆถ้ดๆฏๅฆๆๆ(1=ๆๆ) */
  67:../Bsp/ESP01/esp01s.c ****     uint8_t               ntpUdpPending;   /**< UDP NTP็ญๅพๆ ๅฟ(1=ๆญฃๅจ็ญๅพNTPๅๅบ) */
  68:../Bsp/ESP01/esp01s.c ****     uint32_t              ntpTick;         /**< NTPๆๆถๆๅ็ฌ้ด็HAL_Tickๅผ */
  69:../Bsp/ESP01/esp01s.c ****     uint32_t              ntpUnixTimestamp; /**< NTPๆๆถๆถ็UTC Unixๆถ้ดๆณ */
  70:../Bsp/ESP01/esp01s.c ****     uint8_t               weatherPending;  /**< ๅคฉๆฐHTTPๆฅ่ฏข็ญๅพๆ ๅฟ(1=ๆญฃๅจ็ญๅพๅๅบ) 
  71:../Bsp/ESP01/esp01s.c ****     char                  weatherRxBuf[1024]; /**< ๅคฉๆฐHTTPๅๅบๆฅๆถ็ผๅฒๅบ */
  72:../Bsp/ESP01/esp01s.c ****     uint16_t              weatherRxLen;    /**< ๅคฉๆฐๅๅบๅทฒๆฅๆถๅญ่ๆฐ */
  73:../Bsp/ESP01/esp01s.c ****     char                  cipdomainResult[20]; /**< AT+CIPDOMAIN่งฃๆ็ปๆ(็นๅๅ่ฟๅถIP) */
  74:../Bsp/ESP01/esp01s.c **** } ESP01S_Instance_t;
  75:../Bsp/ESP01/esp01s.c **** 
  76:../Bsp/ESP01/esp01s.c **** /**
  77:../Bsp/ESP01/esp01s.c ****  * @brief  ้ป่ฎค้็ฝฎ - ็จๆทๅฏ็ดๆฅๅจๆญคไฟฎๆนWiFi็ญ็นใTCPๆๅกๅจใNTPๆๅกๅจ็ญๅ
  78:../Bsp/ESP01/esp01s.c ****  * @note   ไนๅฏไปฅ้่ฟ ESP01S_SetConfig/SetWiFi/SetTcpServer/SetNtpServer ่ฟ่กๆถไฟฎๆน
  79:../Bsp/ESP01/esp01s.c ****  */
  80:../Bsp/ESP01/esp01s.c **** static ESP01S_Config_t s_defaultConfig = {
  81:../Bsp/ESP01/esp01s.c ****     .ssid        = "FISHZZ",           /**< WiFi็ญ็นๅ็งฐ */
  82:../Bsp/ESP01/esp01s.c ****     .password    = "999888777",        /**< WiFiๅฏ็  */
  83:../Bsp/ESP01/esp01s.c ****     .tcpServerIP = "192.168.137.1",    /**< TCPๆๅกๅจIPๅฐๅ */
  84:../Bsp/ESP01/esp01s.c ****     .tcpPort     = 8081,              /**< TCPๆๅกๅจ็ซฏๅฃๅท */
  85:../Bsp/ESP01/esp01s.c ****     .ntpServer   = "ntp.aliyun.com",   /**< NTPๆๅกๅจ(้ฟ้ไบNTP) */
  86:../Bsp/ESP01/esp01s.c ****     .ntpTimezone = 8,                 /**< ๆถๅบ(ไธๅซๅบ) */
  87:../Bsp/ESP01/esp01s.c **** };
ARM GAS  C:\Users\fish\AppData\Local\Temp\ccIMbRKB.s 			page 3


  88:../Bsp/ESP01/esp01s.c **** 
  89:../Bsp/ESP01/esp01s.c **** /** ้ฉฑๅจๅ้จๅไพๅฎไพ(ๅจๅฑๅฏไธ,็จๆทๆ ้ๅฎไน) */
  90:../Bsp/ESP01/esp01s.c **** static ESP01S_Instance_t s_esp01s;
  91:../Bsp/ESP01/esp01s.c **** 
  92:../Bsp/ESP01/esp01s.c **** /**
  93:../Bsp/ESP01/esp01s.c ****  * @brief  NTPๅ่ฎฎๅธธ้: 1900-01-01ๅฐ1970-01-01็็งๆฐ
  94:../Bsp/ESP01/esp01s.c ****  * @note   NTPๆถ้ดๆณไป1900ๅนด่ตท็ฎ,Unixๆถ้ดๆณไป1970ๅนด่ตท็ฎ,
  95:../Bsp/ESP01/esp01s.c ****  *         ไธค่็ธๅทฎ70ๅนด็็งๆฐ=2208988800ใ่ฝฌๆขๆถ้ๅๅปๆญคๅ็งป้ใ
  96:../Bsp/ESP01/esp01s.c ****  */
  97:../Bsp/ESP01/esp01s.c **** #define NTP_UNIX_OFFSET     2208988800UL
  98:../Bsp/ESP01/esp01s.c **** 
  99:../Bsp/ESP01/esp01s.c **** /* ====== ็งๆๅฝๆฐๅฃฐๆ ====== */
 100:../Bsp/ESP01/esp01s.c **** static void ESP01S_RxCallback(UartDrv_RxData_t *pData, void *pUserCtx);     /**< ไธฒๅฃๆฅๆถๅ่ฐ
 101:../Bsp/ESP01/esp01s.c **** static int  ESP01S_RestoreTcpTransparent(void);                              /**< ๆขๅคTCP่ฟๆฅๅน
 102:../Bsp/ESP01/esp01s.c **** static void ESP01S_ProcessATResponse(const char *pstr, uint16_t len);        /**< ATๅๅบ่งฃๆไธ
 103:../Bsp/ESP01/esp01s.c **** static void ESP01S_ParseUdpNtpData(const uint8_t *pBuf, uint16_t len);      /**< +IPDไธญ็UDP NTPๆ
 104:../Bsp/ESP01/esp01s.c **** static void UnixToDateTime(uint32_t timestamp, int timezoneHrs, ESP01S_NtpTime_t *pTime); /**< Unix
 105:../Bsp/ESP01/esp01s.c **** static uint32_t DateTimeToUnix(const ESP01S_NtpTime_t *pTime, int timezoneHrs);           /**< ๆฅๆ
 106:../Bsp/ESP01/esp01s.c **** static uint8_t DecToBcd(uint8_t dec);   /**< ๅ่ฟๅถ่ฝฌBCD */
 107:../Bsp/ESP01/esp01s.c **** static uint8_t BcdToDec(uint8_t bcd);   /**< BCD่ฝฌๅ่ฟๅถ */
 108:../Bsp/ESP01/esp01s.c **** static uint8_t ParseWeekday(const char *str);  /**< ่ฑๆๆๆๅ่ฝฌๆฐๅญ */
 109:../Bsp/ESP01/esp01s.c **** static void FormatDateTime(const ESP01S_NtpTime_t *pTime, DT_Format_t format, char *pBuf, uint16_t 
 110:../Bsp/ESP01/esp01s.c **** 
 111:../Bsp/ESP01/esp01s.c **** /* ====== ๅๅงๅไธๅฏๅ ====== */
 112:../Bsp/ESP01/esp01s.c **** 
 113:../Bsp/ESP01/esp01s.c **** /**
 114:../Bsp/ESP01/esp01s.c ****  * @brief  ๅๅงๅESP01S้ฉฑๅจ(ไฝฟ็จ้ป่ฎค้็ฝฎ)
 115:../Bsp/ESP01/esp01s.c ****  * @param  pUartDrv ๅบๅฑไธฒๅฃ้ฉฑๅจๆ้(้ๅ่ฐ็จUartDrv_Initๅๅงๅ)
 116:../Bsp/ESP01/esp01s.c ****  * @note   ๅๅงๅๆต็จ:
 117:../Bsp/ESP01/esp01s.c ****  *         1. ๆธ้ถๅ้จๅไพๅฎไพ
 118:../Bsp/ESP01/esp01s.c ****  *         2. ็ปๅฎไธฒๅฃ้ฉฑๅจ(ESP01S็ๆๆ้ไฟก้ฝ้่ฟๆญคไธฒๅฃ)
 119:../Bsp/ESP01/esp01s.c ****  *         3. ๆท่ด้ป่ฎค้็ฝฎๅฐๅฎไพ(่ฟ่กๆถๅฏ้่ฟSet*ๅฝๆฐไฟฎๆน)
 120:../Bsp/ESP01/esp01s.c ****  *         4. ่ฎพ็ฝฎๅๅง็ถๆไธบIDLE
 121:../Bsp/ESP01/esp01s.c ****  *         5. ๆณจๅไธฒๅฃๆฅๆถๅ่ฐ(ESP01S_RxCallback),ๅ่ฐไธญไผ ๅฅๅฎไพๆ้ไฝไธบ็จๆทไธ
 122:../Bsp/ESP01/esp01s.c ****  *         ๅๅงๅๅ็ถๆไธบESP01S_STATE_IDLE,้่ฐ็จESP01S_Start()ๅผๅง่ฟๆฅ
 123:../Bsp/ESP01/esp01s.c ****  */
 124:../Bsp/ESP01/esp01s.c **** void ESP01S_Init(UartDrv_t *pUartDrv)
 125:../Bsp/ESP01/esp01s.c **** {
 126:../Bsp/ESP01/esp01s.c ****     if (pUartDrv == NULL)
 127:../Bsp/ESP01/esp01s.c ****         return;
 128:../Bsp/ESP01/esp01s.c **** 
 129:../Bsp/ESP01/esp01s.c ****     /* ๆธ้ถๅฎไพ,็กฎไฟไปๅนฒๅ็ถๆๅผๅง */
 130:../Bsp/ESP01/esp01s.c ****     memset(&s_esp01s, 0, sizeof(ESP01S_Instance_t));
 131:../Bsp/ESP01/esp01s.c **** 
 132:../Bsp/ESP01/esp01s.c ****     /* ็ปๅฎไธฒๅฃ้ฉฑๅจ */
 133:../Bsp/ESP01/esp01s.c ****     s_esp01s.pUartDrv = pUartDrv;
 134:../Bsp/ESP01/esp01s.c **** 
 135:../Bsp/ESP01/esp01s.c ****     /* ๆท่ด้ป่ฎค้็ฝฎๅฐๅฎไพ(ๅ็ปญๅฏ้่ฟSet*APIไฟฎๆน) */
 136:../Bsp/ESP01/esp01s.c ****     memcpy(&s_esp01s.config, &s_defaultConfig, sizeof(ESP01S_Config_t));
 137:../Bsp/ESP01/esp01s.c **** 
 138:../Bsp/ESP01/esp01s.c ****     /* ่ฎพ็ฝฎๅๅง็ถๆ */
 139:../Bsp/ESP01/esp01s.c ****     s_esp01s.state = ESP01S_STATE_IDLE;
 140:../Bsp/ESP01/esp01s.c **** 
 141:../Bsp/ESP01/esp01s.c ****     /* ๆณจๅไธฒๅฃๆฅๆถๅ่ฐ,ๅ่ฐไธญไผ ๅฅๅฎไพๆ้ไฝไธบ็จๆทไธไธๆ,
 142:../Bsp/ESP01/esp01s.c ****      * ่ฟๆ ทๅ่ฐๅฝๆฐๅฏไปฅ่ฎฟ้ฎๅฎไพ็ๆๆๅญๆฎต */
 143:../Bsp/ESP01/esp01s.c ****     UartDrv_RegisterRxCb(pUartDrv, ESP01S_RxCallback, &s_esp01s);
 144:../Bsp/ESP01/esp01s.c **** }
ARM GAS  C:\Users\fish\AppData\Local\Temp\ccIMbRKB.s 			page 4


 145:../Bsp/ESP01/esp01s.c **** 
 146:../Bsp/ESP01/esp01s.c **** #ifndef ESP01S_NO_FREERTOS
 147:../Bsp/ESP01/esp01s.c **** /**
 148:../Bsp/ESP01/esp01s.c ****  * @brief  ๆณจๅESP01S้ไผ ๆฐๆฎๆฅๆถ้ๅ
 149:../Bsp/ESP01/esp01s.c ****  */
 150:../Bsp/ESP01/esp01s.c **** void ESP01S_RegisterRxQueue(osMessageQueueId_t queue)
 151:../Bsp/ESP01/esp01s.c **** {
 152:../Bsp/ESP01/esp01s.c ****     s_esp01s.rxQueue = queue;
 153:../Bsp/ESP01/esp01s.c **** }
 154:../Bsp/ESP01/esp01s.c **** #endif
 155:../Bsp/ESP01/esp01s.c **** 
 156:../Bsp/ESP01/esp01s.c **** /**
 157:../Bsp/ESP01/esp01s.c ****  * @brief  ๅจไปปๅกไธไธๆไธญๅๅ้ไผ ๆฐๆฎๅฐ็จๆทๅ่ฐ
 158:../Bsp/ESP01/esp01s.c ****  */
 159:../Bsp/ESP01/esp01s.c **** void ESP01S_DispatchTransparentData(const uint8_t *pData, uint16_t len)
 160:../Bsp/ESP01/esp01s.c **** {
 161:../Bsp/ESP01/esp01s.c ****     if (pData == NULL || len == 0)
 162:../Bsp/ESP01/esp01s.c ****         return;
 163:../Bsp/ESP01/esp01s.c **** 
 164:../Bsp/ESP01/esp01s.c ****     if (s_esp01s.pDataCb)
 165:../Bsp/ESP01/esp01s.c ****     {
 166:../Bsp/ESP01/esp01s.c ****         s_esp01s.pDataCb(pData, len, s_esp01s.pUserCtx);
 167:../Bsp/ESP01/esp01s.c ****     }
 168:../Bsp/ESP01/esp01s.c **** }
 169:../Bsp/ESP01/esp01s.c **** 
 170:../Bsp/ESP01/esp01s.c **** /**
 171:../Bsp/ESP01/esp01s.c ****  * @brief  ๅฏๅจESP01Sๅฎๆดๆต็จ: ATๆต่ฏ โ WiFi โ NTP โ TCP โ ้ไผ 
 172:../Bsp/ESP01/esp01s.c ****  * @retval 0:ๆๅ  -1:AT้ไฟกๅคฑ่ดฅ  -2:WiFi่ฟๆฅๅคฑ่ดฅ  -3:TCP่ฟๆฅๅคฑ่ดฅ
 173:../Bsp/ESP01/esp01s.c ****  * @note   ๆฌๅฝๆฐไธบ้ปๅกๅผ,้่ฟHAL_Delay็ญๅพATๅๅบ,ๆดไธชๆต็จ็บฆ้10~20็งใ
 174:../Bsp/ESP01/esp01s.c ****  *         ๆฏไธชATๆไปคๅ้ๅ็ญๅพๅบๅฎๆถ้ด,ๅ่ฐไธญ่งฃๆๅๅบๅนถๆจ่ฟ็ถๆใ
 175:../Bsp/ESP01/esp01s.c ****  */
 176:../Bsp/ESP01/esp01s.c **** int ESP01S_Start(void)
 177:../Bsp/ESP01/esp01s.c **** {
 178:../Bsp/ESP01/esp01s.c ****     if (s_esp01s.pUartDrv == NULL)
 179:../Bsp/ESP01/esp01s.c ****         return -1;
 180:../Bsp/ESP01/esp01s.c **** 
 181:../Bsp/ESP01/esp01s.c ****     char buf[128];
 182:../Bsp/ESP01/esp01s.c **** 
 183:../Bsp/ESP01/esp01s.c ****     /* ็ญๅพๆจกๅไธ็ต็จณๅฎ */
 184:../Bsp/ESP01/esp01s.c ****     ESP01S_DELAY(100);
 185:../Bsp/ESP01/esp01s.c **** 
 186:../Bsp/ESP01/esp01s.c ****     /* ๅฏๅจไธฒๅฃๆฅๆถ(็ฉบ้ฒไธญๆญๆจกๅผ) */
 187:../Bsp/ESP01/esp01s.c ****     UartDrv_StartRecv(s_esp01s.pUartDrv);
 188:../Bsp/ESP01/esp01s.c **** 
 189:../Bsp/ESP01/esp01s.c ****     s_esp01s.state = ESP01S_STATE_IDLE;
 190:../Bsp/ESP01/esp01s.c **** 
 191:../Bsp/ESP01/esp01s.c ****     /* ---- ็ฌฌ1ๆญฅ: ้ๅบ้ไผ ๆจกๅผ ----
 192:../Bsp/ESP01/esp01s.c ****      * ้ฒๆญขไธๆฌก่ฟ่ก้็็้ไผ ็ถๆ,+++ไธๅ ๆข่ก็ฌฆ(ESP8266้ไผ ้ๅบๅ่ฎฎ) */
 193:../Bsp/ESP01/esp01s.c ****     ESP01S_SendATCmd("+++", 500);
 194:../Bsp/ESP01/esp01s.c **** 
 195:../Bsp/ESP01/esp01s.c ****     /* ---- ็ฌฌ2ๆญฅ: AT้ไฟกๆต่ฏ ----
 196:../Bsp/ESP01/esp01s.c ****      * ๅ้AT,ๅฆๆๆจกๅๆญฃๅธธๅๅๅคOK,็ถๆๆจ่ฟๅฐAT_OK */
 197:../Bsp/ESP01/esp01s.c ****     ESP01S_SendATCmd("AT\r\n", 1000);
 198:../Bsp/ESP01/esp01s.c **** 
 199:../Bsp/ESP01/esp01s.c ****     if (s_esp01s.state < ESP01S_STATE_AT_OK)
 200:../Bsp/ESP01/esp01s.c ****     {
 201:../Bsp/ESP01/esp01s.c ****         printf("[ESP01S] AT้ไฟกๅคฑ่ดฅ!\r\n");
ARM GAS  C:\Users\fish\AppData\Local\Temp\ccIMbRKB.s 			page 5


 202:../Bsp/ESP01/esp01s.c ****         return -1;
 203:../Bsp/ESP01/esp01s.c ****     }
 204:../Bsp/ESP01/esp01s.c **** 
 205:../Bsp/ESP01/esp01s.c ****     /* ---- ็ฌฌ3ๆญฅ: ๅณ้ญๅๆพ ----
 206:../Bsp/ESP01/esp01s.c ****      * ATE0: ๅณ้ญATๆไปคๅๆพ,ๅๅฐไธฒๅฃๆฐๆฎ้,ไพฟไบ่งฃๆๅๅบ */
 207:../Bsp/ESP01/esp01s.c ****     ESP01S_SendATCmd("ATE0\r\n", 500);
 208:../Bsp/ESP01/esp01s.c **** 
 209:../Bsp/ESP01/esp01s.c ****     /* ---- ็ฌฌ4ๆญฅ: ๅณ้ญๅทฒๆ่ฟๆฅ ----
 210:../Bsp/ESP01/esp01s.c ****      * ไธๆฌก่ฟ่กๅฏ่ฝ้็TCP/UDP่ฟๆฅ,ๅฟ้กปๅๅณ้ญๆ่ฝๆฐๅปบ่ฟๆฅใ
 211:../Bsp/ESP01/esp01s.c ****      * ๅฟฝ็ฅ้่ฏฏ(ๅฆๆๆฒกๆ่ฟๆฅไผ่ฟๅERROR,ๅฑๆญฃๅธธๆๅต) */
 212:../Bsp/ESP01/esp01s.c ****     ESP01S_SendATCmd("AT+CIPCLOSE\r\n", 500);
 213:../Bsp/ESP01/esp01s.c **** 
 214:../Bsp/ESP01/esp01s.c ****     /* ---- ็ฌฌ5ๆญฅ: ๅณ้ญ้ไผ ๆจกๅผ่ฎพ็ฝฎ ----
 215:../Bsp/ESP01/esp01s.c ****      * AT+CIPMODE=0: ไธๆฌก่ฟ่กๅฏ่ฝ้็CIPMODE=1(้ไผ ๆจกๅผ),
 216:../Bsp/ESP01/esp01s.c ****      * ๅฆๆไธๅณ้ญ,ๅ็ปญCIPSENDไผๆฅ้(้ไผ ๆจกๅผไธไธ่ฝ็จๆๅฎ้ฟๅบฆๅ้) */
 217:../Bsp/ESP01/esp01s.c ****     ESP01S_SendATCmd("AT+CIPMODE=0\r\n", 500);
 218:../Bsp/ESP01/esp01s.c **** 
 219:../Bsp/ESP01/esp01s.c ****     /* ---- ็ฌฌ6ๆญฅ: ่ฎพ็ฝฎๅ่ฟๆฅๆจกๅผ ----
 220:../Bsp/ESP01/esp01s.c ****      * AT+CIPMUX=0: ้ไผ ๆจกๅผๅฟ้กปๅจๅ่ฟๆฅๆจกๅผไธๅทฅไฝใ
 221:../Bsp/ESP01/esp01s.c ****      * ๅค่ฟๆฅๆจกๅผ(CIPMUX=1)ไธๆฏๆ้ไผ (CIPMODE=1) */
 222:../Bsp/ESP01/esp01s.c ****     ESP01S_SendATCmd("AT+CIPMUX=0\r\n", 500);
 223:../Bsp/ESP01/esp01s.c **** 
 224:../Bsp/ESP01/esp01s.c ****     /* ---- ็ฌฌ7ๆญฅ: ๆฅ็ๆจกๅ็ๆฌ ----
 225:../Bsp/ESP01/esp01s.c ****      * AT+GMR: ็จไบ็กฎ่ฎคๅบไปถ็ๆฌ,ๅคๆญๆฏๅฆๆฏๆAT SNTP็ญๅ่ฝ */
 226:../Bsp/ESP01/esp01s.c ****     ESP01S_SendATCmd("AT+GMR\r\n", 1000);
 227:../Bsp/ESP01/esp01s.c **** 
 228:../Bsp/ESP01/esp01s.c ****     /* ---- ็ฌฌ8ๆญฅ: ๅผๅฏAP+STAๆจกๅผ ----
 229:../Bsp/ESP01/esp01s.c ****      * AT+CWMODE=3: ๅๆถๅผๅฏAP(็ญ็น)ๅSTA(ๅฎขๆท็ซฏ)ๆจกๅผ,
 230:../Bsp/ESP01/esp01s.c ****      * STAๆจกๅผ็จไบ่ฟๆฅ่ทฏ็ฑๅจ,APๆจกๅผๅ่ฎธๅถไป่ฎพๅค่ฟๆฅๆฌๆจกๅ */
 231:../Bsp/ESP01/esp01s.c ****     ESP01S_SendATCmd("AT+CWMODE=3\r\n", 500);
 232:../Bsp/ESP01/esp01s.c **** 
 233:../Bsp/ESP01/esp01s.c ****     /* ---- ็ฌฌ9ๆญฅ: ๆฅ่ฏขๆจกๅ่ช่บซAPๅ็งฐ ----
 234:../Bsp/ESP01/esp01s.c ****      * AT+CWSAP?: ่ฟๅๅฝๅAP้็ฝฎ,่งฃๆๅบAPๅ็งฐ็ผๅญๅฐstrESPName */
 235:../Bsp/ESP01/esp01s.c ****     ESP01S_SendATCmd("AT+CWSAP?\r\n", 500);
 236:../Bsp/ESP01/esp01s.c **** 
 237:../Bsp/ESP01/esp01s.c ****     /* ---- ็ฌฌ10ๆญฅ: ๆฅ่ฏขๅฝๅ่ฟๆฅ็็ญ็น ----
 238:../Bsp/ESP01/esp01s.c ****      * AT+CWJAP?: ่ฟๅๅฝๅ่ฟๆฅ็WiFi็ญ็นๅ็งฐ,็ผๅญๅฐstrAPName,
 239:../Bsp/ESP01/esp01s.c ****      * ็จไบๅคๆญๆฏๅฆๅทฒ่ฟๆฅๅฐ็ฎๆ ็ญ็น(้ฟๅ้ๅค่ฟๆฅ) */
 240:../Bsp/ESP01/esp01s.c ****     ESP01S_SendATCmd("AT+CWJAP?\r\n", 500);
 241:../Bsp/ESP01/esp01s.c **** 
 242:../Bsp/ESP01/esp01s.c ****     /* ---- ็ฌฌ11ๆญฅ: ่ฟๆฅWiFi็ญ็น ----
 243:../Bsp/ESP01/esp01s.c ****      * ๅฆๆๅฝๅๅทฒ่ฟๆฅๅฐ็ฎๆ ็ญ็น(ไธconfig.ssid็ธๅ),่ทณ่ฟ่ฟๆฅๆญฅ้ชค
 244:../Bsp/ESP01/esp01s.c ****      * ๅฆๅๅ้AT+CWJAP่ฟๆฅ,็ญๅพๆๅค10็ง */
 245:../Bsp/ESP01/esp01s.c ****     if (strcmp(s_esp01s.strAPName, s_esp01s.config.ssid) != 0)
 246:../Bsp/ESP01/esp01s.c ****     {
 247:../Bsp/ESP01/esp01s.c ****         s_esp01s.state = ESP01S_STATE_WIFI_CONNECTING;
 248:../Bsp/ESP01/esp01s.c ****         sprintf(buf, "AT+CWJAP=\"%s\",\"%s\"\r\n", s_esp01s.config.ssid, s_esp01s.config.password);
 249:../Bsp/ESP01/esp01s.c ****         ESP01S_SendATCmd(buf, 10000);
 250:../Bsp/ESP01/esp01s.c ****     }
 251:../Bsp/ESP01/esp01s.c ****     else
 252:../Bsp/ESP01/esp01s.c ****     {
 253:../Bsp/ESP01/esp01s.c ****         /* ๅทฒ่ฟๆฅๅฐ็ฎๆ ็ญ็น,็ดๆฅ่ฎพ็ฝฎ็ถๆ */
 254:../Bsp/ESP01/esp01s.c ****         s_esp01s.state = ESP01S_STATE_WIFI_CONNECTED;
 255:../Bsp/ESP01/esp01s.c ****     }
 256:../Bsp/ESP01/esp01s.c **** 
 257:../Bsp/ESP01/esp01s.c ****     /* ๆฃๆฅWiFiๆฏๅฆ่ฟๆฅๆๅ */
 258:../Bsp/ESP01/esp01s.c ****     if (s_esp01s.state < ESP01S_STATE_WIFI_CONNECTED)
ARM GAS  C:\Users\fish\AppData\Local\Temp\ccIMbRKB.s 			page 6


 259:../Bsp/ESP01/esp01s.c ****     {
 260:../Bsp/ESP01/esp01s.c ****         printf("[ESP01S] WiFi่ฟๆฅๅคฑ่ดฅ!\r\n");
 261:../Bsp/ESP01/esp01s.c ****         return -2;
 262:../Bsp/ESP01/esp01s.c ****     }
 263:../Bsp/ESP01/esp01s.c **** 
 264:../Bsp/ESP01/esp01s.c ****     /* ---- ็ฌฌ12ๆญฅ: ๆฅ่ฏข่ฎพๅคIP ----
 265:../Bsp/ESP01/esp01s.c ****      * AT+CIFSR: ่ทๅSTAๆจกๅผไธ็IPๅฐๅ */
 266:../Bsp/ESP01/esp01s.c ****     ESP01S_SendATCmd("AT+CIFSR\r\n", 500);
 267:../Bsp/ESP01/esp01s.c **** 
 268:../Bsp/ESP01/esp01s.c ****     /* ---- ็ฌฌ13ๆญฅ: NTPๆๆถ(ๅฏ้) ----
 269:../Bsp/ESP01/esp01s.c ****      * config.ntpServer้็ฉบๆถ่ชๅจๆๆถ,ๅ้จๆฏๆAT SNTPๅUDP NTPๅๆจกๅผๅ้ */
 270:../Bsp/ESP01/esp01s.c ****     ESP01S_SyncNtpTime();
 271:../Bsp/ESP01/esp01s.c **** 
 272:../Bsp/ESP01/esp01s.c ****     /* ---- ็ฌฌ14~15ๆญฅ: ่ฟๆฅTCPๆๅกๅจๅนถ่ฟๅฅ้ไผ ๆจกๅผ ---- */
 273:../Bsp/ESP01/esp01s.c ****     return ESP01S_RestoreTcpTransparent();
 274:../Bsp/ESP01/esp01s.c **** }
 275:../Bsp/ESP01/esp01s.c **** 
 276:../Bsp/ESP01/esp01s.c **** /**
 277:../Bsp/ESP01/esp01s.c ****  * @brief  ้ๅบ้ไผ ๆจกๅผ
 278:../Bsp/ESP01/esp01s.c ****  * @note   ESP8266้ไผ ้ๅบๅ่ฎฎ่ฆๆฑ:
 279:../Bsp/ESP01/esp01s.c ****  *         1. ๅๅฏผ้้ป: ่ณๅฐ500msไธๅ้ไปปไฝๆฐๆฎ
 280:../Bsp/ESP01/esp01s.c ****  *         2. ๅ้"+++": ไธๅ \r\n(ๅฆๅไผ่ขซๅฝไฝ้ไผ ๆฐๆฎๅ้ๅฐๆๅกๅจ)
 281:../Bsp/ESP01/esp01s.c ****  *         3. ๅ็ปญ้้ป: ่ณๅฐ500msไธๅ้ไปปไฝๆฐๆฎ
 282:../Bsp/ESP01/esp01s.c ****  *         ๅชๆๆปก่ถณไปฅไธๆถๅบ,ๆจกๅๆไผ่ฏๅซไธบ้ๅบ้ไผ ๅฝไปค
 283:../Bsp/ESP01/esp01s.c ****  *         ้ๅบๅ็ถๆๅ้ๅฐTCP_CONNECTED,ๅฏ้ๆฐๅATๆไปคๆไฟฎๆน้็ฝฎๅ้ๆฐStart
 284:../Bsp/ESP01/esp01s.c ****  */
 285:../Bsp/ESP01/esp01s.c **** void ESP01S_ExitTransparent(void)
 286:../Bsp/ESP01/esp01s.c **** {
 287:../Bsp/ESP01/esp01s.c ****     /* ๅๅฏผ้้ป: ็กฎไฟไนๅ็ๆฐๆฎๅ้ๅทฒๅฎๆ */
 288:../Bsp/ESP01/esp01s.c ****     ESP01S_DELAY(500);
 289:../Bsp/ESP01/esp01s.c **** 
 290:../Bsp/ESP01/esp01s.c ****     /* ๅ้้ๅบๅฝไปค: ไธๅ ๆข่ก็ฌฆ! */
 291:../Bsp/ESP01/esp01s.c ****     ESP01S_SendATCmd("+++", 500);
 292:../Bsp/ESP01/esp01s.c **** 
 293:../Bsp/ESP01/esp01s.c ****     /* ๅ็ปญ้้ป: ็ญๅพๆจกๅ่ฏๅซ้ๅบๅฝไปค */
 294:../Bsp/ESP01/esp01s.c ****     ESP01S_DELAY(500);
 295:../Bsp/ESP01/esp01s.c **** 
 296:../Bsp/ESP01/esp01s.c ****     /* ็ถๆๅ้ๅฐTCPๅทฒ่ฟๆฅ */
 297:../Bsp/ESP01/esp01s.c ****     s_esp01s.state = ESP01S_STATE_TCP_CONNECTED;
 298:../Bsp/ESP01/esp01s.c **** }
 299:../Bsp/ESP01/esp01s.c **** 
 300:../Bsp/ESP01/esp01s.c **** /* ====== ้็ฝฎAPI ====== */
 301:../Bsp/ESP01/esp01s.c **** 
 302:../Bsp/ESP01/esp01s.c **** /**
 303:../Bsp/ESP01/esp01s.c ****  * @brief  ไธๆฌกๆง่ฎพ็ฝฎๅจ้จ้็ฝฎๅๆฐ
 304:../Bsp/ESP01/esp01s.c ****  * @param  pConfig ้็ฝฎๅๆฐๆ้(ๅๅฎนไผ่ขซmemcpyๆท่ด,่ฐ็จๅๅฏ้ๆพ)
 305:../Bsp/ESP01/esp01s.c ****  * @note   ไฟฎๆน้็ฝฎๅ้่ฐ็จESP01S_Start()้ๆฐ่ฟๆฅๆ็ๆ
 306:../Bsp/ESP01/esp01s.c ****  */
 307:../Bsp/ESP01/esp01s.c **** void ESP01S_SetConfig(const ESP01S_Config_t *pConfig)
 308:../Bsp/ESP01/esp01s.c **** {
 309:../Bsp/ESP01/esp01s.c ****     if (pConfig == NULL)
 310:../Bsp/ESP01/esp01s.c ****         return;
 311:../Bsp/ESP01/esp01s.c **** 
 312:../Bsp/ESP01/esp01s.c ****     memcpy(&s_esp01s.config, pConfig, sizeof(ESP01S_Config_t));
 313:../Bsp/ESP01/esp01s.c **** }
 314:../Bsp/ESP01/esp01s.c **** 
 315:../Bsp/ESP01/esp01s.c **** /**
ARM GAS  C:\Users\fish\AppData\Local\Temp\ccIMbRKB.s 			page 7


 316:../Bsp/ESP01/esp01s.c ****  * @brief  ่ทๅๅฝๅ้็ฝฎ(ๅช่ฏป)
 317:../Bsp/ESP01/esp01s.c ****  * @retval ๅฝๅ้็ฝฎๆ้,ๆๅ้ฉฑๅจๅ้จ้็ฝฎ(ไธ่ฆไฟฎๆน่ฟๅ็ๆ้ๅๅฎน)
 318:../Bsp/ESP01/esp01s.c ****  */
 319:../Bsp/ESP01/esp01s.c **** const ESP01S_Config_t *ESP01S_GetConfig(void)
 320:../Bsp/ESP01/esp01s.c **** {
 321:../Bsp/ESP01/esp01s.c ****     return &s_esp01s.config;
 322:../Bsp/ESP01/esp01s.c **** }
 323:../Bsp/ESP01/esp01s.c **** 
 324:../Bsp/ESP01/esp01s.c **** /**
 325:../Bsp/ESP01/esp01s.c ****  * @brief  ่ฎพ็ฝฎWiFi็ญ็นๅๆฐ
 326:../Bsp/ESP01/esp01s.c ****  * @param  ssid     WiFi็ญ็นๅ็งฐ(ๆ้ฟ31ๅญ็ฌฆ,่ถๅบๆชๆญ)
 327:../Bsp/ESP01/esp01s.c ****  * @param  password WiFiๅฏ็ (ๆ้ฟ63ๅญ็ฌฆ,่ถๅบๆชๆญ)
 328:../Bsp/ESP01/esp01s.c ****  * @note   ไฝฟ็จstrncpy็กฎไฟไธไผ่ถ็,ๅนถๆๅจๆทปๅ ๅญ็ฌฆไธฒ็ปๆ็ฌฆ
 329:../Bsp/ESP01/esp01s.c ****  */
 330:../Bsp/ESP01/esp01s.c **** void ESP01S_SetWiFi(const char *ssid, const char *password)
 331:../Bsp/ESP01/esp01s.c **** {
 332:../Bsp/ESP01/esp01s.c ****     if (ssid != NULL)
 333:../Bsp/ESP01/esp01s.c ****     {
 334:../Bsp/ESP01/esp01s.c ****         strncpy(s_esp01s.config.ssid, ssid, sizeof(s_esp01s.config.ssid) - 1);
 335:../Bsp/ESP01/esp01s.c ****         s_esp01s.config.ssid[sizeof(s_esp01s.config.ssid) - 1] = '\0';
 336:../Bsp/ESP01/esp01s.c ****     }
 337:../Bsp/ESP01/esp01s.c ****     if (password != NULL)
 338:../Bsp/ESP01/esp01s.c ****     {
 339:../Bsp/ESP01/esp01s.c ****         strncpy(s_esp01s.config.password, password, sizeof(s_esp01s.config.password) - 1);
 340:../Bsp/ESP01/esp01s.c ****         s_esp01s.config.password[sizeof(s_esp01s.config.password) - 1] = '\0';
 341:../Bsp/ESP01/esp01s.c ****     }
 342:../Bsp/ESP01/esp01s.c **** }
 343:../Bsp/ESP01/esp01s.c **** 
 344:../Bsp/ESP01/esp01s.c **** /**
 345:../Bsp/ESP01/esp01s.c ****  * @brief  ่ฎพ็ฝฎTCPๆๅกๅจๅๆฐ
 346:../Bsp/ESP01/esp01s.c ****  * @param  ip   TCPๆๅกๅจIPๅฐๅ(็นๅๅ่ฟๅถ,ๅฆ"192.168.1.100")
 347:../Bsp/ESP01/esp01s.c ****  * @param  port TCPๆๅกๅจ็ซฏๅฃๅท(1~65535)
 348:../Bsp/ESP01/esp01s.c ****  */
 349:../Bsp/ESP01/esp01s.c **** void ESP01S_SetTcpServer(const char *ip, uint16_t port)
 350:../Bsp/ESP01/esp01s.c **** {
 351:../Bsp/ESP01/esp01s.c ****     if (ip != NULL)
 352:../Bsp/ESP01/esp01s.c ****     {
 353:../Bsp/ESP01/esp01s.c ****         strncpy(s_esp01s.config.tcpServerIP, ip, sizeof(s_esp01s.config.tcpServerIP) - 1);
 354:../Bsp/ESP01/esp01s.c ****         s_esp01s.config.tcpServerIP[sizeof(s_esp01s.config.tcpServerIP) - 1] = '\0';
 355:../Bsp/ESP01/esp01s.c ****     }
 356:../Bsp/ESP01/esp01s.c ****     s_esp01s.config.tcpPort = port;
 357:../Bsp/ESP01/esp01s.c **** }
 358:../Bsp/ESP01/esp01s.c **** 
 359:../Bsp/ESP01/esp01s.c **** /**
 360:../Bsp/ESP01/esp01s.c ****  * @brief  ่ฎพ็ฝฎNTPๆๆถๆๅกๅจๅๆฐ
 361:../Bsp/ESP01/esp01s.c ****  * @param  server    NTPๆๅกๅจๅๅ(ๅฆ"ntp.aliyun.com"),ไผ NULLๅๆธ็ฉบ(็ฆ็จNTP)
 362:../Bsp/ESP01/esp01s.c ****  * @param  timezone  ๆถๅบๅฐๆถๆฐ(ไธๅซๅบ=8),่ๅด-12~14
 363:../Bsp/ESP01/esp01s.c ****  */
 364:../Bsp/ESP01/esp01s.c **** void ESP01S_SetNtpServer(const char *server, int8_t timezone)
 365:../Bsp/ESP01/esp01s.c **** {
 366:../Bsp/ESP01/esp01s.c ****     if (server == NULL)
 367:../Bsp/ESP01/esp01s.c ****     {
 368:../Bsp/ESP01/esp01s.c ****         /* ไผ NULLๅๆธ็ฉบNTPๆๅกๅจ,็ฆ็จNTPๆๆถ */
 369:../Bsp/ESP01/esp01s.c ****         s_esp01s.config.ntpServer[0] = '\0';
 370:../Bsp/ESP01/esp01s.c ****     }
 371:../Bsp/ESP01/esp01s.c ****     else
 372:../Bsp/ESP01/esp01s.c ****     {
ARM GAS  C:\Users\fish\AppData\Local\Temp\ccIMbRKB.s 			page 8


 373:../Bsp/ESP01/esp01s.c ****         strncpy(s_esp01s.config.ntpServer, server, sizeof(s_esp01s.config.ntpServer) - 1);
 374:../Bsp/ESP01/esp01s.c ****         s_esp01s.config.ntpServer[sizeof(s_esp01s.config.ntpServer) - 1] = '\0';
 375:../Bsp/ESP01/esp01s.c ****     }
 376:../Bsp/ESP01/esp01s.c ****     s_esp01s.config.ntpTimezone = timezone;
 377:../Bsp/ESP01/esp01s.c **** }
 378:../Bsp/ESP01/esp01s.c **** 
 379:../Bsp/ESP01/esp01s.c **** /* ====== ๆฐๆฎๆถๅ ====== */
 380:../Bsp/ESP01/esp01s.c **** 
 381:../Bsp/ESP01/esp01s.c **** /**
 382:../Bsp/ESP01/esp01s.c ****  * @brief  ๅ้ATๆไปคๅนถ็ญๅพ
 383:../Bsp/ESP01/esp01s.c ****  * @param  cmd     ATๆไปคๅญ็ฌฆไธฒ(้ๅๅซ\r\n็ปๅฐพ,ๅฆ"AT\r\n")
 384:../Bsp/ESP01/esp01s.c ****  * @param  waitMs  ๅ้ๅ็ญๅพๆถ้ด(ๆฏซ็ง),0ๅไธ็ญ
 385:../Bsp/ESP01/esp01s.c ****  * @note   ้ไผ ๆจกๅผไธ่ฏทๅฟ่ฐ็จๆญคๅฝๆฐ(ๆฐๆฎไผ่ขซๅฝไฝ้ไผ ๆฐๆฎๅ้)
 386:../Bsp/ESP01/esp01s.c ****  *         ๅ้จ่ฐ็จ UartDrv_SendStr + HAL_Delay
 387:../Bsp/ESP01/esp01s.c ****  */
 388:../Bsp/ESP01/esp01s.c **** void ESP01S_SendATCmd(const char *cmd, uint32_t waitMs)
 389:../Bsp/ESP01/esp01s.c **** {
 390:../Bsp/ESP01/esp01s.c ****     if (cmd == NULL || s_esp01s.pUartDrv == NULL)
 391:../Bsp/ESP01/esp01s.c ****         return;
 392:../Bsp/ESP01/esp01s.c **** 
 393:../Bsp/ESP01/esp01s.c ****     /* ้่ฟไธฒๅฃๅ้ATๆไปค */
 394:../Bsp/ESP01/esp01s.c ****     UartDrv_SendStr(s_esp01s.pUartDrv, cmd);
 395:../Bsp/ESP01/esp01s.c **** 
 396:../Bsp/ESP01/esp01s.c ****     /* ็ญๅพๆจกๅๅๅบ(้ปๅก) */
 397:../Bsp/ESP01/esp01s.c ****     if (waitMs > 0)
 398:../Bsp/ESP01/esp01s.c ****         ESP01S_DELAY(waitMs);
 399:../Bsp/ESP01/esp01s.c **** }
 400:../Bsp/ESP01/esp01s.c **** 
 401:../Bsp/ESP01/esp01s.c **** /**
 402:../Bsp/ESP01/esp01s.c ****  * @brief  ๅ้ๅญ็ฌฆไธฒ(้ไผ ๆจกๅผ)
 403:../Bsp/ESP01/esp01s.c ****  * @param  str ไปฅ'\0'็ปๅฐพ็ๅญ็ฌฆไธฒ
 404:../Bsp/ESP01/esp01s.c ****  * @note   ไปๅจ้ไผ ๆจกๅผไธไฝฟ็จ,ๆฐๆฎๅฐ็ดๆฅๅ้ๅฐTCPๆๅกๅจ
 405:../Bsp/ESP01/esp01s.c ****  */
 406:../Bsp/ESP01/esp01s.c **** void ESP01S_SendStr(const char *str)
 407:../Bsp/ESP01/esp01s.c **** {
 408:../Bsp/ESP01/esp01s.c ****     if (str == NULL || s_esp01s.pUartDrv == NULL)
 409:../Bsp/ESP01/esp01s.c ****         return;
 410:../Bsp/ESP01/esp01s.c **** 
 411:../Bsp/ESP01/esp01s.c ****     UartDrv_SendStr(s_esp01s.pUartDrv, str);
 412:../Bsp/ESP01/esp01s.c **** }
 413:../Bsp/ESP01/esp01s.c **** 
 414:../Bsp/ESP01/esp01s.c **** /**
 415:../Bsp/ESP01/esp01s.c ****  * @brief  ๅ้ๆฐๆฎ(้ไผ ๆจกๅผ)
 416:../Bsp/ESP01/esp01s.c ****  * @param  pData ๆฐๆฎๆ้
 417:../Bsp/ESP01/esp01s.c ****  * @param  len   ๆฐๆฎ้ฟๅบฆ(ๅญ่)
 418:../Bsp/ESP01/esp01s.c ****  * @note   ไปๅจ้ไผ ๆจกๅผไธไฝฟ็จ,ๅฏๅ้ๅซ\0็ไบ่ฟๅถๆฐๆฎ
 419:../Bsp/ESP01/esp01s.c ****  */
 420:../Bsp/ESP01/esp01s.c **** void ESP01S_SendData(const uint8_t *pData, uint16_t len)
 421:../Bsp/ESP01/esp01s.c **** {
 422:../Bsp/ESP01/esp01s.c ****     if (pData == NULL || len == 0 || s_esp01s.pUartDrv == NULL)
 423:../Bsp/ESP01/esp01s.c ****         return;
 424:../Bsp/ESP01/esp01s.c **** 
 425:../Bsp/ESP01/esp01s.c ****     UartDrv_Send(s_esp01s.pUartDrv, pData, len);
 426:../Bsp/ESP01/esp01s.c **** }
 427:../Bsp/ESP01/esp01s.c **** 
 428:../Bsp/ESP01/esp01s.c **** /**
 429:../Bsp/ESP01/esp01s.c ****  * @brief  ๆณจๅ้ไผ ๆฐๆฎๆฅๆถๅ่ฐ
ARM GAS  C:\Users\fish\AppData\Local\Temp\ccIMbRKB.s 			page 9


 430:../Bsp/ESP01/esp01s.c ****  * @param  pCb       ๅ่ฐๅฝๆฐๆ้
 431:../Bsp/ESP01/esp01s.c ****  * @param  pUserCtx  ็จๆทไธไธๆๆ้,ๅ่ฐๆถๅๆ ทไผ ๅ
 432:../Bsp/ESP01/esp01s.c ****  */
 433:../Bsp/ESP01/esp01s.c **** void ESP01S_RegisterDataCb(ESP01S_DataCallback_t pCb, void *pUserCtx)
 434:../Bsp/ESP01/esp01s.c **** {
 435:../Bsp/ESP01/esp01s.c ****     s_esp01s.pDataCb = pCb;
 436:../Bsp/ESP01/esp01s.c ****     s_esp01s.pUserCtx = pUserCtx;
 437:../Bsp/ESP01/esp01s.c **** }
 438:../Bsp/ESP01/esp01s.c **** 
 439:../Bsp/ESP01/esp01s.c **** /* ====== ็ถๆๆฅ่ฏข ====== */
 440:../Bsp/ESP01/esp01s.c **** 
 441:../Bsp/ESP01/esp01s.c **** /**
 442:../Bsp/ESP01/esp01s.c ****  * @brief  ่ทๅๅฝๅ่ฟๆฅ็ถๆ
 443:../Bsp/ESP01/esp01s.c ****  * @retval ๅฝๅ็ถๆ(่ง ESP01S_State_t ๆไธพ)
 444:../Bsp/ESP01/esp01s.c ****  */
 445:../Bsp/ESP01/esp01s.c **** ESP01S_State_t ESP01S_GetState(void)
 446:../Bsp/ESP01/esp01s.c **** {
 447:../Bsp/ESP01/esp01s.c ****     return s_esp01s.state;
 448:../Bsp/ESP01/esp01s.c **** }
 449:../Bsp/ESP01/esp01s.c **** 
 450:../Bsp/ESP01/esp01s.c **** /* ====== NTP็ฝ็ปๆๆถ ====== */
 451:../Bsp/ESP01/esp01s.c **** 
 452:../Bsp/ESP01/esp01s.c **** /**
 453:../Bsp/ESP01/esp01s.c ****  * @brief  ้็ฝฎSNTPๆๅกๅจๅนถ่ทๅNTP็ฝ็ปๆถ้ด
 454:../Bsp/ESP01/esp01s.c ****  * @note   ้ๅจWiFiๅทฒ่ฟๆฅใๆช่ฟๅฅ้ไผ ๆจกๅผๆถ่ฐ็จใ
 455:../Bsp/ESP01/esp01s.c ****  *         ESP01S_Start()ไธญๅทฒ่ชๅจ่ฐ็จๆญคๅฝๆฐ,ไธ่ฌๆ ้ๆๅจ่ฐ็จใ
 456:../Bsp/ESP01/esp01s.c ****  *         ๅทฅไฝๆต็จ(ๅๆจกๅผ่ชๅจๅ้):
 457:../Bsp/ESP01/esp01s.c ****  *         1. ๅฐ่ฏATๆไปคSNTP: AT+CIPSNTPCFG้็ฝฎๆถๅบๅๆๅกๅจ โ AT+CIPSNTPTIME?ๆฅ่ฏขๆ
 458:../Bsp/ESP01/esp01s.c ****  *            ่ฅๅบไปถๆฏๆ(v1.7.0+),่ฟๅๅๅซๅนดไปฝ็ๆๆๆถ้ด,็ดๆฅๆๅ
 459:../Bsp/ESP01/esp01s.c ****  *         2. ่ฅAT SNTP่ฟๅๅนดไปฝ<=2000(ๅบไปถไธๆฏๆ),ๅ้ๅฐUDP NTP:
 460:../Bsp/ESP01/esp01s.c ****  *            ๅณ้ญๅทฒๆ่ฟๆฅ โ ๅปบ็ซUDP่ฟๆฅๅฐNTPๆๅกๅจ123็ซฏๅฃ โ ๅ้48ๅญ่NTP่
 461:../Bsp/ESP01/esp01s.c ****  *            โ ็ญๅพ3็งๆฅๆถๅๅบ โ ๅ่ฐไธญ่งฃๆ+IPDๆฐๆฎๆๅๆถ้ดๆณ โ ๅณ้ญUDP
 462:../Bsp/ESP01/esp01s.c ****  *         ๅฆๆconfig.ntpServerไธบ็ฉบๅญ็ฌฆไธฒๅ่ทณ่ฟ
 463:../Bsp/ESP01/esp01s.c ****  */
 464:../Bsp/ESP01/esp01s.c **** void ESP01S_SyncNtpTime(void)
 465:../Bsp/ESP01/esp01s.c **** {
 466:../Bsp/ESP01/esp01s.c ****     if (s_esp01s.pUartDrv == NULL)
 467:../Bsp/ESP01/esp01s.c ****         return;
 468:../Bsp/ESP01/esp01s.c **** 
 469:../Bsp/ESP01/esp01s.c ****     /* NTPๆๅกๅจไธบ็ฉบๅ่ทณ่ฟๆๆถ */
 470:../Bsp/ESP01/esp01s.c ****     if (s_esp01s.config.ntpServer[0] == '\0')
 471:../Bsp/ESP01/esp01s.c ****         return;
 472:../Bsp/ESP01/esp01s.c **** 
 473:../Bsp/ESP01/esp01s.c ****     char buf[96];
 474:../Bsp/ESP01/esp01s.c **** 
 475:../Bsp/ESP01/esp01s.c ****     /* ---- ๆนๅผ1: ๅฐ่ฏATๆไปคSNTP (้่ฆESP8266ๅบไปถv1.7.0+ๆฏๆ) ---- */
 476:../Bsp/ESP01/esp01s.c ****     /* ้็ฝฎSNTPๆถๅบๅๆๅกๅจ */
 477:../Bsp/ESP01/esp01s.c ****     sprintf(buf, "AT+CIPSNTPCFG=%d,\"%s\"\r\n", s_esp01s.config.ntpTimezone, s_esp01s.config.ntpSer
 478:../Bsp/ESP01/esp01s.c ****     ESP01S_SendATCmd(buf, 500);
 479:../Bsp/ESP01/esp01s.c **** 
 480:../Bsp/ESP01/esp01s.c ****     /* ๆฅ่ฏขSNTPๆถ้ด(ๅ่ฐไธญ่งฃๆ+CIPSNTPTIMEๅๅบ) */
 481:../Bsp/ESP01/esp01s.c ****     ESP01S_SendATCmd("AT+CIPSNTPTIME?\r\n", 2000);
 482:../Bsp/ESP01/esp01s.c **** 
 483:../Bsp/ESP01/esp01s.c ****     /* ๆฃๆฅ: ๅฆๆAT SNTP่ฟๅๆๆๆถ้ด(ๅนดไปฝ>2000),็ดๆฅๆๅ */
 484:../Bsp/ESP01/esp01s.c ****     if (s_esp01s.ntpTimeValid && s_esp01s.ntpTime.year > 2000)
 485:../Bsp/ESP01/esp01s.c ****     {
 486:../Bsp/ESP01/esp01s.c ****         printf("[ESP01S] NTPๆๆถๆๅ(AT SNTP): %04d-%02d-%02d %02d:%02d:%02d\r\n",
ARM GAS  C:\Users\fish\AppData\Local\Temp\ccIMbRKB.s 			page 10


 487:../Bsp/ESP01/esp01s.c ****                s_esp01s.ntpTime.year, s_esp01s.ntpTime.month, s_esp01s.ntpTime.day,
 488:../Bsp/ESP01/esp01s.c ****                s_esp01s.ntpTime.hour, s_esp01s.ntpTime.minute, s_esp01s.ntpTime.second);
 489:../Bsp/ESP01/esp01s.c ****         return;
 490:../Bsp/ESP01/esp01s.c ****     }
 491:../Bsp/ESP01/esp01s.c **** 
 492:../Bsp/ESP01/esp01s.c ****     /* AT SNTPไธๅฏ็จ(่ฟๅ1970ๅนดๆๆ ๅๅบ),ๅ้ๅฐUDPๆนๅผ */
 493:../Bsp/ESP01/esp01s.c ****     s_esp01s.ntpTimeValid = 0;
 494:../Bsp/ESP01/esp01s.c **** 
 495:../Bsp/ESP01/esp01s.c ****     /* ---- ๆนๅผ2: UDP NTPๅ่ฎฎ (้็จๆนๆก,ไปปไฝๅบไปถ็ๆฌๅๅฏ็จ) ----
 496:../Bsp/ESP01/esp01s.c ****      *
 497:../Bsp/ESP01/esp01s.c ****      * NTPๅ่ฎฎๅทฅไฝๅ็:
 498:../Bsp/ESP01/esp01s.c ****      * - NTPๆๅกๅจ็ๅฌUDP 123็ซฏๅฃ
 499:../Bsp/ESP01/esp01s.c ****      * - ๅฎขๆท็ซฏๅ้48ๅญ่่ฏทๆฑๅ(้ฆๅญ่0x1B=LI0/VN3/Mode3/Client)
 500:../Bsp/ESP01/esp01s.c ****      * - ๆๅกๅจ่ฟๅ48ๅญ่ๅๅบๅ,ๅถไธญbytes 40-43ไธบๅ้ๆถ้ดๆณ(ๅคง็ซฏๅบ,่ช1900ๅนด็
 501:../Bsp/ESP01/esp01s.c ****      * - ๅฐNTPๆถ้ดๆณๅๅปNTP_UNIX_OFFSET(2208988800)ๅพๅฐUnixๆถ้ดๆณ
 502:../Bsp/ESP01/esp01s.c ****      */
 503:../Bsp/ESP01/esp01s.c **** 
 504:../Bsp/ESP01/esp01s.c ****     /* ๅณ้ญๅทฒๆ่ฟๆฅ(ๅ่ฟๆฅๆจกๅผไธๅฟ้กปๅๅณ้ญๆ่ฝๆฐๅปบUDP) */
 505:../Bsp/ESP01/esp01s.c ****     ESP01S_SendATCmd("AT+CIPCLOSE\r\n", 500);
 506:../Bsp/ESP01/esp01s.c **** 
 507:../Bsp/ESP01/esp01s.c ****     /* ๆ้ NTP่ฏทๆฑๅ: 48ๅญ่ๅจ้ถ,้ฆๅญ่่ฎพไธบ0x1B
 508:../Bsp/ESP01/esp01s.c ****      * 0x1B = 0001 1011:
 509:../Bsp/ESP01/esp01s.c ****      *   LI=0 (ๆ ้ฐ็ง่ญฆๅ), VN=3 (NTP็ๆฌ3), Mode=3 (Client) */
 510:../Bsp/ESP01/esp01s.c ****     uint8_t ntpReq[48];
 511:../Bsp/ESP01/esp01s.c ****     memset(ntpReq, 0, 48);
 512:../Bsp/ESP01/esp01s.c ****     ntpReq[0] = 0x1B;
 513:../Bsp/ESP01/esp01s.c **** 
 514:../Bsp/ESP01/esp01s.c ****     /* ่ฎพ็ฝฎUDP NTP็ญๅพๆ ๅฟ,ๅ่ฐไธญๅฐไผๅๆฃๆฅ+IPDๆฐๆฎ(ๅฏ่ฝๅซไบ่ฟๅถ) */
 515:../Bsp/ESP01/esp01s.c ****     s_esp01s.ntpUdpPending = 1;
 516:../Bsp/ESP01/esp01s.c **** 
 517:../Bsp/ESP01/esp01s.c ****     /* ๅปบ็ซUDP่ฟๆฅๅฐNTPๆๅกๅจ123็ซฏๅฃ */
 518:../Bsp/ESP01/esp01s.c ****     sprintf(buf, "AT+CIPSTART=\"UDP\",\"%s\",123\r\n", s_esp01s.config.ntpServer);
 519:../Bsp/ESP01/esp01s.c ****     ESP01S_SendATCmd(buf, 2000);
 520:../Bsp/ESP01/esp01s.c **** 
 521:../Bsp/ESP01/esp01s.c ****     /* ๅ้NTP่ฏทๆฑ: ๅๅAT+CIPSEND=48ๅ็ฅๆจกๅ่ฆๅ้48ๅญ่,
 522:../Bsp/ESP01/esp01s.c ****      * ็ญๅพ200ms่ฎฉๆจกๅ่ฟๅ">"ๆ็คบ็ฌฆ,ๅๅ48ๅญ่ๆฐๆฎ */
 523:../Bsp/ESP01/esp01s.c ****     ESP01S_SendATCmd("AT+CIPSEND=48\r\n", 200);
 524:../Bsp/ESP01/esp01s.c ****     UartDrv_Send(s_esp01s.pUartDrv, ntpReq, 48);
 525:../Bsp/ESP01/esp01s.c **** 
 526:../Bsp/ESP01/esp01s.c ****     /* ็ญๅพNTPๅๅบ(ๅ่ฐไธญ่งฃๆ+IPDๆฐๆฎๅนถๅกซๅntpTime) */
 527:../Bsp/ESP01/esp01s.c ****     ESP01S_DELAY(3000);
 528:../Bsp/ESP01/esp01s.c **** 
 529:../Bsp/ESP01/esp01s.c ****     /* ๅณ้ญUDP่ฟๆฅ(ไธบๅ็ปญTCP่ฟๆฅ่พๅบๅ่ฟๆฅ้้) */
 530:../Bsp/ESP01/esp01s.c ****     ESP01S_SendATCmd("AT+CIPCLOSE\r\n", 500);
 531:../Bsp/ESP01/esp01s.c ****     s_esp01s.ntpUdpPending = 0;
 532:../Bsp/ESP01/esp01s.c **** 
 533:../Bsp/ESP01/esp01s.c ****     if (s_esp01s.ntpTimeValid)
 534:../Bsp/ESP01/esp01s.c ****     {
 535:../Bsp/ESP01/esp01s.c ****         printf("[ESP01S] NTPๆๆถๆๅ(UDP): %04d-%02d-%02d %02d:%02d:%02d\r\n",
 536:../Bsp/ESP01/esp01s.c ****                s_esp01s.ntpTime.year, s_esp01s.ntpTime.month, s_esp01s.ntpTime.day,
 537:../Bsp/ESP01/esp01s.c ****                s_esp01s.ntpTime.hour, s_esp01s.ntpTime.minute, s_esp01s.ntpTime.second);
 538:../Bsp/ESP01/esp01s.c ****     }
 539:../Bsp/ESP01/esp01s.c ****     else
 540:../Bsp/ESP01/esp01s.c ****     {
 541:../Bsp/ESP01/esp01s.c ****         printf("[ESP01S] NTPๆๆถๅคฑ่ดฅ!\r\n");
 542:../Bsp/ESP01/esp01s.c ****     }
 543:../Bsp/ESP01/esp01s.c **** }
ARM GAS  C:\Users\fish\AppData\Local\Temp\ccIMbRKB.s 			page 11


 544:../Bsp/ESP01/esp01s.c **** 
 545:../Bsp/ESP01/esp01s.c **** /**
 546:../Bsp/ESP01/esp01s.c ****  * @brief  ่ทๅๆ่ฟไธๆฌกNTPๆๆถ็ปๆ
 547:../Bsp/ESP01/esp01s.c ****  * @param  pTime ่พๅบๆถ้ด็ปๆๆ้(็ฑ่ฐ็จ่ๅ้)
 548:../Bsp/ESP01/esp01s.c ****  * @retval 0:ๆถ้ดๆๆ  -1:ๆถ้ดๆ ๆ(ๆช่ทๅๆ่ทๅๅคฑ่ดฅ)
 549:../Bsp/ESP01/esp01s.c ****  * @note   ่ฟๅ็ๆฏNTPๆๆถๆถ็็ฌ้ดๆถ้ด,ไธๆฏๅฝๅๆถ้ดใ
 550:../Bsp/ESP01/esp01s.c ****  *         ๅฆ้่ทๅๅฝๅๆถ้ด่ฏทไฝฟ็จ ESP01S_GetDateTime()
 551:../Bsp/ESP01/esp01s.c ****  */
 552:../Bsp/ESP01/esp01s.c **** int ESP01S_GetNtpTime(ESP01S_NtpTime_t *pTime)
 553:../Bsp/ESP01/esp01s.c **** {
 554:../Bsp/ESP01/esp01s.c ****     if (pTime == NULL)
 555:../Bsp/ESP01/esp01s.c ****         return -1;
 556:../Bsp/ESP01/esp01s.c **** 
 557:../Bsp/ESP01/esp01s.c ****     if (!s_esp01s.ntpTimeValid)
 558:../Bsp/ESP01/esp01s.c ****         return -1;
 559:../Bsp/ESP01/esp01s.c **** 
 560:../Bsp/ESP01/esp01s.c ****     memcpy(pTime, &s_esp01s.ntpTime, sizeof(ESP01S_NtpTime_t));
 561:../Bsp/ESP01/esp01s.c ****     return 0;
 562:../Bsp/ESP01/esp01s.c **** }
 563:../Bsp/ESP01/esp01s.c **** 
 564:../Bsp/ESP01/esp01s.c **** /**
 565:../Bsp/ESP01/esp01s.c ****  * @brief  ๆฃๆฅNTPๆถ้ดๆฏๅฆๅทฒๅๆญฅๆๅ
 566:../Bsp/ESP01/esp01s.c ****  * @retval 1:ๅทฒๅๆญฅ  0:ๆชๅๆญฅ
 567:../Bsp/ESP01/esp01s.c ****  */
 568:../Bsp/ESP01/esp01s.c **** uint8_t ESP01S_IsNtpSynced(void)
 569:../Bsp/ESP01/esp01s.c **** {
 570:../Bsp/ESP01/esp01s.c ****     return s_esp01s.ntpTimeValid;
 571:../Bsp/ESP01/esp01s.c **** }
 572:../Bsp/ESP01/esp01s.c **** 
 573:../Bsp/ESP01/esp01s.c **** /**
 574:../Bsp/ESP01/esp01s.c ****  * @brief  ๆฃๆฅๅฝๅๆฏๅฆๅทฒ่ฟๆฅWiFi
 575:../Bsp/ESP01/esp01s.c ****  * @retval 1:ๅทฒ่ฟๆฅ  0:ๆช่ฟๆฅ
 576:../Bsp/ESP01/esp01s.c ****  */
 577:../Bsp/ESP01/esp01s.c **** uint8_t ESP01S_IsWiFiConnected(void)
 578:../Bsp/ESP01/esp01s.c **** {
 579:../Bsp/ESP01/esp01s.c ****     return (s_esp01s.state >= ESP01S_STATE_WIFI_CONNECTED) ? 1 : 0;
 580:../Bsp/ESP01/esp01s.c **** }
 581:../Bsp/ESP01/esp01s.c **** 
 582:../Bsp/ESP01/esp01s.c **** /**
 583:../Bsp/ESP01/esp01s.c ****  * @brief  ๅฐNTPๆถ้ดๅๅฅSTM32็RTC(BCDๆ ผๅผ)
 584:../Bsp/ESP01/esp01s.c ****  * @param  pRtc STM32 RTCๅฅๆๆ้,ไผ NULLๅ่ทณ่ฟRTCๅๅฅ
 585:../Bsp/ESP01/esp01s.c ****  * @retval 0:ๆๅ  -1:NTPๆถ้ดๆ ๆ  -2:RTCๅๅฅๅคฑ่ดฅ
 586:../Bsp/ESP01/esp01s.c ****  * @note   ๅ้จไผ่กฅๅฟไปNTPๆๆถๅฐๅฝๅ็ๆถ้ดๅทฎ:
 587:../Bsp/ESP01/esp01s.c ****  *         - ntpTick: NTPๆๆถๆๅ็ฌ้ด่ฎฐๅฝ็HAL_Tickๅผ
 588:../Bsp/ESP01/esp01s.c ****  *         - ntpUnixTimestamp: NTPๆๆถๆถ็UTC Unixๆถ้ดๆณ
 589:../Bsp/ESP01/esp01s.c ****  *         - ๅฝๅๆถ้ด = ntpUnixTimestamp + (HAL_GetTick() - ntpTick) / 1000
 590:../Bsp/ESP01/esp01s.c ****  *         ่ฟๆ ทๆถ้คไบNTPๅๅบๅๅฐๅๅฅRTCไน้ด(TCP่ฟๆฅ็ญๆไฝ)็ๅปถ่ฟ่ฏฏๅทฎ
 591:../Bsp/ESP01/esp01s.c ****  */
 592:../Bsp/ESP01/esp01s.c **** int ESP01S_SetRtcFromNtp(RTC_HandleTypeDef *pRtc)
 593:../Bsp/ESP01/esp01s.c **** {
 594:../Bsp/ESP01/esp01s.c ****     if (pRtc == NULL)
 595:../Bsp/ESP01/esp01s.c ****         return -1;
 596:../Bsp/ESP01/esp01s.c **** 
 597:../Bsp/ESP01/esp01s.c ****     if (!s_esp01s.ntpTimeValid)
 598:../Bsp/ESP01/esp01s.c ****         return -1;
 599:../Bsp/ESP01/esp01s.c **** 
 600:../Bsp/ESP01/esp01s.c ****     /* ่กฅๅฟไปNTPๆๆถๅฐๅฝๅ็็ป่ฟๆถ้ด,ๆถ้คๅ็ปญๆไฝ(TCP่ฟๆฅ็ญ)ๅธฆๆฅ็ๅปถ่ฟ *
ARM GAS  C:\Users\fish\AppData\Local\Temp\ccIMbRKB.s 			page 12


 601:../Bsp/ESP01/esp01s.c ****     ESP01S_NtpTime_t now;
 602:../Bsp/ESP01/esp01s.c ****     uint32_t elapsedMs = HAL_GetTick() - s_esp01s.ntpTick;
 603:../Bsp/ESP01/esp01s.c ****     uint32_t elapsedSec = elapsedMs / 1000;
 604:../Bsp/ESP01/esp01s.c ****     uint32_t currentTs = s_esp01s.ntpUnixTimestamp + elapsedSec;
 605:../Bsp/ESP01/esp01s.c ****     UnixToDateTime(currentTs, s_esp01s.config.ntpTimezone, &now);
 606:../Bsp/ESP01/esp01s.c **** 
 607:../Bsp/ESP01/esp01s.c ****     RTC_TimeTypeDef sTime = {0};
 608:../Bsp/ESP01/esp01s.c ****     RTC_DateTypeDef sDate = {0};
 609:../Bsp/ESP01/esp01s.c **** 
 610:../Bsp/ESP01/esp01s.c ****     /* ๅฐๅ่ฟๅถ่ฝฌไธบBCDๆ ผๅผๅๅฅRTC
 611:../Bsp/ESP01/esp01s.c ****      * STM32 HAL RTC่ฆๆฑBCDๆ ผๅผ,ๅฆ23็น=0x23,45ๅ=0x45 */
 612:../Bsp/ESP01/esp01s.c ****     sTime.Hours   = DecToBcd(now.hour);
 613:../Bsp/ESP01/esp01s.c ****     sTime.Minutes = DecToBcd(now.minute);
 614:../Bsp/ESP01/esp01s.c ****     sTime.Seconds = DecToBcd(now.second);
 615:../Bsp/ESP01/esp01s.c **** 
 616:../Bsp/ESP01/esp01s.c ****     if (HAL_RTC_SetTime(pRtc, &sTime, RTC_FORMAT_BCD) != HAL_OK)
 617:../Bsp/ESP01/esp01s.c ****         return -2;
 618:../Bsp/ESP01/esp01s.c **** 
 619:../Bsp/ESP01/esp01s.c ****     /* ่ฎพ็ฝฎๆฅๆ: WeekDay็ดๆฅไฝฟ็จๆฐๅญ(1=Mon~7=Sun),ๆๆฅๅนด่ฝฌBCD */
 620:../Bsp/ESP01/esp01s.c ****     sDate.WeekDay = now.weekday;
 621:../Bsp/ESP01/esp01s.c ****     sDate.Month   = DecToBcd(now.month);
 622:../Bsp/ESP01/esp01s.c ****     sDate.Date    = DecToBcd(now.day);
 623:../Bsp/ESP01/esp01s.c ****     /* STM32 RTC Year = ๅฎ้ๅนดไปฝ - 2000,ๅฆ2024ๅนดๅญๅจไธบ24(BCD:0x24) */
 624:../Bsp/ESP01/esp01s.c ****     sDate.Year    = DecToBcd((uint8_t)(now.year - 2000));
 625:../Bsp/ESP01/esp01s.c **** 
 626:../Bsp/ESP01/esp01s.c ****     if (HAL_RTC_SetDate(pRtc, &sDate, RTC_FORMAT_BCD) != HAL_OK)
 627:../Bsp/ESP01/esp01s.c ****         return -2;
 628:../Bsp/ESP01/esp01s.c **** 
 629:../Bsp/ESP01/esp01s.c ****     /* STM32F1็RTCๆฅๆๅญๅจhrtc->DateToUpdate(RAM)ไธญ, ๅคไฝๅไธขๅคฑ
 630:../Bsp/ESP01/esp01s.c ****      * ๅฐๆฅๆๅคไปฝๅฐBKPๅๅคๅฏๅญๅจ(็ฑVBATไพ็ต, ๅคไฝไธไธขๅคฑ), ไพไธ็ตๆขๅค */
 631:../Bsp/ESP01/esp01s.c ****     HAL_RTCEx_BKUPWrite(pRtc, RTC_BKP_DR2, (uint32_t)(now.year - 2000));
 632:../Bsp/ESP01/esp01s.c ****     HAL_RTCEx_BKUPWrite(pRtc, RTC_BKP_DR3, (uint32_t)now.month);
 633:../Bsp/ESP01/esp01s.c ****     HAL_RTCEx_BKUPWrite(pRtc, RTC_BKP_DR4, (uint32_t)now.day);
 634:../Bsp/ESP01/esp01s.c ****     HAL_RTCEx_BKUPWrite(pRtc, RTC_BKP_DR5, (uint32_t)now.weekday);
 635:../Bsp/ESP01/esp01s.c **** 
 636:../Bsp/ESP01/esp01s.c ****     printf("[ESP01S] RTCๅทฒๆ กๅ: %04d-%02d-%02d %02d:%02d:%02d\r\n",
 637:../Bsp/ESP01/esp01s.c ****            now.year, now.month, now.day,
 638:../Bsp/ESP01/esp01s.c ****            now.hour, now.minute, now.second);
 639:../Bsp/ESP01/esp01s.c **** 
 640:../Bsp/ESP01/esp01s.c ****     return 0;
 641:../Bsp/ESP01/esp01s.c **** }
 642:../Bsp/ESP01/esp01s.c **** 
 643:../Bsp/ESP01/esp01s.c **** /* ====== ๅคฉๆฐๆฅ่ฏข ====== */
 644:../Bsp/ESP01/esp01s.c **** 
 645:../Bsp/ESP01/esp01s.c **** /**
 646:../Bsp/ESP01/esp01s.c ****  * @brief  ไปJSONๅญ็ฌฆไธฒไธญๆๅๆๅฎkey็ๅผ(ๅ่ฎพๅผไธบๅญ็ฌฆไธฒ,ไธไธๅตๅฅ)
 647:../Bsp/ESP01/esp01s.c ****  * @param  json  JSONๅญ็ฌฆไธฒ
 648:../Bsp/ESP01/esp01s.c ****  * @param  key   ่ฆๆๅ็้ฎๅ
 649:../Bsp/ESP01/esp01s.c ****  * @param  out   ่พๅบ็ผๅฒๅบ
 650:../Bsp/ESP01/esp01s.c ****  * @param  outSize ่พๅบ็ผๅฒๅบๅคงๅฐ
 651:../Bsp/ESP01/esp01s.c ****  * @retval ๆๅ่ฟๅoutๆ้,ๅคฑ่ดฅ่ฟๅNULL
 652:../Bsp/ESP01/esp01s.c ****  */
 653:../Bsp/ESP01/esp01s.c **** static const char* ESP01S_JsonExtractString(const char *json, const char *key, char *out, uint16_t 
 654:../Bsp/ESP01/esp01s.c **** {
 655:../Bsp/ESP01/esp01s.c ****     char pattern[24];
 656:../Bsp/ESP01/esp01s.c ****     const char *p;
 657:../Bsp/ESP01/esp01s.c ****     const char *end;
ARM GAS  C:\Users\fish\AppData\Local\Temp\ccIMbRKB.s 			page 13


 658:../Bsp/ESP01/esp01s.c ****     uint16_t len;
 659:../Bsp/ESP01/esp01s.c **** 
 660:../Bsp/ESP01/esp01s.c ****     if (json == NULL || key == NULL || out == NULL || outSize == 0)
 661:../Bsp/ESP01/esp01s.c ****         return NULL;
 662:../Bsp/ESP01/esp01s.c **** 
 663:../Bsp/ESP01/esp01s.c ****     /* ๅๅฎไฝ key,ๅ่ฎธ key ไธ ':' ไน้ดใ':' ไธ value ไน้ดๆ็ฉบๆ ผ */
 664:../Bsp/ESP01/esp01s.c ****     snprintf(pattern, sizeof(pattern), "\"%s\"", key);
 665:../Bsp/ESP01/esp01s.c ****     p = strstr(json, pattern);
 666:../Bsp/ESP01/esp01s.c ****     if (p == NULL)
 667:../Bsp/ESP01/esp01s.c ****         return NULL;
 668:../Bsp/ESP01/esp01s.c **** 
 669:../Bsp/ESP01/esp01s.c ****     p += strlen(pattern);
 670:../Bsp/ESP01/esp01s.c **** 
 671:../Bsp/ESP01/esp01s.c ****     /* ่ทณ่ฟ็ฉบ็ฝ */
 672:../Bsp/ESP01/esp01s.c ****     while (*p == ' ' || *p == '\t' || *p == '\n' || *p == '\r')
 673:../Bsp/ESP01/esp01s.c ****         p++;
 674:../Bsp/ESP01/esp01s.c ****     if (*p != ':')
 675:../Bsp/ESP01/esp01s.c ****         return NULL;
 676:../Bsp/ESP01/esp01s.c ****     p++;
 677:../Bsp/ESP01/esp01s.c ****     while (*p == ' ' || *p == '\t' || *p == '\n' || *p == '\r')
 678:../Bsp/ESP01/esp01s.c ****         p++;
 679:../Bsp/ESP01/esp01s.c **** 
 680:../Bsp/ESP01/esp01s.c ****     if (*p != '"')
 681:../Bsp/ESP01/esp01s.c ****         return NULL;
 682:../Bsp/ESP01/esp01s.c ****     p++;
 683:../Bsp/ESP01/esp01s.c **** 
 684:../Bsp/ESP01/esp01s.c ****     end = strchr(p, '"');
 685:../Bsp/ESP01/esp01s.c ****     if (end == NULL)
 686:../Bsp/ESP01/esp01s.c ****         return NULL;
 687:../Bsp/ESP01/esp01s.c **** 
 688:../Bsp/ESP01/esp01s.c ****     len = (uint16_t)(end - p);
 689:../Bsp/ESP01/esp01s.c ****     if (len >= outSize)
 690:../Bsp/ESP01/esp01s.c ****         len = outSize - 1;
 691:../Bsp/ESP01/esp01s.c **** 
 692:../Bsp/ESP01/esp01s.c ****     memcpy(out, p, len);
 693:../Bsp/ESP01/esp01s.c ****     out[len] = '\0';
 694:../Bsp/ESP01/esp01s.c ****     return out;
 695:../Bsp/ESP01/esp01s.c **** }
 696:../Bsp/ESP01/esp01s.c **** 
 697:../Bsp/ESP01/esp01s.c **** /**
 698:../Bsp/ESP01/esp01s.c ****  * @brief  ๆขๅคTCPๆๅกๅจ่ฟๆฅๅนถ่ฟๅฅ้ไผ ๆจกๅผ
 699:../Bsp/ESP01/esp01s.c ****  * @retval 0:ๆๅ  -3:TCP่ฟๆฅๅคฑ่ดฅ
 700:../Bsp/ESP01/esp01s.c ****  * @note   ๅฐESP01S_Start()ไธญ็TCP่ฟๆฅไธ้ไผ ๅผๅฏๆญฅ้ชคๆๅๅบๆฅ,
 701:../Bsp/ESP01/esp01s.c ****  *         ไพๅคฉๆฐๆฅ่ฏขๅๆขๅค้ไผ ่ฟๆฅไฝฟ็จใ
 702:../Bsp/ESP01/esp01s.c ****  */
 703:../Bsp/ESP01/esp01s.c **** static int ESP01S_RestoreTcpTransparent(void)
 704:../Bsp/ESP01/esp01s.c **** {
 705:../Bsp/ESP01/esp01s.c ****     char buf[128];
 706:../Bsp/ESP01/esp01s.c **** 
 707:../Bsp/ESP01/esp01s.c ****     /* ่ฟๆฅ้็ฝฎ็ไธญ็ปงTCPๆๅกๅจ */
 708:../Bsp/ESP01/esp01s.c ****     s_esp01s.state = ESP01S_STATE_TCP_CONNECTING;
 709:../Bsp/ESP01/esp01s.c ****     sprintf(buf, "AT+CIPSTART=\"TCP\",\"%s\",%d\r\n", s_esp01s.config.tcpServerIP, s_esp01s.config.
 710:../Bsp/ESP01/esp01s.c ****     ESP01S_SendATCmd(buf, 2000);
 711:../Bsp/ESP01/esp01s.c **** 
 712:../Bsp/ESP01/esp01s.c ****     if (s_esp01s.state < ESP01S_STATE_TCP_CONNECTED)
 713:../Bsp/ESP01/esp01s.c ****     {
 714:../Bsp/ESP01/esp01s.c ****         printf("[ESP01S] TCPๆๅกๅจ่ฟๆฅๅคฑ่ดฅ!\r\n");
ARM GAS  C:\Users\fish\AppData\Local\Temp\ccIMbRKB.s 			page 14


 715:../Bsp/ESP01/esp01s.c ****         return -3;
 716:../Bsp/ESP01/esp01s.c ****     }
 717:../Bsp/ESP01/esp01s.c **** 
 718:../Bsp/ESP01/esp01s.c ****     /* ๅผๅฏ้ไผ ๆจกๅผ */
 719:../Bsp/ESP01/esp01s.c ****     ESP01S_SendATCmd("AT+CIPMODE=1\r\n", 500);
 720:../Bsp/ESP01/esp01s.c ****     ESP01S_SendATCmd("AT+CIPSEND\r\n", 500);
 721:../Bsp/ESP01/esp01s.c ****     s_esp01s.state = ESP01S_STATE_TRANSPARENT;
 722:../Bsp/ESP01/esp01s.c **** 
 723:../Bsp/ESP01/esp01s.c ****     return 0;
 724:../Bsp/ESP01/esp01s.c **** }
 725:../Bsp/ESP01/esp01s.c **** 
 726:../Bsp/ESP01/esp01s.c **** /**
 727:../Bsp/ESP01/esp01s.c ****  * @brief  ๆฅ่ฏขๅฟ็ฅๅคฉๆฐๆฅๆฅๅนถ่งฃๆๅบๅๅธใ็ฝๅคฉ/ๅค้ดๅคฉๆฐใๆธฉๅบฆๅ้้จๆฆ็
 728:../Bsp/ESP01/esp01s.c ****  * @retval 0:ๆๅ  -1:ๅๆฐ้่ฏฏ  -2:ๆช่ฟๆฅWiFi  -3:็ฝ็ป่ฏทๆฑๅคฑ่ดฅ  -4:่งฃๆๅคฑ่ดฅ
 729:../Bsp/ESP01/esp01s.c ****  * @note   ๆฌๅฝๆฐไผไธดๆถ้ๅบ้ไผ ๆจกๅผใๅณ้ญๅฝๅTCP่ฟๆฅ,ๆฅ่ฏข็ปๆๅ่ชๅจๆขๅค
 730:../Bsp/ESP01/esp01s.c ****  *         ๅฐ้็ฝฎ็ไธญ็ปงTCPๆๅกๅจๅนถ้ๆฐ่ฟๅฅ้ไผ ๆจกๅผ(่ฅ้็ฝฎไบTCPๆๅกๅจ)ใ
 731:../Bsp/ESP01/esp01s.c ****  *         ไฝฟ็จ API: /v3/weather/daily.json?start=0&days=1
 732:../Bsp/ESP01/esp01s.c ****  */
 733:../Bsp/ESP01/esp01s.c **** int ESP01S_QueryWeather(const char *apiKey, const char *location,
 734:../Bsp/ESP01/esp01s.c ****                         const char *language, const char *unit,
 735:../Bsp/ESP01/esp01s.c ****                         char *outCity, uint16_t cityBufSize,
 736:../Bsp/ESP01/esp01s.c ****                         char *outTextDay, uint16_t textDayBufSize,
 737:../Bsp/ESP01/esp01s.c ****                         char *outHigh, uint16_t highBufSize,
 738:../Bsp/ESP01/esp01s.c ****                         char *outTextNight, uint16_t textNightBufSize,
 739:../Bsp/ESP01/esp01s.c ****                         char *outLow, uint16_t lowBufSize,
 740:../Bsp/ESP01/esp01s.c ****                         char *outPrecip, uint16_t precipBufSize)
 741:../Bsp/ESP01/esp01s.c **** {
 742:../Bsp/ESP01/esp01s.c ****     char req[256];
 743:../Bsp/ESP01/esp01s.c ****     char sendCmd[32];
 744:../Bsp/ESP01/esp01s.c ****     uint16_t reqLen;
 745:../Bsp/ESP01/esp01s.c ****     const char *body;
 746:../Bsp/ESP01/esp01s.c ****     int ret = -4;
 747:../Bsp/ESP01/esp01s.c **** 
 748:../Bsp/ESP01/esp01s.c ****     if (apiKey == NULL || location == NULL || language == NULL || unit == NULL)
 749:../Bsp/ESP01/esp01s.c ****         return -1;
 750:../Bsp/ESP01/esp01s.c **** 
 751:../Bsp/ESP01/esp01s.c ****     if (outTextDay == NULL || textDayBufSize == 0 ||
 752:../Bsp/ESP01/esp01s.c ****         outHigh == NULL || highBufSize == 0 ||
 753:../Bsp/ESP01/esp01s.c ****         outTextNight == NULL || textNightBufSize == 0 ||
 754:../Bsp/ESP01/esp01s.c ****         outLow == NULL || lowBufSize == 0 ||
 755:../Bsp/ESP01/esp01s.c ****         outPrecip == NULL || precipBufSize == 0)
 756:../Bsp/ESP01/esp01s.c ****     {
 757:../Bsp/ESP01/esp01s.c ****         return -1;
 758:../Bsp/ESP01/esp01s.c ****     }
 759:../Bsp/ESP01/esp01s.c **** 
 760:../Bsp/ESP01/esp01s.c ****     if (!ESP01S_IsWiFiConnected())
 761:../Bsp/ESP01/esp01s.c ****     {
 762:../Bsp/ESP01/esp01s.c ****         return -2;
 763:../Bsp/ESP01/esp01s.c ****     }
 764:../Bsp/ESP01/esp01s.c **** 
 765:../Bsp/ESP01/esp01s.c ****     /* ๅฆๆๅฝๅๅจ้ไผ ๆจกๅผ,ๅ้ๅบ */
 766:../Bsp/ESP01/esp01s.c ****     if (s_esp01s.state == ESP01S_STATE_TRANSPARENT)
 767:../Bsp/ESP01/esp01s.c ****     {
 768:../Bsp/ESP01/esp01s.c ****         ESP01S_ExitTransparent();
 769:../Bsp/ESP01/esp01s.c ****     }
 770:../Bsp/ESP01/esp01s.c **** 
 771:../Bsp/ESP01/esp01s.c ****     /* ๅณ้ญๅทฒๆ่ฟๆฅ,ไธบๆฐๅปบHTTP่ฟๆฅ่พๅบๅ่ฟๆฅ้้ */
ARM GAS  C:\Users\fish\AppData\Local\Temp\ccIMbRKB.s 			page 15


 772:../Bsp/ESP01/esp01s.c ****     ESP01S_SendATCmd("AT+CIPCLOSE\r\n", 500);
 773:../Bsp/ESP01/esp01s.c **** 
 774:../Bsp/ESP01/esp01s.c ****     /* ๅปบ็ซๅฐๅฟ็ฅๅคฉๆฐๆๅกๅจ็TCP่ฟๆฅ(HTTP็ซฏๅฃ80)
 775:../Bsp/ESP01/esp01s.c ****      *
 776:../Bsp/ESP01/esp01s.c ****      * ็ญ็ฅ: ๅๅฐ่ฏๅๅ่ฟๆฅ,ๅฆๆDNS่งฃๆๅคฑ่ดฅๅๅ้ๅฐAT+CIPDOMAIN
 777:../Bsp/ESP01/esp01s.c ****      * ่งฃๆIPๅๅ็จIP่ฟๆฅใๅ ไธบESP8266 ATๅบไปถๅจๆไบ็ฝ็ป็ฏๅขไธ
 778:../Bsp/ESP01/esp01s.c ****      * ๅ็ฝฎDNSๅฏ่ฝ่ถๆถๆๅคฑ่ดฅ,ไฝAT+CIPDOMAINๅฝไปคๅฏ่ฝๆญฃๅธธๅทฅไฝใ */
 779:../Bsp/ESP01/esp01s.c ****     s_esp01s.state = ESP01S_STATE_TCP_CONNECTING;
 780:../Bsp/ESP01/esp01s.c ****     ESP01S_SendATCmd("AT+CIPSTART=\"TCP\",\"api.seniverse.com\",80\r\n", 5000);
 781:../Bsp/ESP01/esp01s.c ****     if (s_esp01s.state < ESP01S_STATE_TCP_CONNECTED)
 782:../Bsp/ESP01/esp01s.c ****     {
 783:../Bsp/ESP01/esp01s.c ****         /* ๅๅ่ฟๆฅๅคฑ่ดฅ: ๅฐ่ฏAT+CIPDOMAIN่งฃๆIPๅ้่ฏ */
 784:../Bsp/ESP01/esp01s.c ****         printf("[ESP01S] ๅคฉๆฐๅๅ่ฟๆฅๅคฑ่ดฅ,ๅฐ่ฏCIPDOMAIN่งฃๆIP...\r\n");
 785:../Bsp/ESP01/esp01s.c ****         s_esp01s.cipdomainResult[0] = '\0';
 786:../Bsp/ESP01/esp01s.c ****         ESP01S_SendATCmd("AT+CIPDOMAIN=\"api.seniverse.com\"\r\n", 3000);
 787:../Bsp/ESP01/esp01s.c ****         if (s_esp01s.cipdomainResult[0] != '\0')
 788:../Bsp/ESP01/esp01s.c ****         {
 789:../Bsp/ESP01/esp01s.c ****             char cipBuf[96];
 790:../Bsp/ESP01/esp01s.c ****             s_esp01s.state = ESP01S_STATE_TCP_CONNECTING;
 791:../Bsp/ESP01/esp01s.c ****             snprintf(cipBuf, sizeof(cipBuf),
 792:../Bsp/ESP01/esp01s.c ****                      "AT+CIPSTART=\"TCP\",\"%s\",80\r\n", s_esp01s.cipdomainResult);
 793:../Bsp/ESP01/esp01s.c ****             ESP01S_SendATCmd(cipBuf, 5000);
 794:../Bsp/ESP01/esp01s.c ****         }
 795:../Bsp/ESP01/esp01s.c ****         if (s_esp01s.state < ESP01S_STATE_TCP_CONNECTED)
 796:../Bsp/ESP01/esp01s.c ****         {
 797:../Bsp/ESP01/esp01s.c ****             printf("[ESP01S] ๅคฉๆฐๆๅกๅจ่ฟๆฅๅคฑ่ดฅ!\r\n");
 798:../Bsp/ESP01/esp01s.c ****             goto WEATHER_RESTORE;
 799:../Bsp/ESP01/esp01s.c ****         }
 800:../Bsp/ESP01/esp01s.c ****     }
 801:../Bsp/ESP01/esp01s.c **** 
 802:../Bsp/ESP01/esp01s.c ****     /* ๆ้ HTTP GET่ฏทๆฑ (ๆฅๆฅ, ๅฝๅคฉ) */
 803:../Bsp/ESP01/esp01s.c ****     snprintf(req, sizeof(req),
 804:../Bsp/ESP01/esp01s.c ****              "GET /v3/weather/daily.json?key=%s&location=%s&language=%s&unit=%s&start=0&days=1 HTTP
 805:../Bsp/ESP01/esp01s.c ****              "Host: api.seniverse.com\r\n"
 806:../Bsp/ESP01/esp01s.c ****              "Connection: close\r\n"
 807:../Bsp/ESP01/esp01s.c ****              "\r\n",
 808:../Bsp/ESP01/esp01s.c ****              apiKey, location, language, unit);
 809:../Bsp/ESP01/esp01s.c ****     reqLen = (uint16_t)strlen(req);
 810:../Bsp/ESP01/esp01s.c **** 
 811:../Bsp/ESP01/esp01s.c ****     /* ่ฎพ็ฝฎๅคฉๆฐๆฅ่ฏข็ญๅพๆ ๅฟ,ๅ่ฐๅฐ็ผๅญๆๆๅๅงๅๅบๆฐๆฎ */
 812:../Bsp/ESP01/esp01s.c ****     s_esp01s.weatherPending = 1;
 813:../Bsp/ESP01/esp01s.c ****     s_esp01s.weatherRxLen = 0;
 814:../Bsp/ESP01/esp01s.c ****     s_esp01s.weatherRxBuf[0] = '\0';
 815:../Bsp/ESP01/esp01s.c **** 
 816:../Bsp/ESP01/esp01s.c ****     /* ้่ฟAT+CIPSENDๅ้HTTP่ฏทๆฑ */
 817:../Bsp/ESP01/esp01s.c ****     snprintf(sendCmd, sizeof(sendCmd), "AT+CIPSEND=%d\r\n", reqLen);
 818:../Bsp/ESP01/esp01s.c ****     ESP01S_SendATCmd(sendCmd, 200);
 819:../Bsp/ESP01/esp01s.c ****     UartDrv_Send(s_esp01s.pUartDrv, (uint8_t *)req, reqLen);
 820:../Bsp/ESP01/esp01s.c ****     ESP01S_DELAY(500);
 821:../Bsp/ESP01/esp01s.c **** 
 822:../Bsp/ESP01/esp01s.c ****     /* ็ญๅพHTTPๅๅบ(ๅฟ็ฅๅคฉๆฐๅๅบ้ๅธธๅจ1~3็งๅ่ฟๅ) */
 823:../Bsp/ESP01/esp01s.c ****     ESP01S_DELAY(4000);
 824:../Bsp/ESP01/esp01s.c **** 
 825:../Bsp/ESP01/esp01s.c ****     s_esp01s.weatherPending = 0;
 826:../Bsp/ESP01/esp01s.c **** 
 827:../Bsp/ESP01/esp01s.c ****     /* ่งฃๆHTTPๅๅบไฝไธญ็JSONๅญๆฎต */
 828:../Bsp/ESP01/esp01s.c ****     body = strstr(s_esp01s.weatherRxBuf, "\r\n\r\n");
ARM GAS  C:\Users\fish\AppData\Local\Temp\ccIMbRKB.s 			page 16


 829:../Bsp/ESP01/esp01s.c ****     if (body != NULL)
 830:../Bsp/ESP01/esp01s.c ****     {
 831:../Bsp/ESP01/esp01s.c ****         body += 4; /* ่ทณ่ฟHTTPๅคด้จๅ้็ฌฆ */
 832:../Bsp/ESP01/esp01s.c **** 
 833:../Bsp/ESP01/esp01s.c ****         /* ๆฃๆตAPI้่ฏฏๅๅบ: {"status":"...","status_code":"APxxxxxx"} */
 834:../Bsp/ESP01/esp01s.c ****         {
 835:../Bsp/ESP01/esp01s.c ****             char apiErr[64];
 836:../Bsp/ESP01/esp01s.c ****             if (ESP01S_JsonExtractString(body, "status_code", apiErr, sizeof(apiErr)) != NULL)
 837:../Bsp/ESP01/esp01s.c ****             {
 838:../Bsp/ESP01/esp01s.c ****                 char apiMsg[64];
 839:../Bsp/ESP01/esp01s.c ****                 if (ESP01S_JsonExtractString(body, "status", apiMsg, sizeof(apiMsg)) == NULL)
 840:../Bsp/ESP01/esp01s.c ****                     apiMsg[0] = '\0';
 841:../Bsp/ESP01/esp01s.c ****                 printf("[ESP01S] ๅคฉๆฐAPI้่ฏฏ: [%s] %s\r\n", apiErr, apiMsg);
 842:../Bsp/ESP01/esp01s.c ****                 ret = -4;
 843:../Bsp/ESP01/esp01s.c ****                 goto WEATHER_RESTORE;
 844:../Bsp/ESP01/esp01s.c ****             }
 845:../Bsp/ESP01/esp01s.c ****         }
 846:../Bsp/ESP01/esp01s.c **** 
 847:../Bsp/ESP01/esp01s.c ****         /* ๅฎไฝ daily ๆฐ็ป(ๅชๅ็ฌฌ1ๅคฉ), ๅจๅถไธญ่งฃๆ็ฝๅคฉ/ๅค้ดๅคฉๆฐใๆธฉๅบฆใ้้จ
 848:../Bsp/ESP01/esp01s.c ****         const char *daily = strstr(body, "\"daily\"");
 849:../Bsp/ESP01/esp01s.c ****         if (daily == NULL)
 850:../Bsp/ESP01/esp01s.c ****         {
 851:../Bsp/ESP01/esp01s.c ****             printf("[ESP01S] ๅคฉๆฐJSON่งฃๆๅคฑ่ดฅ(ๆชๆพๅฐdaily), ๅๅงๅๅบ:\r\n%.120s\r\n", 
 852:../Bsp/ESP01/esp01s.c ****             ret = -4;
 853:../Bsp/ESP01/esp01s.c ****             goto WEATHER_RESTORE;
 854:../Bsp/ESP01/esp01s.c ****         }
 855:../Bsp/ESP01/esp01s.c **** 
 856:../Bsp/ESP01/esp01s.c ****         if (ESP01S_JsonExtractString(daily, "text_day", outTextDay, textDayBufSize) == NULL ||
 857:../Bsp/ESP01/esp01s.c ****             ESP01S_JsonExtractString(daily, "high", outHigh, highBufSize) == NULL ||
 858:../Bsp/ESP01/esp01s.c ****             ESP01S_JsonExtractString(daily, "text_night", outTextNight, textNightBufSize) == NULL |
 859:../Bsp/ESP01/esp01s.c ****             ESP01S_JsonExtractString(daily, "low", outLow, lowBufSize) == NULL ||
 860:../Bsp/ESP01/esp01s.c ****             ESP01S_JsonExtractString(daily, "precip", outPrecip, precipBufSize) == NULL)
 861:../Bsp/ESP01/esp01s.c ****         {
 862:../Bsp/ESP01/esp01s.c ****             printf("[ESP01S] ๅคฉๆฐJSON่งฃๆๅคฑ่ดฅ(dailyๅญๆฎต), ๅๅงๅๅบ:\r\n%.120s\r\n", bod
 863:../Bsp/ESP01/esp01s.c ****             ret = -4;
 864:../Bsp/ESP01/esp01s.c ****             goto WEATHER_RESTORE;
 865:../Bsp/ESP01/esp01s.c ****         }
 866:../Bsp/ESP01/esp01s.c **** 
 867:../Bsp/ESP01/esp01s.c ****         /* ๆๅๅๅธๅ๏ผๅจ "location" ๅไธญๆ็ดข "name" */
 868:../Bsp/ESP01/esp01s.c ****         if (outCity && cityBufSize > 0)
 869:../Bsp/ESP01/esp01s.c ****         {
 870:../Bsp/ESP01/esp01s.c ****             const char *loc = strstr(body, "\"location\"");
 871:../Bsp/ESP01/esp01s.c ****             if (loc)
 872:../Bsp/ESP01/esp01s.c ****             {
 873:../Bsp/ESP01/esp01s.c ****                 ESP01S_JsonExtractString(loc, "name", outCity, cityBufSize);
 874:../Bsp/ESP01/esp01s.c ****             }
 875:../Bsp/ESP01/esp01s.c ****             else
 876:../Bsp/ESP01/esp01s.c ****             {
 877:../Bsp/ESP01/esp01s.c ****                 outCity[0] = '\0';
 878:../Bsp/ESP01/esp01s.c ****             }
 879:../Bsp/ESP01/esp01s.c ****         }
 880:../Bsp/ESP01/esp01s.c **** 
 881:../Bsp/ESP01/esp01s.c ****         printf("[ESP01S] ๅคฉๆฐๆฅ่ฏขๆๅ: %s ็ฝๅคฉ%s %sC ๅค้ด%s %sC ้้จๆฆ็%s\r\n",
 882:../Bsp/ESP01/esp01s.c ****                outCity, outTextDay, outHigh, outTextNight, outLow, outPrecip);
 883:../Bsp/ESP01/esp01s.c ****         ret = 0;
 884:../Bsp/ESP01/esp01s.c ****     }
 885:../Bsp/ESP01/esp01s.c ****     else
ARM GAS  C:\Users\fish\AppData\Local\Temp\ccIMbRKB.s 			page 17


 886:../Bsp/ESP01/esp01s.c ****     {
 887:../Bsp/ESP01/esp01s.c ****         printf("[ESP01S] ๅคฉๆฐHTTPๅๅบ่งฃๆๅคฑ่ดฅ\r\n");
 888:../Bsp/ESP01/esp01s.c ****         ret = -4;
 889:../Bsp/ESP01/esp01s.c ****     }
 890:../Bsp/ESP01/esp01s.c **** 
 891:../Bsp/ESP01/esp01s.c **** WEATHER_RESTORE:
 892:../Bsp/ESP01/esp01s.c ****     /* ๅณ้ญๅคฉๆฐHTTP่ฟๆฅ */
 893:../Bsp/ESP01/esp01s.c ****     ESP01S_SendATCmd("AT+CIPCLOSE\r\n", 500);
 894:../Bsp/ESP01/esp01s.c **** 
 895:../Bsp/ESP01/esp01s.c ****     /* ๆขๅคๅๆTCP้ไผ ่ฟๆฅ */
 896:../Bsp/ESP01/esp01s.c ****     if (s_esp01s.config.tcpServerIP[0] != '\0' && s_esp01s.config.tcpPort != 0)
 897:../Bsp/ESP01/esp01s.c ****     {
 898:../Bsp/ESP01/esp01s.c ****         ESP01S_RestoreTcpTransparent();
 899:../Bsp/ESP01/esp01s.c ****     }
 900:../Bsp/ESP01/esp01s.c ****     else
 901:../Bsp/ESP01/esp01s.c ****     {
 902:../Bsp/ESP01/esp01s.c ****         s_esp01s.state = ESP01S_STATE_WIFI_CONNECTED;
 903:../Bsp/ESP01/esp01s.c ****     }
 904:../Bsp/ESP01/esp01s.c **** 
 905:../Bsp/ESP01/esp01s.c ****     return ret;
 906:../Bsp/ESP01/esp01s.c **** }
 907:../Bsp/ESP01/esp01s.c **** 
 908:../Bsp/ESP01/esp01s.c **** /* ====== ๆถ้ด่ทๅ ====== */
 909:../Bsp/ESP01/esp01s.c **** 
 910:../Bsp/ESP01/esp01s.c **** /**
 911:../Bsp/ESP01/esp01s.c ****  * @brief  ่ทๅๅฝๅๆถ้ดๅญ็ฌฆไธฒ
 912:../Bsp/ESP01/esp01s.c ****  * @param  pRtc    STM32 RTCๅฅๆๆ้,ไผ NULLๅไธไปRTC่ฏปๅ
 913:../Bsp/ESP01/esp01s.c ****  * @param  format  ๆถ้ดๆ ผๅผ: DT_DATE/DT_TIME/DT_ALL
 914:../Bsp/ESP01/esp01s.c ****  * @param  pBuf    ่พๅบๅญ็ฌฆไธฒ็ผๅฒๅบ(็ฑ่ฐ็จ่ๅ้)
 915:../Bsp/ESP01/esp01s.c ****  * @param  bufLen  ็ผๅฒๅบ้ฟๅบฆ(ๅปบ่ฎฎ>=24ๅญ่)
 916:../Bsp/ESP01/esp01s.c ****  * @retval 0:ๆๅ  -1:ๆ ๅฏ็จๆถ้ดๆบ
 917:../Bsp/ESP01/esp01s.c ****  * @note   ๆถ้ดๆฅๆบไผๅ็บง:
 918:../Bsp/ESP01/esp01s.c ****  *         1. RTC(ๅฆๆpRtc้NULLไธRTCๅนดไปฝ>2000) โ ๆ็ฒพ็กฎ,ๆ็ตๅฏไฟๆ
 919:../Bsp/ESP01/esp01s.c ****  *         2. NTPๆถ้ด+HAL_Tickๅทฎๅผๆจ็ฎ(ๅฆๆNTPๅทฒๆๆถ) โ ๆ่ฝปๅพฎ็ดฏ็งฏ่ฏฏๅทฎ
 920:../Bsp/ESP01/esp01s.c ****  *         ไธค็งๆฅๆบไบไธบๅคไปฝ: RTCๆ็ตๅๅฏ็ฑNTPๆ กๅ,NTPๆชๆๆถๆถRTCไปๅฏๆไพๆถ้
 921:../Bsp/ESP01/esp01s.c ****  */
 922:../Bsp/ESP01/esp01s.c **** int ESP01S_GetDateTime(RTC_HandleTypeDef *pRtc, DT_Format_t format, char *pBuf, uint16_t bufLen)
 923:../Bsp/ESP01/esp01s.c **** {
 924:../Bsp/ESP01/esp01s.c ****     if (pBuf == NULL || bufLen == 0)
 925:../Bsp/ESP01/esp01s.c ****         return -1;
 926:../Bsp/ESP01/esp01s.c **** 
 927:../Bsp/ESP01/esp01s.c ****     ESP01S_NtpTime_t now;
 928:../Bsp/ESP01/esp01s.c ****     memset(&now, 0, sizeof(now));
 929:../Bsp/ESP01/esp01s.c **** 
 930:../Bsp/ESP01/esp01s.c ****     /* ไผๅ็บง1: ๅฐ่ฏไปRTC่ฏปๅ(็กฌไปถๅฎๆถๆถ้,ๆ็ฒพ็กฎ) */
 931:../Bsp/ESP01/esp01s.c ****     if (pRtc != NULL)
 932:../Bsp/ESP01/esp01s.c ****     {
 933:../Bsp/ESP01/esp01s.c ****         RTC_TimeTypeDef sTime = {0};
 934:../Bsp/ESP01/esp01s.c ****         RTC_DateTypeDef sDate = {0};
 935:../Bsp/ESP01/esp01s.c **** 
 936:../Bsp/ESP01/esp01s.c ****         /* ๆณจๆ: HAL_RTC_GetTimeๅฟ้กปๅไบGetDate่ฐ็จ,่ฟๆฏHALๅบ็็บฆๆ */
 937:../Bsp/ESP01/esp01s.c ****         if (HAL_RTC_GetTime(pRtc, &sTime, RTC_FORMAT_BCD) == HAL_OK &&
 938:../Bsp/ESP01/esp01s.c ****             HAL_RTC_GetDate(pRtc, &sDate, RTC_FORMAT_BCD) == HAL_OK)
 939:../Bsp/ESP01/esp01s.c ****         {
 940:../Bsp/ESP01/esp01s.c ****             /* BCD่ฝฌๅ่ฟๅถ */
 941:../Bsp/ESP01/esp01s.c ****             now.year    = (uint16_t)BcdToDec(sDate.Year) + 2000;
 942:../Bsp/ESP01/esp01s.c ****             now.month   = BcdToDec(sDate.Month);
ARM GAS  C:\Users\fish\AppData\Local\Temp\ccIMbRKB.s 			page 18


 943:../Bsp/ESP01/esp01s.c ****             now.day     = BcdToDec(sDate.Date);
 944:../Bsp/ESP01/esp01s.c ****             now.hour    = BcdToDec(sTime.Hours);
 945:../Bsp/ESP01/esp01s.c ****             now.minute  = BcdToDec(sTime.Minutes);
 946:../Bsp/ESP01/esp01s.c ****             now.second  = BcdToDec(sTime.Seconds);
 947:../Bsp/ESP01/esp01s.c ****             now.weekday = sDate.WeekDay;
 948:../Bsp/ESP01/esp01s.c **** 
 949:../Bsp/ESP01/esp01s.c ****             /* RTCๅนดไปฝ>2000ๆ่ฎคไธบๆๆ(ๆชๅๅงๅ็RTCๅนดไปฝ้ๅธธไธบ0ๆ2000) */
 950:../Bsp/ESP01/esp01s.c ****             if (now.year > 2000)
 951:../Bsp/ESP01/esp01s.c ****             {
 952:../Bsp/ESP01/esp01s.c ****                 FormatDateTime(&now, format, pBuf, bufLen);
 953:../Bsp/ESP01/esp01s.c ****                 return 0;
 954:../Bsp/ESP01/esp01s.c ****             }
 955:../Bsp/ESP01/esp01s.c ****         }
 956:../Bsp/ESP01/esp01s.c ****     }
 957:../Bsp/ESP01/esp01s.c **** 
 958:../Bsp/ESP01/esp01s.c ****     /* ไผๅ็บง2: NTPๆถ้ด + HAL_Tickๅทฎๅผๆจ็ฎ
 959:../Bsp/ESP01/esp01s.c ****      * ๅ็: NTPๆๆถๆๅๆถ่ฎฐๅฝไบๅฝๆถ็Unixๆถ้ดๆณๅHAL_Tickๅผ,
 960:../Bsp/ESP01/esp01s.c ****      * ๅฝๅๆถ้ด = ntpUnixTimestamp + (ๅฝๅTick - ntpTick) / 1000
 961:../Bsp/ESP01/esp01s.c ****      * ่ฟ็งๆนๆณๆ่ฝปๅพฎ็ดฏ็งฏ่ฏฏๅทฎ(HAL_Tick็ฒพๅบฆไธบ1ms),้ฟๆถ้ด่ฟ่ก้้ๆฐๆๆถ */
 962:../Bsp/ESP01/esp01s.c ****     if (s_esp01s.ntpTimeValid)
 963:../Bsp/ESP01/esp01s.c ****     {
 964:../Bsp/ESP01/esp01s.c ****         uint32_t elapsedMs = HAL_GetTick() - s_esp01s.ntpTick;
 965:../Bsp/ESP01/esp01s.c ****         uint32_t elapsedSec = elapsedMs / 1000;
 966:../Bsp/ESP01/esp01s.c **** 
 967:../Bsp/ESP01/esp01s.c ****         /* ๅฝๅUTCๆถ้ดๆณ = NTPๆถUTCๆถ้ดๆณ + ็ป่ฟ็็งๆฐ,ๅๅ ๆถๅบๅ็งป */
 968:../Bsp/ESP01/esp01s.c ****         uint32_t currentTs = s_esp01s.ntpUnixTimestamp + elapsedSec;
 969:../Bsp/ESP01/esp01s.c ****         UnixToDateTime(currentTs, s_esp01s.config.ntpTimezone, &now);
 970:../Bsp/ESP01/esp01s.c **** 
 971:../Bsp/ESP01/esp01s.c ****         FormatDateTime(&now, format, pBuf, bufLen);
 972:../Bsp/ESP01/esp01s.c ****         return 0;
 973:../Bsp/ESP01/esp01s.c ****     }
 974:../Bsp/ESP01/esp01s.c **** 
 975:../Bsp/ESP01/esp01s.c ****     /* ๆ ๅฏ็จๆถ้ดๆบ: RTCๆ ๆไธNTPๆชๆๆถ */
 976:../Bsp/ESP01/esp01s.c ****     pBuf[0] = '\0';
 977:../Bsp/ESP01/esp01s.c ****     return -1;
 978:../Bsp/ESP01/esp01s.c **** }
 979:../Bsp/ESP01/esp01s.c **** 
 980:../Bsp/ESP01/esp01s.c **** /* ====== ็งๆๅฝๆฐๅฎ็ฐ ====== */
 981:../Bsp/ESP01/esp01s.c **** 
 982:../Bsp/ESP01/esp01s.c **** /**
 983:../Bsp/ESP01/esp01s.c ****  * @brief  ๅ่ฟๅถ่ฝฌBCD(Binary-Coded Decimal)
 984:../Bsp/ESP01/esp01s.c ****  * @param  dec ๅ่ฟๅถๆฐ(0~99)
 985:../Bsp/ESP01/esp01s.c ****  * @retval BCD็ผ็ ๅผ,ๅฆ23 โ 0x23
 986:../Bsp/ESP01/esp01s.c ****  * @note   STM32 HAL RTC่ฆๆฑๆถ้ดๆฅๆไธบBCDๆ ผๅผ
 987:../Bsp/ESP01/esp01s.c ****  *         ไพ: 23็น โ DecToBcd(23) = 0x23
 988:../Bsp/ESP01/esp01s.c ****  */
 989:../Bsp/ESP01/esp01s.c **** static uint8_t DecToBcd(uint8_t dec)
 990:../Bsp/ESP01/esp01s.c **** {
  29              		.loc 1 990 1 view -0
  30              		.cfi_startproc
  31              		@ args = 0, pretend = 0, frame = 0
  32              		@ frame_needed = 0, uses_anonymous_args = 0
  33              		@ link register save eliminated.
 991:../Bsp/ESP01/esp01s.c ****     return (uint8_t)((dec / 10) << 4) | (dec % 10);
  34              		.loc 1 991 5 view .LVU1
  35              		.loc 1 991 12 is_stmt 0 view .LVU2
  36 0000 064B     		ldr	r3, .L2
ARM GAS  C:\Users\fish\AppData\Local\Temp\ccIMbRKB.s 			page 19


  37 0002 A3FB0023 		umull	r2, r3, r3, r0
  38 0006 DB08     		lsrs	r3, r3, #3
  39 0008 1A01     		lsls	r2, r3, #4
  40 000a D2B2     		uxtb	r2, r2
  41              		.loc 1 991 39 view .LVU3
  42 000c 03EB8303 		add	r3, r3, r3, lsl #2
  43 0010 A0EB4300 		sub	r0, r0, r3, lsl #1
  44              	.LVL1:
  45              		.loc 1 991 39 view .LVU4
  46 0014 1043     		orrs	r0, r0, r2
 992:../Bsp/ESP01/esp01s.c **** }
  47              		.loc 1 992 1 view .LVU5
  48 0016 C0B2     		uxtb	r0, r0
  49 0018 7047     		bx	lr
  50              	.L3:
  51 001a 00BF     		.align	2
  52              	.L2:
  53 001c CDCCCCCC 		.word	-858993459
  54              		.cfi_endproc
  55              	.LFE270:
  57              		.section	.text.BcdToDec,"ax",%progbits
  58              		.align	1
  59              		.syntax unified
  60              		.thumb
  61              		.thumb_func
  63              	BcdToDec:
  64              	.LVL2:
  65              	.LFB271:
 993:../Bsp/ESP01/esp01s.c **** 
 994:../Bsp/ESP01/esp01s.c **** /**
 995:../Bsp/ESP01/esp01s.c ****  * @brief  BCD่ฝฌๅ่ฟๅถ
 996:../Bsp/ESP01/esp01s.c ****  * @param  bcd BCD็ผ็ ๅผ(0x00~0x99)
 997:../Bsp/ESP01/esp01s.c ****  * @retval ๅ่ฟๅถๆฐ,ๅฆ0x23 โ 23
 998:../Bsp/ESP01/esp01s.c ****  */
 999:../Bsp/ESP01/esp01s.c **** static uint8_t BcdToDec(uint8_t bcd)
1000:../Bsp/ESP01/esp01s.c **** {
  66              		.loc 1 1000 1 is_stmt 1 view -0
  67              		.cfi_startproc
  68              		@ args = 0, pretend = 0, frame = 0
  69              		@ frame_needed = 0, uses_anonymous_args = 0
  70              		@ link register save eliminated.
1001:../Bsp/ESP01/esp01s.c ****     return (uint8_t)((bcd >> 4) * 10 + (bcd & 0x0F));
  71              		.loc 1 1001 5 view .LVU7
  72              		.loc 1 1001 45 is_stmt 0 view .LVU8
  73 0000 00F00F03 		and	r3, r0, #15
  74              		.loc 1 1001 12 view .LVU9
  75 0004 0009     		lsrs	r0, r0, #4
  76              	.LVL3:
  77              		.loc 1 1001 12 view .LVU10
  78 0006 00EB8000 		add	r0, r0, r0, lsl #2
  79 000a 03EB4000 		add	r0, r3, r0, lsl #1
1002:../Bsp/ESP01/esp01s.c **** }
  80              		.loc 1 1002 1 view .LVU11
  81 000e C0B2     		uxtb	r0, r0
  82 0010 7047     		bx	lr
  83              		.cfi_endproc
  84              	.LFE271:
ARM GAS  C:\Users\fish\AppData\Local\Temp\ccIMbRKB.s 			page 20


  86              		.section	.text.DateTimeToUnix,"ax",%progbits
  87              		.align	1
  88              		.syntax unified
  89              		.thumb
  90              		.thumb_func
  92              	DateTimeToUnix:
  93              	.LVL4:
  94              	.LFB273:
1003:../Bsp/ESP01/esp01s.c **** 
1004:../Bsp/ESP01/esp01s.c **** /**
1005:../Bsp/ESP01/esp01s.c ****  * @brief  ่งฃๆ่ฑๆๆๆๅ็ผฉๅๅฐๆฐๅญ
1006:../Bsp/ESP01/esp01s.c ****  * @param  str ๆๆๅ็ผฉๅ(ๅฆ"Mon","Tue",่ณๅฐ3ๅญ่)
1007:../Bsp/ESP01/esp01s.c ****  * @retval 1=Mon, 2=Tue, 3=Wed, 4=Thu, 5=Fri, 6=Sat, 7=Sun, 0=่งฃๆๅคฑ่ดฅ
1008:../Bsp/ESP01/esp01s.c ****  * @note   ESP8266 AT+CIPSNTPTIMEๅๅบๆ ผๅผ: +CIPSNTPTIME:Thu Jul 18 10:30:45 2024
1009:../Bsp/ESP01/esp01s.c ****  */
1010:../Bsp/ESP01/esp01s.c **** static uint8_t ParseWeekday(const char *str)
1011:../Bsp/ESP01/esp01s.c **** {
1012:../Bsp/ESP01/esp01s.c ****     if (strncmp(str, "Mon", 3) == 0) return 1;
1013:../Bsp/ESP01/esp01s.c ****     if (strncmp(str, "Tue", 3) == 0) return 2;
1014:../Bsp/ESP01/esp01s.c ****     if (strncmp(str, "Wed", 3) == 0) return 3;
1015:../Bsp/ESP01/esp01s.c ****     if (strncmp(str, "Thu", 3) == 0) return 4;
1016:../Bsp/ESP01/esp01s.c ****     if (strncmp(str, "Fri", 3) == 0) return 5;
1017:../Bsp/ESP01/esp01s.c ****     if (strncmp(str, "Sat", 3) == 0) return 6;
1018:../Bsp/ESP01/esp01s.c ****     if (strncmp(str, "Sun", 3) == 0) return 7;
1019:../Bsp/ESP01/esp01s.c ****     return 0;  /* ๆช็ฅๆๆ */
1020:../Bsp/ESP01/esp01s.c **** }
1021:../Bsp/ESP01/esp01s.c **** 
1022:../Bsp/ESP01/esp01s.c **** /**
1023:../Bsp/ESP01/esp01s.c ****  * @brief  ๅฐESP01S_NtpTime_t่ฝฌไธบUnixๆถ้ดๆณ(UTC)
1024:../Bsp/ESP01/esp01s.c ****  * @param  pTime        ๆถ้ด็ปๆ(ๅทฒๅซๆถๅบๅ็งปๅ็ๆฌๅฐๆถ้ด)
1025:../Bsp/ESP01/esp01s.c ****  * @param  timezoneHrs  ๆถๅบๅฐๆถๆฐ(็จไบ่ฟๅไธบUTC)
1026:../Bsp/ESP01/esp01s.c ****  * @retval Unixๆถ้ดๆณ(UTC็งๆฐ,่ช1970-01-01 00:00:00)
1027:../Bsp/ESP01/esp01s.c ****  * @note   ่ฎก็ฎๆญฅ้ชค:
1028:../Bsp/ESP01/esp01s.c ****  *         1. ไป1970ๅนด่ตท้ๅนด็ดฏๅ ๅคฉๆฐ
1029:../Bsp/ESP01/esp01s.c ****  *         2. ๅ ไธๅฝๅนดๅทฒ่ฟๆ็ๅคฉๆฐ
1030:../Bsp/ESP01/esp01s.c ****  *         3. ๅ ไธๅฝๆๅคฉๆฐๅๆถๅ็ง
1031:../Bsp/ESP01/esp01s.c ****  *         4. ๆฌๅฐๆถ้ดๅๅปๆถๅบๅ็งปๅพๅฐUTCๆถ้ดๆณ
1032:../Bsp/ESP01/esp01s.c ****  */
1033:../Bsp/ESP01/esp01s.c **** static uint32_t DateTimeToUnix(const ESP01S_NtpTime_t *pTime, int timezoneHrs)
1034:../Bsp/ESP01/esp01s.c **** {
  95              		.loc 1 1034 1 is_stmt 1 view -0
  96              		.cfi_startproc
  97              		@ args = 0, pretend = 0, frame = 0
  98              		@ frame_needed = 0, uses_anonymous_args = 0
  99              		.loc 1 1034 1 is_stmt 0 view .LVU13
 100 0000 10B5     		push	{r4, lr}
 101              		.cfi_def_cfa_offset 8
 102              		.cfi_offset 4, -8
 103              		.cfi_offset 14, -4
1035:../Bsp/ESP01/esp01s.c ****     /* ็ฌฌ1ๆญฅ: ่ฎก็ฎไป1970-01-01ๅฐpTime->year-01-01็ๆปๅคฉๆฐ */
1036:../Bsp/ESP01/esp01s.c ****     uint32_t days = 0;
 104              		.loc 1 1036 5 is_stmt 1 view .LVU14
 105              	.LVL5:
1037:../Bsp/ESP01/esp01s.c ****     uint16_t y;
 106              		.loc 1 1037 5 view .LVU15
1038:../Bsp/ESP01/esp01s.c ****     for (y = 1970; y < pTime->year; y++)
 107              		.loc 1 1038 5 view .LVU16
ARM GAS  C:\Users\fish\AppData\Local\Temp\ccIMbRKB.s 			page 21


 108              		.loc 1 1038 12 is_stmt 0 view .LVU17
 109 0002 40F2B273 		movw	r3, #1970
1036:../Bsp/ESP01/esp01s.c ****     uint16_t y;
 110              		.loc 1 1036 14 view .LVU18
 111 0006 4FF0000C 		mov	ip, #0
 112              		.loc 1 1038 5 view .LVU19
 113 000a 04E0     		b	.L6
 114              	.LVL6:
 115              	.L14:
1039:../Bsp/ESP01/esp01s.c ****     {
1040:../Bsp/ESP01/esp01s.c ****         /* ้ฐๅนดๅคๆญ: ่ฝ่ขซ4ๆด้คไธ(ไธ่ฝ่ขซ100ๆด้คๆ่ฝ่ขซ400ๆด้ค) */
1041:../Bsp/ESP01/esp01s.c ****         days += ((y % 4 == 0) && (y % 100 != 0 || y % 400 == 0)) ? 366 : 365;
 116              		.loc 1 1041 72 discriminator 6 view .LVU20
 117 000c 40F26D12 		movw	r2, #365
 118              	.L7:
 119              		.loc 1 1041 14 discriminator 8 view .LVU21
 120 0010 9444     		add	ip, ip, r2
 121              	.LVL7:
1038:../Bsp/ESP01/esp01s.c ****     {
 122              		.loc 1 1038 38 is_stmt 1 discriminator 2 view .LVU22
 123 0012 0133     		adds	r3, r3, #1
 124              	.LVL8:
1038:../Bsp/ESP01/esp01s.c ****     {
 125              		.loc 1 1038 38 is_stmt 0 discriminator 2 view .LVU23
 126 0014 9BB2     		uxth	r3, r3
 127              	.LVL9:
 128              	.L6:
1038:../Bsp/ESP01/esp01s.c ****     {
 129              		.loc 1 1038 22 is_stmt 1 discriminator 1 view .LVU24
1038:../Bsp/ESP01/esp01s.c ****     {
 130              		.loc 1 1038 29 is_stmt 0 discriminator 1 view .LVU25
 131 0016 0288     		ldrh	r2, [r0]
1038:../Bsp/ESP01/esp01s.c ****     {
 132              		.loc 1 1038 22 discriminator 1 view .LVU26
 133 0018 9A42     		cmp	r2, r3
 134 001a 1ED9     		bls	.L21
 135              		.loc 1 1041 9 is_stmt 1 view .LVU27
 136              		.loc 1 1041 72 is_stmt 0 view .LVU28
 137 001c 13F0030F 		tst	r3, #3
 138 0020 F4D1     		bne	.L14
 139              		.loc 1 1041 43 discriminator 1 view .LVU29
 140 0022 334A     		ldr	r2, .L22
 141 0024 A2FB0342 		umull	r4, r2, r2, r3
 142 0028 5209     		lsrs	r2, r2, #5
 143 002a 6424     		movs	r4, #100
 144 002c 04FB1232 		mls	r2, r4, r2, r3
 145 0030 92B2     		uxth	r2, r2
 146              		.loc 1 1041 31 discriminator 1 view .LVU30
 147 0032 62B9     		cbnz	r2, .L15
 148              		.loc 1 1041 59 discriminator 4 view .LVU31
 149 0034 2E4A     		ldr	r2, .L22
 150 0036 A2FB0342 		umull	r4, r2, r2, r3
 151 003a D209     		lsrs	r2, r2, #7
 152 003c 4FF4C874 		mov	r4, #400
 153 0040 04FB1232 		mls	r2, r4, r2, r3
 154 0044 92B2     		uxth	r2, r2
 155              		.loc 1 1041 48 discriminator 4 view .LVU32
ARM GAS  C:\Users\fish\AppData\Local\Temp\ccIMbRKB.s 			page 22


 156 0046 2AB1     		cbz	r2, .L16
 157              		.loc 1 1041 72 discriminator 6 view .LVU33
 158 0048 40F26D12 		movw	r2, #365
 159 004c E0E7     		b	.L7
 160              	.L15:
 161              		.loc 1 1041 72 discriminator 5 view .LVU34
 162 004e 4FF4B772 		mov	r2, #366
 163 0052 DDE7     		b	.L7
 164              	.L16:
 165 0054 4FF4B772 		mov	r2, #366
 166 0058 DAE7     		b	.L7
 167              	.L21:
1042:../Bsp/ESP01/esp01s.c ****     }
1043:../Bsp/ESP01/esp01s.c **** 
1044:../Bsp/ESP01/esp01s.c ****     /* ็ฌฌ2ๆญฅ: ๅ ไธๅฝๅนดๅทฒ่ฟๆ็ๅคฉๆฐ
1045:../Bsp/ESP01/esp01s.c ****      * dim[0]: ๅนณๅนดๆฏๆๅคฉๆฐ, dim[1]: ้ฐๅนดๆฏๆๅคฉๆฐ(2ๆ29ๅคฉ) */
1046:../Bsp/ESP01/esp01s.c ****     static const uint8_t dim[2][12] = {
 168              		.loc 1 1046 5 is_stmt 1 view .LVU35
1047:../Bsp/ESP01/esp01s.c ****         {31, 28, 31, 30, 31, 30, 31, 31, 30, 31, 30, 31},
1048:../Bsp/ESP01/esp01s.c ****         {31, 29, 31, 30, 31, 30, 31, 31, 30, 31, 30, 31},
1049:../Bsp/ESP01/esp01s.c ****     };
1050:../Bsp/ESP01/esp01s.c ****     uint8_t leap = ((pTime->year % 4 == 0) && (pTime->year % 100 != 0 || pTime->year % 400 == 0)) ?
 169              		.loc 1 1050 5 view .LVU36
 170              		.loc 1 1050 103 is_stmt 0 view .LVU37
 171 005a 12F0030F 		tst	r2, #3
 172 005e 14D1     		bne	.L17
 173              		.loc 1 1050 66 discriminator 1 view .LVU38
 174 0060 234B     		ldr	r3, .L22
 175              	.LVL10:
 176              		.loc 1 1050 66 discriminator 1 view .LVU39
 177 0062 A3FB0243 		umull	r4, r3, r3, r2
 178 0066 5B09     		lsrs	r3, r3, #5
 179 0068 6424     		movs	r4, #100
 180 006a 04FB1323 		mls	r3, r4, r3, r2
 181 006e 9BB2     		uxth	r3, r3
 182              		.loc 1 1050 103 discriminator 1 view .LVU40
 183 0070 73B9     		cbnz	r3, .L18
 184              		.loc 1 1050 92 discriminator 4 view .LVU41
 185 0072 1F4B     		ldr	r3, .L22
 186 0074 A3FB0243 		umull	r4, r3, r3, r2
 187 0078 DB09     		lsrs	r3, r3, #7
 188 007a 4FF4C874 		mov	r4, #400
 189 007e 04FB1322 		mls	r2, r4, r3, r2
 190 0082 92B2     		uxth	r2, r2
 191              		.loc 1 1050 71 discriminator 4 view .LVU42
 192 0084 32B1     		cbz	r2, .L19
 193              		.loc 1 1050 103 discriminator 6 view .LVU43
 194 0086 0024     		movs	r4, #0
 195 0088 00E0     		b	.L9
 196              	.LVL11:
 197              	.L17:
 198              		.loc 1 1050 103 discriminator 6 view .LVU44
 199 008a 0024     		movs	r4, #0
 200              	.LVL12:
 201              	.L9:
1051:../Bsp/ESP01/esp01s.c ****     uint8_t m;
 202              		.loc 1 1051 5 is_stmt 1 view .LVU45
ARM GAS  C:\Users\fish\AppData\Local\Temp\ccIMbRKB.s 			page 23


1052:../Bsp/ESP01/esp01s.c ****     for (m = 0; m < (uint8_t)(pTime->month - 1); m++)
 203              		.loc 1 1052 5 view .LVU46
 204              		.loc 1 1052 12 is_stmt 0 view .LVU47
 205 008c 0022     		movs	r2, #0
 206              		.loc 1 1052 5 view .LVU48
 207 008e 0CE0     		b	.L10
 208              	.LVL13:
 209              	.L18:
1050:../Bsp/ESP01/esp01s.c ****     uint8_t m;
 210              		.loc 1 1050 103 discriminator 5 view .LVU49
 211 0090 0124     		movs	r4, #1
 212 0092 FBE7     		b	.L9
 213              	.L19:
 214 0094 0124     		movs	r4, #1
 215 0096 F9E7     		b	.L9
 216              	.LVL14:
 217              	.L11:
1053:../Bsp/ESP01/esp01s.c ****     {
1054:../Bsp/ESP01/esp01s.c ****         days += dim[leap][m];
 218              		.loc 1 1054 9 is_stmt 1 view .LVU50
 219              		.loc 1 1054 26 is_stmt 0 view .LVU51
 220 0098 04EB440E 		add	lr, r4, r4, lsl #1
 221 009c 154B     		ldr	r3, .L22+4
 222 009e 03EB8E03 		add	r3, r3, lr, lsl #2
 223 00a2 9B5C     		ldrb	r3, [r3, r2]	@ zero_extendqisi2
 224              		.loc 1 1054 14 view .LVU52
 225 00a4 9C44     		add	ip, ip, r3
 226              	.LVL15:
1052:../Bsp/ESP01/esp01s.c ****     {
 227              		.loc 1 1052 51 is_stmt 1 discriminator 3 view .LVU53
 228 00a6 0132     		adds	r2, r2, #1
 229              	.LVL16:
1052:../Bsp/ESP01/esp01s.c ****     {
 230              		.loc 1 1052 51 is_stmt 0 discriminator 3 view .LVU54
 231 00a8 D2B2     		uxtb	r2, r2
 232              	.LVL17:
 233              	.L10:
1052:../Bsp/ESP01/esp01s.c ****     {
 234              		.loc 1 1052 19 is_stmt 1 discriminator 1 view .LVU55
1052:../Bsp/ESP01/esp01s.c ****     {
 235              		.loc 1 1052 36 is_stmt 0 discriminator 1 view .LVU56
 236 00aa 8378     		ldrb	r3, [r0, #2]	@ zero_extendqisi2
1052:../Bsp/ESP01/esp01s.c ****     {
 237              		.loc 1 1052 21 discriminator 1 view .LVU57
 238 00ac 013B     		subs	r3, r3, #1
 239 00ae DBB2     		uxtb	r3, r3
1052:../Bsp/ESP01/esp01s.c ****     {
 240              		.loc 1 1052 19 discriminator 1 view .LVU58
 241 00b0 9342     		cmp	r3, r2
 242 00b2 F1D8     		bhi	.L11
1055:../Bsp/ESP01/esp01s.c ****     }
1056:../Bsp/ESP01/esp01s.c **** 
1057:../Bsp/ESP01/esp01s.c ****     /* ็ฌฌ3ๆญฅ: ๅ ไธๅฝๆๅคฉๆฐ(ๆฅ-1,ๅ ไธบๅฝๅคฉ่ฟๆช็ปๆ) */
1058:../Bsp/ESP01/esp01s.c ****     days += (uint32_t)(pTime->day - 1);
 243              		.loc 1 1058 5 is_stmt 1 view .LVU59
 244              		.loc 1 1058 29 is_stmt 0 view .LVU60
 245 00b4 C278     		ldrb	r2, [r0, #3]	@ zero_extendqisi2
ARM GAS  C:\Users\fish\AppData\Local\Temp\ccIMbRKB.s 			page 24


 246              	.LVL18:
 247              		.loc 1 1058 10 view .LVU61
 248 00b6 6244     		add	r2, r2, ip
 249 00b8 013A     		subs	r2, r2, #1
 250              	.LVL19:
1059:../Bsp/ESP01/esp01s.c **** 
1060:../Bsp/ESP01/esp01s.c ****     /* ็ฌฌ4ๆญฅ: ๆป็งๆฐ = ๅคฉๆฐ*86400 + ๆถๅ็ง */
1061:../Bsp/ESP01/esp01s.c ****     uint32_t ts = days * 86400
 251              		.loc 1 1061 5 is_stmt 1 view .LVU62
1062:../Bsp/ESP01/esp01s.c ****                 + (uint32_t)pTime->hour * 3600
 252              		.loc 1 1062 34 is_stmt 0 view .LVU63
 253 00ba 0379     		ldrb	r3, [r0, #4]	@ zero_extendqisi2
 254              		.loc 1 1062 41 view .LVU64
 255 00bc 4FF46164 		mov	r4, #3600
 256              	.LVL20:
 257              		.loc 1 1062 41 view .LVU65
 258 00c0 04FB03F3 		mul	r3, r4, r3
 259              		.loc 1 1062 17 view .LVU66
 260 00c4 0C4C     		ldr	r4, .L22+8
 261 00c6 04FB0233 		mla	r3, r4, r2, r3
1063:../Bsp/ESP01/esp01s.c ****                 + (uint32_t)pTime->minute * 60
 262              		.loc 1 1063 34 view .LVU67
 263 00ca 4279     		ldrb	r2, [r0, #5]	@ zero_extendqisi2
 264              	.LVL21:
 265              		.loc 1 1063 43 view .LVU68
 266 00cc C2EB0212 		rsb	r2, r2, r2, lsl #4
 267              		.loc 1 1063 17 view .LVU69
 268 00d0 03EB8203 		add	r3, r3, r2, lsl #2
1064:../Bsp/ESP01/esp01s.c ****                 + (uint32_t)pTime->second;
 269              		.loc 1 1064 34 view .LVU70
 270 00d4 8279     		ldrb	r2, [r0, #6]	@ zero_extendqisi2
1061:../Bsp/ESP01/esp01s.c ****                 + (uint32_t)pTime->hour * 3600
 271              		.loc 1 1061 14 view .LVU71
 272 00d6 9818     		adds	r0, r3, r2
 273              	.LVL22:
1065:../Bsp/ESP01/esp01s.c **** 
1066:../Bsp/ESP01/esp01s.c ****     /* ็ฌฌ5ๆญฅ: ๆฌๅฐๆถ้ดๅๅปๆถๅบๅ็งปๅพๅฐUTC
1067:../Bsp/ESP01/esp01s.c ****      * ไพๅฆไธๅซๅบ: ๆฌๅฐ10:00 โ UTC 10:00-8:00 = 02:00 */
1068:../Bsp/ESP01/esp01s.c ****     if (timezoneHrs >= 0)
 274              		.loc 1 1068 5 is_stmt 1 view .LVU72
 275              		.loc 1 1068 8 is_stmt 0 view .LVU73
 276 00d8 0029     		cmp	r1, #0
 277 00da 04DB     		blt	.L12
1069:../Bsp/ESP01/esp01s.c ****         ts -= (uint32_t)timezoneHrs * 3600;
 278              		.loc 1 1069 9 is_stmt 1 view .LVU74
 279              		.loc 1 1069 12 is_stmt 0 view .LVU75
 280 00dc 4FF46163 		mov	r3, #3600
 281 00e0 03FB1100 		mls	r0, r3, r1, r0
 282              	.LVL23:
 283              	.L5:
1070:../Bsp/ESP01/esp01s.c ****     else
1071:../Bsp/ESP01/esp01s.c ****         ts += (uint32_t)(-timezoneHrs) * 3600;
1072:../Bsp/ESP01/esp01s.c **** 
1073:../Bsp/ESP01/esp01s.c ****     return ts;
1074:../Bsp/ESP01/esp01s.c **** }
 284              		.loc 1 1074 1 view .LVU76
 285 00e4 10BD     		pop	{r4, pc}
ARM GAS  C:\Users\fish\AppData\Local\Temp\ccIMbRKB.s 			page 25


 286              	.L12:
1071:../Bsp/ESP01/esp01s.c **** 
 287              		.loc 1 1071 9 is_stmt 1 view .LVU77
1071:../Bsp/ESP01/esp01s.c **** 
 288              		.loc 1 1071 12 is_stmt 0 view .LVU78
 289 00e6 054B     		ldr	r3, .L22+12
 290 00e8 03FB0100 		mla	r0, r3, r1, r0
 291              	.LVL24:
1073:../Bsp/ESP01/esp01s.c **** }
 292              		.loc 1 1073 5 is_stmt 1 view .LVU79
1073:../Bsp/ESP01/esp01s.c **** }
 293              		.loc 1 1073 12 is_stmt 0 view .LVU80
 294 00ec FAE7     		b	.L5
 295              	.L23:
 296 00ee 00BF     		.align	2
 297              	.L22:
 298 00f0 1F85EB51 		.word	1374389535
 299 00f4 00000000 		.word	dim.0
 300 00f8 80510100 		.word	86400
 301 00fc F0F1FFFF 		.word	-3600
 302              		.cfi_endproc
 303              	.LFE273:
 305              		.section	.text.UnixToDateTime,"ax",%progbits
 306              		.align	1
 307              		.syntax unified
 308              		.thumb
 309              		.thumb_func
 311              	UnixToDateTime:
 312              	.LVL25:
 313              	.LFB275:
1075:../Bsp/ESP01/esp01s.c **** 
1076:../Bsp/ESP01/esp01s.c **** /**
1077:../Bsp/ESP01/esp01s.c ****  * @brief  ๆ ผๅผๅๆถ้ดๅฐๅญ็ฌฆไธฒ
1078:../Bsp/ESP01/esp01s.c ****  * @param  pTime   ๆถ้ด็ปๆๆ้
1079:../Bsp/ESP01/esp01s.c ****  * @param  format  ๆ ผๅผ็ฑปๅ: DT_DATE/DT_TIME/DT_ALL
1080:../Bsp/ESP01/esp01s.c ****  * @param  pBuf    ่พๅบ็ผๅฒๅบ
1081:../Bsp/ESP01/esp01s.c ****  * @param  bufLen  ็ผๅฒๅบ้ฟๅบฆ
1082:../Bsp/ESP01/esp01s.c ****  * @note   ่พๅบ็คบไพ:
1083:../Bsp/ESP01/esp01s.c ****  *         DT_DATE: "2026-04-12"
1084:../Bsp/ESP01/esp01s.c ****  *         DT_TIME: "14:30:45"
1085:../Bsp/ESP01/esp01s.c ****  *         DT_ALL:  "2026-04-12 14:30:45"
1086:../Bsp/ESP01/esp01s.c ****  */
1087:../Bsp/ESP01/esp01s.c **** static void FormatDateTime(const ESP01S_NtpTime_t *pTime, DT_Format_t format, char *pBuf, uint16_t 
1088:../Bsp/ESP01/esp01s.c **** {
1089:../Bsp/ESP01/esp01s.c ****     switch (format)
1090:../Bsp/ESP01/esp01s.c ****     {
1091:../Bsp/ESP01/esp01s.c ****     case DT_DATE:
1092:../Bsp/ESP01/esp01s.c ****         snprintf(pBuf, bufLen, "%04d-%02d-%02d",
1093:../Bsp/ESP01/esp01s.c ****                  pTime->year, pTime->month, pTime->day);
1094:../Bsp/ESP01/esp01s.c ****         break;
1095:../Bsp/ESP01/esp01s.c ****     case DT_TIME:
1096:../Bsp/ESP01/esp01s.c ****         snprintf(pBuf, bufLen, "%02d:%02d:%02d",
1097:../Bsp/ESP01/esp01s.c ****                  pTime->hour, pTime->minute, pTime->second);
1098:../Bsp/ESP01/esp01s.c ****         break;
1099:../Bsp/ESP01/esp01s.c ****     case DT_ALL:
1100:../Bsp/ESP01/esp01s.c ****     default:
1101:../Bsp/ESP01/esp01s.c ****         snprintf(pBuf, bufLen, "%04d-%02d-%02d %02d:%02d:%02d",
ARM GAS  C:\Users\fish\AppData\Local\Temp\ccIMbRKB.s 			page 26


1102:../Bsp/ESP01/esp01s.c ****                  pTime->year, pTime->month, pTime->day,
1103:../Bsp/ESP01/esp01s.c ****                  pTime->hour, pTime->minute, pTime->second);
1104:../Bsp/ESP01/esp01s.c ****         break;
1105:../Bsp/ESP01/esp01s.c ****     }
1106:../Bsp/ESP01/esp01s.c **** }
1107:../Bsp/ESP01/esp01s.c **** 
1108:../Bsp/ESP01/esp01s.c **** /**
1109:../Bsp/ESP01/esp01s.c ****  * @brief  Unixๆถ้ดๆณ(UTC)่ฝฌๆฅๆๆถ้ด(ๅซๆถๅบๅ็งป)
1110:../Bsp/ESP01/esp01s.c ****  * @param  timestamp   Unixๆถ้ดๆณ(UTC็งๆฐ,่ช1970-01-01 00:00:00)
1111:../Bsp/ESP01/esp01s.c ****  * @param  timezoneHrs ๆถๅบๅฐๆถๆฐ(ไธๅซๅบ=8,่ดๆฐ่กจ็คบ่ฅฟๆถๅบ)
1112:../Bsp/ESP01/esp01s.c ****  * @param  pTime       ่พๅบๆถ้ด็ปๆ(ๆฌๅฐๆถ้ด)
1113:../Bsp/ESP01/esp01s.c ****  * @note   ็ฎๆณๆญฅ้ชค:
1114:../Bsp/ESP01/esp01s.c ****  *         1. UTCๆถ้ดๆณๅ ๆถๅบๅ็งปๅพๅฐๆฌๅฐๆถ้ดๆณ
1115:../Bsp/ESP01/esp01s.c ****  *         2. ็จ้คๆณๅๆจก่ฟ็ฎๅ็ฆปๅบๅคฉๆฐๅๅฝๅคฉ็งๆฐ
1116:../Bsp/ESP01/esp01s.c ****  *         3. ็ฑๅฝๅคฉ็งๆฐ็ฎๅบๆถๅ็ง
1117:../Bsp/ESP01/esp01s.c ****  *         4. ็ฑๅคฉๆฐ็ฎๅบๅนดๆๆฅๅๆๆ
1118:../Bsp/ESP01/esp01s.c ****  *         ๆๆ่ฎก็ฎ: 1970-01-01ๆฏๅจๅ,weekday=(days+3)%7+1 โ 1=Mon,7=Sun
1119:../Bsp/ESP01/esp01s.c ****  */
1120:../Bsp/ESP01/esp01s.c **** static void UnixToDateTime(uint32_t timestamp, int timezoneHrs, ESP01S_NtpTime_t *pTime)
1121:../Bsp/ESP01/esp01s.c **** {
 314              		.loc 1 1121 1 is_stmt 1 view -0
 315              		.cfi_startproc
 316              		@ args = 0, pretend = 0, frame = 0
 317              		@ frame_needed = 0, uses_anonymous_args = 0
 318              		.loc 1 1121 1 is_stmt 0 view .LVU82
 319 0000 10B5     		push	{r4, lr}
 320              		.cfi_def_cfa_offset 8
 321              		.cfi_offset 4, -8
 322              		.cfi_offset 14, -4
1122:../Bsp/ESP01/esp01s.c ****     /* ็ฌฌ1ๆญฅ: ๆถๅบๅ็งป(UTC โ ๆฌๅฐๆถ้ด) */
1123:../Bsp/ESP01/esp01s.c ****     if (timezoneHrs >= 0)
 323              		.loc 1 1123 5 is_stmt 1 view .LVU83
 324              		.loc 1 1123 8 is_stmt 0 view .LVU84
 325 0002 0029     		cmp	r1, #0
 326              		.loc 1 1123 8 view .LVU85
 327 0004 35DB     		blt	.L25
1124:../Bsp/ESP01/esp01s.c ****         timestamp += (uint32_t)timezoneHrs * 3600;
 328              		.loc 1 1124 9 is_stmt 1 view .LVU86
 329              		.loc 1 1124 19 is_stmt 0 view .LVU87
 330 0006 4FF46163 		mov	r3, #3600
 331 000a 03FB0100 		mla	r0, r3, r1, r0
 332              	.LVL26:
 333              	.L26:
1125:../Bsp/ESP01/esp01s.c ****     else
1126:../Bsp/ESP01/esp01s.c ****         timestamp -= (uint32_t)(-timezoneHrs) * 3600;
1127:../Bsp/ESP01/esp01s.c **** 
1128:../Bsp/ESP01/esp01s.c ****     /* ็ฌฌ2ๆญฅ: ๅ็ฆปๅคฉๆฐๅๅฝๅคฉๅฉไฝ็งๆฐ */
1129:../Bsp/ESP01/esp01s.c ****     uint32_t days = timestamp / 86400;    /* ่ช1970-01-01ไปฅๆฅ็ๅคฉๆฐ */
 334              		.loc 1 1129 5 is_stmt 1 view .LVU88
 335              		.loc 1 1129 14 is_stmt 0 view .LVU89
 336 000e 454B     		ldr	r3, .L40
 337 0010 A3FB0013 		umull	r1, r3, r3, r0
 338              	.LVL27:
 339              		.loc 1 1129 14 view .LVU90
 340 0014 1B0C     		lsrs	r3, r3, #16
 341              	.LVL28:
1130:../Bsp/ESP01/esp01s.c ****     uint32_t secs = timestamp % 86400;    /* ๅฝๅคฉๅฉไฝ็งๆฐ */
ARM GAS  C:\Users\fish\AppData\Local\Temp\ccIMbRKB.s 			page 27


 342              		.loc 1 1130 5 is_stmt 1 view .LVU91
 343              		.loc 1 1130 14 is_stmt 0 view .LVU92
 344 0016 4449     		ldr	r1, .L40+4
 345 0018 01FB1300 		mls	r0, r1, r3, r0
 346              	.LVL29:
1131:../Bsp/ESP01/esp01s.c **** 
1132:../Bsp/ESP01/esp01s.c ****     /* ็ฌฌ3ๆญฅ: ่ฎก็ฎๆถๅ็ง */
1133:../Bsp/ESP01/esp01s.c ****     pTime->hour   = (uint8_t)(secs / 3600);
 347              		.loc 1 1133 5 is_stmt 1 view .LVU93
 348              		.loc 1 1133 36 is_stmt 0 view .LVU94
 349 001c 4349     		ldr	r1, .L40+8
 350 001e A1FB0041 		umull	r4, r1, r1, r0
 351 0022 4FEAD12C 		lsr	ip, r1, #11
 352              		.loc 1 1133 21 view .LVU95
 353 0026 C1F3C721 		ubfx	r1, r1, #11, #8
 354              		.loc 1 1133 19 view .LVU96
 355 002a 1171     		strb	r1, [r2, #4]
1134:../Bsp/ESP01/esp01s.c ****     pTime->minute = (uint8_t)((secs % 3600) / 60);
 356              		.loc 1 1134 5 is_stmt 1 view .LVU97
 357              		.loc 1 1134 37 is_stmt 0 view .LVU98
 358 002c 4FF46161 		mov	r1, #3600
 359 0030 01FB1C0C 		mls	ip, r1, ip, r0
 360              		.loc 1 1134 45 view .LVU99
 361 0034 3E49     		ldr	r1, .L40+12
 362 0036 A1FB0C4C 		umull	r4, ip, r1, ip
 363              		.loc 1 1134 21 view .LVU100
 364 003a CCF3471C 		ubfx	ip, ip, #5, #8
 365              		.loc 1 1134 19 view .LVU101
 366 003e 82F805C0 		strb	ip, [r2, #5]
1135:../Bsp/ESP01/esp01s.c ****     pTime->second = (uint8_t)(secs % 60);
 367              		.loc 1 1135 5 is_stmt 1 view .LVU102
 368              		.loc 1 1135 36 is_stmt 0 view .LVU103
 369 0042 A1FB0041 		umull	r4, r1, r1, r0
 370 0046 4909     		lsrs	r1, r1, #5
 371 0048 C1EB0111 		rsb	r1, r1, r1, lsl #4
 372 004c A0EB8101 		sub	r1, r0, r1, lsl #2
 373              		.loc 1 1135 19 view .LVU104
 374 0050 9171     		strb	r1, [r2, #6]
1136:../Bsp/ESP01/esp01s.c **** 
1137:../Bsp/ESP01/esp01s.c ****     /* ็ฌฌ4ๆญฅ: ่ฎก็ฎๆๆ
1138:../Bsp/ESP01/esp01s.c ****      * 1970-01-01ๆฏๅจๅ,ๅ็งป3ๅคฉไฝฟๅพๅจไธ=1,ๅจๆฅ=7 */
1139:../Bsp/ESP01/esp01s.c ****     pTime->weekday = (uint8_t)((days + 3) % 7 + 1);
 375              		.loc 1 1139 5 is_stmt 1 view .LVU105
 376              		.loc 1 1139 38 is_stmt 0 view .LVU106
 377 0052 D81C     		adds	r0, r3, #3
 378              	.LVL30:
 379              		.loc 1 1139 43 view .LVU107
 380 0054 3749     		ldr	r1, .L40+16
 381 0056 A1FB0041 		umull	r4, r1, r1, r0
 382 005a 441A     		subs	r4, r0, r1
 383 005c 01EB5401 		add	r1, r1, r4, lsr #1
 384 0060 8908     		lsrs	r1, r1, #2
 385 0062 C1EBC101 		rsb	r1, r1, r1, lsl #3
 386 0066 411A     		subs	r1, r0, r1
 387              		.loc 1 1139 22 view .LVU108
 388 0068 0131     		adds	r1, r1, #1
 389              		.loc 1 1139 20 view .LVU109
ARM GAS  C:\Users\fish\AppData\Local\Temp\ccIMbRKB.s 			page 28


 390 006a D171     		strb	r1, [r2, #7]
1140:../Bsp/ESP01/esp01s.c **** 
1141:../Bsp/ESP01/esp01s.c ****     /* ็ฌฌ5ๆญฅ: ้ๅนดๅๅปๅคฉๆฐ,ๅพๅฐๅนดไปฝ */
1142:../Bsp/ESP01/esp01s.c ****     uint32_t year = 1970;
 391              		.loc 1 1142 5 is_stmt 1 view .LVU110
 392              	.LVL31:
 393              		.loc 1 1142 14 is_stmt 0 view .LVU111
 394 006c 40F2B271 		movw	r1, #1970
 395 0070 09E0     		b	.L29
 396              	.LVL32:
 397              	.L25:
1126:../Bsp/ESP01/esp01s.c **** 
 398              		.loc 1 1126 9 is_stmt 1 view .LVU112
1126:../Bsp/ESP01/esp01s.c **** 
 399              		.loc 1 1126 19 is_stmt 0 view .LVU113
 400 0072 314B     		ldr	r3, .L40+20
 401 0074 03FB1100 		mls	r0, r3, r1, r0
 402              	.LVL33:
1126:../Bsp/ESP01/esp01s.c **** 
 403              		.loc 1 1126 19 view .LVU114
 404 0078 C9E7     		b	.L26
 405              	.LVL34:
 406              	.L33:
1143:../Bsp/ESP01/esp01s.c ****     uint32_t daysInYear;
1144:../Bsp/ESP01/esp01s.c ****     while (1)
1145:../Bsp/ESP01/esp01s.c ****     {
1146:../Bsp/ESP01/esp01s.c ****         daysInYear = ((year % 4 == 0) && (year % 100 != 0 || year % 400 == 0)) ? 366 : 365;
 407              		.loc 1 1146 86 discriminator 6 view .LVU115
 408 007a 40F26D10 		movw	r0, #365
 409              	.L27:
 410              	.LVL35:
1147:../Bsp/ESP01/esp01s.c ****         if (days < daysInYear)
 411              		.loc 1 1147 9 is_stmt 1 view .LVU116
 412              		.loc 1 1147 12 is_stmt 0 view .LVU117
 413 007e 8342     		cmp	r3, r0
 414 0080 1FD3     		bcc	.L28
1148:../Bsp/ESP01/esp01s.c ****             break;
1149:../Bsp/ESP01/esp01s.c ****         days -= daysInYear;
 415              		.loc 1 1149 9 is_stmt 1 view .LVU118
 416              		.loc 1 1149 14 is_stmt 0 view .LVU119
 417 0082 1B1A     		subs	r3, r3, r0
 418              	.LVL36:
1150:../Bsp/ESP01/esp01s.c ****         year++;
 419              		.loc 1 1150 9 is_stmt 1 view .LVU120
 420              		.loc 1 1150 13 is_stmt 0 view .LVU121
 421 0084 0131     		adds	r1, r1, #1
 422              	.LVL37:
1144:../Bsp/ESP01/esp01s.c ****     {
 423              		.loc 1 1144 11 is_stmt 1 view .LVU122
 424              	.L29:
1143:../Bsp/ESP01/esp01s.c ****     while (1)
 425              		.loc 1 1143 5 view .LVU123
1144:../Bsp/ESP01/esp01s.c ****     {
 426              		.loc 1 1144 5 view .LVU124
1146:../Bsp/ESP01/esp01s.c ****         if (days < daysInYear)
 427              		.loc 1 1146 9 view .LVU125
1146:../Bsp/ESP01/esp01s.c ****         if (days < daysInYear)
ARM GAS  C:\Users\fish\AppData\Local\Temp\ccIMbRKB.s 			page 29


 428              		.loc 1 1146 86 is_stmt 0 view .LVU126
 429 0086 11F00304 		ands	r4, r1, #3
 430 008a F6D1     		bne	.L33
1146:../Bsp/ESP01/esp01s.c ****         if (days < daysInYear)
 431              		.loc 1 1146 48 discriminator 1 view .LVU127
 432 008c 2B48     		ldr	r0, .L40+24
 433 008e A0FB01C0 		umull	ip, r0, r0, r1
 434 0092 4009     		lsrs	r0, r0, #5
 435 0094 4FF0640C 		mov	ip, #100
 436 0098 0CFB1010 		mls	r0, ip, r0, r1
1146:../Bsp/ESP01/esp01s.c ****         if (days < daysInYear)
 437              		.loc 1 1146 39 discriminator 1 view .LVU128
 438 009c 58B9     		cbnz	r0, .L34
1146:../Bsp/ESP01/esp01s.c ****         if (days < daysInYear)
 439              		.loc 1 1146 67 discriminator 4 view .LVU129
 440 009e 2748     		ldr	r0, .L40+24
 441 00a0 A0FB01C0 		umull	ip, r0, r0, r1
 442 00a4 C009     		lsrs	r0, r0, #7
 443 00a6 4FF4C87C 		mov	ip, #400
 444 00aa 0CFB1010 		mls	r0, ip, r0, r1
1146:../Bsp/ESP01/esp01s.c ****         if (days < daysInYear)
 445              		.loc 1 1146 59 discriminator 4 view .LVU130
 446 00ae 28B1     		cbz	r0, .L35
1146:../Bsp/ESP01/esp01s.c ****         if (days < daysInYear)
 447              		.loc 1 1146 86 discriminator 6 view .LVU131
 448 00b0 40F26D10 		movw	r0, #365
 449 00b4 E3E7     		b	.L27
 450              	.L34:
1146:../Bsp/ESP01/esp01s.c ****         if (days < daysInYear)
 451              		.loc 1 1146 86 discriminator 5 view .LVU132
 452 00b6 4FF4B770 		mov	r0, #366
 453 00ba E0E7     		b	.L27
 454              	.L35:
 455 00bc 4FF4B770 		mov	r0, #366
 456 00c0 DDE7     		b	.L27
 457              	.LVL38:
 458              	.L28:
1151:../Bsp/ESP01/esp01s.c ****     }
1152:../Bsp/ESP01/esp01s.c ****     pTime->year = (uint16_t)year;
 459              		.loc 1 1152 5 is_stmt 1 view .LVU133
 460              		.loc 1 1152 17 is_stmt 0 view .LVU134
 461 00c2 1180     		strh	r1, [r2]	@ movhi
1153:../Bsp/ESP01/esp01s.c **** 
1154:../Bsp/ESP01/esp01s.c ****     /* ็ฌฌ6ๆญฅ: ้ๆๅๅปๅคฉๆฐ,ๅพๅฐๆไปฝๅๆฅๆ */
1155:../Bsp/ESP01/esp01s.c ****     static const uint8_t dimFmt[2][12] = {
 462              		.loc 1 1155 5 is_stmt 1 view .LVU135
1156:../Bsp/ESP01/esp01s.c ****         {31, 28, 31, 30, 31, 30, 31, 31, 30, 31, 30, 31},
1157:../Bsp/ESP01/esp01s.c ****         {31, 29, 31, 30, 31, 30, 31, 31, 30, 31, 30, 31},
1158:../Bsp/ESP01/esp01s.c ****     };
1159:../Bsp/ESP01/esp01s.c ****     uint8_t leap = ((year % 4 == 0) && (year % 100 != 0 || year % 400 == 0)) ? 1 : 0;
 463              		.loc 1 1159 5 view .LVU136
 464              		.loc 1 1159 82 is_stmt 0 view .LVU137
 465 00c4 9CB9     		cbnz	r4, .L36
 466              		.loc 1 1159 46 discriminator 1 view .LVU138
 467 00c6 1D48     		ldr	r0, .L40+24
 468              	.LVL39:
 469              		.loc 1 1159 46 discriminator 1 view .LVU139
ARM GAS  C:\Users\fish\AppData\Local\Temp\ccIMbRKB.s 			page 30


 470 00c8 A0FB0140 		umull	r4, r0, r0, r1
 471 00cc 4009     		lsrs	r0, r0, #5
 472 00ce 6424     		movs	r4, #100
 473 00d0 04FB1010 		mls	r0, r4, r0, r1
 474              		.loc 1 1159 82 discriminator 1 view .LVU140
 475 00d4 78B9     		cbnz	r0, .L37
 476              		.loc 1 1159 65 discriminator 4 view .LVU141
 477 00d6 1948     		ldr	r0, .L40+24
 478 00d8 A0FB0140 		umull	r4, r0, r0, r1
 479 00dc C009     		lsrs	r0, r0, #7
 480 00de 4FF4C874 		mov	r4, #400
 481 00e2 04FB1010 		mls	r0, r4, r0, r1
 482              		.loc 1 1159 57 discriminator 4 view .LVU142
 483 00e6 48B1     		cbz	r0, .L38
 484              		.loc 1 1159 82 discriminator 6 view .LVU143
 485 00e8 4FF0000E 		mov	lr, #0
 486 00ec 01E0     		b	.L30
 487              	.LVL40:
 488              	.L36:
 489              		.loc 1 1159 82 discriminator 6 view .LVU144
 490 00ee 4FF0000E 		mov	lr, #0
 491              	.LVL41:
 492              	.L30:
1160:../Bsp/ESP01/esp01s.c ****     uint8_t month = 0;
 493              		.loc 1 1160 5 is_stmt 1 view .LVU145
1161:../Bsp/ESP01/esp01s.c ****     while (days >= dimFmt[leap][month])
 494              		.loc 1 1161 5 view .LVU146
1160:../Bsp/ESP01/esp01s.c ****     uint8_t month = 0;
 495              		.loc 1 1160 13 is_stmt 0 view .LVU147
 496 00f2 0021     		movs	r1, #0
 497              	.LVL42:
 498              		.loc 1 1161 11 view .LVU148
 499 00f4 08E0     		b	.L31
 500              	.LVL43:
 501              	.L37:
1159:../Bsp/ESP01/esp01s.c ****     uint8_t month = 0;
 502              		.loc 1 1159 82 discriminator 5 view .LVU149
 503 00f6 4FF0010E 		mov	lr, #1
 504 00fa FAE7     		b	.L30
 505              	.L38:
 506 00fc 4FF0010E 		mov	lr, #1
 507 0100 F7E7     		b	.L30
 508              	.LVL44:
 509              	.L32:
1162:../Bsp/ESP01/esp01s.c ****     {
1163:../Bsp/ESP01/esp01s.c ****         days -= dimFmt[leap][month];
 510              		.loc 1 1163 9 is_stmt 1 view .LVU150
 511              		.loc 1 1163 14 is_stmt 0 view .LVU151
 512 0102 1B1A     		subs	r3, r3, r0
 513              	.LVL45:
1164:../Bsp/ESP01/esp01s.c ****         month++;
 514              		.loc 1 1164 9 is_stmt 1 view .LVU152
 515              		.loc 1 1164 14 is_stmt 0 view .LVU153
 516 0104 0131     		adds	r1, r1, #1
 517              	.LVL46:
 518              		.loc 1 1164 14 view .LVU154
 519 0106 C9B2     		uxtb	r1, r1
ARM GAS  C:\Users\fish\AppData\Local\Temp\ccIMbRKB.s 			page 31


 520              	.LVL47:
 521              	.L31:
1161:../Bsp/ESP01/esp01s.c ****     {
 522              		.loc 1 1161 17 is_stmt 1 view .LVU155
1161:../Bsp/ESP01/esp01s.c ****     {
 523              		.loc 1 1161 32 is_stmt 0 view .LVU156
 524 0108 0EEB4E0C 		add	ip, lr, lr, lsl #1
 525 010c 0C48     		ldr	r0, .L40+28
 526 010e 00EB8C00 		add	r0, r0, ip, lsl #2
 527 0112 405C     		ldrb	r0, [r0, r1]	@ zero_extendqisi2
1161:../Bsp/ESP01/esp01s.c ****     {
 528              		.loc 1 1161 17 view .LVU157
 529 0114 9842     		cmp	r0, r3
 530 0116 F4D9     		bls	.L32
1165:../Bsp/ESP01/esp01s.c ****     }
1166:../Bsp/ESP01/esp01s.c ****     pTime->month = (uint8_t)(month + 1);  /* ๆไปฝไป1ๅผๅง */
 531              		.loc 1 1166 5 is_stmt 1 view .LVU158
 532              		.loc 1 1166 20 is_stmt 0 view .LVU159
 533 0118 0131     		adds	r1, r1, #1
 534              	.LVL48:
 535              		.loc 1 1166 18 view .LVU160
 536 011a 9170     		strb	r1, [r2, #2]
1167:../Bsp/ESP01/esp01s.c ****     pTime->day   = (uint8_t)(days + 1);    /* ๆฅๆไป1ๅผๅง */
 537              		.loc 1 1167 5 is_stmt 1 view .LVU161
 538              		.loc 1 1167 20 is_stmt 0 view .LVU162
 539 011c 0133     		adds	r3, r3, #1
 540              	.LVL49:
 541              		.loc 1 1167 18 view .LVU163
 542 011e D370     		strb	r3, [r2, #3]
1168:../Bsp/ESP01/esp01s.c **** }
 543              		.loc 1 1168 1 view .LVU164
 544 0120 10BD     		pop	{r4, pc}
 545              	.L41:
 546 0122 00BF     		.align	2
 547              	.L40:
 548 0124 07452EC2 		.word	-1037155065
 549 0128 80510100 		.word	86400
 550 012c C5B3A291 		.word	-1851608123
 551 0130 89888888 		.word	-2004318071
 552 0134 25499224 		.word	613566757
 553 0138 F0F1FFFF 		.word	-3600
 554 013c 1F85EB51 		.word	1374389535
 555 0140 00000000 		.word	dimFmt.1
 556              		.cfi_endproc
 557              	.LFE275:
 559              		.section	.rodata.ESP01S_ParseUdpNtpData.str1.4,"aMS",%progbits,1
 560              		.align	2
 561              	.LC0:
 562 0000 2B495044 		.ascii	"+IPD,\000"
 562      2C00
 563              		.section	.text.ESP01S_ParseUdpNtpData,"ax",%progbits
 564              		.align	1
 565              		.syntax unified
 566              		.thumb
 567              		.thumb_func
 569              	ESP01S_ParseUdpNtpData:
 570              	.LVL50:
ARM GAS  C:\Users\fish\AppData\Local\Temp\ccIMbRKB.s 			page 32


 571              	.LFB276:
1169:../Bsp/ESP01/esp01s.c **** 
1170:../Bsp/ESP01/esp01s.c **** /**
1171:../Bsp/ESP01/esp01s.c ****  * @brief  ่งฃๆ+IPDไธญ็UDP NTPๅๅบๆฐๆฎ
1172:../Bsp/ESP01/esp01s.c ****  * @param  pBuf ๆฅๆถ็ผๅฒๅบ(ๅฏ่ฝๅซไบ่ฟๅถๆฐๆฎ)
1173:../Bsp/ESP01/esp01s.c ****  * @param  len  ๆฐๆฎ้ฟๅบฆ
1174:../Bsp/ESP01/esp01s.c ****  * @note   +IPDๆ ผๅผ: +IPD,<len>:<data>
1175:../Bsp/ESP01/esp01s.c ****  *         NTPๅๅบไธบ48ๅญ่,ๆถ้ดๆณๅจbytes 40-43(ๅคง็ซฏๅบ,่ช1900-01-01็็งๆฐ)
1176:../Bsp/ESP01/esp01s.c ****  *         ่งฃๆๆต็จ:
1177:../Bsp/ESP01/esp01s.c ****  *         1. ๅจไบ่ฟๅถๆฐๆฎไธญๆ็ดข"+IPD,"ๅ็ผ
1178:../Bsp/ESP01/esp01s.c ****  *         2. ่งฃๆๆฐๆฎ้ฟๅบฆๅญๆฎต
1179:../Bsp/ESP01/esp01s.c ****  *         3. ่ทณ่ฟ':'ๅ้็ฌฆ
1180:../Bsp/ESP01/esp01s.c ****  *         4. ๆๅbytes 40-43็NTPๆถ้ดๆณ(ๅคง็ซฏๅบ่ฝฌuint32_t)
1181:../Bsp/ESP01/esp01s.c ****  *         5. ๅๅปNTP_UNIX_OFFSETๅพๅฐUnixๆถ้ดๆณ
1182:../Bsp/ESP01/esp01s.c ****  *         6. ่ฝฌๆขไธบๆฅๆๆถ้ดๅนถ่ฎฐๅฝntpTick(ๅณๆถ่ฎฐๅฝ,ๆถ้คๅปถ่ฟ่ฏฏๅทฎ)
1183:../Bsp/ESP01/esp01s.c ****  */
1184:../Bsp/ESP01/esp01s.c **** static void ESP01S_ParseUdpNtpData(const uint8_t *pBuf, uint16_t len)
1185:../Bsp/ESP01/esp01s.c **** {
 572              		.loc 1 1185 1 is_stmt 1 view -0
 573              		.cfi_startproc
 574              		@ args = 0, pretend = 0, frame = 0
 575              		@ frame_needed = 0, uses_anonymous_args = 0
 576              		.loc 1 1185 1 is_stmt 0 view .LVU166
 577 0000 F8B5     		push	{r3, r4, r5, r6, r7, lr}
 578              		.cfi_def_cfa_offset 24
 579              		.cfi_offset 3, -24
 580              		.cfi_offset 4, -20
 581              		.cfi_offset 5, -16
 582              		.cfi_offset 6, -12
 583              		.cfi_offset 7, -8
 584              		.cfi_offset 14, -4
 585 0002 0646     		mov	r6, r0
 586 0004 0D46     		mov	r5, r1
1186:../Bsp/ESP01/esp01s.c ****     /* ็ฌฌ1ๆญฅ: ๅจไบ่ฟๅถๆฐๆฎไธญๆ็ดข"+IPD,"ๅ็ผ
1187:../Bsp/ESP01/esp01s.c ****      * ๅ ไธบUDP NTPๅๅบๅฏ่ฝๅๅซไบ่ฟๅถๆฐๆฎ,ไธ่ฝ็จstrstr,
1188:../Bsp/ESP01/esp01s.c ****      * ๅช่ฝ้ๅญ่ๆ็ดขๅ็ผ */
1189:../Bsp/ESP01/esp01s.c ****     uint16_t i;
 587              		.loc 1 1189 5 is_stmt 1 view .LVU167
1190:../Bsp/ESP01/esp01s.c ****     for (i = 0; i + 5 <= len; i++)
 588              		.loc 1 1190 5 view .LVU168
 589              	.LVL51:
 590              		.loc 1 1190 12 is_stmt 0 view .LVU169
 591 0006 0024     		movs	r4, #0
 592              		.loc 1 1190 5 view .LVU170
 593 0008 01E0     		b	.L43
 594              	.LVL52:
 595              	.L51:
 596              		.loc 1 1190 32 is_stmt 1 discriminator 2 view .LVU171
 597 000a 0134     		adds	r4, r4, #1
 598              	.LVL53:
 599              		.loc 1 1190 32 is_stmt 0 discriminator 2 view .LVU172
 600 000c A4B2     		uxth	r4, r4
 601              	.LVL54:
 602              	.L43:
 603              		.loc 1 1190 23 is_stmt 1 discriminator 1 view .LVU173
 604 000e 271D     		adds	r7, r4, #4
 605 0010 AF42     		cmp	r7, r5
ARM GAS  C:\Users\fish\AppData\Local\Temp\ccIMbRKB.s 			page 33


 606 0012 06DA     		bge	.L44
1191:../Bsp/ESP01/esp01s.c ****     {
1192:../Bsp/ESP01/esp01s.c ****         if (memcmp(pBuf + i, "+IPD,", 5) == 0)
 607              		.loc 1 1192 9 view .LVU174
 608              		.loc 1 1192 13 is_stmt 0 view .LVU175
 609 0014 0522     		movs	r2, #5
 610 0016 2849     		ldr	r1, .L53
 611 0018 3019     		adds	r0, r6, r4
 612 001a FFF7FEFF 		bl	memcmp
 613              	.LVL55:
 614              		.loc 1 1192 12 discriminator 1 view .LVU176
 615 001e 0028     		cmp	r0, #0
 616 0020 F3D1     		bne	.L51
 617              	.L44:
1193:../Bsp/ESP01/esp01s.c ****             break;
1194:../Bsp/ESP01/esp01s.c ****     }
1195:../Bsp/ESP01/esp01s.c ****     if (i + 5 > len)
 618              		.loc 1 1195 5 is_stmt 1 view .LVU177
 619              		.loc 1 1195 8 is_stmt 0 view .LVU178
 620 0022 AF42     		cmp	r7, r5
 621 0024 30DA     		bge	.L42
1196:../Bsp/ESP01/esp01s.c ****         return;  /* ๆชๆพๅฐ+IPDๅ็ผ */
1197:../Bsp/ESP01/esp01s.c **** 
1198:../Bsp/ESP01/esp01s.c ****     const uint8_t *p = pBuf + i + 5; /* ่ทณ่ฟ"+IPD," */
 622              		.loc 1 1198 5 is_stmt 1 view .LVU179
 623              		.loc 1 1198 33 is_stmt 0 view .LVU180
 624 0026 0534     		adds	r4, r4, #5
 625              	.LVL56:
 626              		.loc 1 1198 20 view .LVU181
 627 0028 3444     		add	r4, r4, r6
 628              	.LVL57:
1199:../Bsp/ESP01/esp01s.c **** 
1200:../Bsp/ESP01/esp01s.c ****     /* ็ฌฌ2ๆญฅ: ่งฃๆๆฐๆฎ้ฟๅบฆ(ASCIIๆฐๅญ่ฝฌๆดๆฐ) */
1201:../Bsp/ESP01/esp01s.c ****     uint16_t dataLen = 0;
 629              		.loc 1 1201 5 is_stmt 1 view .LVU182
1202:../Bsp/ESP01/esp01s.c ****     while (p < pBuf + len && *p >= '0' && *p <= '9')
 630              		.loc 1 1202 5 view .LVU183
1201:../Bsp/ESP01/esp01s.c ****     while (p < pBuf + len && *p >= '0' && *p <= '9')
 631              		.loc 1 1201 14 is_stmt 0 view .LVU184
 632 002a 0022     		movs	r2, #0
 633              		.loc 1 1202 11 view .LVU185
 634 002c 07E0     		b	.L47
 635              	.LVL58:
 636              	.L49:
1203:../Bsp/ESP01/esp01s.c ****     {
1204:../Bsp/ESP01/esp01s.c ****         dataLen = dataLen * 10 + (*p - '0');
 637              		.loc 1 1204 9 is_stmt 1 view .LVU186
 638              		.loc 1 1204 32 is_stmt 0 view .LVU187
 639 002e 02EB8202 		add	r2, r2, r2, lsl #2
 640              	.LVL59:
 641              		.loc 1 1204 32 view .LVU188
 642 0032 03EB4203 		add	r3, r3, r2, lsl #1
 643 0036 9BB2     		uxth	r3, r3
 644              		.loc 1 1204 17 view .LVU189
 645 0038 303B     		subs	r3, r3, #48
 646 003a 9AB2     		uxth	r2, r3
 647              	.LVL60:
ARM GAS  C:\Users\fish\AppData\Local\Temp\ccIMbRKB.s 			page 34


1205:../Bsp/ESP01/esp01s.c ****         p++;
 648              		.loc 1 1205 9 is_stmt 1 view .LVU190
 649              		.loc 1 1205 10 is_stmt 0 view .LVU191
 650 003c 0134     		adds	r4, r4, #1
 651              	.LVL61:
 652              	.L47:
1202:../Bsp/ESP01/esp01s.c ****     {
 653              		.loc 1 1202 40 is_stmt 1 view .LVU192
1202:../Bsp/ESP01/esp01s.c ****     {
 654              		.loc 1 1202 21 is_stmt 0 view .LVU193
 655 003e 7119     		adds	r1, r6, r5
1202:../Bsp/ESP01/esp01s.c ****     {
 656              		.loc 1 1202 40 view .LVU194
 657 0040 A142     		cmp	r1, r4
 658 0042 04D9     		bls	.L48
1202:../Bsp/ESP01/esp01s.c ****     {
 659              		.loc 1 1202 30 discriminator 1 view .LVU195
 660 0044 2378     		ldrb	r3, [r4]	@ zero_extendqisi2
1202:../Bsp/ESP01/esp01s.c ****     {
 661              		.loc 1 1202 27 discriminator 1 view .LVU196
 662 0046 2F2B     		cmp	r3, #47
 663 0048 01D9     		bls	.L48
1202:../Bsp/ESP01/esp01s.c ****     {
 664              		.loc 1 1202 40 discriminator 2 view .LVU197
 665 004a 392B     		cmp	r3, #57
 666 004c EFD9     		bls	.L49
 667              	.L48:
1206:../Bsp/ESP01/esp01s.c ****     }
1207:../Bsp/ESP01/esp01s.c **** 
1208:../Bsp/ESP01/esp01s.c ****     /* ็ฌฌ3ๆญฅ: ่ทณ่ฟ':'ๅ้็ฌฆ */
1209:../Bsp/ESP01/esp01s.c ****     if (p >= pBuf + len || *p != ':')
 668              		.loc 1 1209 5 is_stmt 1 view .LVU198
 669              		.loc 1 1209 8 is_stmt 0 view .LVU199
 670 004e A142     		cmp	r1, r4
 671 0050 1AD9     		bls	.L42
 672              		.loc 1 1209 28 discriminator 1 view .LVU200
 673 0052 2378     		ldrb	r3, [r4]	@ zero_extendqisi2
 674              		.loc 1 1209 25 discriminator 1 view .LVU201
 675 0054 3A2B     		cmp	r3, #58
 676 0056 17D1     		bne	.L42
1210:../Bsp/ESP01/esp01s.c ****         return;
1211:../Bsp/ESP01/esp01s.c ****     p++;
 677              		.loc 1 1211 5 is_stmt 1 view .LVU202
 678              		.loc 1 1211 6 is_stmt 0 view .LVU203
 679 0058 631C     		adds	r3, r4, #1
 680              	.LVL62:
1212:../Bsp/ESP01/esp01s.c **** 
1213:../Bsp/ESP01/esp01s.c ****     /* ็ฌฌ4ๆญฅ: ๆฃๆฅๆฐๆฎ้ฟๅบฆ: NTPๅๅบๅฟ้กป่ณๅฐ48ๅญ่ */
1214:../Bsp/ESP01/esp01s.c ****     uint16_t remain = (uint16_t)(pBuf + len - p);
 681              		.loc 1 1214 5 is_stmt 1 view .LVU204
 682              		.loc 1 1214 45 is_stmt 0 view .LVU205
 683 005a C91A     		subs	r1, r1, r3
 684              		.loc 1 1214 14 view .LVU206
 685 005c 89B2     		uxth	r1, r1
 686              	.LVL63:
1215:../Bsp/ESP01/esp01s.c ****     if (dataLen < 48 || remain < 48)
 687              		.loc 1 1215 5 is_stmt 1 view .LVU207
ARM GAS  C:\Users\fish\AppData\Local\Temp\ccIMbRKB.s 			page 35


 688              		.loc 1 1215 8 is_stmt 0 view .LVU208
 689 005e 2F2A     		cmp	r2, #47
 690 0060 12D9     		bls	.L42
 691              		.loc 1 1215 22 discriminator 1 view .LVU209
 692 0062 2F29     		cmp	r1, #47
 693 0064 10D9     		bls	.L42
1216:../Bsp/ESP01/esp01s.c ****         return;
1217:../Bsp/ESP01/esp01s.c **** 
1218:../Bsp/ESP01/esp01s.c ****     /* ็ฌฌ5ๆญฅ: ๆๅNTPๅ้ๆถ้ดๆณ (bytes 40-43, ๅคง็ซฏๅบ)
1219:../Bsp/ESP01/esp01s.c ****      * NTPๆฅๆ็ปๆ: Header(4B) + Root Delay(4B) + Root Dispersion(4B) + Reference ID(4B)
1220:../Bsp/ESP01/esp01s.c ****      *             + Reference Timestamp(8B) + Originate Timestamp(8B) + Receive Timestamp(8B)
1221:../Bsp/ESP01/esp01s.c ****      *             + Transmit Timestamp(8B)
1222:../Bsp/ESP01/esp01s.c ****      * Transmit Timestampไปbyte 40ๅผๅง,ๅ4ๅญ่ไธบ็งๆฐ(ๅคง็ซฏๅบ) */
1223:../Bsp/ESP01/esp01s.c ****     uint32_t ntpSeconds = ((uint32_t)p[40] << 24) |
 694              		.loc 1 1223 5 is_stmt 1 view .LVU210
 695              		.loc 1 1223 39 is_stmt 0 view .LVU211
 696 0066 94F82920 		ldrb	r2, [r4, #41]	@ zero_extendqisi2
 697              	.LVL64:
1224:../Bsp/ESP01/esp01s.c ****                           ((uint32_t)p[41] << 16) |
 698              		.loc 1 1224 39 view .LVU212
 699 006a 94F82A30 		ldrb	r3, [r4, #42]	@ zero_extendqisi2
 700              	.LVL65:
 701              		.loc 1 1224 44 view .LVU213
 702 006e 1B04     		lsls	r3, r3, #16
1223:../Bsp/ESP01/esp01s.c ****                           ((uint32_t)p[41] << 16) |
 703              		.loc 1 1223 51 view .LVU214
 704 0070 43EA0263 		orr	r3, r3, r2, lsl #24
1225:../Bsp/ESP01/esp01s.c ****                           ((uint32_t)p[42] << 8)  |
 705              		.loc 1 1225 39 view .LVU215
 706 0074 94F82B20 		ldrb	r2, [r4, #43]	@ zero_extendqisi2
1224:../Bsp/ESP01/esp01s.c ****                           ((uint32_t)p[41] << 16) |
 707              		.loc 1 1224 51 view .LVU216
 708 0078 43EA0223 		orr	r3, r3, r2, lsl #8
1226:../Bsp/ESP01/esp01s.c ****                           ((uint32_t)p[43]);
 709              		.loc 1 1226 39 view .LVU217
 710 007c 94F82C20 		ldrb	r2, [r4, #44]	@ zero_extendqisi2
1223:../Bsp/ESP01/esp01s.c ****                           ((uint32_t)p[41] << 16) |
 711              		.loc 1 1223 14 view .LVU218
 712 0080 1343     		orrs	r3, r3, r2
 713              	.LVL66:
1227:../Bsp/ESP01/esp01s.c **** 
1228:../Bsp/ESP01/esp01s.c ****     /* ็ฌฌ6ๆญฅ: ่ฝฌๆขไธบUnixๆถ้ดๆณ
1229:../Bsp/ESP01/esp01s.c ****      * NTP็บชๅไป1900ๅนด่ตท็ฎ,Unix็บชๅไป1970ๅนด่ตท็ฎ,ๅทฎ70ๅนด=2208988800็ง */
1230:../Bsp/ESP01/esp01s.c ****     if (ntpSeconds <= NTP_UNIX_OFFSET)
 714              		.loc 1 1230 5 is_stmt 1 view .LVU219
 715              		.loc 1 1230 8 is_stmt 0 view .LVU220
 716 0082 0E4A     		ldr	r2, .L53+4
 717 0084 9342     		cmp	r3, r2
 718 0086 00D8     		bhi	.L52
 719              	.LVL67:
 720              	.L42:
1231:../Bsp/ESP01/esp01s.c ****         return;  /* ๆ ๆๆถ้ด(ๆถ้ดๆณๅคชๅฐ) */
1232:../Bsp/ESP01/esp01s.c **** 
1233:../Bsp/ESP01/esp01s.c ****     uint32_t unixTimestamp = ntpSeconds - NTP_UNIX_OFFSET;
1234:../Bsp/ESP01/esp01s.c **** 
1235:../Bsp/ESP01/esp01s.c ****     /* ็ฌฌ7ๆญฅ: ่ฝฌๆขไธบๆฌๅฐๆฅๆๆถ้ด */
1236:../Bsp/ESP01/esp01s.c ****     UnixToDateTime(unixTimestamp, s_esp01s.config.ntpTimezone, &s_esp01s.ntpTime);
ARM GAS  C:\Users\fish\AppData\Local\Temp\ccIMbRKB.s 			page 36


1237:../Bsp/ESP01/esp01s.c ****     s_esp01s.ntpTimeValid = 1;
1238:../Bsp/ESP01/esp01s.c ****     s_esp01s.ntpUdpPending = 0;
1239:../Bsp/ESP01/esp01s.c **** 
1240:../Bsp/ESP01/esp01s.c ****     /* ๅณๆถ่ฎฐๅฝๆๆถๆถ้ดๆณๅTickๅผ,ๆถ้คไปๆฅๆถๅฐๅค็ไน้ด็ๅปถ่ฟ่ฏฏๅทฎใ
1241:../Bsp/ESP01/esp01s.c ****      * ๅ็ปญ ESP01S_GetDateTime/ESP01S_SetRtcFromNtp ้่ฟ
1242:../Bsp/ESP01/esp01s.c ****      * ntpUnixTimestamp + (HAL_GetTick() - ntpTick) / 1000 ๆจ็ฎๅฝๅๆถ้ด */
1243:../Bsp/ESP01/esp01s.c ****     s_esp01s.ntpTick = HAL_GetTick();
1244:../Bsp/ESP01/esp01s.c ****     s_esp01s.ntpUnixTimestamp = unixTimestamp;
1245:../Bsp/ESP01/esp01s.c **** }
 721              		.loc 1 1245 1 view .LVU221
 722 0088 F8BD     		pop	{r3, r4, r5, r6, r7, pc}
 723              	.LVL68:
 724              	.L52:
1233:../Bsp/ESP01/esp01s.c **** 
 725              		.loc 1 1233 5 is_stmt 1 view .LVU222
1233:../Bsp/ESP01/esp01s.c **** 
 726              		.loc 1 1233 14 is_stmt 0 view .LVU223
 727 008a 0D4D     		ldr	r5, .L53+8
 728 008c 1D44     		add	r5, r5, r3
 729              	.LVL69:
1236:../Bsp/ESP01/esp01s.c ****     s_esp01s.ntpTimeValid = 1;
 730              		.loc 1 1236 5 is_stmt 1 view .LVU224
1236:../Bsp/ESP01/esp01s.c ****     s_esp01s.ntpTimeValid = 1;
 731              		.loc 1 1236 50 is_stmt 0 view .LVU225
 732 008e 0D4C     		ldr	r4, .L53+12
 733              	.LVL70:
1236:../Bsp/ESP01/esp01s.c ****     s_esp01s.ntpTimeValid = 1;
 734              		.loc 1 1236 5 view .LVU226
 735 0090 04F58C72 		add	r2, r4, #280
 736 0094 94F9C610 		ldrsb	r1, [r4, #198]
 737              	.LVL71:
1236:../Bsp/ESP01/esp01s.c ****     s_esp01s.ntpTimeValid = 1;
 738              		.loc 1 1236 5 view .LVU227
 739 0098 2846     		mov	r0, r5
 740 009a FFF7FEFF 		bl	UnixToDateTime
 741              	.LVL72:
1237:../Bsp/ESP01/esp01s.c ****     s_esp01s.ntpUdpPending = 0;
 742              		.loc 1 1237 5 is_stmt 1 view .LVU228
1237:../Bsp/ESP01/esp01s.c ****     s_esp01s.ntpUdpPending = 0;
 743              		.loc 1 1237 27 is_stmt 0 view .LVU229
 744 009e 0123     		movs	r3, #1
 745 00a0 84F82031 		strb	r3, [r4, #288]
1238:../Bsp/ESP01/esp01s.c **** 
 746              		.loc 1 1238 5 is_stmt 1 view .LVU230
1238:../Bsp/ESP01/esp01s.c **** 
 747              		.loc 1 1238 28 is_stmt 0 view .LVU231
 748 00a4 0023     		movs	r3, #0
 749 00a6 84F82131 		strb	r3, [r4, #289]
1243:../Bsp/ESP01/esp01s.c ****     s_esp01s.ntpUnixTimestamp = unixTimestamp;
 750              		.loc 1 1243 5 is_stmt 1 view .LVU232
1243:../Bsp/ESP01/esp01s.c ****     s_esp01s.ntpUnixTimestamp = unixTimestamp;
 751              		.loc 1 1243 24 is_stmt 0 view .LVU233
 752 00aa FFF7FEFF 		bl	HAL_GetTick
 753              	.LVL73:
1243:../Bsp/ESP01/esp01s.c ****     s_esp01s.ntpUnixTimestamp = unixTimestamp;
 754              		.loc 1 1243 22 discriminator 1 view .LVU234
 755 00ae C4F82401 		str	r0, [r4, #292]
ARM GAS  C:\Users\fish\AppData\Local\Temp\ccIMbRKB.s 			page 37


1244:../Bsp/ESP01/esp01s.c **** }
 756              		.loc 1 1244 5 is_stmt 1 view .LVU235
1244:../Bsp/ESP01/esp01s.c **** }
 757              		.loc 1 1244 31 is_stmt 0 view .LVU236
 758 00b2 C4F82851 		str	r5, [r4, #296]
 759 00b6 E7E7     		b	.L42
 760              	.L54:
 761              		.align	2
 762              	.L53:
 763 00b8 00000000 		.word	.LC0
 764 00bc 807EAA83 		.word	-2085978496
 765 00c0 8081557C 		.word	2085978496
 766 00c4 00000000 		.word	s_esp01s
 767              		.cfi_endproc
 768              	.LFE276:
 770              		.section	.rodata.ParseWeekday.str1.4,"aMS",%progbits,1
 771              		.align	2
 772              	.LC1:
 773 0000 4D6F6E00 		.ascii	"Mon\000"
 774              		.align	2
 775              	.LC2:
 776 0004 54756500 		.ascii	"Tue\000"
 777              		.align	2
 778              	.LC3:
 779 0008 57656400 		.ascii	"Wed\000"
 780              		.align	2
 781              	.LC4:
 782 000c 54687500 		.ascii	"Thu\000"
 783              		.align	2
 784              	.LC5:
 785 0010 46726900 		.ascii	"Fri\000"
 786              		.align	2
 787              	.LC6:
 788 0014 53617400 		.ascii	"Sat\000"
 789              		.align	2
 790              	.LC7:
 791 0018 53756E00 		.ascii	"Sun\000"
 792              		.section	.text.ParseWeekday,"ax",%progbits
 793              		.align	1
 794              		.syntax unified
 795              		.thumb
 796              		.thumb_func
 798              	ParseWeekday:
 799              	.LVL74:
 800              	.LFB272:
1011:../Bsp/ESP01/esp01s.c ****     if (strncmp(str, "Mon", 3) == 0) return 1;
 801              		.loc 1 1011 1 is_stmt 1 view -0
 802              		.cfi_startproc
 803              		@ args = 0, pretend = 0, frame = 0
 804              		@ frame_needed = 0, uses_anonymous_args = 0
1011:../Bsp/ESP01/esp01s.c ****     if (strncmp(str, "Mon", 3) == 0) return 1;
 805              		.loc 1 1011 1 is_stmt 0 view .LVU238
 806 0000 10B5     		push	{r4, lr}
 807              		.cfi_def_cfa_offset 8
 808              		.cfi_offset 4, -8
 809              		.cfi_offset 14, -4
 810 0002 0446     		mov	r4, r0
ARM GAS  C:\Users\fish\AppData\Local\Temp\ccIMbRKB.s 			page 38


1012:../Bsp/ESP01/esp01s.c ****     if (strncmp(str, "Tue", 3) == 0) return 2;
 811              		.loc 1 1012 5 is_stmt 1 view .LVU239
1012:../Bsp/ESP01/esp01s.c ****     if (strncmp(str, "Tue", 3) == 0) return 2;
 812              		.loc 1 1012 9 is_stmt 0 view .LVU240
 813 0004 0322     		movs	r2, #3
 814 0006 1C49     		ldr	r1, .L65
 815 0008 FFF7FEFF 		bl	strncmp
 816              	.LVL75:
1012:../Bsp/ESP01/esp01s.c ****     if (strncmp(str, "Tue", 3) == 0) return 2;
 817              		.loc 1 1012 8 discriminator 1 view .LVU241
 818 000c 28B3     		cbz	r0, .L57
1013:../Bsp/ESP01/esp01s.c ****     if (strncmp(str, "Wed", 3) == 0) return 3;
 819              		.loc 1 1013 5 is_stmt 1 view .LVU242
1013:../Bsp/ESP01/esp01s.c ****     if (strncmp(str, "Wed", 3) == 0) return 3;
 820              		.loc 1 1013 9 is_stmt 0 view .LVU243
 821 000e 0322     		movs	r2, #3
 822 0010 1A49     		ldr	r1, .L65+4
 823 0012 2046     		mov	r0, r4
 824 0014 FFF7FEFF 		bl	strncmp
 825              	.LVL76:
1013:../Bsp/ESP01/esp01s.c ****     if (strncmp(str, "Wed", 3) == 0) return 3;
 826              		.loc 1 1013 8 discriminator 1 view .LVU244
 827 0018 08B3     		cbz	r0, .L58
1014:../Bsp/ESP01/esp01s.c ****     if (strncmp(str, "Thu", 3) == 0) return 4;
 828              		.loc 1 1014 5 is_stmt 1 view .LVU245
1014:../Bsp/ESP01/esp01s.c ****     if (strncmp(str, "Thu", 3) == 0) return 4;
 829              		.loc 1 1014 9 is_stmt 0 view .LVU246
 830 001a 0322     		movs	r2, #3
 831 001c 1849     		ldr	r1, .L65+8
 832 001e 2046     		mov	r0, r4
 833 0020 FFF7FEFF 		bl	strncmp
 834              	.LVL77:
1014:../Bsp/ESP01/esp01s.c ****     if (strncmp(str, "Thu", 3) == 0) return 4;
 835              		.loc 1 1014 8 discriminator 1 view .LVU247
 836 0024 E8B1     		cbz	r0, .L59
1015:../Bsp/ESP01/esp01s.c ****     if (strncmp(str, "Fri", 3) == 0) return 5;
 837              		.loc 1 1015 5 is_stmt 1 view .LVU248
1015:../Bsp/ESP01/esp01s.c ****     if (strncmp(str, "Fri", 3) == 0) return 5;
 838              		.loc 1 1015 9 is_stmt 0 view .LVU249
 839 0026 0322     		movs	r2, #3
 840 0028 1649     		ldr	r1, .L65+12
 841 002a 2046     		mov	r0, r4
 842 002c FFF7FEFF 		bl	strncmp
 843              	.LVL78:
1015:../Bsp/ESP01/esp01s.c ****     if (strncmp(str, "Fri", 3) == 0) return 5;
 844              		.loc 1 1015 8 discriminator 1 view .LVU250
 845 0030 C8B1     		cbz	r0, .L60
1016:../Bsp/ESP01/esp01s.c ****     if (strncmp(str, "Sat", 3) == 0) return 6;
 846              		.loc 1 1016 5 is_stmt 1 view .LVU251
1016:../Bsp/ESP01/esp01s.c ****     if (strncmp(str, "Sat", 3) == 0) return 6;
 847              		.loc 1 1016 9 is_stmt 0 view .LVU252
 848 0032 0322     		movs	r2, #3
 849 0034 1449     		ldr	r1, .L65+16
 850 0036 2046     		mov	r0, r4
 851 0038 FFF7FEFF 		bl	strncmp
 852              	.LVL79:
1016:../Bsp/ESP01/esp01s.c ****     if (strncmp(str, "Sat", 3) == 0) return 6;
ARM GAS  C:\Users\fish\AppData\Local\Temp\ccIMbRKB.s 			page 39


 853              		.loc 1 1016 8 discriminator 1 view .LVU253
 854 003c A8B1     		cbz	r0, .L61
1017:../Bsp/ESP01/esp01s.c ****     if (strncmp(str, "Sun", 3) == 0) return 7;
 855              		.loc 1 1017 5 is_stmt 1 view .LVU254
1017:../Bsp/ESP01/esp01s.c ****     if (strncmp(str, "Sun", 3) == 0) return 7;
 856              		.loc 1 1017 9 is_stmt 0 view .LVU255
 857 003e 0322     		movs	r2, #3
 858 0040 1249     		ldr	r1, .L65+20
 859 0042 2046     		mov	r0, r4
 860 0044 FFF7FEFF 		bl	strncmp
 861              	.LVL80:
1017:../Bsp/ESP01/esp01s.c ****     if (strncmp(str, "Sun", 3) == 0) return 7;
 862              		.loc 1 1017 8 discriminator 1 view .LVU256
 863 0048 88B1     		cbz	r0, .L62
1018:../Bsp/ESP01/esp01s.c ****     return 0;  /* ๆช็ฅๆๆ */
 864              		.loc 1 1018 5 is_stmt 1 view .LVU257
1018:../Bsp/ESP01/esp01s.c ****     return 0;  /* ๆช็ฅๆๆ */
 865              		.loc 1 1018 9 is_stmt 0 view .LVU258
 866 004a 0322     		movs	r2, #3
 867 004c 1049     		ldr	r1, .L65+24
 868 004e 2046     		mov	r0, r4
 869 0050 FFF7FEFF 		bl	strncmp
 870              	.LVL81:
1018:../Bsp/ESP01/esp01s.c ****     return 0;  /* ๆช็ฅๆๆ */
 871              		.loc 1 1018 8 discriminator 1 view .LVU259
 872 0054 68B1     		cbz	r0, .L63
1019:../Bsp/ESP01/esp01s.c **** }
 873              		.loc 1 1019 12 view .LVU260
 874 0056 0020     		movs	r0, #0
 875 0058 00E0     		b	.L56
 876              	.L57:
1012:../Bsp/ESP01/esp01s.c ****     if (strncmp(str, "Tue", 3) == 0) return 2;
 877              		.loc 1 1012 45 discriminator 1 view .LVU261
 878 005a 0120     		movs	r0, #1
 879              	.L56:
1020:../Bsp/ESP01/esp01s.c **** 
 880              		.loc 1 1020 1 view .LVU262
 881 005c 10BD     		pop	{r4, pc}
 882              	.LVL82:
 883              	.L58:
1013:../Bsp/ESP01/esp01s.c ****     if (strncmp(str, "Wed", 3) == 0) return 3;
 884              		.loc 1 1013 45 discriminator 1 view .LVU263
 885 005e 0220     		movs	r0, #2
 886 0060 FCE7     		b	.L56
 887              	.L59:
1014:../Bsp/ESP01/esp01s.c ****     if (strncmp(str, "Thu", 3) == 0) return 4;
 888              		.loc 1 1014 45 discriminator 1 view .LVU264
 889 0062 0320     		movs	r0, #3
 890 0064 FAE7     		b	.L56
 891              	.L60:
1015:../Bsp/ESP01/esp01s.c ****     if (strncmp(str, "Fri", 3) == 0) return 5;
 892              		.loc 1 1015 45 discriminator 1 view .LVU265
 893 0066 0420     		movs	r0, #4
 894 0068 F8E7     		b	.L56
 895              	.L61:
1016:../Bsp/ESP01/esp01s.c ****     if (strncmp(str, "Sat", 3) == 0) return 6;
 896              		.loc 1 1016 45 discriminator 1 view .LVU266
ARM GAS  C:\Users\fish\AppData\Local\Temp\ccIMbRKB.s 			page 40


 897 006a 0520     		movs	r0, #5
 898 006c F6E7     		b	.L56
 899              	.L62:
1017:../Bsp/ESP01/esp01s.c ****     if (strncmp(str, "Sun", 3) == 0) return 7;
 900              		.loc 1 1017 45 discriminator 1 view .LVU267
 901 006e 0620     		movs	r0, #6
 902 0070 F4E7     		b	.L56
 903              	.L63:
1018:../Bsp/ESP01/esp01s.c ****     return 0;  /* ๆช็ฅๆๆ */
 904              		.loc 1 1018 45 discriminator 1 view .LVU268
 905 0072 0720     		movs	r0, #7
 906 0074 F2E7     		b	.L56
 907              	.L66:
 908 0076 00BF     		.align	2
 909              	.L65:
 910 0078 00000000 		.word	.LC1
 911 007c 04000000 		.word	.LC2
 912 0080 08000000 		.word	.LC3
 913 0084 0C000000 		.word	.LC4
 914 0088 10000000 		.word	.LC5
 915 008c 14000000 		.word	.LC6
 916 0090 18000000 		.word	.LC7
 917              		.cfi_endproc
 918              	.LFE272:
 920              		.section	.rodata.ESP01S_ProcessATResponse.str1.4,"aMS",%progbits,1
 921              		.align	2
 922              	.LC8:
 923 0000 4F4B00   		.ascii	"OK\000"
 924 0003 00       		.align	2
 925              	.LC9:
 926 0004 57494649 		.ascii	"WIFI CONNECTED\000"
 926      20434F4E 
 926      4E454354 
 926      454400
 927 0013 00       		.align	2
 928              	.LC10:
 929 0014 0D0A4F4B 		.ascii	"\015\012OK\000"
 929      00
 930 0019 000000   		.align	2
 931              	.LC11:
 932 001c 434F4E4E 		.ascii	"CONNECT\015\012\015\012OK\000"
 932      4543540D 
 932      0A0D0A4F 
 932      4B00
 933 002a 0000     		.align	2
 934              	.LC12:
 935 002c 414C5245 		.ascii	"ALREADY CONNECTED\000"
 935      41445920 
 935      434F4E4E 
 935      45435445 
 935      4400
 936 003e 0000     		.align	2
 937              	.LC13:
 938 0040 444E5320 		.ascii	"DNS fail\000"
 938      6661696C 
 938      00
 939 0049 000000   		.align	2
ARM GAS  C:\Users\fish\AppData\Local\Temp\ccIMbRKB.s 			page 41


 940              	.LC14:
 941 004c 444E5320 		.ascii	"DNS FAIL\000"
 941      4641494C 
 941      00
 942 0055 000000   		.align	2
 943              	.LC15:
 944 0058 434F4E4E 		.ascii	"CONNECT FAIL\000"
 944      45435420 
 944      4641494C 
 944      00
 945 0065 000000   		.align	2
 946              	.LC16:
 947 0068 5B455350 		.ascii	"[ESP01S] CIPSTART\345\244\261\350\264\245: %s\015\012"
 947      3031535D 
 947      20434950 
 947      53544152 
 947      54E5A4B1 
 948 0085 00       		.ascii	"\000"
 949 0086 0000     		.align	2
 950              	.LC17:
 951 0088 2B434950 		.ascii	"+CIPDOMAIN:\000"
 951      444F4D41 
 951      494E3A00 
 952              		.align	2
 953              	.LC18:
 954 0094 6170692E 		.ascii	"api.seniverse.com\000"
 954      73656E69 
 954      76657273 
 954      652E636F 
 954      6D00
 955 00a6 0000     		.align	2
 956              	.LC19:
 957 00a8 5B455350 		.ascii	"[ESP01S] DNS\350\247\243\346\236\220\346\210\220\345"
 957      3031535D 
 957      20444E53 
 957      E8A7A3E6 
 957      9E90E688 
 958 00be 8A9F3A20 		.ascii	"\212\237: %s -> %s\015\012\000"
 958      2573202D 
 958      3E202573 
 958      0D0A00
 959 00cd 000000   		.align	2
 960              	.LC20:
 961 00d0 2B435753 		.ascii	"+CWSAP:\000"
 961      41503A00 
 962              		.align	2
 963              	.LC21:
 964 00d8 2B43574A 		.ascii	"+CWJAP:\000"
 964      41503A00 
 965              		.align	2
 966              	.LC22:
 967 00e0 2B434950 		.ascii	"+CIPSNTPTIME:\000"
 967      534E5450 
 967      54494D45 
 967      3A00
 968 00ee 0000     		.align	2
 969              	.LC23:
ARM GAS  C:\Users\fish\AppData\Local\Temp\ccIMbRKB.s 			page 42


 970 00f0 25337320 		.ascii	"%3s %3s %d %d:%d:%d %d\000"
 970      25337320 
 970      25642025 
 970      643A2564 
 970      3A256420 
 971 0107 00       		.align	2
 972              	.LC24:
 973 0108 4A616E00 		.ascii	"Jan\000"
 974              		.align	2
 975              	.LC25:
 976 010c 46656200 		.ascii	"Feb\000"
 977              		.align	2
 978              	.LC26:
 979 0110 4D617200 		.ascii	"Mar\000"
 980              		.align	2
 981              	.LC27:
 982 0114 41707200 		.ascii	"Apr\000"
 983              		.align	2
 984              	.LC28:
 985 0118 4D617900 		.ascii	"May\000"
 986              		.align	2
 987              	.LC29:
 988 011c 4A756E00 		.ascii	"Jun\000"
 989              		.align	2
 990              	.LC30:
 991 0120 4A756C00 		.ascii	"Jul\000"
 992              		.align	2
 993              	.LC31:
 994 0124 41756700 		.ascii	"Aug\000"
 995              		.align	2
 996              	.LC32:
 997 0128 53657000 		.ascii	"Sep\000"
 998              		.align	2
 999              	.LC33:
 1000 012c 4F637400 		.ascii	"Oct\000"
 1001              		.align	2
 1002              	.LC34:
 1003 0130 4E6F7600 		.ascii	"Nov\000"
 1004              		.align	2
 1005              	.LC35:
 1006 0134 44656300 		.ascii	"Dec\000"
 1007              		.align	2
 1008              	.LC36:
 1009 0138 5B455350 		.ascii	"[ESP01S] NTP\346\227\266\351\227\264\350\247\243\346"
 1009      3031535D 
 1009      204E5450 
 1009      E697B6E9 
 1009      97B4E8A7 
 1010 014e 9E90E5A4 		.ascii	"\236\220\345\244\261\350\264\245\015\000"
 1010      B1E8B4A5 
 1010      0D00
 1011              		.section	.text.ESP01S_ProcessATResponse,"ax",%progbits
 1012              		.align	1
 1013              		.syntax unified
 1014              		.thumb
 1015              		.thumb_func
 1017              	ESP01S_ProcessATResponse:
ARM GAS  C:\Users\fish\AppData\Local\Temp\ccIMbRKB.s 			page 43


 1018              	.LVL83:
 1019              	.LFB278:
1246:../Bsp/ESP01/esp01s.c **** 
1247:../Bsp/ESP01/esp01s.c **** /**
1248:../Bsp/ESP01/esp01s.c ****  * @brief  ไธฒๅฃๆฅๆถๅ่ฐ(็ฑUartDrvๅๅ่ฐ็จ)
1249:../Bsp/ESP01/esp01s.c ****  * @param  pData     ๆฅๆถๆฐๆฎๆ้(็ฑUartDrv_RxEventDispatchไผ ๅฅ)
1250:../Bsp/ESP01/esp01s.c ****  * @param  pUserCtx  ็จๆทไธไธๆ(ๅณESP01S_Instance_tๅฎไพๆ้)
1251:../Bsp/ESP01/esp01s.c ****  * @note   ๆญคๅฝๆฐๅจUartDrv็ไธญๆญๅ่ฐไธญ่ขซ่ฐ็จ,ๅคไบไธญๆญไธไธๆ,ๅบๅฐฝๅฟซ่ฟๅใ
1252:../Bsp/ESP01/esp01s.c ****  *         ๅค็้ป่พ:
1253:../Bsp/ESP01/esp01s.c ****  *         1. ๅฆๆๆญฃๅจ็ญๅพUDP NTPๅๅบ,ไผๅ่งฃๆ+IPDๆฐๆฎ(ๅฏ่ฝๅซไบ่ฟๅถ)
1254:../Bsp/ESP01/esp01s.c ****  *         2. ้ไผ ๆจกๅผไธ:็ดๆฅๅฐๆฐๆฎไผ ็ป็จๆทๅ่ฐ
1255:../Bsp/ESP01/esp01s.c ****  *         3. ATๆไปคๆจกๅผไธ:่ฐ็จESP01S_ProcessATResponse่งฃๆๅๅบๅนถๆจ่ฟ็ถๆๆบ
1256:../Bsp/ESP01/esp01s.c ****  */
1257:../Bsp/ESP01/esp01s.c **** static void ESP01S_RxCallback(UartDrv_RxData_t *pData, void *pUserCtx)
1258:../Bsp/ESP01/esp01s.c **** {
1259:../Bsp/ESP01/esp01s.c ****     if (pData == NULL || pUserCtx == NULL)
1260:../Bsp/ESP01/esp01s.c ****         return;
1261:../Bsp/ESP01/esp01s.c **** 
1262:../Bsp/ESP01/esp01s.c ****     ESP01S_Instance_t *pInst = (ESP01S_Instance_t *)pUserCtx;
1263:../Bsp/ESP01/esp01s.c **** 
1264:../Bsp/ESP01/esp01s.c ****     if (pData->rx_len > 0)
1265:../Bsp/ESP01/esp01s.c ****     {
1266:../Bsp/ESP01/esp01s.c ****         /* UDP NTP็ญๅพไธญ: ไผๅๆฃๆฅ+IPDๆฐๆฎ(ๅฏ่ฝๅซไบ่ฟๅถ,ไธ่ฝ็จๅญ็ฌฆไธฒๅฝๆฐๅค็
1267:../Bsp/ESP01/esp01s.c ****         if (pInst->ntpUdpPending)
1268:../Bsp/ESP01/esp01s.c ****         {
1269:../Bsp/ESP01/esp01s.c ****             ESP01S_ParseUdpNtpData(pData->rx_buf, pData->rx_len);
1270:../Bsp/ESP01/esp01s.c ****             if (pInst->ntpTimeValid)
1271:../Bsp/ESP01/esp01s.c ****                 return;  /* NTPๆฐๆฎๅทฒ่งฃๆ,ไธๅๅๅญ็ฌฆไธฒๅค็ */
1272:../Bsp/ESP01/esp01s.c ****         }
1273:../Bsp/ESP01/esp01s.c **** 
1274:../Bsp/ESP01/esp01s.c ****         /* ๅคฉๆฐHTTPๆฅ่ฏข็ญๅพไธญ: ็ผๅญๅๅงๅๅบๆฐๆฎไพๅ็ปญ่งฃๆ */
1275:../Bsp/ESP01/esp01s.c ****         if (pInst->weatherPending)
1276:../Bsp/ESP01/esp01s.c ****         {
1277:../Bsp/ESP01/esp01s.c ****             uint16_t copyLen = pData->rx_len;
1278:../Bsp/ESP01/esp01s.c ****             if (pInst->weatherRxLen + copyLen > sizeof(pInst->weatherRxBuf) - 1)
1279:../Bsp/ESP01/esp01s.c ****                 copyLen = (uint16_t)(sizeof(pInst->weatherRxBuf) - 1 - pInst->weatherRxLen);
1280:../Bsp/ESP01/esp01s.c ****             if (copyLen > 0)
1281:../Bsp/ESP01/esp01s.c ****             {
1282:../Bsp/ESP01/esp01s.c ****                 memcpy(pInst->weatherRxBuf + pInst->weatherRxLen, pData->rx_buf, copyLen);
1283:../Bsp/ESP01/esp01s.c ****                 pInst->weatherRxLen += copyLen;
1284:../Bsp/ESP01/esp01s.c ****                 pInst->weatherRxBuf[pInst->weatherRxLen] = '\0';
1285:../Bsp/ESP01/esp01s.c ****             }
1286:../Bsp/ESP01/esp01s.c ****             return;  /* ๅคฉๆฐๆฅ่ฏขๆ้ดไธๅค็ATๅๅบ/้ไผ ๆฐๆฎ */
1287:../Bsp/ESP01/esp01s.c ****         }
1288:../Bsp/ESP01/esp01s.c **** 
1289:../Bsp/ESP01/esp01s.c ****         char *pstr = (char *)pData->rx_buf;
1290:../Bsp/ESP01/esp01s.c **** 
1291:../Bsp/ESP01/esp01s.c ****         if (pInst->state == ESP01S_STATE_TRANSPARENT)
1292:../Bsp/ESP01/esp01s.c ****         {
1293:../Bsp/ESP01/esp01s.c ****             /* ้ไผ ๆจกๅผ: ไผๅ้่ฟๆถๆฏ้ๅๅ้ๅฐไปปๅกไธไธๆๅค็ */
1294:../Bsp/ESP01/esp01s.c **** #ifndef ESP01S_NO_FREERTOS
1295:../Bsp/ESP01/esp01s.c ****             if (pInst->rxQueue != NULL)
1296:../Bsp/ESP01/esp01s.c ****             {
1297:../Bsp/ESP01/esp01s.c ****                 UartDrv_QueueEvent_t evt;
1298:../Bsp/ESP01/esp01s.c ****                 evt.pDrv = pInst->pUartDrv;
1299:../Bsp/ESP01/esp01s.c ****                 evt.len  = (pData->rx_len > UART_DRV_QUEUE_DATA_SIZE) ? UART_DRV_QUEUE_DATA_SIZE : 
1300:../Bsp/ESP01/esp01s.c ****                 memcpy(evt.data, pData->rx_buf, evt.len);
ARM GAS  C:\Users\fish\AppData\Local\Temp\ccIMbRKB.s 			page 44


1301:../Bsp/ESP01/esp01s.c ****                 osMessageQueuePut(pInst->rxQueue, &evt, 0, 0);
1302:../Bsp/ESP01/esp01s.c ****             }
1303:../Bsp/ESP01/esp01s.c ****             else
1304:../Bsp/ESP01/esp01s.c **** #endif
1305:../Bsp/ESP01/esp01s.c ****             {
1306:../Bsp/ESP01/esp01s.c ****                 /* ๆชๆณจๅ้ๅๆถ,็ดๆฅๅจๅ่ฐไธญ่ฐ็จ็จๆทๅ่ฐ */
1307:../Bsp/ESP01/esp01s.c ****                 if (pInst->pDataCb)
1308:../Bsp/ESP01/esp01s.c ****                 {
1309:../Bsp/ESP01/esp01s.c ****                     pInst->pDataCb(pData->rx_buf, pData->rx_len, pInst->pUserCtx);
1310:../Bsp/ESP01/esp01s.c ****                 }
1311:../Bsp/ESP01/esp01s.c ****             }
1312:../Bsp/ESP01/esp01s.c ****         }
1313:../Bsp/ESP01/esp01s.c ****         else
1314:../Bsp/ESP01/esp01s.c ****         {
1315:../Bsp/ESP01/esp01s.c ****             /* ATๆไปคๆจกๅผ: ่งฃๆATๅๅบ,ๆจๅจ็ถๆๆบ */
1316:../Bsp/ESP01/esp01s.c ****             ESP01S_ProcessATResponse(pstr, pData->rx_len);
1317:../Bsp/ESP01/esp01s.c ****         }
1318:../Bsp/ESP01/esp01s.c ****     }
1319:../Bsp/ESP01/esp01s.c **** }
1320:../Bsp/ESP01/esp01s.c **** 
1321:../Bsp/ESP01/esp01s.c **** /**
1322:../Bsp/ESP01/esp01s.c ****  * @brief  ่งฃๆESP01S็ATๅๅบ,ๆจๅจ็ถๆๆบ
1323:../Bsp/ESP01/esp01s.c ****  * @param  pstr ๆฅๆถๅฐ็ATๅๅบๅญ็ฌฆไธฒ(ๅทฒ็ฑUartDrvๆทปๅ '\0'็ปๅฐพ)
1324:../Bsp/ESP01/esp01s.c ****  * @param  len  ๆฐๆฎ้ฟๅบฆ
1325:../Bsp/ESP01/esp01s.c ****  * @note   ๆฌๅฝๆฐๆฏ็ถๆๆบ็ๆ ธๅฟ,ๆ นๆฎATๅๅบไธญ็ๅณ้ฎๅญๆจ่ฟ็ถๆ:
1326:../Bsp/ESP01/esp01s.c ****  *         - "OK" (่ก้ฆ): ้็จๆๅๅๅบ,็จไบATๆต่ฏๅWiFi่ฟๆฅ็กฎ่ฎค
1327:../Bsp/ESP01/esp01s.c ****  *         - "WIFI CONNECTED": WiFiๆญฃๅจ่ฟๆฅ(ไธญ้ด็ถๆ)
1328:../Bsp/ESP01/esp01s.c ****  *         - "\r\nOK" (่ก้ฆ): WiFi่ฟๆฅๆๅ(ๆถๅฐCWJAP็ๆ็ปOK)
1329:../Bsp/ESP01/esp01s.c ****  *         - "CONNECT\r\n\r\nOK" ๆ "ALREADY CONNECTED": TCP่ฟๆฅๆๅ
1330:../Bsp/ESP01/esp01s.c ****  *         - "+CWSAP:": ่งฃๆๆจกๅ่ช่บซAPๅ็งฐ
1331:../Bsp/ESP01/esp01s.c ****  *         - "+CWJAP:": ่งฃๆๅฝๅ่ฟๆฅ็็ญ็นๅ็งฐ
1332:../Bsp/ESP01/esp01s.c ****  *         - "+CIPSNTPTIME:": ่งฃๆAT SNTPๆถ้ด
1333:../Bsp/ESP01/esp01s.c ****  */
1334:../Bsp/ESP01/esp01s.c **** static void ESP01S_ProcessATResponse(const char *pstr, uint16_t len)
1335:../Bsp/ESP01/esp01s.c **** {
 1020              		.loc 1 1335 1 is_stmt 1 view -0
 1021              		.cfi_startproc
 1022              		@ args = 0, pretend = 0, frame = 32
 1023              		@ frame_needed = 0, uses_anonymous_args = 0
 1024              		.loc 1 1335 1 is_stmt 0 view .LVU270
 1025 0000 F0B5     		push	{r4, r5, r6, r7, lr}
 1026              		.cfi_def_cfa_offset 20
 1027              		.cfi_offset 4, -20
 1028              		.cfi_offset 5, -16
 1029              		.cfi_offset 6, -12
 1030              		.cfi_offset 7, -8
 1031              		.cfi_offset 14, -4
 1032 0002 8FB0     		sub	sp, sp, #60
 1033              		.cfi_def_cfa_offset 80
 1034 0004 0546     		mov	r5, r0
1336:../Bsp/ESP01/esp01s.c ****     /* ---- ๆฃๆตOKๅๅบ ----
1337:../Bsp/ESP01/esp01s.c ****      * ATๆไปคๆง่กๆๅ้ๅธธไผ่ฟๅ"OK"ใ
1338:../Bsp/ESP01/esp01s.c ****      * ๅฝ็ถๆไธบIDLEๆถ,ๆถๅฐOK่ฏดๆAT้ไฟกๆญฃๅธธ,ๆจ่ฟๅฐAT_OKใ */
1339:../Bsp/ESP01/esp01s.c ****     if (strstr(pstr, "OK") >= pstr)
 1035              		.loc 1 1339 5 is_stmt 1 view .LVU271
 1036              		.loc 1 1339 9 is_stmt 0 view .LVU272
 1037 0006 AC49     		ldr	r1, .L116
ARM GAS  C:\Users\fish\AppData\Local\Temp\ccIMbRKB.s 			page 45


 1038              	.LVL84:
 1039              		.loc 1 1339 9 view .LVU273
 1040 0008 FFF7FEFF 		bl	strstr
 1041              	.LVL85:
 1042              		.loc 1 1339 8 discriminator 1 view .LVU274
 1043 000c 8542     		cmp	r5, r0
 1044 000e 07D8     		bhi	.L68
1340:../Bsp/ESP01/esp01s.c ****     {
1341:../Bsp/ESP01/esp01s.c ****         if (s_esp01s.state == ESP01S_STATE_IDLE)
 1045              		.loc 1 1341 9 is_stmt 1 view .LVU275
 1046              		.loc 1 1341 21 is_stmt 0 view .LVU276
 1047 0010 AA4B     		ldr	r3, .L116+4
 1048 0012 93F8C830 		ldrb	r3, [r3, #200]	@ zero_extendqisi2
 1049              		.loc 1 1341 12 view .LVU277
 1050 0016 1BB9     		cbnz	r3, .L68
1342:../Bsp/ESP01/esp01s.c ****         {
1343:../Bsp/ESP01/esp01s.c ****             s_esp01s.state = ESP01S_STATE_AT_OK;
 1051              		.loc 1 1343 13 is_stmt 1 view .LVU278
 1052              		.loc 1 1343 28 is_stmt 0 view .LVU279
 1053 0018 A84B     		ldr	r3, .L116+4
 1054 001a 0122     		movs	r2, #1
 1055 001c 83F8C820 		strb	r2, [r3, #200]
 1056              	.L68:
1344:../Bsp/ESP01/esp01s.c ****         }
1345:../Bsp/ESP01/esp01s.c ****     }
1346:../Bsp/ESP01/esp01s.c **** 
1347:../Bsp/ESP01/esp01s.c ****     /* ไปๅจAT้ไฟกๆญฃๅธธๅ็ปง็ปญ่งฃๆๅ็ปญๅๅบ */
1348:../Bsp/ESP01/esp01s.c ****     if (s_esp01s.state < ESP01S_STATE_AT_OK)
 1057              		.loc 1 1348 5 is_stmt 1 view .LVU280
 1058              		.loc 1 1348 17 is_stmt 0 view .LVU281
 1059 0020 A64B     		ldr	r3, .L116+4
 1060 0022 93F8C830 		ldrb	r3, [r3, #200]	@ zero_extendqisi2
 1061              		.loc 1 1348 8 view .LVU282
 1062 0026 002B     		cmp	r3, #0
 1063 0028 00F0F481 		beq	.L67
1349:../Bsp/ESP01/esp01s.c ****         return;
1350:../Bsp/ESP01/esp01s.c **** 
1351:../Bsp/ESP01/esp01s.c ****     /* ---- WIFI CONNECTED ----
1352:../Bsp/ESP01/esp01s.c ****      * AT+CWJAP่ฟๆฅWiFiๆถ็ไธญ้ด็ถๆ,่กจ็คบๆญฃๅจๅณ่AP,
1353:../Bsp/ESP01/esp01s.c ****      * ่ฟ้่ฆ็ญๅพๆ็ป็\r\nOKๆ็ฎ่ฟๆฅๅฎๆ */
1354:../Bsp/ESP01/esp01s.c ****     if (strstr(pstr, "WIFI CONNECTED") == pstr)
 1064              		.loc 1 1354 5 is_stmt 1 view .LVU283
 1065              		.loc 1 1354 9 is_stmt 0 view .LVU284
 1066 002c A449     		ldr	r1, .L116+8
 1067 002e 2846     		mov	r0, r5
 1068 0030 FFF7FEFF 		bl	strstr
 1069              	.LVL86:
 1070              		.loc 1 1354 8 discriminator 1 view .LVU285
 1071 0034 8542     		cmp	r5, r0
 1072 0036 27D0     		beq	.L105
 1073              	.L70:
1355:../Bsp/ESP01/esp01s.c ****     {
1356:../Bsp/ESP01/esp01s.c ****         s_esp01s.state = ESP01S_STATE_WIFI_CONNECTING;
1357:../Bsp/ESP01/esp01s.c ****     }
1358:../Bsp/ESP01/esp01s.c **** 
1359:../Bsp/ESP01/esp01s.c ****     /* ---- WiFi่ฟๆฅๆๅ ----
1360:../Bsp/ESP01/esp01s.c ****      * AT+CWJAPๆ็ป่ฟๅ\r\nOK,่กจ็คบ่ฟๆฅ่ฟ็จๅฎๆใ
ARM GAS  C:\Users\fish\AppData\Local\Temp\ccIMbRKB.s 			page 46


1361:../Bsp/ESP01/esp01s.c ****      * ็จ"\r\nOK"่้"OK"ๆฅๅน้,้ฟๅ่ฏฏๅคๅถไปๅซOK็ๅๅบ */
1362:../Bsp/ESP01/esp01s.c ****     if (strstr(pstr, "\r\nOK") == pstr)
 1074              		.loc 1 1362 5 is_stmt 1 view .LVU286
 1075              		.loc 1 1362 9 is_stmt 0 view .LVU287
 1076 0038 A249     		ldr	r1, .L116+12
 1077 003a 2846     		mov	r0, r5
 1078 003c FFF7FEFF 		bl	strstr
 1079              	.LVL87:
 1080              		.loc 1 1362 8 discriminator 1 view .LVU288
 1081 0040 8542     		cmp	r5, r0
 1082 0042 26D0     		beq	.L106
 1083              	.L71:
1363:../Bsp/ESP01/esp01s.c ****     {
1364:../Bsp/ESP01/esp01s.c ****         if (s_esp01s.state == ESP01S_STATE_WIFI_CONNECTING)
1365:../Bsp/ESP01/esp01s.c ****         {
1366:../Bsp/ESP01/esp01s.c ****             s_esp01s.state = ESP01S_STATE_WIFI_CONNECTED;
1367:../Bsp/ESP01/esp01s.c ****         }
1368:../Bsp/ESP01/esp01s.c ****     }
1369:../Bsp/ESP01/esp01s.c **** 
1370:../Bsp/ESP01/esp01s.c ****     /* ---- TCP่ฟๆฅๆๅ ----
1371:../Bsp/ESP01/esp01s.c ****      * AT+CIPSTARTๆๅ่ฟๅ: "CONNECT\r\n\r\nOK"
1372:../Bsp/ESP01/esp01s.c ****      * ๅฆๆๅทฒ่ฟๆฅๅ่ฟๅ: "ALREADY CONNECTED"
1373:../Bsp/ESP01/esp01s.c ****      *
1374:../Bsp/ESP01/esp01s.c ****      * ไฝฟ็จ != NULL ่้ == pstr,ๅ ไธบๆญคๅAT+CIPCLOSE็ๅๅบ
1375:../Bsp/ESP01/esp01s.c ****      * (CLOSED\r\n\r\nOK)ๅฏ่ฝไธCIPSTARTๅๅบๅจๅไธUART็ฉบ้ฒไธญๆญๅธงไธญ,
1376:../Bsp/ESP01/esp01s.c ****      * ๅฏผ่ด็ผๅฒๅบๅผๅคดไธๆฏ"CONNECT"ใ */
1377:../Bsp/ESP01/esp01s.c ****     if (strstr(pstr, "CONNECT\r\n\r\nOK") != NULL && s_esp01s.state == ESP01S_STATE_TCP_CONNECTING)
 1084              		.loc 1 1377 5 is_stmt 1 view .LVU289
 1085              		.loc 1 1377 9 is_stmt 0 view .LVU290
 1086 0044 A049     		ldr	r1, .L116+16
 1087 0046 2846     		mov	r0, r5
 1088 0048 FFF7FEFF 		bl	strstr
 1089              	.LVL88:
 1090              		.loc 1 1377 8 discriminator 1 view .LVU291
 1091 004c 20B1     		cbz	r0, .L72
 1092              		.loc 1 1377 62 discriminator 1 view .LVU292
 1093 004e 9B4B     		ldr	r3, .L116+4
 1094 0050 93F8C830 		ldrb	r3, [r3, #200]	@ zero_extendqisi2
 1095              		.loc 1 1377 51 discriminator 1 view .LVU293
 1096 0054 042B     		cmp	r3, #4
 1097 0056 26D0     		beq	.L107
 1098              	.L72:
1378:../Bsp/ESP01/esp01s.c ****     {
1379:../Bsp/ESP01/esp01s.c ****         s_esp01s.state = ESP01S_STATE_TCP_CONNECTED;
1380:../Bsp/ESP01/esp01s.c ****     }
1381:../Bsp/ESP01/esp01s.c ****     else if (strstr(pstr, "ALREADY CONNECTED") != NULL && s_esp01s.state == ESP01S_STATE_TCP_CONNEC
 1099              		.loc 1 1381 10 is_stmt 1 view .LVU294
 1100              		.loc 1 1381 14 is_stmt 0 view .LVU295
 1101 0058 9C49     		ldr	r1, .L116+20
 1102 005a 2846     		mov	r0, r5
 1103 005c FFF7FEFF 		bl	strstr
 1104              	.LVL89:
 1105              		.loc 1 1381 13 discriminator 1 view .LVU296
 1106 0060 20B1     		cbz	r0, .L73
 1107              		.loc 1 1381 67 discriminator 1 view .LVU297
 1108 0062 964B     		ldr	r3, .L116+4
 1109 0064 93F8C830 		ldrb	r3, [r3, #200]	@ zero_extendqisi2
ARM GAS  C:\Users\fish\AppData\Local\Temp\ccIMbRKB.s 			page 47


 1110              		.loc 1 1381 56 discriminator 1 view .LVU298
 1111 0068 042B     		cmp	r3, #4
 1112 006a 21D0     		beq	.L108
 1113              	.L73:
1382:../Bsp/ESP01/esp01s.c ****     {
1383:../Bsp/ESP01/esp01s.c ****         s_esp01s.state = ESP01S_STATE_TCP_CONNECTED;
1384:../Bsp/ESP01/esp01s.c ****     }
1385:../Bsp/ESP01/esp01s.c **** 
1386:../Bsp/ESP01/esp01s.c ****     /* ---- DNS/TCP่ฟๆฅๅคฑ่ดฅ ----
1387:../Bsp/ESP01/esp01s.c ****      * AT+CIPSTARTไฝฟ็จๅๅๆถ,ๅฆๆDNS่งฃๆๅคฑ่ดฅ,ESP8266่ฟๅ:
1388:../Bsp/ESP01/esp01s.c ****      * "+CIPSTART: DNS fail"
1389:../Bsp/ESP01/esp01s.c ****      * ๅฆๆTCP่ฟๆฅ่ขซๆ็ป,่ฟๅ:
1390:../Bsp/ESP01/esp01s.c ****      * "+CIPSTART: CONNECT FAIL" */
1391:../Bsp/ESP01/esp01s.c ****     if (s_esp01s.state == ESP01S_STATE_TCP_CONNECTING &&
 1114              		.loc 1 1391 5 is_stmt 1 view .LVU299
 1115              		.loc 1 1391 17 is_stmt 0 view .LVU300
 1116 006c 934B     		ldr	r3, .L116+4
 1117 006e 93F8C830 		ldrb	r3, [r3, #200]	@ zero_extendqisi2
 1118              		.loc 1 1391 8 view .LVU301
 1119 0072 042B     		cmp	r3, #4
 1120 0074 21D0     		beq	.L109
 1121              	.L74:
1392:../Bsp/ESP01/esp01s.c ****         (strstr(pstr, "DNS fail") != NULL || strstr(pstr, "DNS FAIL") != NULL ||
1393:../Bsp/ESP01/esp01s.c ****          strstr(pstr, "CONNECT FAIL") != NULL))
1394:../Bsp/ESP01/esp01s.c ****     {
1395:../Bsp/ESP01/esp01s.c ****         printf("[ESP01S] CIPSTARTๅคฑ่ดฅ: %s\r\n", pstr);
1396:../Bsp/ESP01/esp01s.c ****     }
1397:../Bsp/ESP01/esp01s.c **** 
1398:../Bsp/ESP01/esp01s.c ****     /* ---- ่งฃๆ+CIPDOMAINๅๅบ ----
1399:../Bsp/ESP01/esp01s.c ****      * AT+CIPDOMAIN="hostname" ่ฟๅ: "+CIPDOMAIN:123.45.67.89"
1400:../Bsp/ESP01/esp01s.c ****      * ๆๅIPๅฐๅ็ผๅญๅฐcipdomainResultไพๅ็ปญCIPSTARTไฝฟ็จ */
1401:../Bsp/ESP01/esp01s.c ****     if (strstr(pstr, "+CIPDOMAIN:") != NULL)
 1122              		.loc 1 1401 5 is_stmt 1 view .LVU302
 1123              		.loc 1 1401 9 is_stmt 0 view .LVU303
 1124 0076 9649     		ldr	r1, .L116+24
 1125 0078 2846     		mov	r0, r5
 1126 007a FFF7FEFF 		bl	strstr
 1127              	.LVL90:
 1128              		.loc 1 1401 8 discriminator 1 view .LVU304
 1129 007e 0146     		mov	r1, r0
 1130 0080 0028     		cmp	r0, #0
 1131 0082 52D0     		beq	.L76
 1132              	.LBB2:
1402:../Bsp/ESP01/esp01s.c ****     {
1403:../Bsp/ESP01/esp01s.c ****         const char *match = strstr(pstr, "+CIPDOMAIN:");
 1133              		.loc 1 1403 9 is_stmt 1 view .LVU305
 1134              	.LVL91:
1404:../Bsp/ESP01/esp01s.c ****         const char *ipStart = match + 11; /* ่ทณ่ฟ"+CIPDOMAIN:" */
 1135              		.loc 1 1404 9 view .LVU306
 1136              		.loc 1 1404 21 is_stmt 0 view .LVU307
 1137 0084 0B31     		adds	r1, r1, #11
 1138              	.LVL92:
1405:../Bsp/ESP01/esp01s.c ****         while (*ipStart == ' ' || *ipStart == '\r' || *ipStart == '\n')
 1139              		.loc 1 1405 9 is_stmt 1 view .LVU308
 1140              		.loc 1 1405 15 is_stmt 0 view .LVU309
 1141 0086 30E0     		b	.L77
 1142              	.LVL93:
ARM GAS  C:\Users\fish\AppData\Local\Temp\ccIMbRKB.s 			page 48


 1143              	.L105:
 1144              		.loc 1 1405 15 view .LVU310
 1145              	.LBE2:
1356:../Bsp/ESP01/esp01s.c ****     }
 1146              		.loc 1 1356 9 is_stmt 1 view .LVU311
1356:../Bsp/ESP01/esp01s.c ****     }
 1147              		.loc 1 1356 24 is_stmt 0 view .LVU312
 1148 0088 8C4B     		ldr	r3, .L116+4
 1149 008a 0222     		movs	r2, #2
 1150 008c 83F8C820 		strb	r2, [r3, #200]
 1151 0090 D2E7     		b	.L70
 1152              	.L106:
1364:../Bsp/ESP01/esp01s.c ****         {
 1153              		.loc 1 1364 9 is_stmt 1 view .LVU313
1364:../Bsp/ESP01/esp01s.c ****         {
 1154              		.loc 1 1364 21 is_stmt 0 view .LVU314
 1155 0092 8A4B     		ldr	r3, .L116+4
 1156 0094 93F8C830 		ldrb	r3, [r3, #200]	@ zero_extendqisi2
1364:../Bsp/ESP01/esp01s.c ****         {
 1157              		.loc 1 1364 12 view .LVU315
 1158 0098 022B     		cmp	r3, #2
 1159 009a D3D1     		bne	.L71
1366:../Bsp/ESP01/esp01s.c ****         }
 1160              		.loc 1 1366 13 is_stmt 1 view .LVU316
1366:../Bsp/ESP01/esp01s.c ****         }
 1161              		.loc 1 1366 28 is_stmt 0 view .LVU317
 1162 009c 874B     		ldr	r3, .L116+4
 1163 009e 0322     		movs	r2, #3
 1164 00a0 83F8C820 		strb	r2, [r3, #200]
 1165 00a4 CEE7     		b	.L71
 1166              	.L107:
1379:../Bsp/ESP01/esp01s.c ****     }
 1167              		.loc 1 1379 9 is_stmt 1 view .LVU318
1379:../Bsp/ESP01/esp01s.c ****     }
 1168              		.loc 1 1379 24 is_stmt 0 view .LVU319
 1169 00a6 854B     		ldr	r3, .L116+4
 1170 00a8 0522     		movs	r2, #5
 1171 00aa 83F8C820 		strb	r2, [r3, #200]
 1172 00ae DDE7     		b	.L73
 1173              	.L108:
1383:../Bsp/ESP01/esp01s.c ****     }
 1174              		.loc 1 1383 9 is_stmt 1 view .LVU320
1383:../Bsp/ESP01/esp01s.c ****     }
 1175              		.loc 1 1383 24 is_stmt 0 view .LVU321
 1176 00b0 824B     		ldr	r3, .L116+4
 1177 00b2 0522     		movs	r2, #5
 1178 00b4 83F8C820 		strb	r2, [r3, #200]
 1179 00b8 D8E7     		b	.L73
 1180              	.L109:
1392:../Bsp/ESP01/esp01s.c ****          strstr(pstr, "CONNECT FAIL") != NULL))
 1181              		.loc 1 1392 10 view .LVU322
 1182 00ba 8649     		ldr	r1, .L116+28
 1183 00bc 2846     		mov	r0, r5
 1184 00be FFF7FEFF 		bl	strstr
 1185              	.LVL94:
1391:../Bsp/ESP01/esp01s.c ****         (strstr(pstr, "DNS fail") != NULL || strstr(pstr, "DNS FAIL") != NULL ||
 1186              		.loc 1 1391 55 discriminator 1 view .LVU323
ARM GAS  C:\Users\fish\AppData\Local\Temp\ccIMbRKB.s 			page 49


 1187 00c2 20B1     		cbz	r0, .L110
 1188              	.L75:
1395:../Bsp/ESP01/esp01s.c ****     }
 1189              		.loc 1 1395 9 is_stmt 1 view .LVU324
 1190 00c4 2946     		mov	r1, r5
 1191 00c6 8448     		ldr	r0, .L116+32
 1192 00c8 FFF7FEFF 		bl	printf
 1193              	.LVL95:
 1194 00cc D3E7     		b	.L74
 1195              	.L110:
1392:../Bsp/ESP01/esp01s.c ****          strstr(pstr, "CONNECT FAIL") != NULL))
 1196              		.loc 1 1392 46 is_stmt 0 view .LVU325
 1197 00ce 8349     		ldr	r1, .L116+36
 1198 00d0 2846     		mov	r0, r5
 1199 00d2 FFF7FEFF 		bl	strstr
 1200              	.LVL96:
1392:../Bsp/ESP01/esp01s.c ****          strstr(pstr, "CONNECT FAIL") != NULL))
 1201              		.loc 1 1392 43 discriminator 1 view .LVU326
 1202 00d6 0028     		cmp	r0, #0
 1203 00d8 F4D1     		bne	.L75
1393:../Bsp/ESP01/esp01s.c ****     {
 1204              		.loc 1 1393 10 view .LVU327
 1205 00da 8149     		ldr	r1, .L116+40
 1206 00dc 2846     		mov	r0, r5
 1207 00de FFF7FEFF 		bl	strstr
 1208              	.LVL97:
1392:../Bsp/ESP01/esp01s.c ****          strstr(pstr, "CONNECT FAIL") != NULL))
 1209              		.loc 1 1392 79 discriminator 1 view .LVU328
 1210 00e2 0028     		cmp	r0, #0
 1211 00e4 EED1     		bne	.L75
 1212 00e6 C6E7     		b	.L74
 1213              	.LVL98:
 1214              	.L79:
 1215              	.LBB3:
1406:../Bsp/ESP01/esp01s.c ****             ipStart++;
 1216              		.loc 1 1406 13 is_stmt 1 view .LVU329
 1217              		.loc 1 1406 20 is_stmt 0 view .LVU330
 1218 00e8 0131     		adds	r1, r1, #1
 1219              	.LVL99:
 1220              	.L77:
1405:../Bsp/ESP01/esp01s.c ****             ipStart++;
 1221              		.loc 1 1405 52 is_stmt 1 view .LVU331
1405:../Bsp/ESP01/esp01s.c ****             ipStart++;
 1222              		.loc 1 1405 16 is_stmt 0 view .LVU332
 1223 00ea 0B78     		ldrb	r3, [r1]	@ zero_extendqisi2
 1224 00ec 0A3B     		subs	r3, r3, #10
 1225 00ee DBB2     		uxtb	r3, r3
 1226 00f0 162B     		cmp	r3, #22
 1227 00f2 00F28480 		bhi	.L103
 1228 00f6 7B4A     		ldr	r2, .L116+44
 1229 00f8 22FA03F3 		lsr	r3, r2, r3
 1230 00fc 13F0010F 		tst	r3, #1
 1231 0100 F2D1     		bne	.L79
 1232 0102 0A46     		mov	r2, r1
 1233 0104 00E0     		b	.L80
 1234              	.LVL100:
 1235              	.L82:
ARM GAS  C:\Users\fish\AppData\Local\Temp\ccIMbRKB.s 			page 50


1407:../Bsp/ESP01/esp01s.c ****         /* ๆๅIPๅฐๅ: ้ๅฐ้ๆฐๅญ/็น/ๅๅท(IPv6)ๅญ็ฌฆๅๆญข */
1408:../Bsp/ESP01/esp01s.c ****         const char *p = ipStart;
1409:../Bsp/ESP01/esp01s.c ****         while (*p && (*p == '.' || (*p >= '0' && *p <= '9') || *p == ':'))
1410:../Bsp/ESP01/esp01s.c ****             p++;
 1236              		.loc 1 1410 13 is_stmt 1 view .LVU333
 1237              		.loc 1 1410 14 is_stmt 0 view .LVU334
 1238 0106 0132     		adds	r2, r2, #1
 1239              	.LVL101:
 1240              	.L80:
1409:../Bsp/ESP01/esp01s.c ****             p++;
 1241              		.loc 1 1409 19 is_stmt 1 view .LVU335
1409:../Bsp/ESP01/esp01s.c ****             p++;
 1242              		.loc 1 1409 16 is_stmt 0 view .LVU336
 1243 0108 1378     		ldrb	r3, [r2]	@ zero_extendqisi2
1409:../Bsp/ESP01/esp01s.c ****             p++;
 1244              		.loc 1 1409 19 view .LVU337
 1245 010a 43B1     		cbz	r3, .L81
1409:../Bsp/ESP01/esp01s.c ****             p++;
 1246              		.loc 1 1409 19 discriminator 1 view .LVU338
 1247 010c 2E2B     		cmp	r3, #46
 1248 010e FAD0     		beq	.L82
1409:../Bsp/ESP01/esp01s.c ****             p++;
 1249              		.loc 1 1409 47 discriminator 2 view .LVU339
 1250 0110 A3F13000 		sub	r0, r3, #48
 1251 0114 C0B2     		uxtb	r0, r0
1409:../Bsp/ESP01/esp01s.c ****             p++;
 1252              		.loc 1 1409 33 discriminator 2 view .LVU340
 1253 0116 0928     		cmp	r0, #9
 1254 0118 F5D9     		bls	.L82
1409:../Bsp/ESP01/esp01s.c ****             p++;
 1255              		.loc 1 1409 61 discriminator 3 view .LVU341
 1256 011a 3A2B     		cmp	r3, #58
 1257 011c F3D0     		beq	.L82
 1258              	.L81:
1411:../Bsp/ESP01/esp01s.c ****         uint16_t ipLen = (uint16_t)(p - ipStart);
 1259              		.loc 1 1411 9 is_stmt 1 view .LVU342
 1260              		.loc 1 1411 39 is_stmt 0 view .LVU343
 1261 011e 521A     		subs	r2, r2, r1
 1262              	.LVL102:
 1263              		.loc 1 1411 18 view .LVU344
 1264 0120 93B2     		uxth	r3, r2
 1265              	.LVL103:
1412:../Bsp/ESP01/esp01s.c ****         if (ipLen > 0 && ipLen < sizeof(s_esp01s.cipdomainResult))
 1266              		.loc 1 1412 9 is_stmt 1 view .LVU345
 1267              		.loc 1 1412 23 is_stmt 0 view .LVU346
 1268 0122 013B     		subs	r3, r3, #1
 1269              	.LVL104:
 1270              		.loc 1 1412 23 view .LVU347
 1271 0124 9BB2     		uxth	r3, r3
 1272              	.LVL105:
 1273              		.loc 1 1412 12 view .LVU348
 1274 0126 122B     		cmp	r3, #18
 1275 0128 6BD9     		bls	.L111
 1276              	.LVL106:
 1277              	.L76:
 1278              		.loc 1 1412 12 view .LVU349
 1279              	.LBE3:
ARM GAS  C:\Users\fish\AppData\Local\Temp\ccIMbRKB.s 			page 51


1413:../Bsp/ESP01/esp01s.c ****         {
1414:../Bsp/ESP01/esp01s.c ****             strncpy(s_esp01s.cipdomainResult, ipStart, ipLen);
1415:../Bsp/ESP01/esp01s.c ****             s_esp01s.cipdomainResult[ipLen] = '\0';
1416:../Bsp/ESP01/esp01s.c ****             printf("[ESP01S] DNS่งฃๆๆๅ: %s -> %s\r\n", "api.seniverse.com", s_esp01s.cipdomai
1417:../Bsp/ESP01/esp01s.c ****         }
1418:../Bsp/ESP01/esp01s.c ****     }
1419:../Bsp/ESP01/esp01s.c **** 
1420:../Bsp/ESP01/esp01s.c ****     /* ---- ่งฃๆ+CWSAPๅๅบ - ๆจกๅ่ช่บซAPๅ็งฐ ----
1421:../Bsp/ESP01/esp01s.c ****      * ๅๅบๆ ผๅผ: +CWSAP:"ESP_XXXXXX","password",1,0
1422:../Bsp/ESP01/esp01s.c ****      * ๆๅ็ฌฌไธไธชๅผๅทๅ็APๅ็งฐ,็ผๅญๅฐstrESPName */
1423:../Bsp/ESP01/esp01s.c ****     if (strstr(pstr, "+CWSAP:") == pstr)
 1280              		.loc 1 1423 5 is_stmt 1 view .LVU350
 1281              		.loc 1 1423 9 is_stmt 0 view .LVU351
 1282 012a 6F49     		ldr	r1, .L116+48
 1283 012c 2846     		mov	r0, r5
 1284 012e FFF7FEFF 		bl	strstr
 1285              	.LVL107:
 1286              		.loc 1 1423 8 discriminator 1 view .LVU352
 1287 0132 8542     		cmp	r5, r0
 1288 0134 77D0     		beq	.L112
 1289              	.L83:
1424:../Bsp/ESP01/esp01s.c ****     {
1425:../Bsp/ESP01/esp01s.c ****         const char *pStart = pstr + 7;  /* ่ทณ่ฟ"+CWSAP:" */
1426:../Bsp/ESP01/esp01s.c ****         while (*pStart == ' ')
1427:../Bsp/ESP01/esp01s.c ****             pStart++;                   /* ่ทณ่ฟ็ฉบๆ ผ */
1428:../Bsp/ESP01/esp01s.c ****         if (*pStart == '"')
1429:../Bsp/ESP01/esp01s.c ****             pStart++;                   /* ่ทณ่ฟๅผๅผๅท */
1430:../Bsp/ESP01/esp01s.c ****         const char *pEnd = strstr(pStart, "\"");
1431:../Bsp/ESP01/esp01s.c ****         if (pEnd != NULL && pEnd > pStart)
1432:../Bsp/ESP01/esp01s.c ****         {
1433:../Bsp/ESP01/esp01s.c ****             uint16_t nameLen = (uint16_t)(pEnd - pStart);
1434:../Bsp/ESP01/esp01s.c ****             if (nameLen < sizeof(s_esp01s.strESPName))
1435:../Bsp/ESP01/esp01s.c ****             {
1436:../Bsp/ESP01/esp01s.c ****                 strncpy(s_esp01s.strESPName, pStart, nameLen);
1437:../Bsp/ESP01/esp01s.c ****                 s_esp01s.strESPName[nameLen] = '\0';
1438:../Bsp/ESP01/esp01s.c ****             }
1439:../Bsp/ESP01/esp01s.c ****         }
1440:../Bsp/ESP01/esp01s.c ****     }
1441:../Bsp/ESP01/esp01s.c **** 
1442:../Bsp/ESP01/esp01s.c ****     /* ---- ่งฃๆ+CWJAPๅๅบ - ๅทฒ่ฟๆฅ็็ญ็นๅ็งฐ ----
1443:../Bsp/ESP01/esp01s.c ****      * ๅๅบๆ ผๅผ: +CWJAP:"MyWiFi","b0:be:76:xx:xx:xx",6,-48
1444:../Bsp/ESP01/esp01s.c ****      * ๆๅ็ฌฌไธไธชๅผๅทๅ็็ญ็นๅ็งฐ,็ผๅญๅฐstrAPName
1445:../Bsp/ESP01/esp01s.c ****      * ็จไบๅคๆญๆฏๅฆๅทฒ่ฟๆฅๅฐ็ฎๆ ็ญ็น,้ฟๅ้ๅค่ฟๆฅ */
1446:../Bsp/ESP01/esp01s.c ****     if (strstr(pstr, "+CWJAP:") == pstr)
 1290              		.loc 1 1446 5 is_stmt 1 view .LVU353
 1291              		.loc 1 1446 9 is_stmt 0 view .LVU354
 1292 0136 6D49     		ldr	r1, .L116+52
 1293 0138 2846     		mov	r0, r5
 1294 013a FFF7FEFF 		bl	strstr
 1295              	.LVL108:
 1296              		.loc 1 1446 8 discriminator 1 view .LVU355
 1297 013e 8542     		cmp	r5, r0
 1298 0140 00F09780 		beq	.L113
 1299              	.L87:
1447:../Bsp/ESP01/esp01s.c ****     {
1448:../Bsp/ESP01/esp01s.c ****         const char *pStart = pstr + 7;  /* ่ทณ่ฟ"+CWJAP:" */
1449:../Bsp/ESP01/esp01s.c ****         if (*pStart == '"')
ARM GAS  C:\Users\fish\AppData\Local\Temp\ccIMbRKB.s 			page 52


1450:../Bsp/ESP01/esp01s.c ****             pStart++;                   /* ่ทณ่ฟๅผๅผๅท */
1451:../Bsp/ESP01/esp01s.c ****         const char *pEnd = strstr(pStart, "\"");
1452:../Bsp/ESP01/esp01s.c ****         if (pEnd != NULL && pEnd > pStart)
1453:../Bsp/ESP01/esp01s.c ****         {
1454:../Bsp/ESP01/esp01s.c ****             uint16_t nameLen = (uint16_t)(pEnd - pStart);
1455:../Bsp/ESP01/esp01s.c ****             if (nameLen < sizeof(s_esp01s.strAPName))
1456:../Bsp/ESP01/esp01s.c ****             {
1457:../Bsp/ESP01/esp01s.c ****                 strncpy(s_esp01s.strAPName, pStart, nameLen);
1458:../Bsp/ESP01/esp01s.c ****                 s_esp01s.strAPName[nameLen] = '\0';
1459:../Bsp/ESP01/esp01s.c ****             }
1460:../Bsp/ESP01/esp01s.c ****         }
1461:../Bsp/ESP01/esp01s.c ****     }
1462:../Bsp/ESP01/esp01s.c **** 
1463:../Bsp/ESP01/esp01s.c ****     /* ---- ่งฃๆ+CIPSNTPTIMEๅๅบ - ATๆไปคSNTPๆถ้ด ----
1464:../Bsp/ESP01/esp01s.c ****      * ESP8266 ATๅๅบๆ ผๅผ็คบไพ:
1465:../Bsp/ESP01/esp01s.c ****      * +CIPSNTPTIME:Thu Jul 18 10:30:45 2024
1466:../Bsp/ESP01/esp01s.c ****      *
1467:../Bsp/ESP01/esp01s.c ****      * ๆณจๆ: ๅฆๆๅบไปถไธๆฏๆSNTP,ไผ่ฟๅ1970ๅนด,ๅ็ปญไผ่ชๅจๅ้ๅฐUDP NTPใ
1468:../Bsp/ESP01/esp01s.c ****      * ๅชๆๅนดไปฝ>2000ๆถๆ่ฎฐๅฝntpTickๅntpUnixTimestamp(้ฟๅ่ฎฐๅฝๆ ๆๆถ้ด)ใ
1469:../Bsp/ESP01/esp01s.c ****      */
1470:../Bsp/ESP01/esp01s.c ****     const char *pNtp = strstr(pstr, "+CIPSNTPTIME:");
 1300              		.loc 1 1470 5 is_stmt 1 view .LVU356
 1301              		.loc 1 1470 24 is_stmt 0 view .LVU357
 1302 0144 6A49     		ldr	r1, .L116+56
 1303 0146 2846     		mov	r0, r5
 1304 0148 FFF7FEFF 		bl	strstr
 1305              	.LVL109:
1471:../Bsp/ESP01/esp01s.c ****     if (pNtp != NULL)
 1306              		.loc 1 1471 5 is_stmt 1 view .LVU358
 1307              		.loc 1 1471 8 is_stmt 0 view .LVU359
 1308 014c 0028     		cmp	r0, #0
 1309 014e 00F06181 		beq	.L67
 1310              	.LBB4:
1472:../Bsp/ESP01/esp01s.c ****     {
1473:../Bsp/ESP01/esp01s.c ****         pNtp += 13; /* ่ทณ่ฟ"+CIPSNTPTIME:" */
 1311              		.loc 1 1473 9 is_stmt 1 view .LVU360
 1312              	.LVL110:
1474:../Bsp/ESP01/esp01s.c ****         char weekday[4] = {0};
 1313              		.loc 1 1474 9 view .LVU361
 1314              		.loc 1 1474 14 is_stmt 0 view .LVU362
 1315 0152 0023     		movs	r3, #0
 1316 0154 0793     		str	r3, [sp, #28]
1475:../Bsp/ESP01/esp01s.c ****         char month[4] = {0};
 1317              		.loc 1 1475 9 is_stmt 1 view .LVU363
 1318              		.loc 1 1475 14 is_stmt 0 view .LVU364
 1319 0156 0893     		str	r3, [sp, #32]
1476:../Bsp/ESP01/esp01s.c ****         int day = 0, hour = 0, minute = 0, second = 0, year = 0;
 1320              		.loc 1 1476 9 is_stmt 1 view .LVU365
 1321              		.loc 1 1476 13 is_stmt 0 view .LVU366
 1322 0158 0993     		str	r3, [sp, #36]
 1323              		.loc 1 1476 22 view .LVU367
 1324 015a 0A93     		str	r3, [sp, #40]
 1325              		.loc 1 1476 32 view .LVU368
 1326 015c 0B93     		str	r3, [sp, #44]
 1327              		.loc 1 1476 44 view .LVU369
 1328 015e 0C93     		str	r3, [sp, #48]
 1329              		.loc 1 1476 56 view .LVU370
ARM GAS  C:\Users\fish\AppData\Local\Temp\ccIMbRKB.s 			page 53


 1330 0160 0D93     		str	r3, [sp, #52]
1477:../Bsp/ESP01/esp01s.c **** 
1478:../Bsp/ESP01/esp01s.c ****         int parsed = sscanf(pNtp, "%3s %3s %d %d:%d:%d %d",
 1331              		.loc 1 1478 9 is_stmt 1 view .LVU371
 1332              		.loc 1 1478 22 is_stmt 0 view .LVU372
 1333 0162 0DAB     		add	r3, sp, #52
 1334 0164 0493     		str	r3, [sp, #16]
 1335 0166 0CAB     		add	r3, sp, #48
 1336 0168 0393     		str	r3, [sp, #12]
 1337 016a 0BAB     		add	r3, sp, #44
 1338 016c 0293     		str	r3, [sp, #8]
 1339 016e 0AAB     		add	r3, sp, #40
 1340 0170 0193     		str	r3, [sp, #4]
 1341 0172 09AB     		add	r3, sp, #36
 1342 0174 0093     		str	r3, [sp]
 1343 0176 08AB     		add	r3, sp, #32
 1344 0178 07AA     		add	r2, sp, #28
 1345 017a 5E49     		ldr	r1, .L116+60
 1346 017c 0D30     		adds	r0, r0, #13
 1347              	.LVL111:
 1348              		.loc 1 1478 22 view .LVU373
 1349 017e FFF7FEFF 		bl	sscanf
 1350              	.LVL112:
1479:../Bsp/ESP01/esp01s.c ****                             weekday, month, &day, &hour, &minute, &second, &year);
1480:../Bsp/ESP01/esp01s.c **** 
1481:../Bsp/ESP01/esp01s.c ****         if (parsed == 7)
 1351              		.loc 1 1481 9 is_stmt 1 view .LVU374
 1352              		.loc 1 1481 12 is_stmt 0 view .LVU375
 1353 0182 0728     		cmp	r0, #7
 1354 0184 40F03F81 		bne	.L89
1482:../Bsp/ESP01/esp01s.c ****         {
1483:../Bsp/ESP01/esp01s.c ****             s_esp01s.ntpTime.year = (uint16_t)year;
 1355              		.loc 1 1483 13 is_stmt 1 view .LVU376
 1356              		.loc 1 1483 37 is_stmt 0 view .LVU377
 1357 0188 BDF83450 		ldrh	r5, [sp, #52]
 1358              	.LVL113:
 1359              		.loc 1 1483 35 view .LVU378
 1360 018c 4B4C     		ldr	r4, .L116+4
 1361 018e A4F81851 		strh	r5, [r4, #280]	@ movhi
1484:../Bsp/ESP01/esp01s.c ****             s_esp01s.ntpTime.day = (uint8_t)day;
 1362              		.loc 1 1484 13 is_stmt 1 view .LVU379
 1363              		.loc 1 1484 36 is_stmt 0 view .LVU380
 1364 0192 9DF82430 		ldrb	r3, [sp, #36]	@ zero_extendqisi2
 1365              		.loc 1 1484 34 view .LVU381
 1366 0196 84F81B31 		strb	r3, [r4, #283]
1485:../Bsp/ESP01/esp01s.c ****             s_esp01s.ntpTime.hour = (uint8_t)hour;
 1367              		.loc 1 1485 13 is_stmt 1 view .LVU382
 1368              		.loc 1 1485 37 is_stmt 0 view .LVU383
 1369 019a 9DF82830 		ldrb	r3, [sp, #40]	@ zero_extendqisi2
 1370              		.loc 1 1485 35 view .LVU384
 1371 019e 84F81C31 		strb	r3, [r4, #284]
1486:../Bsp/ESP01/esp01s.c ****             s_esp01s.ntpTime.minute = (uint8_t)minute;
 1372              		.loc 1 1486 13 is_stmt 1 view .LVU385
 1373              		.loc 1 1486 39 is_stmt 0 view .LVU386
 1374 01a2 9DF82C30 		ldrb	r3, [sp, #44]	@ zero_extendqisi2
 1375              		.loc 1 1486 37 view .LVU387
 1376 01a6 84F81D31 		strb	r3, [r4, #285]
ARM GAS  C:\Users\fish\AppData\Local\Temp\ccIMbRKB.s 			page 54


1487:../Bsp/ESP01/esp01s.c ****             s_esp01s.ntpTime.second = (uint8_t)second;
 1377              		.loc 1 1487 13 is_stmt 1 view .LVU388
 1378              		.loc 1 1487 39 is_stmt 0 view .LVU389
 1379 01aa 9DF83030 		ldrb	r3, [sp, #48]	@ zero_extendqisi2
 1380              		.loc 1 1487 37 view .LVU390
 1381 01ae 84F81E31 		strb	r3, [r4, #286]
1488:../Bsp/ESP01/esp01s.c ****             s_esp01s.ntpTime.weekday = ParseWeekday(weekday);
 1382              		.loc 1 1488 13 is_stmt 1 view .LVU391
 1383              		.loc 1 1488 40 is_stmt 0 view .LVU392
 1384 01b2 07A8     		add	r0, sp, #28
 1385              	.LVL114:
 1386              		.loc 1 1488 40 view .LVU393
 1387 01b4 FFF7FEFF 		bl	ParseWeekday
 1388              	.LVL115:
 1389              		.loc 1 1488 38 discriminator 1 view .LVU394
 1390 01b8 84F81F01 		strb	r0, [r4, #287]
1489:../Bsp/ESP01/esp01s.c **** 
1490:../Bsp/ESP01/esp01s.c ****             /* ๆไปฝ่ฑๆๅ่ฝฌๆฐๅญ: Jan=1, Feb=2, ..., Dec=12 */
1491:../Bsp/ESP01/esp01s.c ****             if (strncmp(month, "Jan", 3) == 0)      s_esp01s.ntpTime.month = 1;
 1391              		.loc 1 1491 13 is_stmt 1 view .LVU395
 1392              		.loc 1 1491 17 is_stmt 0 view .LVU396
 1393 01bc 0322     		movs	r2, #3
 1394 01be 4E49     		ldr	r1, .L116+64
 1395 01c0 08A8     		add	r0, sp, #32
 1396 01c2 FFF7FEFF 		bl	strncmp
 1397              	.LVL116:
 1398              		.loc 1 1491 16 discriminator 1 view .LVU397
 1399 01c6 0028     		cmp	r0, #0
 1400 01c8 40F0A280 		bne	.L90
 1401              		.loc 1 1491 53 is_stmt 1 discriminator 1 view .LVU398
 1402              		.loc 1 1491 76 is_stmt 0 discriminator 1 view .LVU399
 1403 01cc 0122     		movs	r2, #1
 1404 01ce 84F81A21 		strb	r2, [r4, #282]
 1405              	.L91:
1492:../Bsp/ESP01/esp01s.c ****             else if (strncmp(month, "Feb", 3) == 0)  s_esp01s.ntpTime.month = 2;
1493:../Bsp/ESP01/esp01s.c ****             else if (strncmp(month, "Mar", 3) == 0)  s_esp01s.ntpTime.month = 3;
1494:../Bsp/ESP01/esp01s.c ****             else if (strncmp(month, "Apr", 3) == 0)  s_esp01s.ntpTime.month = 4;
1495:../Bsp/ESP01/esp01s.c ****             else if (strncmp(month, "May", 3) == 0)  s_esp01s.ntpTime.month = 5;
1496:../Bsp/ESP01/esp01s.c ****             else if (strncmp(month, "Jun", 3) == 0)  s_esp01s.ntpTime.month = 6;
1497:../Bsp/ESP01/esp01s.c ****             else if (strncmp(month, "Jul", 3) == 0)  s_esp01s.ntpTime.month = 7;
1498:../Bsp/ESP01/esp01s.c ****             else if (strncmp(month, "Aug", 3) == 0)  s_esp01s.ntpTime.month = 8;
1499:../Bsp/ESP01/esp01s.c ****             else if (strncmp(month, "Sep", 3) == 0)  s_esp01s.ntpTime.month = 9;
1500:../Bsp/ESP01/esp01s.c ****             else if (strncmp(month, "Oct", 3) == 0)  s_esp01s.ntpTime.month = 10;
1501:../Bsp/ESP01/esp01s.c ****             else if (strncmp(month, "Nov", 3) == 0)  s_esp01s.ntpTime.month = 11;
1502:../Bsp/ESP01/esp01s.c ****             else if (strncmp(month, "Dec", 3) == 0)  s_esp01s.ntpTime.month = 12;
1503:../Bsp/ESP01/esp01s.c **** 
1504:../Bsp/ESP01/esp01s.c ****             s_esp01s.ntpTimeValid = 1;
 1406              		.loc 1 1504 13 is_stmt 1 view .LVU400
 1407              		.loc 1 1504 35 is_stmt 0 view .LVU401
 1408 01d2 3A4B     		ldr	r3, .L116+4
 1409 01d4 0122     		movs	r2, #1
 1410 01d6 83F82021 		strb	r2, [r3, #288]
1505:../Bsp/ESP01/esp01s.c **** 
1506:../Bsp/ESP01/esp01s.c ****             /* ๅณๆถ่ฎฐๅฝๆๆถๆถ้ดๆณ(ไปAT SNTP่ฟๅๆๆๅนดไปฝๆถ),
1507:../Bsp/ESP01/esp01s.c ****              * ็จไบๅ็ปญๆถ้ดๆจ็ฎๅRTCๆ กๅๅปถ่ฟ่กฅๅฟใ
1508:../Bsp/ESP01/esp01s.c ****              * ๅนดไปฝ<=2000่ฏดๆๅบไปถไธๆฏๆSNTP,ไธๅบ่ฎฐๅฝ */
1509:../Bsp/ESP01/esp01s.c ****             if (s_esp01s.ntpTime.year > 2000)
ARM GAS  C:\Users\fish\AppData\Local\Temp\ccIMbRKB.s 			page 55


 1411              		.loc 1 1509 13 is_stmt 1 view .LVU402
 1412              		.loc 1 1509 16 is_stmt 0 view .LVU403
 1413 01da B5F5FA6F 		cmp	r5, #2000
 1414 01de 40F21981 		bls	.L67
1510:../Bsp/ESP01/esp01s.c ****             {
1511:../Bsp/ESP01/esp01s.c ****                 s_esp01s.ntpTick = HAL_GetTick();
 1415              		.loc 1 1511 17 is_stmt 1 view .LVU404
 1416              		.loc 1 1511 36 is_stmt 0 view .LVU405
 1417 01e2 FFF7FEFF 		bl	HAL_GetTick
 1418              	.LVL117:
 1419              		.loc 1 1511 34 discriminator 1 view .LVU406
 1420 01e6 354C     		ldr	r4, .L116+4
 1421 01e8 C4F82401 		str	r0, [r4, #292]
1512:../Bsp/ESP01/esp01s.c ****                 s_esp01s.ntpUnixTimestamp = DateTimeToUnix(&s_esp01s.ntpTime, s_esp01s.config.ntpTi
 1422              		.loc 1 1512 17 is_stmt 1 view .LVU407
 1423              		.loc 1 1512 45 is_stmt 0 view .LVU408
 1424 01ec 94F9C610 		ldrsb	r1, [r4, #198]
 1425 01f0 04F58C70 		add	r0, r4, #280
 1426 01f4 FFF7FEFF 		bl	DateTimeToUnix
 1427              	.LVL118:
 1428              		.loc 1 1512 43 discriminator 1 view .LVU409
 1429 01f8 C4F82801 		str	r0, [r4, #296]
 1430 01fc 0AE1     		b	.L67
 1431              	.LVL119:
 1432              	.L103:
 1433              		.loc 1 1512 43 discriminator 1 view .LVU410
 1434              	.LBE4:
 1435              	.LBB5:
1405:../Bsp/ESP01/esp01s.c ****             ipStart++;
 1436              		.loc 1 1405 16 view .LVU411
 1437 01fe 0A46     		mov	r2, r1
 1438 0200 82E7     		b	.L80
 1439              	.LVL120:
 1440              	.L111:
1414:../Bsp/ESP01/esp01s.c ****             s_esp01s.cipdomainResult[ipLen] = '\0';
 1441              		.loc 1 1414 13 is_stmt 1 view .LVU412
 1442 0202 94B2     		uxth	r4, r2
 1443 0204 3D4E     		ldr	r6, .L116+68
 1444 0206 2246     		mov	r2, r4
1414:../Bsp/ESP01/esp01s.c ****             s_esp01s.cipdomainResult[ipLen] = '\0';
 1445              		.loc 1 1414 13 is_stmt 0 view .LVU413
 1446 0208 3046     		mov	r0, r6
 1447 020a FFF7FEFF 		bl	strncpy
 1448              	.LVL121:
1415:../Bsp/ESP01/esp01s.c ****             printf("[ESP01S] DNS่งฃๆๆๅ: %s -> %s\r\n", "api.seniverse.com", s_esp01s.cipdomai
 1449              		.loc 1 1415 13 is_stmt 1 view .LVU414
1415:../Bsp/ESP01/esp01s.c ****             printf("[ESP01S] DNS่งฃๆๆๅ: %s -> %s\r\n", "api.seniverse.com", s_esp01s.cipdomai
 1450              		.loc 1 1415 45 is_stmt 0 view .LVU415
 1451 020e A6F5A663 		sub	r3, r6, #1328
 1452 0212 2344     		add	r3, r3, r4
 1453 0214 0022     		movs	r2, #0
 1454 0216 83F83025 		strb	r2, [r3, #1328]
1416:../Bsp/ESP01/esp01s.c ****         }
 1455              		.loc 1 1416 13 is_stmt 1 view .LVU416
 1456 021a 3246     		mov	r2, r6
 1457 021c 3849     		ldr	r1, .L116+72
 1458 021e 3948     		ldr	r0, .L116+76
ARM GAS  C:\Users\fish\AppData\Local\Temp\ccIMbRKB.s 			page 56


 1459 0220 FFF7FEFF 		bl	printf
 1460              	.LVL122:
 1461 0224 81E7     		b	.L76
 1462              	.LVL123:
 1463              	.L112:
1416:../Bsp/ESP01/esp01s.c ****         }
 1464              		.loc 1 1416 13 is_stmt 0 view .LVU417
 1465              	.LBE5:
 1466              	.LBB6:
1425:../Bsp/ESP01/esp01s.c ****         while (*pStart == ' ')
 1467              		.loc 1 1425 9 is_stmt 1 view .LVU418
1425:../Bsp/ESP01/esp01s.c ****         while (*pStart == ' ')
 1468              		.loc 1 1425 21 is_stmt 0 view .LVU419
 1469 0226 EC1D     		adds	r4, r5, #7
 1470              	.LVL124:
1426:../Bsp/ESP01/esp01s.c ****             pStart++;                   /* ่ทณ่ฟ็ฉบๆ ผ */
 1471              		.loc 1 1426 9 is_stmt 1 view .LVU420
1426:../Bsp/ESP01/esp01s.c ****             pStart++;                   /* ่ทณ่ฟ็ฉบๆ ผ */
 1472              		.loc 1 1426 15 is_stmt 0 view .LVU421
 1473 0228 00E0     		b	.L84
 1474              	.L85:
1427:../Bsp/ESP01/esp01s.c ****         if (*pStart == '"')
 1475              		.loc 1 1427 13 is_stmt 1 view .LVU422
1427:../Bsp/ESP01/esp01s.c ****         if (*pStart == '"')
 1476              		.loc 1 1427 19 is_stmt 0 view .LVU423
 1477 022a 0134     		adds	r4, r4, #1
 1478              	.LVL125:
 1479              	.L84:
1426:../Bsp/ESP01/esp01s.c ****             pStart++;                   /* ่ทณ่ฟ็ฉบๆ ผ */
 1480              		.loc 1 1426 24 is_stmt 1 view .LVU424
1426:../Bsp/ESP01/esp01s.c ****             pStart++;                   /* ่ทณ่ฟ็ฉบๆ ผ */
 1481              		.loc 1 1426 16 is_stmt 0 view .LVU425
 1482 022c 2378     		ldrb	r3, [r4]	@ zero_extendqisi2
1426:../Bsp/ESP01/esp01s.c ****             pStart++;                   /* ่ทณ่ฟ็ฉบๆ ผ */
 1483              		.loc 1 1426 24 view .LVU426
 1484 022e 202B     		cmp	r3, #32
 1485 0230 FBD0     		beq	.L85
1428:../Bsp/ESP01/esp01s.c ****             pStart++;                   /* ่ทณ่ฟๅผๅผๅท */
 1486              		.loc 1 1428 9 is_stmt 1 view .LVU427
1428:../Bsp/ESP01/esp01s.c ****             pStart++;                   /* ่ทณ่ฟๅผๅผๅท */
 1487              		.loc 1 1428 12 is_stmt 0 view .LVU428
 1488 0232 222B     		cmp	r3, #34
 1489 0234 1BD0     		beq	.L114
 1490              	.LVL126:
 1491              	.L86:
1430:../Bsp/ESP01/esp01s.c ****         if (pEnd != NULL && pEnd > pStart)
 1492              		.loc 1 1430 9 is_stmt 1 view .LVU429
1430:../Bsp/ESP01/esp01s.c ****         if (pEnd != NULL && pEnd > pStart)
 1493              		.loc 1 1430 28 is_stmt 0 view .LVU430
 1494 0236 2221     		movs	r1, #34
 1495 0238 2046     		mov	r0, r4
 1496 023a FFF7FEFF 		bl	strchr
 1497              	.LVL127:
1431:../Bsp/ESP01/esp01s.c ****         {
 1498              		.loc 1 1431 9 is_stmt 1 view .LVU431
1431:../Bsp/ESP01/esp01s.c ****         {
 1499              		.loc 1 1431 12 is_stmt 0 view .LVU432
ARM GAS  C:\Users\fish\AppData\Local\Temp\ccIMbRKB.s 			page 57


 1500 023e 0028     		cmp	r0, #0
 1501 0240 3FF479AF 		beq	.L83
1431:../Bsp/ESP01/esp01s.c ****         {
 1502              		.loc 1 1431 26 discriminator 1 view .LVU433
 1503 0244 8442     		cmp	r4, r0
 1504 0246 BFF476AF 		bcs	.L83
 1505              	.LBB7:
1433:../Bsp/ESP01/esp01s.c ****             if (nameLen < sizeof(s_esp01s.strESPName))
 1506              		.loc 1 1433 13 is_stmt 1 view .LVU434
1433:../Bsp/ESP01/esp01s.c ****             if (nameLen < sizeof(s_esp01s.strESPName))
 1507              		.loc 1 1433 48 is_stmt 0 view .LVU435
 1508 024a 031B     		subs	r3, r0, r4
1433:../Bsp/ESP01/esp01s.c ****             if (nameLen < sizeof(s_esp01s.strESPName))
 1509              		.loc 1 1433 22 view .LVU436
 1510 024c 9AB2     		uxth	r2, r3
 1511              	.LVL128:
1434:../Bsp/ESP01/esp01s.c ****             {
 1512              		.loc 1 1434 13 is_stmt 1 view .LVU437
1434:../Bsp/ESP01/esp01s.c ****             {
 1513              		.loc 1 1434 16 is_stmt 0 view .LVU438
 1514 024e 1F2A     		cmp	r2, #31
 1515 0250 3FF671AF 		bhi	.L83
1436:../Bsp/ESP01/esp01s.c ****                 s_esp01s.strESPName[nameLen] = '\0';
 1516              		.loc 1 1436 17 is_stmt 1 view .LVU439
 1517 0254 1646     		mov	r6, r2
 1518 0256 2C4F     		ldr	r7, .L116+80
 1519 0258 2146     		mov	r1, r4
 1520 025a 3846     		mov	r0, r7
 1521              	.LVL129:
1436:../Bsp/ESP01/esp01s.c ****                 s_esp01s.strESPName[nameLen] = '\0';
 1522              		.loc 1 1436 17 is_stmt 0 view .LVU440
 1523 025c FFF7FEFF 		bl	strncpy
 1524              	.LVL130:
1437:../Bsp/ESP01/esp01s.c ****             }
 1525              		.loc 1 1437 17 is_stmt 1 view .LVU441
1437:../Bsp/ESP01/esp01s.c ****             }
 1526              		.loc 1 1437 46 is_stmt 0 view .LVU442
 1527 0260 A7F1E903 		sub	r3, r7, #233
 1528 0264 3344     		add	r3, r3, r6
 1529 0266 0022     		movs	r2, #0
 1530 0268 83F8E920 		strb	r2, [r3, #233]
 1531 026c 63E7     		b	.L83
 1532              	.LVL131:
 1533              	.L114:
1437:../Bsp/ESP01/esp01s.c ****             }
 1534              		.loc 1 1437 46 view .LVU443
 1535              	.LBE7:
1429:../Bsp/ESP01/esp01s.c ****         const char *pEnd = strstr(pStart, "\"");
 1536              		.loc 1 1429 13 is_stmt 1 view .LVU444
1429:../Bsp/ESP01/esp01s.c ****         const char *pEnd = strstr(pStart, "\"");
 1537              		.loc 1 1429 19 is_stmt 0 view .LVU445
 1538 026e 0134     		adds	r4, r4, #1
 1539              	.LVL132:
1429:../Bsp/ESP01/esp01s.c ****         const char *pEnd = strstr(pStart, "\"");
 1540              		.loc 1 1429 19 view .LVU446
 1541 0270 E1E7     		b	.L86
 1542              	.LVL133:
ARM GAS  C:\Users\fish\AppData\Local\Temp\ccIMbRKB.s 			page 58


 1543              	.L113:
1429:../Bsp/ESP01/esp01s.c ****         const char *pEnd = strstr(pStart, "\"");
 1544              		.loc 1 1429 19 view .LVU447
 1545              	.LBE6:
 1546              	.LBB8:
1448:../Bsp/ESP01/esp01s.c ****         if (*pStart == '"')
 1547              		.loc 1 1448 9 is_stmt 1 view .LVU448
1448:../Bsp/ESP01/esp01s.c ****         if (*pStart == '"')
 1548              		.loc 1 1448 21 is_stmt 0 view .LVU449
 1549 0272 EC1D     		adds	r4, r5, #7
 1550              	.LVL134:
1449:../Bsp/ESP01/esp01s.c ****             pStart++;                   /* ่ทณ่ฟๅผๅผๅท */
 1551              		.loc 1 1449 9 is_stmt 1 view .LVU450
1449:../Bsp/ESP01/esp01s.c ****             pStart++;                   /* ่ทณ่ฟๅผๅผๅท */
 1552              		.loc 1 1449 13 is_stmt 0 view .LVU451
 1553 0274 EB79     		ldrb	r3, [r5, #7]	@ zero_extendqisi2
1449:../Bsp/ESP01/esp01s.c ****             pStart++;                   /* ่ทณ่ฟๅผๅผๅท */
 1554              		.loc 1 1449 12 view .LVU452
 1555 0276 222B     		cmp	r3, #34
 1556 0278 1BD0     		beq	.L115
 1557              	.LVL135:
 1558              	.L88:
1451:../Bsp/ESP01/esp01s.c ****         if (pEnd != NULL && pEnd > pStart)
 1559              		.loc 1 1451 9 is_stmt 1 view .LVU453
1451:../Bsp/ESP01/esp01s.c ****         if (pEnd != NULL && pEnd > pStart)
 1560              		.loc 1 1451 28 is_stmt 0 view .LVU454
 1561 027a 2221     		movs	r1, #34
 1562 027c 2046     		mov	r0, r4
 1563 027e FFF7FEFF 		bl	strchr
 1564              	.LVL136:
1452:../Bsp/ESP01/esp01s.c ****         {
 1565              		.loc 1 1452 9 is_stmt 1 view .LVU455
1452:../Bsp/ESP01/esp01s.c ****         {
 1566              		.loc 1 1452 12 is_stmt 0 view .LVU456
 1567 0282 0028     		cmp	r0, #0
 1568 0284 3FF45EAF 		beq	.L87
1452:../Bsp/ESP01/esp01s.c ****         {
 1569              		.loc 1 1452 26 discriminator 1 view .LVU457
 1570 0288 8442     		cmp	r4, r0
 1571 028a BFF45BAF 		bcs	.L87
 1572              	.LBB9:
1454:../Bsp/ESP01/esp01s.c ****             if (nameLen < sizeof(s_esp01s.strAPName))
 1573              		.loc 1 1454 13 is_stmt 1 view .LVU458
1454:../Bsp/ESP01/esp01s.c ****             if (nameLen < sizeof(s_esp01s.strAPName))
 1574              		.loc 1 1454 48 is_stmt 0 view .LVU459
 1575 028e 031B     		subs	r3, r0, r4
1454:../Bsp/ESP01/esp01s.c ****             if (nameLen < sizeof(s_esp01s.strAPName))
 1576              		.loc 1 1454 22 view .LVU460
 1577 0290 9AB2     		uxth	r2, r3
 1578              	.LVL137:
1455:../Bsp/ESP01/esp01s.c ****             {
 1579              		.loc 1 1455 13 is_stmt 1 view .LVU461
1455:../Bsp/ESP01/esp01s.c ****             {
 1580              		.loc 1 1455 16 is_stmt 0 view .LVU462
 1581 0292 1F2A     		cmp	r2, #31
 1582 0294 3FF656AF 		bhi	.L87
1457:../Bsp/ESP01/esp01s.c ****                 s_esp01s.strAPName[nameLen] = '\0';
ARM GAS  C:\Users\fish\AppData\Local\Temp\ccIMbRKB.s 			page 59


 1583              		.loc 1 1457 17 is_stmt 1 view .LVU463
 1584 0298 1646     		mov	r6, r2
 1585 029a 1C4F     		ldr	r7, .L116+84
 1586 029c 2146     		mov	r1, r4
 1587 029e 3846     		mov	r0, r7
 1588              	.LVL138:
1457:../Bsp/ESP01/esp01s.c ****                 s_esp01s.strAPName[nameLen] = '\0';
 1589              		.loc 1 1457 17 is_stmt 0 view .LVU464
 1590 02a0 FFF7FEFF 		bl	strncpy
 1591              	.LVL139:
1458:../Bsp/ESP01/esp01s.c ****             }
 1592              		.loc 1 1458 17 is_stmt 1 view .LVU465
1458:../Bsp/ESP01/esp01s.c ****             }
 1593              		.loc 1 1458 45 is_stmt 0 view .LVU466
 1594 02a4 A7F1C903 		sub	r3, r7, #201
 1595 02a8 3344     		add	r3, r3, r6
 1596 02aa 0022     		movs	r2, #0
 1597 02ac 83F8C920 		strb	r2, [r3, #201]
 1598 02b0 48E7     		b	.L87
 1599              	.LVL140:
 1600              	.L115:
1458:../Bsp/ESP01/esp01s.c ****             }
 1601              		.loc 1 1458 45 view .LVU467
 1602              	.LBE9:
1450:../Bsp/ESP01/esp01s.c ****         const char *pEnd = strstr(pStart, "\"");
 1603              		.loc 1 1450 13 is_stmt 1 view .LVU468
1450:../Bsp/ESP01/esp01s.c ****         const char *pEnd = strstr(pStart, "\"");
 1604              		.loc 1 1450 19 is_stmt 0 view .LVU469
 1605 02b2 05F10804 		add	r4, r5, #8
 1606              	.LVL141:
1450:../Bsp/ESP01/esp01s.c ****         const char *pEnd = strstr(pStart, "\"");
 1607              		.loc 1 1450 19 view .LVU470
 1608 02b6 E0E7     		b	.L88
 1609              	.L117:
 1610              		.align	2
 1611              	.L116:
 1612 02b8 00000000 		.word	.LC8
 1613 02bc 00000000 		.word	s_esp01s
 1614 02c0 04000000 		.word	.LC9
 1615 02c4 14000000 		.word	.LC10
 1616 02c8 1C000000 		.word	.LC11
 1617 02cc 2C000000 		.word	.LC12
 1618 02d0 88000000 		.word	.LC17
 1619 02d4 40000000 		.word	.LC13
 1620 02d8 68000000 		.word	.LC16
 1621 02dc 4C000000 		.word	.LC14
 1622 02e0 58000000 		.word	.LC15
 1623 02e4 09004000 		.word	4194313
 1624 02e8 D0000000 		.word	.LC20
 1625 02ec D8000000 		.word	.LC21
 1626 02f0 E0000000 		.word	.LC22
 1627 02f4 F0000000 		.word	.LC23
 1628 02f8 08010000 		.word	.LC24
 1629 02fc 30050000 		.word	s_esp01s+1328
 1630 0300 94000000 		.word	.LC18
 1631 0304 A8000000 		.word	.LC19
 1632 0308 E9000000 		.word	s_esp01s+233
ARM GAS  C:\Users\fish\AppData\Local\Temp\ccIMbRKB.s 			page 60


 1633 030c C9000000 		.word	s_esp01s+201
 1634              	.LVL142:
 1635              	.L90:
1450:../Bsp/ESP01/esp01s.c ****         const char *pEnd = strstr(pStart, "\"");
 1636              		.loc 1 1450 19 view .LVU471
 1637              	.LBE8:
 1638              	.LBB10:
1492:../Bsp/ESP01/esp01s.c ****             else if (strncmp(month, "Mar", 3) == 0)  s_esp01s.ntpTime.month = 3;
 1639              		.loc 1 1492 18 is_stmt 1 view .LVU472
1492:../Bsp/ESP01/esp01s.c ****             else if (strncmp(month, "Mar", 3) == 0)  s_esp01s.ntpTime.month = 3;
 1640              		.loc 1 1492 22 is_stmt 0 view .LVU473
 1641 0310 0322     		movs	r2, #3
 1642 0312 4149     		ldr	r1, .L118
 1643 0314 08A8     		add	r0, sp, #32
 1644 0316 FFF7FEFF 		bl	strncmp
 1645              	.LVL143:
1492:../Bsp/ESP01/esp01s.c ****             else if (strncmp(month, "Mar", 3) == 0)  s_esp01s.ntpTime.month = 3;
 1646              		.loc 1 1492 21 discriminator 1 view .LVU474
 1647 031a 20B9     		cbnz	r0, .L92
1492:../Bsp/ESP01/esp01s.c ****             else if (strncmp(month, "Mar", 3) == 0)  s_esp01s.ntpTime.month = 3;
 1648              		.loc 1 1492 54 is_stmt 1 discriminator 1 view .LVU475
1492:../Bsp/ESP01/esp01s.c ****             else if (strncmp(month, "Mar", 3) == 0)  s_esp01s.ntpTime.month = 3;
 1649              		.loc 1 1492 77 is_stmt 0 discriminator 1 view .LVU476
 1650 031c 3F4B     		ldr	r3, .L118+4
 1651 031e 0222     		movs	r2, #2
 1652 0320 83F81A21 		strb	r2, [r3, #282]
 1653 0324 55E7     		b	.L91
 1654              	.L92:
1493:../Bsp/ESP01/esp01s.c ****             else if (strncmp(month, "Apr", 3) == 0)  s_esp01s.ntpTime.month = 4;
 1655              		.loc 1 1493 18 is_stmt 1 view .LVU477
1493:../Bsp/ESP01/esp01s.c ****             else if (strncmp(month, "Apr", 3) == 0)  s_esp01s.ntpTime.month = 4;
 1656              		.loc 1 1493 22 is_stmt 0 view .LVU478
 1657 0326 0322     		movs	r2, #3
 1658 0328 3D49     		ldr	r1, .L118+8
 1659 032a 08A8     		add	r0, sp, #32
 1660 032c FFF7FEFF 		bl	strncmp
 1661              	.LVL144:
1493:../Bsp/ESP01/esp01s.c ****             else if (strncmp(month, "Apr", 3) == 0)  s_esp01s.ntpTime.month = 4;
 1662              		.loc 1 1493 21 discriminator 1 view .LVU479
 1663 0330 20B9     		cbnz	r0, .L93
1493:../Bsp/ESP01/esp01s.c ****             else if (strncmp(month, "Apr", 3) == 0)  s_esp01s.ntpTime.month = 4;
 1664              		.loc 1 1493 54 is_stmt 1 discriminator 1 view .LVU480
1493:../Bsp/ESP01/esp01s.c ****             else if (strncmp(month, "Apr", 3) == 0)  s_esp01s.ntpTime.month = 4;
 1665              		.loc 1 1493 77 is_stmt 0 discriminator 1 view .LVU481
 1666 0332 3A4B     		ldr	r3, .L118+4
 1667 0334 0322     		movs	r2, #3
 1668 0336 83F81A21 		strb	r2, [r3, #282]
 1669 033a 4AE7     		b	.L91
 1670              	.L93:
1494:../Bsp/ESP01/esp01s.c ****             else if (strncmp(month, "May", 3) == 0)  s_esp01s.ntpTime.month = 5;
 1671              		.loc 1 1494 18 is_stmt 1 view .LVU482
1494:../Bsp/ESP01/esp01s.c ****             else if (strncmp(month, "May", 3) == 0)  s_esp01s.ntpTime.month = 5;
 1672              		.loc 1 1494 22 is_stmt 0 view .LVU483
 1673 033c 0322     		movs	r2, #3
 1674 033e 3949     		ldr	r1, .L118+12
 1675 0340 08A8     		add	r0, sp, #32
 1676 0342 FFF7FEFF 		bl	strncmp
ARM GAS  C:\Users\fish\AppData\Local\Temp\ccIMbRKB.s 			page 61


 1677              	.LVL145:
1494:../Bsp/ESP01/esp01s.c ****             else if (strncmp(month, "May", 3) == 0)  s_esp01s.ntpTime.month = 5;
 1678              		.loc 1 1494 21 discriminator 1 view .LVU484
 1679 0346 20B9     		cbnz	r0, .L94
1494:../Bsp/ESP01/esp01s.c ****             else if (strncmp(month, "May", 3) == 0)  s_esp01s.ntpTime.month = 5;
 1680              		.loc 1 1494 54 is_stmt 1 discriminator 1 view .LVU485
1494:../Bsp/ESP01/esp01s.c ****             else if (strncmp(month, "May", 3) == 0)  s_esp01s.ntpTime.month = 5;
 1681              		.loc 1 1494 77 is_stmt 0 discriminator 1 view .LVU486
 1682 0348 344B     		ldr	r3, .L118+4
 1683 034a 0422     		movs	r2, #4
 1684 034c 83F81A21 		strb	r2, [r3, #282]
 1685 0350 3FE7     		b	.L91
 1686              	.L94:
1495:../Bsp/ESP01/esp01s.c ****             else if (strncmp(month, "Jun", 3) == 0)  s_esp01s.ntpTime.month = 6;
 1687              		.loc 1 1495 18 is_stmt 1 view .LVU487
1495:../Bsp/ESP01/esp01s.c ****             else if (strncmp(month, "Jun", 3) == 0)  s_esp01s.ntpTime.month = 6;
 1688              		.loc 1 1495 22 is_stmt 0 view .LVU488
 1689 0352 0322     		movs	r2, #3
 1690 0354 3449     		ldr	r1, .L118+16
 1691 0356 08A8     		add	r0, sp, #32
 1692 0358 FFF7FEFF 		bl	strncmp
 1693              	.LVL146:
1495:../Bsp/ESP01/esp01s.c ****             else if (strncmp(month, "Jun", 3) == 0)  s_esp01s.ntpTime.month = 6;
 1694              		.loc 1 1495 21 discriminator 1 view .LVU489
 1695 035c 20B9     		cbnz	r0, .L95
1495:../Bsp/ESP01/esp01s.c ****             else if (strncmp(month, "Jun", 3) == 0)  s_esp01s.ntpTime.month = 6;
 1696              		.loc 1 1495 54 is_stmt 1 discriminator 1 view .LVU490
1495:../Bsp/ESP01/esp01s.c ****             else if (strncmp(month, "Jun", 3) == 0)  s_esp01s.ntpTime.month = 6;
 1697              		.loc 1 1495 77 is_stmt 0 discriminator 1 view .LVU491
 1698 035e 2F4B     		ldr	r3, .L118+4
 1699 0360 0522     		movs	r2, #5
 1700 0362 83F81A21 		strb	r2, [r3, #282]
 1701 0366 34E7     		b	.L91
 1702              	.L95:
1496:../Bsp/ESP01/esp01s.c ****             else if (strncmp(month, "Jul", 3) == 0)  s_esp01s.ntpTime.month = 7;
 1703              		.loc 1 1496 18 is_stmt 1 view .LVU492
1496:../Bsp/ESP01/esp01s.c ****             else if (strncmp(month, "Jul", 3) == 0)  s_esp01s.ntpTime.month = 7;
 1704              		.loc 1 1496 22 is_stmt 0 view .LVU493
 1705 0368 0322     		movs	r2, #3
 1706 036a 3049     		ldr	r1, .L118+20
 1707 036c 08A8     		add	r0, sp, #32
 1708 036e FFF7FEFF 		bl	strncmp
 1709              	.LVL147:
1496:../Bsp/ESP01/esp01s.c ****             else if (strncmp(month, "Jul", 3) == 0)  s_esp01s.ntpTime.month = 7;
 1710              		.loc 1 1496 21 discriminator 1 view .LVU494
 1711 0372 20B9     		cbnz	r0, .L96
1496:../Bsp/ESP01/esp01s.c ****             else if (strncmp(month, "Jul", 3) == 0)  s_esp01s.ntpTime.month = 7;
 1712              		.loc 1 1496 54 is_stmt 1 discriminator 1 view .LVU495
1496:../Bsp/ESP01/esp01s.c ****             else if (strncmp(month, "Jul", 3) == 0)  s_esp01s.ntpTime.month = 7;
 1713              		.loc 1 1496 77 is_stmt 0 discriminator 1 view .LVU496
 1714 0374 294B     		ldr	r3, .L118+4
 1715 0376 0622     		movs	r2, #6
 1716 0378 83F81A21 		strb	r2, [r3, #282]
 1717 037c 29E7     		b	.L91
 1718              	.L96:
1497:../Bsp/ESP01/esp01s.c ****             else if (strncmp(month, "Aug", 3) == 0)  s_esp01s.ntpTime.month = 8;
 1719              		.loc 1 1497 18 is_stmt 1 view .LVU497
ARM GAS  C:\Users\fish\AppData\Local\Temp\ccIMbRKB.s 			page 62


1497:../Bsp/ESP01/esp01s.c ****             else if (strncmp(month, "Aug", 3) == 0)  s_esp01s.ntpTime.month = 8;
 1720              		.loc 1 1497 22 is_stmt 0 view .LVU498
 1721 037e 0322     		movs	r2, #3
 1722 0380 2B49     		ldr	r1, .L118+24
 1723 0382 08A8     		add	r0, sp, #32
 1724 0384 FFF7FEFF 		bl	strncmp
 1725              	.LVL148:
1497:../Bsp/ESP01/esp01s.c ****             else if (strncmp(month, "Aug", 3) == 0)  s_esp01s.ntpTime.month = 8;
 1726              		.loc 1 1497 21 discriminator 1 view .LVU499
 1727 0388 20B9     		cbnz	r0, .L97
1497:../Bsp/ESP01/esp01s.c ****             else if (strncmp(month, "Aug", 3) == 0)  s_esp01s.ntpTime.month = 8;
 1728              		.loc 1 1497 54 is_stmt 1 discriminator 1 view .LVU500
1497:../Bsp/ESP01/esp01s.c ****             else if (strncmp(month, "Aug", 3) == 0)  s_esp01s.ntpTime.month = 8;
 1729              		.loc 1 1497 77 is_stmt 0 discriminator 1 view .LVU501
 1730 038a 244B     		ldr	r3, .L118+4
 1731 038c 0722     		movs	r2, #7
 1732 038e 83F81A21 		strb	r2, [r3, #282]
 1733 0392 1EE7     		b	.L91
 1734              	.L97:
1498:../Bsp/ESP01/esp01s.c ****             else if (strncmp(month, "Sep", 3) == 0)  s_esp01s.ntpTime.month = 9;
 1735              		.loc 1 1498 18 is_stmt 1 view .LVU502
1498:../Bsp/ESP01/esp01s.c ****             else if (strncmp(month, "Sep", 3) == 0)  s_esp01s.ntpTime.month = 9;
 1736              		.loc 1 1498 22 is_stmt 0 view .LVU503
 1737 0394 0322     		movs	r2, #3
 1738 0396 2749     		ldr	r1, .L118+28
 1739 0398 08A8     		add	r0, sp, #32
 1740 039a FFF7FEFF 		bl	strncmp
 1741              	.LVL149:
1498:../Bsp/ESP01/esp01s.c ****             else if (strncmp(month, "Sep", 3) == 0)  s_esp01s.ntpTime.month = 9;
 1742              		.loc 1 1498 21 discriminator 1 view .LVU504
 1743 039e 20B9     		cbnz	r0, .L98
1498:../Bsp/ESP01/esp01s.c ****             else if (strncmp(month, "Sep", 3) == 0)  s_esp01s.ntpTime.month = 9;
 1744              		.loc 1 1498 54 is_stmt 1 discriminator 1 view .LVU505
1498:../Bsp/ESP01/esp01s.c ****             else if (strncmp(month, "Sep", 3) == 0)  s_esp01s.ntpTime.month = 9;
 1745              		.loc 1 1498 77 is_stmt 0 discriminator 1 view .LVU506
 1746 03a0 1E4B     		ldr	r3, .L118+4
 1747 03a2 0822     		movs	r2, #8
 1748 03a4 83F81A21 		strb	r2, [r3, #282]
 1749 03a8 13E7     		b	.L91
 1750              	.L98:
1499:../Bsp/ESP01/esp01s.c ****             else if (strncmp(month, "Oct", 3) == 0)  s_esp01s.ntpTime.month = 10;
 1751              		.loc 1 1499 18 is_stmt 1 view .LVU507
1499:../Bsp/ESP01/esp01s.c ****             else if (strncmp(month, "Oct", 3) == 0)  s_esp01s.ntpTime.month = 10;
 1752              		.loc 1 1499 22 is_stmt 0 view .LVU508
 1753 03aa 0322     		movs	r2, #3
 1754 03ac 2249     		ldr	r1, .L118+32
 1755 03ae 08A8     		add	r0, sp, #32
 1756 03b0 FFF7FEFF 		bl	strncmp
 1757              	.LVL150:
1499:../Bsp/ESP01/esp01s.c ****             else if (strncmp(month, "Oct", 3) == 0)  s_esp01s.ntpTime.month = 10;
 1758              		.loc 1 1499 21 discriminator 1 view .LVU509
 1759 03b4 20B9     		cbnz	r0, .L99
1499:../Bsp/ESP01/esp01s.c ****             else if (strncmp(month, "Oct", 3) == 0)  s_esp01s.ntpTime.month = 10;
 1760              		.loc 1 1499 54 is_stmt 1 discriminator 1 view .LVU510
1499:../Bsp/ESP01/esp01s.c ****             else if (strncmp(month, "Oct", 3) == 0)  s_esp01s.ntpTime.month = 10;
 1761              		.loc 1 1499 77 is_stmt 0 discriminator 1 view .LVU511
 1762 03b6 194B     		ldr	r3, .L118+4
ARM GAS  C:\Users\fish\AppData\Local\Temp\ccIMbRKB.s 			page 63


 1763 03b8 0922     		movs	r2, #9
 1764 03ba 83F81A21 		strb	r2, [r3, #282]
 1765 03be 08E7     		b	.L91
 1766              	.L99:
1500:../Bsp/ESP01/esp01s.c ****             else if (strncmp(month, "Nov", 3) == 0)  s_esp01s.ntpTime.month = 11;
 1767              		.loc 1 1500 18 is_stmt 1 view .LVU512
1500:../Bsp/ESP01/esp01s.c ****             else if (strncmp(month, "Nov", 3) == 0)  s_esp01s.ntpTime.month = 11;
 1768              		.loc 1 1500 22 is_stmt 0 view .LVU513
 1769 03c0 0322     		movs	r2, #3
 1770 03c2 1E49     		ldr	r1, .L118+36
 1771 03c4 08A8     		add	r0, sp, #32
 1772 03c6 FFF7FEFF 		bl	strncmp
 1773              	.LVL151:
1500:../Bsp/ESP01/esp01s.c ****             else if (strncmp(month, "Nov", 3) == 0)  s_esp01s.ntpTime.month = 11;
 1774              		.loc 1 1500 21 discriminator 1 view .LVU514
 1775 03ca 20B9     		cbnz	r0, .L100
1500:../Bsp/ESP01/esp01s.c ****             else if (strncmp(month, "Nov", 3) == 0)  s_esp01s.ntpTime.month = 11;
 1776              		.loc 1 1500 54 is_stmt 1 discriminator 1 view .LVU515
1500:../Bsp/ESP01/esp01s.c ****             else if (strncmp(month, "Nov", 3) == 0)  s_esp01s.ntpTime.month = 11;
 1777              		.loc 1 1500 77 is_stmt 0 discriminator 1 view .LVU516
 1778 03cc 134B     		ldr	r3, .L118+4
 1779 03ce 0A22     		movs	r2, #10
 1780 03d0 83F81A21 		strb	r2, [r3, #282]
 1781 03d4 FDE6     		b	.L91
 1782              	.L100:
1501:../Bsp/ESP01/esp01s.c ****             else if (strncmp(month, "Dec", 3) == 0)  s_esp01s.ntpTime.month = 12;
 1783              		.loc 1 1501 18 is_stmt 1 view .LVU517
1501:../Bsp/ESP01/esp01s.c ****             else if (strncmp(month, "Dec", 3) == 0)  s_esp01s.ntpTime.month = 12;
 1784              		.loc 1 1501 22 is_stmt 0 view .LVU518
 1785 03d6 0322     		movs	r2, #3
 1786 03d8 1949     		ldr	r1, .L118+40
 1787 03da 08A8     		add	r0, sp, #32
 1788 03dc FFF7FEFF 		bl	strncmp
 1789              	.LVL152:
1501:../Bsp/ESP01/esp01s.c ****             else if (strncmp(month, "Dec", 3) == 0)  s_esp01s.ntpTime.month = 12;
 1790              		.loc 1 1501 21 discriminator 1 view .LVU519
 1791 03e0 20B9     		cbnz	r0, .L101
1501:../Bsp/ESP01/esp01s.c ****             else if (strncmp(month, "Dec", 3) == 0)  s_esp01s.ntpTime.month = 12;
 1792              		.loc 1 1501 54 is_stmt 1 discriminator 1 view .LVU520
1501:../Bsp/ESP01/esp01s.c ****             else if (strncmp(month, "Dec", 3) == 0)  s_esp01s.ntpTime.month = 12;
 1793              		.loc 1 1501 77 is_stmt 0 discriminator 1 view .LVU521
 1794 03e2 0E4B     		ldr	r3, .L118+4
 1795 03e4 0B22     		movs	r2, #11
 1796 03e6 83F81A21 		strb	r2, [r3, #282]
 1797 03ea F2E6     		b	.L91
 1798              	.L101:
1502:../Bsp/ESP01/esp01s.c **** 
 1799              		.loc 1 1502 18 is_stmt 1 view .LVU522
1502:../Bsp/ESP01/esp01s.c **** 
 1800              		.loc 1 1502 22 is_stmt 0 view .LVU523
 1801 03ec 0322     		movs	r2, #3
 1802 03ee 1549     		ldr	r1, .L118+44
 1803 03f0 08A8     		add	r0, sp, #32
 1804 03f2 FFF7FEFF 		bl	strncmp
 1805              	.LVL153:
1502:../Bsp/ESP01/esp01s.c **** 
 1806              		.loc 1 1502 21 discriminator 1 view .LVU524
ARM GAS  C:\Users\fish\AppData\Local\Temp\ccIMbRKB.s 			page 64


 1807 03f6 0028     		cmp	r0, #0
 1808 03f8 7FF4EBAE 		bne	.L91
1502:../Bsp/ESP01/esp01s.c **** 
 1809              		.loc 1 1502 54 is_stmt 1 discriminator 1 view .LVU525
1502:../Bsp/ESP01/esp01s.c **** 
 1810              		.loc 1 1502 77 is_stmt 0 discriminator 1 view .LVU526
 1811 03fc 074B     		ldr	r3, .L118+4
 1812 03fe 0C22     		movs	r2, #12
 1813 0400 83F81A21 		strb	r2, [r3, #282]
 1814 0404 E5E6     		b	.L91
 1815              	.LVL154:
 1816              	.L89:
1513:../Bsp/ESP01/esp01s.c ****             }
1514:../Bsp/ESP01/esp01s.c ****         }
1515:../Bsp/ESP01/esp01s.c ****         else
1516:../Bsp/ESP01/esp01s.c ****         {
1517:../Bsp/ESP01/esp01s.c ****             s_esp01s.ntpTimeValid = 0;
 1817              		.loc 1 1517 13 is_stmt 1 view .LVU527
 1818              		.loc 1 1517 35 is_stmt 0 view .LVU528
 1819 0406 054B     		ldr	r3, .L118+4
 1820 0408 0022     		movs	r2, #0
 1821 040a 83F82021 		strb	r2, [r3, #288]
1518:../Bsp/ESP01/esp01s.c ****             printf("[ESP01S] NTPๆถ้ด่งฃๆๅคฑ่ดฅ\r\n");
 1822              		.loc 1 1518 13 is_stmt 1 view .LVU529
 1823 040e 0E48     		ldr	r0, .L118+48
 1824              	.LVL155:
 1825              		.loc 1 1518 13 is_stmt 0 view .LVU530
 1826 0410 FFF7FEFF 		bl	puts
 1827              	.LVL156:
 1828              	.L67:
 1829              		.loc 1 1518 13 view .LVU531
 1830              	.LBE10:
1519:../Bsp/ESP01/esp01s.c ****         }
1520:../Bsp/ESP01/esp01s.c ****     }
1521:../Bsp/ESP01/esp01s.c **** }
 1831              		.loc 1 1521 1 view .LVU532
 1832 0414 0FB0     		add	sp, sp, #60
 1833              		.cfi_def_cfa_offset 20
 1834              		@ sp needed
 1835 0416 F0BD     		pop	{r4, r5, r6, r7, pc}
 1836              	.L119:
 1837              		.align	2
 1838              	.L118:
 1839 0418 0C010000 		.word	.LC25
 1840 041c 00000000 		.word	s_esp01s
 1841 0420 10010000 		.word	.LC26
 1842 0424 14010000 		.word	.LC27
 1843 0428 18010000 		.word	.LC28
 1844 042c 1C010000 		.word	.LC29
 1845 0430 20010000 		.word	.LC30
 1846 0434 24010000 		.word	.LC31
 1847 0438 28010000 		.word	.LC32
 1848 043c 2C010000 		.word	.LC33
 1849 0440 30010000 		.word	.LC34
 1850 0444 34010000 		.word	.LC35
 1851 0448 38010000 		.word	.LC36
 1852              		.cfi_endproc
ARM GAS  C:\Users\fish\AppData\Local\Temp\ccIMbRKB.s 			page 65


 1853              	.LFE278:
 1855              		.section	.text.ESP01S_RxCallback,"ax",%progbits
 1856              		.align	1
 1857              		.syntax unified
 1858              		.thumb
 1859              		.thumb_func
 1861              	ESP01S_RxCallback:
 1862              	.LVL157:
 1863              	.LFB277:
1258:../Bsp/ESP01/esp01s.c ****     if (pData == NULL || pUserCtx == NULL)
 1864              		.loc 1 1258 1 is_stmt 1 view -0
 1865              		.cfi_startproc
 1866              		@ args = 0, pretend = 0, frame = 520
 1867              		@ frame_needed = 0, uses_anonymous_args = 0
1259:../Bsp/ESP01/esp01s.c ****         return;
 1868              		.loc 1 1259 5 view .LVU534
1259:../Bsp/ESP01/esp01s.c ****         return;
 1869              		.loc 1 1259 8 is_stmt 0 view .LVU535
 1870 0000 0028     		cmp	r0, #0
 1871 0002 63D0     		beq	.L129
1258:../Bsp/ESP01/esp01s.c ****     if (pData == NULL || pUserCtx == NULL)
 1872              		.loc 1 1258 1 view .LVU536
 1873 0004 70B5     		push	{r4, r5, r6, lr}
 1874              		.cfi_def_cfa_offset 16
 1875              		.cfi_offset 4, -16
 1876              		.cfi_offset 5, -12
 1877              		.cfi_offset 6, -8
 1878              		.cfi_offset 14, -4
 1879 0006 ADF5027D 		sub	sp, sp, #520
 1880              		.cfi_def_cfa_offset 536
 1881 000a 0C46     		mov	r4, r1
 1882 000c 0546     		mov	r5, r0
1259:../Bsp/ESP01/esp01s.c ****         return;
 1883              		.loc 1 1259 23 discriminator 1 view .LVU537
 1884 000e 0029     		cmp	r1, #0
 1885 0010 59D0     		beq	.L120
1262:../Bsp/ESP01/esp01s.c **** 
 1886              		.loc 1 1262 5 is_stmt 1 view .LVU538
 1887              	.LVL158:
1264:../Bsp/ESP01/esp01s.c ****     {
 1888              		.loc 1 1264 5 view .LVU539
1264:../Bsp/ESP01/esp01s.c ****     {
 1889              		.loc 1 1264 14 is_stmt 0 view .LVU540
 1890 0012 0188     		ldrh	r1, [r0]
 1891              	.LVL159:
1264:../Bsp/ESP01/esp01s.c ****     {
 1892              		.loc 1 1264 8 view .LVU541
 1893 0014 0029     		cmp	r1, #0
 1894 0016 56D0     		beq	.L120
 1895              	.LBB11:
1267:../Bsp/ESP01/esp01s.c ****         {
 1896              		.loc 1 1267 9 is_stmt 1 view .LVU542
1267:../Bsp/ESP01/esp01s.c ****         {
 1897              		.loc 1 1267 18 is_stmt 0 view .LVU543
 1898 0018 94F82131 		ldrb	r3, [r4, #289]	@ zero_extendqisi2
1267:../Bsp/ESP01/esp01s.c ****         {
 1899              		.loc 1 1267 12 view .LVU544
ARM GAS  C:\Users\fish\AppData\Local\Temp\ccIMbRKB.s 			page 66


 1900 001c 13BB     		cbnz	r3, .L132
 1901              	.LVL160:
 1902              	.L122:
1275:../Bsp/ESP01/esp01s.c ****         {
 1903              		.loc 1 1275 9 is_stmt 1 view .LVU545
1275:../Bsp/ESP01/esp01s.c ****         {
 1904              		.loc 1 1275 18 is_stmt 0 view .LVU546
 1905 001e 94F82C31 		ldrb	r3, [r4, #300]	@ zero_extendqisi2
1275:../Bsp/ESP01/esp01s.c ****         {
 1906              		.loc 1 1275 12 view .LVU547
 1907 0022 3BBB     		cbnz	r3, .L133
1289:../Bsp/ESP01/esp01s.c **** 
 1908              		.loc 1 1289 9 is_stmt 1 view .LVU548
1289:../Bsp/ESP01/esp01s.c **** 
 1909              		.loc 1 1289 15 is_stmt 0 view .LVU549
 1910 0024 A81C     		adds	r0, r5, #2
 1911              	.LVL161:
1291:../Bsp/ESP01/esp01s.c ****         {
 1912              		.loc 1 1291 9 is_stmt 1 view .LVU550
1291:../Bsp/ESP01/esp01s.c ****         {
 1913              		.loc 1 1291 18 is_stmt 0 view .LVU551
 1914 0026 94F8C830 		ldrb	r3, [r4, #200]	@ zero_extendqisi2
1291:../Bsp/ESP01/esp01s.c ****         {
 1915              		.loc 1 1291 12 view .LVU552
 1916 002a 062B     		cmp	r3, #6
 1917 002c 48D1     		bne	.L126
1295:../Bsp/ESP01/esp01s.c ****             {
 1918              		.loc 1 1295 13 is_stmt 1 view .LVU553
1295:../Bsp/ESP01/esp01s.c ****             {
 1919              		.loc 1 1295 22 is_stmt 0 view .LVU554
 1920 002e D4F81431 		ldr	r3, [r4, #276]
1295:../Bsp/ESP01/esp01s.c ****             {
 1921              		.loc 1 1295 16 view .LVU555
 1922 0032 002B     		cmp	r3, #0
 1923 0034 3CD0     		beq	.L127
 1924              	.LBB12:
1297:../Bsp/ESP01/esp01s.c ****                 evt.pDrv = pInst->pUartDrv;
 1925              		.loc 1 1297 17 is_stmt 1 view .LVU556
1298:../Bsp/ESP01/esp01s.c ****                 evt.len  = (pData->rx_len > UART_DRV_QUEUE_DATA_SIZE) ? UART_DRV_QUEUE_DATA_SIZE : 
 1926              		.loc 1 1298 17 view .LVU557
1298:../Bsp/ESP01/esp01s.c ****                 evt.len  = (pData->rx_len > UART_DRV_QUEUE_DATA_SIZE) ? UART_DRV_QUEUE_DATA_SIZE : 
 1927              		.loc 1 1298 33 is_stmt 0 view .LVU558
 1928 0036 2368     		ldr	r3, [r4]
1298:../Bsp/ESP01/esp01s.c ****                 evt.len  = (pData->rx_len > UART_DRV_QUEUE_DATA_SIZE) ? UART_DRV_QUEUE_DATA_SIZE : 
 1929              		.loc 1 1298 26 view .LVU559
 1930 0038 0093     		str	r3, [sp]
1299:../Bsp/ESP01/esp01s.c ****                 memcpy(evt.data, pData->rx_buf, evt.len);
 1931              		.loc 1 1299 17 is_stmt 1 view .LVU560
1299:../Bsp/ESP01/esp01s.c ****                 memcpy(evt.data, pData->rx_buf, evt.len);
 1932              		.loc 1 1299 34 is_stmt 0 view .LVU561
 1933 003a 2A88     		ldrh	r2, [r5]
1299:../Bsp/ESP01/esp01s.c ****                 memcpy(evt.data, pData->rx_buf, evt.len);
 1934              		.loc 1 1299 98 view .LVU562
 1935 003c B2F5007F 		cmp	r2, #512
 1936 0040 28BF     		it	cs
 1937 0042 4FF40072 		movcs	r2, #512
1299:../Bsp/ESP01/esp01s.c ****                 memcpy(evt.data, pData->rx_buf, evt.len);
ARM GAS  C:\Users\fish\AppData\Local\Temp\ccIMbRKB.s 			page 67


 1938              		.loc 1 1299 26 view .LVU563
 1939 0046 ADF80420 		strh	r2, [sp, #4]	@ movhi
1300:../Bsp/ESP01/esp01s.c ****                 osMessageQueuePut(pInst->rxQueue, &evt, 0, 0);
 1940              		.loc 1 1300 17 is_stmt 1 view .LVU564
 1941 004a 0146     		mov	r1, r0
 1942 004c 0DF10600 		add	r0, sp, #6
 1943              	.LVL162:
1300:../Bsp/ESP01/esp01s.c ****                 osMessageQueuePut(pInst->rxQueue, &evt, 0, 0);
 1944              		.loc 1 1300 17 is_stmt 0 view .LVU565
 1945 0050 FFF7FEFF 		bl	memcpy
 1946              	.LVL163:
1301:../Bsp/ESP01/esp01s.c ****             }
 1947              		.loc 1 1301 17 is_stmt 1 view .LVU566
 1948 0054 0023     		movs	r3, #0
 1949 0056 1A46     		mov	r2, r3
 1950 0058 6946     		mov	r1, sp
 1951 005a D4F81401 		ldr	r0, [r4, #276]
 1952 005e FFF7FEFF 		bl	osMessageQueuePut
 1953              	.LVL164:
 1954              	.LBE12:
 1955 0062 30E0     		b	.L120
 1956              	.LVL165:
 1957              	.L132:
1269:../Bsp/ESP01/esp01s.c ****             if (pInst->ntpTimeValid)
 1958              		.loc 1 1269 13 view .LVU567
 1959 0064 0230     		adds	r0, r0, #2
 1960              	.LVL166:
1269:../Bsp/ESP01/esp01s.c ****             if (pInst->ntpTimeValid)
 1961              		.loc 1 1269 13 is_stmt 0 view .LVU568
 1962 0066 FFF7FEFF 		bl	ESP01S_ParseUdpNtpData
 1963              	.LVL167:
1270:../Bsp/ESP01/esp01s.c ****                 return;  /* NTPๆฐๆฎๅทฒ่งฃๆ,ไธๅๅๅญ็ฌฆไธฒๅค็ */
 1964              		.loc 1 1270 13 is_stmt 1 view .LVU569
1270:../Bsp/ESP01/esp01s.c ****                 return;  /* NTPๆฐๆฎๅทฒ่งฃๆ,ไธๅๅๅญ็ฌฆไธฒๅค็ */
 1965              		.loc 1 1270 22 is_stmt 0 view .LVU570
 1966 006a 94F82031 		ldrb	r3, [r4, #288]	@ zero_extendqisi2
1270:../Bsp/ESP01/esp01s.c ****                 return;  /* NTPๆฐๆฎๅทฒ่งฃๆ,ไธๅๅๅญ็ฌฆไธฒๅค็ */
 1967              		.loc 1 1270 16 view .LVU571
 1968 006e 002B     		cmp	r3, #0
 1969 0070 D5D0     		beq	.L122
 1970 0072 28E0     		b	.L120
 1971              	.L133:
 1972              	.LBB13:
1277:../Bsp/ESP01/esp01s.c ****             if (pInst->weatherRxLen + copyLen > sizeof(pInst->weatherRxBuf) - 1)
 1973              		.loc 1 1277 13 is_stmt 1 view .LVU572
1277:../Bsp/ESP01/esp01s.c ****             if (pInst->weatherRxLen + copyLen > sizeof(pInst->weatherRxBuf) - 1)
 1974              		.loc 1 1277 22 is_stmt 0 view .LVU573
 1975 0074 2E88     		ldrh	r6, [r5]
 1976              	.LVL168:
1278:../Bsp/ESP01/esp01s.c ****                 copyLen = (uint16_t)(sizeof(pInst->weatherRxBuf) - 1 - pInst->weatherRxLen);
 1977              		.loc 1 1278 13 is_stmt 1 view .LVU574
1278:../Bsp/ESP01/esp01s.c ****                 copyLen = (uint16_t)(sizeof(pInst->weatherRxBuf) - 1 - pInst->weatherRxLen);
 1978              		.loc 1 1278 22 is_stmt 0 view .LVU575
 1979 0076 B4F82E35 		ldrh	r3, [r4, #1326]
1278:../Bsp/ESP01/esp01s.c ****                 copyLen = (uint16_t)(sizeof(pInst->weatherRxBuf) - 1 - pInst->weatherRxLen);
 1980              		.loc 1 1278 37 view .LVU576
 1981 007a F218     		adds	r2, r6, r3
ARM GAS  C:\Users\fish\AppData\Local\Temp\ccIMbRKB.s 			page 68


1278:../Bsp/ESP01/esp01s.c ****                 copyLen = (uint16_t)(sizeof(pInst->weatherRxBuf) - 1 - pInst->weatherRxLen);
 1982              		.loc 1 1278 16 view .LVU577
 1983 007c B2F5806F 		cmp	r2, #1024
 1984 0080 03D3     		bcc	.L124
1279:../Bsp/ESP01/esp01s.c ****             if (copyLen > 0)
 1985              		.loc 1 1279 17 is_stmt 1 view .LVU578
1279:../Bsp/ESP01/esp01s.c ****             if (copyLen > 0)
 1986              		.loc 1 1279 25 is_stmt 0 view .LVU579
 1987 0082 C3F57F76 		rsb	r6, r3, #1020
 1988              	.LVL169:
1279:../Bsp/ESP01/esp01s.c ****             if (copyLen > 0)
 1989              		.loc 1 1279 25 view .LVU580
 1990 0086 0336     		adds	r6, r6, #3
 1991 0088 B6B2     		uxth	r6, r6
 1992              	.L124:
 1993              	.LVL170:
1280:../Bsp/ESP01/esp01s.c ****             {
 1994              		.loc 1 1280 13 is_stmt 1 view .LVU581
1280:../Bsp/ESP01/esp01s.c ****             {
 1995              		.loc 1 1280 16 is_stmt 0 view .LVU582
 1996 008a E6B1     		cbz	r6, .L120
1282:../Bsp/ESP01/esp01s.c ****                 pInst->weatherRxLen += copyLen;
 1997              		.loc 1 1282 17 is_stmt 1 view .LVU583
1282:../Bsp/ESP01/esp01s.c ****                 pInst->weatherRxLen += copyLen;
 1998              		.loc 1 1282 24 is_stmt 0 view .LVU584
 1999 008c 04F22D10 		addw	r0, r4, #301
1282:../Bsp/ESP01/esp01s.c ****                 pInst->weatherRxLen += copyLen;
 2000              		.loc 1 1282 17 view .LVU585
 2001 0090 3246     		mov	r2, r6
 2002 0092 A91C     		adds	r1, r5, #2
 2003 0094 1844     		add	r0, r0, r3
 2004 0096 FFF7FEFF 		bl	memcpy
 2005              	.LVL171:
1283:../Bsp/ESP01/esp01s.c ****                 pInst->weatherRxBuf[pInst->weatherRxLen] = '\0';
 2006              		.loc 1 1283 17 is_stmt 1 view .LVU586
1283:../Bsp/ESP01/esp01s.c ****                 pInst->weatherRxBuf[pInst->weatherRxLen] = '\0';
 2007              		.loc 1 1283 22 is_stmt 0 view .LVU587
 2008 009a B4F82E35 		ldrh	r3, [r4, #1326]
1283:../Bsp/ESP01/esp01s.c ****                 pInst->weatherRxBuf[pInst->weatherRxLen] = '\0';
 2009              		.loc 1 1283 37 view .LVU588
 2010 009e 3344     		add	r3, r3, r6
 2011 00a0 9BB2     		uxth	r3, r3
 2012 00a2 A4F82E35 		strh	r3, [r4, #1326]	@ movhi
1284:../Bsp/ESP01/esp01s.c ****             }
 2013              		.loc 1 1284 17 is_stmt 1 view .LVU589
1284:../Bsp/ESP01/esp01s.c ****             }
 2014              		.loc 1 1284 58 is_stmt 0 view .LVU590
 2015 00a6 2344     		add	r3, r3, r4
 2016 00a8 0022     		movs	r2, #0
 2017 00aa 83F82D21 		strb	r2, [r3, #301]
1286:../Bsp/ESP01/esp01s.c ****         }
 2018              		.loc 1 1286 13 is_stmt 1 view .LVU591
 2019 00ae 0AE0     		b	.L120
 2020              	.LVL172:
 2021              	.L127:
1286:../Bsp/ESP01/esp01s.c ****         }
 2022              		.loc 1 1286 13 is_stmt 0 view .LVU592
ARM GAS  C:\Users\fish\AppData\Local\Temp\ccIMbRKB.s 			page 69


 2023              	.LBE13:
1307:../Bsp/ESP01/esp01s.c ****                 {
 2024              		.loc 1 1307 17 is_stmt 1 view .LVU593
1307:../Bsp/ESP01/esp01s.c ****                 {
 2025              		.loc 1 1307 26 is_stmt 0 view .LVU594
 2026 00b0 D4F80C31 		ldr	r3, [r4, #268]
1307:../Bsp/ESP01/esp01s.c ****                 {
 2027              		.loc 1 1307 20 view .LVU595
 2028 00b4 3BB1     		cbz	r3, .L120
1309:../Bsp/ESP01/esp01s.c ****                 }
 2029              		.loc 1 1309 21 is_stmt 1 view .LVU596
 2030 00b6 D4F81021 		ldr	r2, [r4, #272]
 2031 00ba 2988     		ldrh	r1, [r5]
 2032 00bc 9847     		blx	r3
 2033              	.LVL173:
1309:../Bsp/ESP01/esp01s.c ****                 }
 2034              		.loc 1 1309 21 is_stmt 0 view .LVU597
 2035 00be 02E0     		b	.L120
 2036              	.LVL174:
 2037              	.L126:
1316:../Bsp/ESP01/esp01s.c ****         }
 2038              		.loc 1 1316 13 is_stmt 1 view .LVU598
 2039 00c0 2988     		ldrh	r1, [r5]
 2040 00c2 FFF7FEFF 		bl	ESP01S_ProcessATResponse
 2041              	.LVL175:
 2042              	.L120:
1316:../Bsp/ESP01/esp01s.c ****         }
 2043              		.loc 1 1316 13 is_stmt 0 view .LVU599
 2044              	.LBE11:
1319:../Bsp/ESP01/esp01s.c **** 
 2045              		.loc 1 1319 1 view .LVU600
 2046 00c6 0DF5027D 		add	sp, sp, #520
 2047              		.cfi_def_cfa_offset 16
 2048              		@ sp needed
 2049 00ca 70BD     		pop	{r4, r5, r6, pc}
 2050              	.LVL176:
 2051              	.L129:
 2052              		.cfi_def_cfa_offset 0
 2053              		.cfi_restore 4
 2054              		.cfi_restore 5
 2055              		.cfi_restore 6
 2056              		.cfi_restore 14
1319:../Bsp/ESP01/esp01s.c **** 
 2057              		.loc 1 1319 1 view .LVU601
 2058 00cc 7047     		bx	lr
 2059              		.cfi_endproc
 2060              	.LFE277:
 2062              		.section	.rodata.FormatDateTime.str1.4,"aMS",%progbits,1
 2063              		.align	2
 2064              	.LC37:
 2065 0000 25303464 		.ascii	"%04d-%02d-%02d\000"
 2065      2D253032 
 2065      642D2530 
 2065      326400
 2066 000f 00       		.align	2
 2067              	.LC38:
 2068 0010 25303264 		.ascii	"%02d:%02d:%02d\000"
ARM GAS  C:\Users\fish\AppData\Local\Temp\ccIMbRKB.s 			page 70


 2068      3A253032 
 2068      643A2530 
 2068      326400
 2069 001f 00       		.align	2
 2070              	.LC39:
 2071 0020 25303464 		.ascii	"%04d-%02d-%02d %02d:%02d:%02d\000"
 2071      2D253032 
 2071      642D2530 
 2071      32642025 
 2071      3032643A 
 2072              		.section	.text.FormatDateTime,"ax",%progbits
 2073              		.align	1
 2074              		.syntax unified
 2075              		.thumb
 2076              		.thumb_func
 2078              	FormatDateTime:
 2079              	.LVL177:
 2080              	.LFB274:
1088:../Bsp/ESP01/esp01s.c ****     switch (format)
 2081              		.loc 1 1088 1 is_stmt 1 view -0
 2082              		.cfi_startproc
 2083              		@ args = 0, pretend = 0, frame = 0
 2084              		@ frame_needed = 0, uses_anonymous_args = 0
1088:../Bsp/ESP01/esp01s.c ****     switch (format)
 2085              		.loc 1 1088 1 is_stmt 0 view .LVU603
 2086 0000 70B5     		push	{r4, r5, r6, lr}
 2087              		.cfi_def_cfa_offset 16
 2088              		.cfi_offset 4, -16
 2089              		.cfi_offset 5, -12
 2090              		.cfi_offset 6, -8
 2091              		.cfi_offset 14, -4
 2092 0002 86B0     		sub	sp, sp, #24
 2093              		.cfi_def_cfa_offset 40
 2094 0004 8446     		mov	ip, r0
 2095 0006 0C46     		mov	r4, r1
 2096 0008 1046     		mov	r0, r2
 2097              	.LVL178:
1088:../Bsp/ESP01/esp01s.c ****     switch (format)
 2098              		.loc 1 1088 1 view .LVU604
 2099 000a 1946     		mov	r1, r3
 2100              	.LVL179:
1089:../Bsp/ESP01/esp01s.c ****     {
 2101              		.loc 1 1089 5 is_stmt 1 view .LVU605
 2102 000c B4B1     		cbz	r4, .L135
 2103 000e 012C     		cmp	r4, #1
 2104 0010 21D0     		beq	.L136
1101:../Bsp/ESP01/esp01s.c ****                  pTime->year, pTime->month, pTime->day,
 2105              		.loc 1 1101 9 view .LVU606
1102:../Bsp/ESP01/esp01s.c ****                  pTime->hour, pTime->minute, pTime->second);
 2106              		.loc 1 1102 36 is_stmt 0 view .LVU607
 2107 0012 9CF80230 		ldrb	r3, [ip, #2]	@ zero_extendqisi2
 2108              	.LVL180:
1102:../Bsp/ESP01/esp01s.c ****                  pTime->hour, pTime->minute, pTime->second);
 2109              		.loc 1 1102 50 view .LVU608
 2110 0016 9CF80320 		ldrb	r2, [ip, #3]	@ zero_extendqisi2
 2111              	.LVL181:
1103:../Bsp/ESP01/esp01s.c ****         break;
ARM GAS  C:\Users\fish\AppData\Local\Temp\ccIMbRKB.s 			page 71


 2112              		.loc 1 1103 23 view .LVU609
 2113 001a 9CF80440 		ldrb	r4, [ip, #4]	@ zero_extendqisi2
 2114              	.LVL182:
1103:../Bsp/ESP01/esp01s.c ****         break;
 2115              		.loc 1 1103 36 view .LVU610
 2116 001e 9CF80550 		ldrb	r5, [ip, #5]	@ zero_extendqisi2
1103:../Bsp/ESP01/esp01s.c ****         break;
 2117              		.loc 1 1103 51 view .LVU611
 2118 0022 9CF80660 		ldrb	r6, [ip, #6]	@ zero_extendqisi2
1101:../Bsp/ESP01/esp01s.c ****                  pTime->year, pTime->month, pTime->day,
 2119              		.loc 1 1101 9 view .LVU612
 2120 0026 0496     		str	r6, [sp, #16]
 2121 0028 0395     		str	r5, [sp, #12]
 2122 002a 0294     		str	r4, [sp, #8]
 2123 002c 0192     		str	r2, [sp, #4]
 2124 002e 0093     		str	r3, [sp]
 2125 0030 BCF80030 		ldrh	r3, [ip]
 2126 0034 0E4A     		ldr	r2, .L141
 2127 0036 FFF7FEFF 		bl	snprintf
 2128              	.LVL183:
1104:../Bsp/ESP01/esp01s.c ****     }
 2129              		.loc 1 1104 9 is_stmt 1 view .LVU613
1106:../Bsp/ESP01/esp01s.c **** 
 2130              		.loc 1 1106 1 is_stmt 0 view .LVU614
 2131 003a 0AE0     		b	.L134
 2132              	.LVL184:
 2133              	.L135:
1092:../Bsp/ESP01/esp01s.c ****                  pTime->year, pTime->month, pTime->day);
 2134              		.loc 1 1092 9 is_stmt 1 view .LVU615
1093:../Bsp/ESP01/esp01s.c ****         break;
 2135              		.loc 1 1093 36 is_stmt 0 view .LVU616
 2136 003c 9CF80230 		ldrb	r3, [ip, #2]	@ zero_extendqisi2
 2137              	.LVL185:
1093:../Bsp/ESP01/esp01s.c ****         break;
 2138              		.loc 1 1093 50 view .LVU617
 2139 0040 9CF80320 		ldrb	r2, [ip, #3]	@ zero_extendqisi2
1092:../Bsp/ESP01/esp01s.c ****                  pTime->year, pTime->month, pTime->day);
 2140              		.loc 1 1092 9 view .LVU618
 2141 0044 0192     		str	r2, [sp, #4]
 2142 0046 0093     		str	r3, [sp]
 2143 0048 BCF80030 		ldrh	r3, [ip]
 2144 004c 094A     		ldr	r2, .L141+4
 2145 004e FFF7FEFF 		bl	snprintf
 2146              	.LVL186:
1094:../Bsp/ESP01/esp01s.c ****     case DT_TIME:
 2147              		.loc 1 1094 9 is_stmt 1 view .LVU619
 2148              	.L134:
1106:../Bsp/ESP01/esp01s.c **** 
 2149              		.loc 1 1106 1 is_stmt 0 view .LVU620
 2150 0052 06B0     		add	sp, sp, #24
 2151              		.cfi_remember_state
 2152              		.cfi_def_cfa_offset 16
 2153              		@ sp needed
 2154 0054 70BD     		pop	{r4, r5, r6, pc}
 2155              	.LVL187:
 2156              	.L136:
 2157              		.cfi_restore_state
ARM GAS  C:\Users\fish\AppData\Local\Temp\ccIMbRKB.s 			page 72


1096:../Bsp/ESP01/esp01s.c ****                  pTime->hour, pTime->minute, pTime->second);
 2158              		.loc 1 1096 9 is_stmt 1 view .LVU621
1097:../Bsp/ESP01/esp01s.c ****         break;
 2159              		.loc 1 1097 36 is_stmt 0 view .LVU622
 2160 0056 9CF80530 		ldrb	r3, [ip, #5]	@ zero_extendqisi2
 2161              	.LVL188:
1097:../Bsp/ESP01/esp01s.c ****         break;
 2162              		.loc 1 1097 51 view .LVU623
 2163 005a 9CF80620 		ldrb	r2, [ip, #6]	@ zero_extendqisi2
1096:../Bsp/ESP01/esp01s.c ****                  pTime->hour, pTime->minute, pTime->second);
 2164              		.loc 1 1096 9 view .LVU624
 2165 005e 0192     		str	r2, [sp, #4]
 2166 0060 0093     		str	r3, [sp]
 2167 0062 9CF80430 		ldrb	r3, [ip, #4]	@ zero_extendqisi2
 2168 0066 044A     		ldr	r2, .L141+8
 2169 0068 FFF7FEFF 		bl	snprintf
 2170              	.LVL189:
1098:../Bsp/ESP01/esp01s.c ****     case DT_ALL:
 2171              		.loc 1 1098 9 is_stmt 1 view .LVU625
 2172 006c F1E7     		b	.L134
 2173              	.L142:
 2174 006e 00BF     		.align	2
 2175              	.L141:
 2176 0070 20000000 		.word	.LC39
 2177 0074 00000000 		.word	.LC37
 2178 0078 10000000 		.word	.LC38
 2179              		.cfi_endproc
 2180              	.LFE274:
 2182              		.section	.rodata.ESP01S_JsonExtractString.str1.4,"aMS",%progbits,1
 2183              		.align	2
 2184              	.LC40:
 2185 0000 22257322 		.ascii	"\"%s\"\000"
 2185      00
 2186              		.section	.text.ESP01S_JsonExtractString,"ax",%progbits
 2187              		.align	1
 2188              		.syntax unified
 2189              		.thumb
 2190              		.thumb_func
 2192              	ESP01S_JsonExtractString:
 2193              	.LVL190:
 2194              	.LFB266:
 654:../Bsp/ESP01/esp01s.c ****     char pattern[24];
 2195              		.loc 1 654 1 view -0
 2196              		.cfi_startproc
 2197              		@ args = 0, pretend = 0, frame = 24
 2198              		@ frame_needed = 0, uses_anonymous_args = 0
 654:../Bsp/ESP01/esp01s.c ****     char pattern[24];
 2199              		.loc 1 654 1 is_stmt 0 view .LVU627
 2200 0000 F0B5     		push	{r4, r5, r6, r7, lr}
 2201              		.cfi_def_cfa_offset 20
 2202              		.cfi_offset 4, -20
 2203              		.cfi_offset 5, -16
 2204              		.cfi_offset 6, -12
 2205              		.cfi_offset 7, -8
 2206              		.cfi_offset 14, -4
 2207 0002 87B0     		sub	sp, sp, #28
 2208              		.cfi_def_cfa_offset 48
ARM GAS  C:\Users\fish\AppData\Local\Temp\ccIMbRKB.s 			page 73


 655:../Bsp/ESP01/esp01s.c ****     const char *p;
 2209              		.loc 1 655 5 is_stmt 1 view .LVU628
 656:../Bsp/ESP01/esp01s.c ****     const char *end;
 2210              		.loc 1 656 5 view .LVU629
 657:../Bsp/ESP01/esp01s.c ****     uint16_t len;
 2211              		.loc 1 657 5 view .LVU630
 658:../Bsp/ESP01/esp01s.c **** 
 2212              		.loc 1 658 5 view .LVU631
 660:../Bsp/ESP01/esp01s.c ****         return NULL;
 2213              		.loc 1 660 5 view .LVU632
 660:../Bsp/ESP01/esp01s.c ****         return NULL;
 2214              		.loc 1 660 8 is_stmt 0 view .LVU633
 2215 0004 0446     		mov	r4, r0
 2216 0006 0028     		cmp	r0, #0
 2217 0008 5AD0     		beq	.L143
 2218 000a 1546     		mov	r5, r2
 2219 000c 1E46     		mov	r6, r3
 660:../Bsp/ESP01/esp01s.c ****         return NULL;
 2220              		.loc 1 660 22 discriminator 1 view .LVU634
 2221 000e 0029     		cmp	r1, #0
 2222 0010 51D0     		beq	.L155
 660:../Bsp/ESP01/esp01s.c ****         return NULL;
 2223              		.loc 1 660 37 discriminator 2 view .LVU635
 2224 0012 002A     		cmp	r2, #0
 2225 0014 51D0     		beq	.L156
 660:../Bsp/ESP01/esp01s.c ****         return NULL;
 2226              		.loc 1 660 52 discriminator 3 view .LVU636
 2227 0016 002B     		cmp	r3, #0
 2228 0018 51D0     		beq	.L157
 664:../Bsp/ESP01/esp01s.c ****     p = strstr(json, pattern);
 2229              		.loc 1 664 5 is_stmt 1 view .LVU637
 2230 001a 0B46     		mov	r3, r1
 2231              	.LVL191:
 664:../Bsp/ESP01/esp01s.c ****     p = strstr(json, pattern);
 2232              		.loc 1 664 5 is_stmt 0 view .LVU638
 2233 001c 2D4A     		ldr	r2, .L163
 2234              	.LVL192:
 664:../Bsp/ESP01/esp01s.c ****     p = strstr(json, pattern);
 2235              		.loc 1 664 5 view .LVU639
 2236 001e 1821     		movs	r1, #24
 2237              	.LVL193:
 664:../Bsp/ESP01/esp01s.c ****     p = strstr(json, pattern);
 2238              		.loc 1 664 5 view .LVU640
 2239 0020 6846     		mov	r0, sp
 2240              	.LVL194:
 664:../Bsp/ESP01/esp01s.c ****     p = strstr(json, pattern);
 2241              		.loc 1 664 5 view .LVU641
 2242 0022 FFF7FEFF 		bl	snprintf
 2243              	.LVL195:
 665:../Bsp/ESP01/esp01s.c ****     if (p == NULL)
 2244              		.loc 1 665 5 is_stmt 1 view .LVU642
 665:../Bsp/ESP01/esp01s.c ****     if (p == NULL)
 2245              		.loc 1 665 9 is_stmt 0 view .LVU643
 2246 0026 6946     		mov	r1, sp
 2247 0028 2046     		mov	r0, r4
 2248 002a FFF7FEFF 		bl	strstr
 2249              	.LVL196:
ARM GAS  C:\Users\fish\AppData\Local\Temp\ccIMbRKB.s 			page 74


 666:../Bsp/ESP01/esp01s.c ****         return NULL;
 2250              		.loc 1 666 5 is_stmt 1 view .LVU644
 666:../Bsp/ESP01/esp01s.c ****         return NULL;
 2251              		.loc 1 666 8 is_stmt 0 view .LVU645
 2252 002e 0446     		mov	r4, r0
 2253              	.LVL197:
 666:../Bsp/ESP01/esp01s.c ****         return NULL;
 2254              		.loc 1 666 8 view .LVU646
 2255 0030 0028     		cmp	r0, #0
 2256 0032 45D0     		beq	.L143
 669:../Bsp/ESP01/esp01s.c **** 
 2257              		.loc 1 669 5 is_stmt 1 view .LVU647
 669:../Bsp/ESP01/esp01s.c **** 
 2258              		.loc 1 669 10 is_stmt 0 view .LVU648
 2259 0034 6846     		mov	r0, sp
 2260              	.LVL198:
 669:../Bsp/ESP01/esp01s.c **** 
 2261              		.loc 1 669 10 view .LVU649
 2262 0036 FFF7FEFF 		bl	strlen
 2263              	.LVL199:
 669:../Bsp/ESP01/esp01s.c **** 
 2264              		.loc 1 669 7 discriminator 1 view .LVU650
 2265 003a 0444     		add	r4, r4, r0
 2266              	.LVL200:
 672:../Bsp/ESP01/esp01s.c ****         p++;
 2267              		.loc 1 672 5 is_stmt 1 view .LVU651
 2268              	.L145:
 672:../Bsp/ESP01/esp01s.c ****         p++;
 2269              		.loc 1 672 50 view .LVU652
 672:../Bsp/ESP01/esp01s.c ****         p++;
 2270              		.loc 1 672 12 is_stmt 0 view .LVU653
 2271 003c 2378     		ldrb	r3, [r4]	@ zero_extendqisi2
 2272 003e 3A2B     		cmp	r3, #58
 2273 0040 0DD0     		beq	.L146
 2274 0042 40D8     		bhi	.L158
 2275 0044 0D2B     		cmp	r3, #13
 2276 0046 04D0     		beq	.L147
 2277 0048 05D8     		bhi	.L148
 2278 004a 093B     		subs	r3, r3, #9
 2279 004c DBB2     		uxtb	r3, r3
 2280 004e 012B     		cmp	r3, #1
 2281 0050 3BD8     		bhi	.L162
 2282              	.L147:
 673:../Bsp/ESP01/esp01s.c ****     if (*p != ':')
 2283              		.loc 1 673 9 is_stmt 1 view .LVU654
 673:../Bsp/ESP01/esp01s.c ****     if (*p != ':')
 2284              		.loc 1 673 10 is_stmt 0 view .LVU655
 2285 0052 0134     		adds	r4, r4, #1
 2286              	.LVL201:
 673:../Bsp/ESP01/esp01s.c ****     if (*p != ':')
 2287              		.loc 1 673 10 view .LVU656
 2288 0054 F2E7     		b	.L145
 2289              	.LVL202:
 2290              	.L148:
 673:../Bsp/ESP01/esp01s.c ****     if (*p != ':')
 2291              		.loc 1 673 10 view .LVU657
 2292 0056 202B     		cmp	r3, #32
ARM GAS  C:\Users\fish\AppData\Local\Temp\ccIMbRKB.s 			page 75


 2293 0058 FBD0     		beq	.L147
 672:../Bsp/ESP01/esp01s.c ****         p++;
 2294              		.loc 1 672 12 view .LVU658
 2295 005a 0024     		movs	r4, #0
 2296              	.LVL203:
 672:../Bsp/ESP01/esp01s.c ****         p++;
 2297              		.loc 1 672 12 view .LVU659
 2298 005c 30E0     		b	.L143
 2299              	.LVL204:
 2300              	.L146:
 676:../Bsp/ESP01/esp01s.c ****     while (*p == ' ' || *p == '\t' || *p == '\n' || *p == '\r')
 2301              		.loc 1 676 5 is_stmt 1 view .LVU660
 676:../Bsp/ESP01/esp01s.c ****     while (*p == ' ' || *p == '\t' || *p == '\n' || *p == '\r')
 2302              		.loc 1 676 6 is_stmt 0 view .LVU661
 2303 005e 0134     		adds	r4, r4, #1
 2304              	.LVL205:
 677:../Bsp/ESP01/esp01s.c ****         p++;
 2305              		.loc 1 677 5 is_stmt 1 view .LVU662
 2306              	.L149:
 677:../Bsp/ESP01/esp01s.c ****         p++;
 2307              		.loc 1 677 50 view .LVU663
 677:../Bsp/ESP01/esp01s.c ****         p++;
 2308              		.loc 1 677 12 is_stmt 0 view .LVU664
 2309 0060 2378     		ldrb	r3, [r4]	@ zero_extendqisi2
 2310 0062 093B     		subs	r3, r3, #9
 2311 0064 192B     		cmp	r3, #25
 2312 0066 32D8     		bhi	.L160
 2313 0068 DFE803F0 		tbb	[pc, r3]
 2314              	.L152:
 2315 006c 0D       		.byte	(.L150-.L152)/2
 2316 006d 0D       		.byte	(.L150-.L152)/2
 2317 006e 31       		.byte	(.L160-.L152)/2
 2318 006f 31       		.byte	(.L160-.L152)/2
 2319 0070 0D       		.byte	(.L150-.L152)/2
 2320 0071 31       		.byte	(.L160-.L152)/2
 2321 0072 31       		.byte	(.L160-.L152)/2
 2322 0073 31       		.byte	(.L160-.L152)/2
 2323 0074 31       		.byte	(.L160-.L152)/2
 2324 0075 31       		.byte	(.L160-.L152)/2
 2325 0076 31       		.byte	(.L160-.L152)/2
 2326 0077 31       		.byte	(.L160-.L152)/2
 2327 0078 31       		.byte	(.L160-.L152)/2
 2328 0079 31       		.byte	(.L160-.L152)/2
 2329 007a 31       		.byte	(.L160-.L152)/2
 2330 007b 31       		.byte	(.L160-.L152)/2
 2331 007c 31       		.byte	(.L160-.L152)/2
 2332 007d 31       		.byte	(.L160-.L152)/2
 2333 007e 31       		.byte	(.L160-.L152)/2
 2334 007f 31       		.byte	(.L160-.L152)/2
 2335 0080 31       		.byte	(.L160-.L152)/2
 2336 0081 31       		.byte	(.L160-.L152)/2
 2337 0082 31       		.byte	(.L160-.L152)/2
 2338 0083 0D       		.byte	(.L150-.L152)/2
 2339 0084 31       		.byte	(.L160-.L152)/2
 2340 0085 0F       		.byte	(.L151-.L152)/2
 2341              		.p2align 1
 2342              	.L150:
ARM GAS  C:\Users\fish\AppData\Local\Temp\ccIMbRKB.s 			page 76


 678:../Bsp/ESP01/esp01s.c **** 
 2343              		.loc 1 678 9 is_stmt 1 view .LVU665
 678:../Bsp/ESP01/esp01s.c **** 
 2344              		.loc 1 678 10 is_stmt 0 view .LVU666
 2345 0086 0134     		adds	r4, r4, #1
 2346              	.LVL206:
 678:../Bsp/ESP01/esp01s.c **** 
 2347              		.loc 1 678 10 view .LVU667
 2348 0088 EAE7     		b	.L149
 2349              	.LVL207:
 2350              	.L151:
 682:../Bsp/ESP01/esp01s.c **** 
 2351              		.loc 1 682 5 is_stmt 1 view .LVU668
 682:../Bsp/ESP01/esp01s.c **** 
 2352              		.loc 1 682 6 is_stmt 0 view .LVU669
 2353 008a 671C     		adds	r7, r4, #1
 2354              	.LVL208:
 684:../Bsp/ESP01/esp01s.c ****     if (end == NULL)
 2355              		.loc 1 684 5 is_stmt 1 view .LVU670
 684:../Bsp/ESP01/esp01s.c ****     if (end == NULL)
 2356              		.loc 1 684 11 is_stmt 0 view .LVU671
 2357 008c 2221     		movs	r1, #34
 2358 008e 3846     		mov	r0, r7
 2359 0090 FFF7FEFF 		bl	strchr
 2360              	.LVL209:
 685:../Bsp/ESP01/esp01s.c ****         return NULL;
 2361              		.loc 1 685 5 is_stmt 1 view .LVU672
 685:../Bsp/ESP01/esp01s.c ****         return NULL;
 2362              		.loc 1 685 8 is_stmt 0 view .LVU673
 2363 0094 0446     		mov	r4, r0
 2364 0096 98B1     		cbz	r0, .L143
 688:../Bsp/ESP01/esp01s.c ****     if (len >= outSize)
 2365              		.loc 1 688 5 is_stmt 1 view .LVU674
 688:../Bsp/ESP01/esp01s.c ****     if (len >= outSize)
 2366              		.loc 1 688 26 is_stmt 0 view .LVU675
 2367 0098 C41B     		subs	r4, r0, r7
 688:../Bsp/ESP01/esp01s.c ****     if (len >= outSize)
 2368              		.loc 1 688 9 view .LVU676
 2369 009a A4B2     		uxth	r4, r4
 2370              	.LVL210:
 689:../Bsp/ESP01/esp01s.c ****         len = outSize - 1;
 2371              		.loc 1 689 5 is_stmt 1 view .LVU677
 689:../Bsp/ESP01/esp01s.c ****         len = outSize - 1;
 2372              		.loc 1 689 8 is_stmt 0 view .LVU678
 2373 009c A642     		cmp	r6, r4
 2374 009e 01D8     		bhi	.L153
 690:../Bsp/ESP01/esp01s.c **** 
 2375              		.loc 1 690 9 is_stmt 1 view .LVU679
 690:../Bsp/ESP01/esp01s.c **** 
 2376              		.loc 1 690 13 is_stmt 0 view .LVU680
 2377 00a0 013E     		subs	r6, r6, #1
 2378              	.LVL211:
 690:../Bsp/ESP01/esp01s.c **** 
 2379              		.loc 1 690 13 view .LVU681
 2380 00a2 B4B2     		uxth	r4, r6
 2381              	.LVL212:
 2382              	.L153:
ARM GAS  C:\Users\fish\AppData\Local\Temp\ccIMbRKB.s 			page 77


 692:../Bsp/ESP01/esp01s.c ****     out[len] = '\0';
 2383              		.loc 1 692 5 is_stmt 1 view .LVU682
 2384 00a4 2246     		mov	r2, r4
 2385 00a6 3946     		mov	r1, r7
 2386 00a8 2846     		mov	r0, r5
 2387              	.LVL213:
 692:../Bsp/ESP01/esp01s.c ****     out[len] = '\0';
 2388              		.loc 1 692 5 is_stmt 0 view .LVU683
 2389 00aa FFF7FEFF 		bl	memcpy
 2390              	.LVL214:
 693:../Bsp/ESP01/esp01s.c ****     return out;
 2391              		.loc 1 693 5 is_stmt 1 view .LVU684
 693:../Bsp/ESP01/esp01s.c ****     return out;
 2392              		.loc 1 693 14 is_stmt 0 view .LVU685
 2393 00ae 0023     		movs	r3, #0
 2394 00b0 2B55     		strb	r3, [r5, r4]
 694:../Bsp/ESP01/esp01s.c **** }
 2395              		.loc 1 694 5 is_stmt 1 view .LVU686
 694:../Bsp/ESP01/esp01s.c **** }
 2396              		.loc 1 694 12 is_stmt 0 view .LVU687
 2397 00b2 2C46     		mov	r4, r5
 2398              	.LVL215:
 694:../Bsp/ESP01/esp01s.c **** }
 2399              		.loc 1 694 12 view .LVU688
 2400 00b4 04E0     		b	.L143
 2401              	.LVL216:
 2402              	.L155:
 661:../Bsp/ESP01/esp01s.c **** 
 2403              		.loc 1 661 16 view .LVU689
 2404 00b6 0C46     		mov	r4, r1
 2405 00b8 02E0     		b	.L143
 2406              	.L156:
 661:../Bsp/ESP01/esp01s.c **** 
 2407              		.loc 1 661 16 view .LVU690
 2408 00ba 1446     		mov	r4, r2
 2409 00bc 00E0     		b	.L143
 2410              	.L157:
 661:../Bsp/ESP01/esp01s.c **** 
 2411              		.loc 1 661 16 view .LVU691
 2412 00be 0024     		movs	r4, #0
 2413              	.LVL217:
 2414              	.L143:
 695:../Bsp/ESP01/esp01s.c **** 
 2415              		.loc 1 695 1 view .LVU692
 2416 00c0 2046     		mov	r0, r4
 2417 00c2 07B0     		add	sp, sp, #28
 2418              		.cfi_remember_state
 2419              		.cfi_def_cfa_offset 20
 2420              		@ sp needed
 2421 00c4 F0BD     		pop	{r4, r5, r6, r7, pc}
 2422              	.LVL218:
 2423              	.L158:
 2424              		.cfi_restore_state
 672:../Bsp/ESP01/esp01s.c ****         p++;
 2425              		.loc 1 672 12 view .LVU693
 2426 00c6 0024     		movs	r4, #0
 2427              	.LVL219:
ARM GAS  C:\Users\fish\AppData\Local\Temp\ccIMbRKB.s 			page 78


 672:../Bsp/ESP01/esp01s.c ****         p++;
 2428              		.loc 1 672 12 view .LVU694
 2429 00c8 FAE7     		b	.L143
 2430              	.LVL220:
 2431              	.L162:
 672:../Bsp/ESP01/esp01s.c ****         p++;
 2432              		.loc 1 672 12 view .LVU695
 2433 00ca 0024     		movs	r4, #0
 2434              	.LVL221:
 672:../Bsp/ESP01/esp01s.c ****         p++;
 2435              		.loc 1 672 12 view .LVU696
 2436 00cc F8E7     		b	.L143
 2437              	.LVL222:
 2438              	.L160:
 677:../Bsp/ESP01/esp01s.c ****         p++;
 2439              		.loc 1 677 12 view .LVU697
 2440 00ce 0024     		movs	r4, #0
 2441              	.LVL223:
 677:../Bsp/ESP01/esp01s.c ****         p++;
 2442              		.loc 1 677 12 view .LVU698
 2443 00d0 F6E7     		b	.L143
 2444              	.L164:
 2445 00d2 00BF     		.align	2
 2446              	.L163:
 2447 00d4 00000000 		.word	.LC40
 2448              		.cfi_endproc
 2449              	.LFE266:
 2451              		.section	.text.ESP01S_Init,"ax",%progbits
 2452              		.align	1
 2453              		.global	ESP01S_Init
 2454              		.syntax unified
 2455              		.thumb
 2456              		.thumb_func
 2458              	ESP01S_Init:
 2459              	.LVL224:
 2460              	.LFB246:
 125:../Bsp/ESP01/esp01s.c ****     if (pUartDrv == NULL)
 2461              		.loc 1 125 1 is_stmt 1 view -0
 2462              		.cfi_startproc
 2463              		@ args = 0, pretend = 0, frame = 0
 2464              		@ frame_needed = 0, uses_anonymous_args = 0
 126:../Bsp/ESP01/esp01s.c ****         return;
 2465              		.loc 1 126 5 view .LVU700
 126:../Bsp/ESP01/esp01s.c ****         return;
 2466              		.loc 1 126 8 is_stmt 0 view .LVU701
 2467 0000 A8B1     		cbz	r0, .L168
 125:../Bsp/ESP01/esp01s.c ****     if (pUartDrv == NULL)
 2468              		.loc 1 125 1 view .LVU702
 2469 0002 38B5     		push	{r3, r4, r5, lr}
 2470              		.cfi_def_cfa_offset 16
 2471              		.cfi_offset 3, -16
 2472              		.cfi_offset 4, -12
 2473              		.cfi_offset 5, -8
 2474              		.cfi_offset 14, -4
 2475 0004 0546     		mov	r5, r0
 130:../Bsp/ESP01/esp01s.c **** 
 2476              		.loc 1 130 5 is_stmt 1 view .LVU703
ARM GAS  C:\Users\fish\AppData\Local\Temp\ccIMbRKB.s 			page 79


 2477 0006 0A4C     		ldr	r4, .L171
 2478 0008 40F24452 		movw	r2, #1348
 2479 000c 0021     		movs	r1, #0
 2480 000e 2046     		mov	r0, r4
 2481              	.LVL225:
 130:../Bsp/ESP01/esp01s.c **** 
 2482              		.loc 1 130 5 is_stmt 0 view .LVU704
 2483 0010 FFF7FEFF 		bl	memset
 2484              	.LVL226:
 133:../Bsp/ESP01/esp01s.c **** 
 2485              		.loc 1 133 5 is_stmt 1 view .LVU705
 133:../Bsp/ESP01/esp01s.c **** 
 2486              		.loc 1 133 23 is_stmt 0 view .LVU706
 2487 0014 2046     		mov	r0, r4
 2488 0016 40F8045B 		str	r5, [r0], #4
 136:../Bsp/ESP01/esp01s.c **** 
 2489              		.loc 1 136 5 is_stmt 1 view .LVU707
 2490 001a C422     		movs	r2, #196
 2491 001c 0549     		ldr	r1, .L171+4
 2492 001e FFF7FEFF 		bl	memcpy
 2493              	.LVL227:
 139:../Bsp/ESP01/esp01s.c **** 
 2494              		.loc 1 139 5 view .LVU708
 143:../Bsp/ESP01/esp01s.c **** }
 2495              		.loc 1 143 5 view .LVU709
 2496 0022 2246     		mov	r2, r4
 2497 0024 0449     		ldr	r1, .L171+8
 2498 0026 2846     		mov	r0, r5
 2499 0028 FFF7FEFF 		bl	UartDrv_RegisterRxCb
 2500              	.LVL228:
 144:../Bsp/ESP01/esp01s.c **** 
 2501              		.loc 1 144 1 is_stmt 0 view .LVU710
 2502 002c 38BD     		pop	{r3, r4, r5, pc}
 2503              	.LVL229:
 2504              	.L168:
 2505              		.cfi_def_cfa_offset 0
 2506              		.cfi_restore 3
 2507              		.cfi_restore 4
 2508              		.cfi_restore 5
 2509              		.cfi_restore 14
 144:../Bsp/ESP01/esp01s.c **** 
 2510              		.loc 1 144 1 view .LVU711
 2511 002e 7047     		bx	lr
 2512              	.L172:
 2513              		.align	2
 2514              	.L171:
 2515 0030 00000000 		.word	s_esp01s
 2516 0034 00000000 		.word	s_defaultConfig
 2517 0038 00000000 		.word	ESP01S_RxCallback
 2518              		.cfi_endproc
 2519              	.LFE246:
 2521              		.section	.text.ESP01S_RegisterRxQueue,"ax",%progbits
 2522              		.align	1
 2523              		.global	ESP01S_RegisterRxQueue
 2524              		.syntax unified
 2525              		.thumb
 2526              		.thumb_func
ARM GAS  C:\Users\fish\AppData\Local\Temp\ccIMbRKB.s 			page 80


 2528              	ESP01S_RegisterRxQueue:
 2529              	.LVL230:
 2530              	.LFB247:
 151:../Bsp/ESP01/esp01s.c ****     s_esp01s.rxQueue = queue;
 2531              		.loc 1 151 1 is_stmt 1 view -0
 2532              		.cfi_startproc
 2533              		@ args = 0, pretend = 0, frame = 0
 2534              		@ frame_needed = 0, uses_anonymous_args = 0
 2535              		@ link register save eliminated.
 152:../Bsp/ESP01/esp01s.c **** }
 2536              		.loc 1 152 5 view .LVU713
 152:../Bsp/ESP01/esp01s.c **** }
 2537              		.loc 1 152 22 is_stmt 0 view .LVU714
 2538 0000 014B     		ldr	r3, .L174
 2539 0002 C3F81401 		str	r0, [r3, #276]
 153:../Bsp/ESP01/esp01s.c **** #endif
 2540              		.loc 1 153 1 view .LVU715
 2541 0006 7047     		bx	lr
 2542              	.L175:
 2543              		.align	2
 2544              	.L174:
 2545 0008 00000000 		.word	s_esp01s
 2546              		.cfi_endproc
 2547              	.LFE247:
 2549              		.section	.text.ESP01S_DispatchTransparentData,"ax",%progbits
 2550              		.align	1
 2551              		.global	ESP01S_DispatchTransparentData
 2552              		.syntax unified
 2553              		.thumb
 2554              		.thumb_func
 2556              	ESP01S_DispatchTransparentData:
 2557              	.LVL231:
 2558              	.LFB248:
 160:../Bsp/ESP01/esp01s.c ****     if (pData == NULL || len == 0)
 2559              		.loc 1 160 1 is_stmt 1 view -0
 2560              		.cfi_startproc
 2561              		@ args = 0, pretend = 0, frame = 0
 2562              		@ frame_needed = 0, uses_anonymous_args = 0
 161:../Bsp/ESP01/esp01s.c ****         return;
 2563              		.loc 1 161 5 view .LVU717
 161:../Bsp/ESP01/esp01s.c ****         return;
 2564              		.loc 1 161 8 is_stmt 0 view .LVU718
 2565 0000 50B1     		cbz	r0, .L179
 161:../Bsp/ESP01/esp01s.c ****         return;
 2566              		.loc 1 161 23 discriminator 1 view .LVU719
 2567 0002 49B1     		cbz	r1, .L179
 160:../Bsp/ESP01/esp01s.c ****     if (pData == NULL || len == 0)
 2568              		.loc 1 160 1 view .LVU720
 2569 0004 08B5     		push	{r3, lr}
 2570              		.cfi_def_cfa_offset 8
 2571              		.cfi_offset 3, -8
 2572              		.cfi_offset 14, -4
 164:../Bsp/ESP01/esp01s.c ****     {
 2573              		.loc 1 164 5 is_stmt 1 view .LVU721
 164:../Bsp/ESP01/esp01s.c ****     {
 2574              		.loc 1 164 17 is_stmt 0 view .LVU722
 2575 0006 054B     		ldr	r3, .L182
ARM GAS  C:\Users\fish\AppData\Local\Temp\ccIMbRKB.s 			page 81


 2576 0008 D3F80C31 		ldr	r3, [r3, #268]
 164:../Bsp/ESP01/esp01s.c ****     {
 2577              		.loc 1 164 8 view .LVU723
 2578 000c 1BB1     		cbz	r3, .L176
 166:../Bsp/ESP01/esp01s.c ****     }
 2579              		.loc 1 166 9 is_stmt 1 view .LVU724
 2580 000e 034A     		ldr	r2, .L182
 2581 0010 D2F81021 		ldr	r2, [r2, #272]
 2582 0014 9847     		blx	r3
 2583              	.LVL232:
 2584              	.L176:
 168:../Bsp/ESP01/esp01s.c **** 
 2585              		.loc 1 168 1 is_stmt 0 view .LVU725
 2586 0016 08BD     		pop	{r3, pc}
 2587              	.LVL233:
 2588              	.L179:
 2589              		.cfi_def_cfa_offset 0
 2590              		.cfi_restore 3
 2591              		.cfi_restore 14
 168:../Bsp/ESP01/esp01s.c **** 
 2592              		.loc 1 168 1 view .LVU726
 2593 0018 7047     		bx	lr
 2594              	.L183:
 2595 001a 00BF     		.align	2
 2596              	.L182:
 2597 001c 00000000 		.word	s_esp01s
 2598              		.cfi_endproc
 2599              	.LFE248:
 2601              		.section	.text.ESP01S_SetConfig,"ax",%progbits
 2602              		.align	1
 2603              		.global	ESP01S_SetConfig
 2604              		.syntax unified
 2605              		.thumb
 2606              		.thumb_func
 2608              	ESP01S_SetConfig:
 2609              	.LVL234:
 2610              	.LFB251:
 308:../Bsp/ESP01/esp01s.c ****     if (pConfig == NULL)
 2611              		.loc 1 308 1 is_stmt 1 view -0
 2612              		.cfi_startproc
 2613              		@ args = 0, pretend = 0, frame = 0
 2614              		@ frame_needed = 0, uses_anonymous_args = 0
 309:../Bsp/ESP01/esp01s.c ****         return;
 2615              		.loc 1 309 5 view .LVU728
 309:../Bsp/ESP01/esp01s.c ****         return;
 2616              		.loc 1 309 8 is_stmt 0 view .LVU729
 2617 0000 30B1     		cbz	r0, .L187
 308:../Bsp/ESP01/esp01s.c ****     if (pConfig == NULL)
 2618              		.loc 1 308 1 view .LVU730
 2619 0002 08B5     		push	{r3, lr}
 2620              		.cfi_def_cfa_offset 8
 2621              		.cfi_offset 3, -8
 2622              		.cfi_offset 14, -4
 2623 0004 0146     		mov	r1, r0
 312:../Bsp/ESP01/esp01s.c **** }
 2624              		.loc 1 312 5 is_stmt 1 view .LVU731
 2625 0006 C422     		movs	r2, #196
ARM GAS  C:\Users\fish\AppData\Local\Temp\ccIMbRKB.s 			page 82


 2626 0008 0248     		ldr	r0, .L190
 2627              	.LVL235:
 312:../Bsp/ESP01/esp01s.c **** }
 2628              		.loc 1 312 5 is_stmt 0 view .LVU732
 2629 000a FFF7FEFF 		bl	memcpy
 2630              	.LVL236:
 313:../Bsp/ESP01/esp01s.c **** 
 2631              		.loc 1 313 1 view .LVU733
 2632 000e 08BD     		pop	{r3, pc}
 2633              	.LVL237:
 2634              	.L187:
 2635              		.cfi_def_cfa_offset 0
 2636              		.cfi_restore 3
 2637              		.cfi_restore 14
 313:../Bsp/ESP01/esp01s.c **** 
 2638              		.loc 1 313 1 view .LVU734
 2639 0010 7047     		bx	lr
 2640              	.L191:
 2641 0012 00BF     		.align	2
 2642              	.L190:
 2643 0014 04000000 		.word	s_esp01s+4
 2644              		.cfi_endproc
 2645              	.LFE251:
 2647              		.section	.text.ESP01S_GetConfig,"ax",%progbits
 2648              		.align	1
 2649              		.global	ESP01S_GetConfig
 2650              		.syntax unified
 2651              		.thumb
 2652              		.thumb_func
 2654              	ESP01S_GetConfig:
 2655              	.LFB252:
 320:../Bsp/ESP01/esp01s.c ****     return &s_esp01s.config;
 2656              		.loc 1 320 1 is_stmt 1 view -0
 2657              		.cfi_startproc
 2658              		@ args = 0, pretend = 0, frame = 0
 2659              		@ frame_needed = 0, uses_anonymous_args = 0
 2660              		@ link register save eliminated.
 321:../Bsp/ESP01/esp01s.c **** }
 2661              		.loc 1 321 5 view .LVU736
 322:../Bsp/ESP01/esp01s.c **** 
 2662              		.loc 1 322 1 is_stmt 0 view .LVU737
 2663 0000 0048     		ldr	r0, .L193
 2664 0002 7047     		bx	lr
 2665              	.L194:
 2666              		.align	2
 2667              	.L193:
 2668 0004 04000000 		.word	s_esp01s+4
 2669              		.cfi_endproc
 2670              	.LFE252:
 2672              		.section	.text.ESP01S_SetWiFi,"ax",%progbits
 2673              		.align	1
 2674              		.global	ESP01S_SetWiFi
 2675              		.syntax unified
 2676              		.thumb
 2677              		.thumb_func
 2679              	ESP01S_SetWiFi:
 2680              	.LVL238:
ARM GAS  C:\Users\fish\AppData\Local\Temp\ccIMbRKB.s 			page 83


 2681              	.LFB253:
 331:../Bsp/ESP01/esp01s.c ****     if (ssid != NULL)
 2682              		.loc 1 331 1 is_stmt 1 view -0
 2683              		.cfi_startproc
 2684              		@ args = 0, pretend = 0, frame = 0
 2685              		@ frame_needed = 0, uses_anonymous_args = 0
 331:../Bsp/ESP01/esp01s.c ****     if (ssid != NULL)
 2686              		.loc 1 331 1 is_stmt 0 view .LVU739
 2687 0000 38B5     		push	{r3, r4, r5, lr}
 2688              		.cfi_def_cfa_offset 16
 2689              		.cfi_offset 3, -16
 2690              		.cfi_offset 4, -12
 2691              		.cfi_offset 5, -8
 2692              		.cfi_offset 14, -4
 2693 0002 0C46     		mov	r4, r1
 332:../Bsp/ESP01/esp01s.c ****     {
 2694              		.loc 1 332 5 is_stmt 1 view .LVU740
 332:../Bsp/ESP01/esp01s.c ****     {
 2695              		.loc 1 332 8 is_stmt 0 view .LVU741
 2696 0004 38B1     		cbz	r0, .L196
 2697 0006 0146     		mov	r1, r0
