ARM GAS  C:\Users\fish\AppData\Local\Temp\ccm1FGe1.s 			page 1


   1              		.cpu cortex-m4
   2              		.arch armv7e-m
   3              		.fpu fpv4-sp-d16
   4              		.eabi_attribute 27, 1
   5              		.eabi_attribute 28, 1
   6              		.eabi_attribute 20, 1
   7              		.eabi_attribute 21, 1
   8              		.eabi_attribute 23, 3
   9              		.eabi_attribute 24, 1
  10              		.eabi_attribute 25, 1
  11              		.eabi_attribute 26, 1
  12              		.eabi_attribute 30, 1
  13              		.eabi_attribute 34, 1
  14              		.eabi_attribute 18, 4
  15              		.file	"queue.c"
  16              		.text
  17              		.section	.text.prvGetDisinheritPriorityAfterTimeout,"ax",%progbits
  18              		.align	1
  19              		.syntax unified
  20              		.thumb
  21              		.thumb_func
  23              	prvGetDisinheritPriorityAfterTimeout:
  24              		@ args = 0, pretend = 0, frame = 0
  25              		@ frame_needed = 0, uses_anonymous_args = 0
  26              		@ link register save eliminated.
  27 0000 0346     		mov	r3, r0
  28 0002 406A     		ldr	r0, [r0, #36]
  29 0004 18B1     		cbz	r0, .L1
  30 0006 1B6B     		ldr	r3, [r3, #48]
  31 0008 1868     		ldr	r0, [r3]
  32 000a C0F13800 		rsb	r0, r0, #56
  33              	.L1:
  34 000e 7047     		bx	lr
  36              		.section	.text.prvIsQueueFull,"ax",%progbits
  37              		.align	1
  38              		.syntax unified
  39              		.thumb
  40              		.thumb_func
  42              	prvIsQueueFull:
  43              		@ args = 0, pretend = 0, frame = 0
  44              		@ frame_needed = 0, uses_anonymous_args = 0
  45 0000 10B5     		push	{r4, lr}
  46 0002 0446     		mov	r4, r0
  47 0004 FFF7FEFF 		bl	vPortEnterCritical
  48 0008 A26B     		ldr	r2, [r4, #56]
  49 000a E36B     		ldr	r3, [r4, #60]
  50 000c 9A42     		cmp	r2, r3
  51 000e 04D0     		beq	.L7
  52 0010 0024     		movs	r4, #0
  53              	.L4:
  54 0012 FFF7FEFF 		bl	vPortExitCritical
  55 0016 2046     		mov	r0, r4
  56 0018 10BD     		pop	{r4, pc}
  57              	.L7:
  58 001a 0124     		movs	r4, #1
  59 001c F9E7     		b	.L4
  61              		.section	.text.prvIsQueueEmpty,"ax",%progbits
ARM GAS  C:\Users\fish\AppData\Local\Temp\ccm1FGe1.s 			page 2


  62              		.align	1
  63              		.syntax unified
  64              		.thumb
  65              		.thumb_func
  67              	prvIsQueueEmpty:
  68              		@ args = 0, pretend = 0, frame = 0
  69              		@ frame_needed = 0, uses_anonymous_args = 0
  70 0000 10B5     		push	{r4, lr}
  71 0002 0446     		mov	r4, r0
  72 0004 FFF7FEFF 		bl	vPortEnterCritical
  73 0008 A36B     		ldr	r3, [r4, #56]
  74 000a 23B9     		cbnz	r3, .L10
  75 000c 0124     		movs	r4, #1
  76              	.L9:
  77 000e FFF7FEFF 		bl	vPortExitCritical
  78 0012 2046     		mov	r0, r4
  79 0014 10BD     		pop	{r4, pc}
  80              	.L10:
  81 0016 0024     		movs	r4, #0
  82 0018 F9E7     		b	.L9
  84              		.section	.text.prvCopyDataToQueue,"ax",%progbits
  85              		.align	1
  86              		.syntax unified
  87              		.thumb
  88              		.thumb_func
  90              	prvCopyDataToQueue:
  91              		@ args = 0, pretend = 0, frame = 0
  92              		@ frame_needed = 0, uses_anonymous_args = 0
  93 0000 70B5     		push	{r4, r5, r6, lr}
  94 0002 0446     		mov	r4, r0
  95 0004 1546     		mov	r5, r2
  96 0006 866B     		ldr	r6, [r0, #56]
  97 0008 026C     		ldr	r2, [r0, #64]
  98 000a 5AB9     		cbnz	r2, .L13
  99 000c 0368     		ldr	r3, [r0]
 100 000e 1BB1     		cbz	r3, .L22
 101 0010 0020     		movs	r0, #0
 102              	.L14:
 103 0012 0136     		adds	r6, r6, #1
 104 0014 A663     		str	r6, [r4, #56]
 105 0016 70BD     		pop	{r4, r5, r6, pc}
 106              	.L22:
 107 0018 8068     		ldr	r0, [r0, #8]
 108 001a FFF7FEFF 		bl	xTaskPriorityDisinherit
 109 001e 0023     		movs	r3, #0
 110 0020 A360     		str	r3, [r4, #8]
 111 0022 F6E7     		b	.L14
 112              	.L13:
 113 0024 6DB9     		cbnz	r5, .L15
 114 0026 4068     		ldr	r0, [r0, #4]
 115 0028 FFF7FEFF 		bl	memcpy
 116 002c 6368     		ldr	r3, [r4, #4]
 117 002e 226C     		ldr	r2, [r4, #64]
 118 0030 1344     		add	r3, r3, r2
 119 0032 6360     		str	r3, [r4, #4]
 120 0034 A268     		ldr	r2, [r4, #8]
 121 0036 9342     		cmp	r3, r2
ARM GAS  C:\Users\fish\AppData\Local\Temp\ccm1FGe1.s 			page 3


 122 0038 19D3     		bcc	.L18
 123 003a 2368     		ldr	r3, [r4]
 124 003c 6360     		str	r3, [r4, #4]
 125 003e 2846     		mov	r0, r5
 126 0040 E7E7     		b	.L14
 127              	.L15:
 128 0042 C068     		ldr	r0, [r0, #12]
 129 0044 FFF7FEFF 		bl	memcpy
 130 0048 E368     		ldr	r3, [r4, #12]
 131 004a 226C     		ldr	r2, [r4, #64]
 132 004c 5142     		rsbs	r1, r2, #0
 133 004e 9B1A     		subs	r3, r3, r2
 134 0050 E360     		str	r3, [r4, #12]
 135 0052 2268     		ldr	r2, [r4]
 136 0054 9342     		cmp	r3, r2
 137 0056 02D2     		bcs	.L16
 138 0058 A368     		ldr	r3, [r4, #8]
 139 005a 0B44     		add	r3, r3, r1
 140 005c E360     		str	r3, [r4, #12]
 141              	.L16:
 142 005e 022D     		cmp	r5, #2
 143 0060 01D0     		beq	.L23
 144 0062 0020     		movs	r0, #0
 145 0064 D5E7     		b	.L14
 146              	.L23:
 147 0066 26B1     		cbz	r6, .L20
 148 0068 013E     		subs	r6, r6, #1
 149 006a 0020     		movs	r0, #0
 150 006c D1E7     		b	.L14
 151              	.L18:
 152 006e 2846     		mov	r0, r5
 153 0070 CFE7     		b	.L14
 154              	.L20:
 155 0072 0020     		movs	r0, #0
 156 0074 CDE7     		b	.L14
 158              		.section	.text.prvCopyDataFromQueue,"ax",%progbits
 159              		.align	1
 160              		.syntax unified
 161              		.thumb
 162              		.thumb_func
 164              	prvCopyDataFromQueue:
 165              		@ args = 0, pretend = 0, frame = 0
 166              		@ frame_needed = 0, uses_anonymous_args = 0
 167 0000 0346     		mov	r3, r0
 168 0002 026C     		ldr	r2, [r0, #64]
 169 0004 6AB1     		cbz	r2, .L28
 170 0006 10B5     		push	{r4, lr}
 171 0008 0846     		mov	r0, r1
 172 000a D968     		ldr	r1, [r3, #12]
 173 000c 1144     		add	r1, r1, r2
 174 000e D960     		str	r1, [r3, #12]
 175 0010 9C68     		ldr	r4, [r3, #8]
 176 0012 A142     		cmp	r1, r4
 177 0014 01D3     		bcc	.L26
 178 0016 1968     		ldr	r1, [r3]
 179 0018 D960     		str	r1, [r3, #12]
 180              	.L26:
ARM GAS  C:\Users\fish\AppData\Local\Temp\ccm1FGe1.s 			page 4


 181 001a D968     		ldr	r1, [r3, #12]
 182 001c FFF7FEFF 		bl	memcpy
 183 0020 10BD     		pop	{r4, pc}
 184              	.L28:
 185 0022 7047     		bx	lr
 187              		.section	.text.prvUnlockQueue,"ax",%progbits
 188              		.align	1
 189              		.syntax unified
 190              		.thumb
 191              		.thumb_func
 193              	prvUnlockQueue:
 194              		@ args = 0, pretend = 0, frame = 0
 195              		@ frame_needed = 0, uses_anonymous_args = 0
 196 0000 38B5     		push	{r3, r4, r5, lr}
 197 0002 0546     		mov	r5, r0
 198 0004 FFF7FEFF 		bl	vPortEnterCritical
 199 0008 95F84540 		ldrb	r4, [r5, #69]	@ zero_extendqisi2
 200 000c 64B2     		sxtb	r4, r4
 201 000e 01E0     		b	.L32
 202              	.L34:
 203 0010 013C     		subs	r4, r4, #1
 204 0012 64B2     		sxtb	r4, r4
 205              	.L32:
 206 0014 002C     		cmp	r4, #0
 207 0016 0ADD     		ble	.L33
 208 0018 6B6A     		ldr	r3, [r5, #36]
 209 001a 43B1     		cbz	r3, .L33
 210 001c 05F12400 		add	r0, r5, #36
 211 0020 FFF7FEFF 		bl	xTaskRemoveFromEventList
 212 0024 0028     		cmp	r0, #0
 213 0026 F3D0     		beq	.L34
 214 0028 FFF7FEFF 		bl	vTaskMissedYield
 215 002c F0E7     		b	.L34
 216              	.L33:
 217 002e FF23     		movs	r3, #255
 218 0030 85F84530 		strb	r3, [r5, #69]
 219 0034 FFF7FEFF 		bl	vPortExitCritical
 220 0038 FFF7FEFF 		bl	vPortEnterCritical
 221 003c 95F84440 		ldrb	r4, [r5, #68]	@ zero_extendqisi2
 222 0040 64B2     		sxtb	r4, r4
 223 0042 01E0     		b	.L36
 224              	.L38:
 225 0044 013C     		subs	r4, r4, #1
 226 0046 64B2     		sxtb	r4, r4
 227              	.L36:
 228 0048 002C     		cmp	r4, #0
 229 004a 0ADD     		ble	.L37
 230 004c 2B69     		ldr	r3, [r5, #16]
 231 004e 43B1     		cbz	r3, .L37
 232 0050 05F11000 		add	r0, r5, #16
 233 0054 FFF7FEFF 		bl	xTaskRemoveFromEventList
 234 0058 0028     		cmp	r0, #0
 235 005a F3D0     		beq	.L38
 236 005c FFF7FEFF 		bl	vTaskMissedYield
 237 0060 F0E7     		b	.L38
 238              	.L37:
 239 0062 FF23     		movs	r3, #255
ARM GAS  C:\Users\fish\AppData\Local\Temp\ccm1FGe1.s 			page 5


 240 0064 85F84430 		strb	r3, [r5, #68]
 241 0068 FFF7FEFF 		bl	vPortExitCritical
 242 006c 38BD     		pop	{r3, r4, r5, pc}
 244              		.section	.text.xQueueGenericReset,"ax",%progbits
 245              		.align	1
 246              		.global	xQueueGenericReset
 247              		.syntax unified
 248              		.thumb
 249              		.thumb_func
 251              	xQueueGenericReset:
 252              		@ args = 0, pretend = 0, frame = 0
 253              		@ frame_needed = 0, uses_anonymous_args = 0
 254 0000 38B5     		push	{r3, r4, r5, lr}
 255 0002 E0B1     		cbz	r0, .L47
 256 0004 0D46     		mov	r5, r1
 257 0006 0446     		mov	r4, r0
 258 0008 FFF7FEFF 		bl	vPortEnterCritical
 259 000c 2368     		ldr	r3, [r4]
 260 000e E26B     		ldr	r2, [r4, #60]
 261 0010 216C     		ldr	r1, [r4, #64]
 262 0012 01FB0230 		mla	r0, r1, r2, r3
 263 0016 A060     		str	r0, [r4, #8]
 264 0018 0020     		movs	r0, #0
 265 001a A063     		str	r0, [r4, #56]
 266 001c 6360     		str	r3, [r4, #4]
 267 001e 013A     		subs	r2, r2, #1
 268 0020 02FB0133 		mla	r3, r2, r1, r3
 269 0024 E360     		str	r3, [r4, #12]
 270 0026 FF23     		movs	r3, #255
 271 0028 84F84430 		strb	r3, [r4, #68]
 272 002c 84F84530 		strb	r3, [r4, #69]
 273 0030 FDB9     		cbnz	r5, .L44
 274 0032 2369     		ldr	r3, [r4, #16]
 275 0034 63B9     		cbnz	r3, .L48
 276              	.L45:
 277 0036 FFF7FEFF 		bl	vPortExitCritical
 278 003a 0120     		movs	r0, #1
 279 003c 38BD     		pop	{r3, r4, r5, pc}
 280              	.L47:
 281              		.syntax unified
 282              	@ 195 "Middlewares/Third_Party/FreeRTOS/Source/portable/GCC/ARM_CM4F/portmacro.h" 1
 283 003e 4FF05003 			mov r3, #80												
 284 0042 83F31188 		msr basepri, r3											
 285 0046 BFF36F8F 		isb														
 286 004a BFF34F8F 		dsb														
 287              	
 288              	@ 0 "" 2
 289              		.thumb
 290              		.syntax unified
 291              	.L43:
 292 004e FEE7     		b	.L43
 293              	.L48:
 294 0050 04F11000 		add	r0, r4, #16
 295 0054 FFF7FEFF 		bl	xTaskRemoveFromEventList
 296 0058 0028     		cmp	r0, #0
 297 005a ECD0     		beq	.L45
 298 005c 4FF0E023 		mov	r3, #-536813568
ARM GAS  C:\Users\fish\AppData\Local\Temp\ccm1FGe1.s 			page 6


 299 0060 4FF08052 		mov	r2, #268435456
 300 0064 C3F8042D 		str	r2, [r3, #3332]
 301              		.syntax unified
 302              	@ 281 "Middlewares/Third_Party/FreeRTOS/Source/queue.c" 1
 303 0068 BFF34F8F 		dsb
 304              	@ 0 "" 2
 305              	@ 281 "Middlewares/Third_Party/FreeRTOS/Source/queue.c" 1
 306 006c BFF36F8F 		isb
 307              	@ 0 "" 2
 308              		.thumb
 309              		.syntax unified
 310 0070 E1E7     		b	.L45
 311              	.L44:
 312 0072 04F11000 		add	r0, r4, #16
 313 0076 FFF7FEFF 		bl	vListInitialise
 314 007a 04F12400 		add	r0, r4, #36
 315 007e FFF7FEFF 		bl	vListInitialise
 316 0082 D8E7     		b	.L45
 318              		.section	.text.prvInitialiseNewQueue,"ax",%progbits
 319              		.align	1
 320              		.syntax unified
 321              		.thumb
 322              		.thumb_func
 324              	prvInitialiseNewQueue:
 325              		@ args = 4, pretend = 0, frame = 0
 326              		@ frame_needed = 0, uses_anonymous_args = 0
 327 0000 38B5     		push	{r3, r4, r5, lr}
 328 0002 1D46     		mov	r5, r3
 329 0004 049C     		ldr	r4, [sp, #16]
 330 0006 0B46     		mov	r3, r1
 331 0008 49B9     		cbnz	r1, .L50
 332 000a 2460     		str	r4, [r4]
 333              	.L51:
 334 000c E063     		str	r0, [r4, #60]
 335 000e 2364     		str	r3, [r4, #64]
 336 0010 0121     		movs	r1, #1
 337 0012 2046     		mov	r0, r4
 338 0014 FFF7FEFF 		bl	xQueueGenericReset
 339 0018 84F84C50 		strb	r5, [r4, #76]
 340 001c 38BD     		pop	{r3, r4, r5, pc}
 341              	.L50:
 342 001e 2260     		str	r2, [r4]
 343 0020 F4E7     		b	.L51
 345              		.section	.text.xQueueGenericCreateStatic,"ax",%progbits
 346              		.align	1
 347              		.global	xQueueGenericCreateStatic
 348              		.syntax unified
 349              		.thumb
 350              		.thumb_func
 352              	xQueueGenericCreateStatic:
 353              		@ args = 4, pretend = 0, frame = 8
 354              		@ frame_needed = 0, uses_anonymous_args = 0
 355 0000 40B9     		cbnz	r0, .L54
 356              		.syntax unified
 357              	@ 195 "Middlewares/Third_Party/FreeRTOS/Source/portable/GCC/ARM_CM4F/portmacro.h" 1
 358 0002 4FF05003 			mov r3, #80												
 359 0006 83F31188 		msr basepri, r3											
ARM GAS  C:\Users\fish\AppData\Local\Temp\ccm1FGe1.s 			page 7


 360 000a BFF36F8F 		isb														
 361 000e BFF34F8F 		dsb														
 362              	
 363              	@ 0 "" 2
 364              		.thumb
 365              		.syntax unified
 366              	.L55:
 367 0012 FEE7     		b	.L55
 368              	.L54:
 369 0014 10B5     		push	{r4, lr}
 370 0016 84B0     		sub	sp, sp, #16
 371 0018 1C46     		mov	r4, r3
 372 001a 8446     		mov	ip, r0
 373 001c 53B1     		cbz	r3, .L66
 374 001e 92B1     		cbz	r2, .L58
 375 0020 89B9     		cbnz	r1, .L58
 376              		.syntax unified
 377              	@ 195 "Middlewares/Third_Party/FreeRTOS/Source/portable/GCC/ARM_CM4F/portmacro.h" 1
 378 0022 4FF05003 			mov r3, #80												
 379 0026 83F31188 		msr basepri, r3											
 380 002a BFF36F8F 		isb														
 381 002e BFF34F8F 		dsb														
 382              	
 383              	@ 0 "" 2
 384              		.thumb
 385              		.syntax unified
 386              	.L59:
 387 0032 FEE7     		b	.L59
 388              	.L66:
 389              		.syntax unified
 390              	@ 195 "Middlewares/Third_Party/FreeRTOS/Source/portable/GCC/ARM_CM4F/portmacro.h" 1
 391 0034 4FF05003 			mov r3, #80												
 392 0038 83F31188 		msr basepri, r3											
 393 003c BFF36F8F 		isb														
 394 0040 BFF34F8F 		dsb														
 395              	
 396              	@ 0 "" 2
 397              		.thumb
 398              		.syntax unified
 399              	.L57:
 400 0044 FEE7     		b	.L57
 401              	.L58:
 402 0046 6AB1     		cbz	r2, .L67
 403              	.L60:
 404 0048 5023     		movs	r3, #80
 405 004a 0393     		str	r3, [sp, #12]
 406 004c 039B     		ldr	r3, [sp, #12]
 407 004e 502B     		cmp	r3, #80
 408 0050 13D0     		beq	.L62
 409              		.syntax unified
 410              	@ 195 "Middlewares/Third_Party/FreeRTOS/Source/portable/GCC/ARM_CM4F/portmacro.h" 1
 411 0052 4FF05003 			mov r3, #80												
 412 0056 83F31188 		msr basepri, r3											
 413 005a BFF36F8F 		isb														
 414 005e BFF34F8F 		dsb														
 415              	
 416              	@ 0 "" 2
ARM GAS  C:\Users\fish\AppData\Local\Temp\ccm1FGe1.s 			page 8


 417              		.thumb
 418              		.syntax unified
 419              	.L63:
 420 0062 FEE7     		b	.L63
 421              	.L67:
 422 0064 0029     		cmp	r1, #0
 423 0066 EFD0     		beq	.L60
 424              		.syntax unified
 425              	@ 195 "Middlewares/Third_Party/FreeRTOS/Source/portable/GCC/ARM_CM4F/portmacro.h" 1
 426 0068 4FF05003 			mov r3, #80												
 427 006c 83F31188 		msr basepri, r3											
 428 0070 BFF36F8F 		isb														
 429 0074 BFF34F8F 		dsb														
 430              	
 431              	@ 0 "" 2
 432              		.thumb
 433              		.syntax unified
 434              	.L61:
 435 0078 FEE7     		b	.L61
 436              	.L62:
 437 007a 039B     		ldr	r3, [sp, #12]
 438 007c 0123     		movs	r3, #1
 439 007e 84F84630 		strb	r3, [r4, #70]
 440 0082 0094     		str	r4, [sp]
 441 0084 9DF81830 		ldrb	r3, [sp, #24]	@ zero_extendqisi2
 442 0088 6046     		mov	r0, ip
 443 008a FFF7FEFF 		bl	prvInitialiseNewQueue
 444 008e 2046     		mov	r0, r4
 445 0090 04B0     		add	sp, sp, #16
 446              		@ sp needed
 447 0092 10BD     		pop	{r4, pc}
 449              		.section	.text.xQueueGenericCreate,"ax",%progbits
 450              		.align	1
 451              		.global	xQueueGenericCreate
 452              		.syntax unified
 453              		.thumb
 454              		.thumb_func
 456              	xQueueGenericCreate:
 457              		@ args = 0, pretend = 0, frame = 0
 458              		@ frame_needed = 0, uses_anonymous_args = 0
 459 0000 40B9     		cbnz	r0, .L69
 460              		.syntax unified
 461              	@ 195 "Middlewares/Third_Party/FreeRTOS/Source/portable/GCC/ARM_CM4F/portmacro.h" 1
 462 0002 4FF05003 			mov r3, #80												
 463 0006 83F31188 		msr basepri, r3											
 464 000a BFF36F8F 		isb														
 465 000e BFF34F8F 		dsb														
 466              	
 467              	@ 0 "" 2
 468              		.thumb
 469              		.syntax unified
 470              	.L70:
 471 0012 FEE7     		b	.L70
 472              	.L69:
 473 0014 F0B5     		push	{r4, r5, r6, r7, lr}
 474 0016 83B0     		sub	sp, sp, #12
 475 0018 0D46     		mov	r5, r1
ARM GAS  C:\Users\fish\AppData\Local\Temp\ccm1FGe1.s 			page 9


 476 001a 1446     		mov	r4, r2
 477 001c 0646     		mov	r6, r0
 478 001e 01FB00F0 		mul	r0, r1, r0
 479 0022 5030     		adds	r0, r0, #80
 480 0024 FFF7FEFF 		bl	pvPortMalloc
 481 0028 0746     		mov	r7, r0
 482 002a 50B1     		cbz	r0, .L68
 483 002c 0023     		movs	r3, #0
 484 002e 80F84630 		strb	r3, [r0, #70]
 485 0032 0090     		str	r0, [sp]
 486 0034 2346     		mov	r3, r4
 487 0036 00F15002 		add	r2, r0, #80
 488 003a 2946     		mov	r1, r5
 489 003c 3046     		mov	r0, r6
 490 003e FFF7FEFF 		bl	prvInitialiseNewQueue
 491              	.L68:
 492 0042 3846     		mov	r0, r7
 493 0044 03B0     		add	sp, sp, #12
 494              		@ sp needed
 495 0046 F0BD     		pop	{r4, r5, r6, r7, pc}
 497              		.section	.text.xQueueGetMutexHolder,"ax",%progbits
 498              		.align	1
 499              		.global	xQueueGetMutexHolder
 500              		.syntax unified
 501              		.thumb
 502              		.thumb_func
 504              	xQueueGetMutexHolder:
 505              		@ args = 0, pretend = 0, frame = 0
 506              		@ frame_needed = 0, uses_anonymous_args = 0
 507 0000 10B5     		push	{r4, lr}
 508 0002 0446     		mov	r4, r0
 509 0004 FFF7FEFF 		bl	vPortEnterCritical
 510 0008 2368     		ldr	r3, [r4]
 511 000a 23B9     		cbnz	r3, .L76
 512 000c A468     		ldr	r4, [r4, #8]
 513              	.L75:
 514 000e FFF7FEFF 		bl	vPortExitCritical
 515 0012 2046     		mov	r0, r4
 516 0014 10BD     		pop	{r4, pc}
 517              	.L76:
 518 0016 0024     		movs	r4, #0
 519 0018 F9E7     		b	.L75
 521              		.section	.text.xQueueGetMutexHolderFromISR,"ax",%progbits
 522              		.align	1
 523              		.global	xQueueGetMutexHolderFromISR
 524              		.syntax unified
 525              		.thumb
 526              		.thumb_func
 528              	xQueueGetMutexHolderFromISR:
 529              		@ args = 0, pretend = 0, frame = 0
 530              		@ frame_needed = 0, uses_anonymous_args = 0
 531              		@ link register save eliminated.
 532 0000 18B1     		cbz	r0, .L83
 533 0002 0268     		ldr	r2, [r0]
 534 0004 52B9     		cbnz	r2, .L82
 535 0006 8068     		ldr	r0, [r0, #8]
 536 0008 7047     		bx	lr
ARM GAS  C:\Users\fish\AppData\Local\Temp\ccm1FGe1.s 			page 10


 537              	.L83:
 538              		.syntax unified
 539              	@ 195 "Middlewares/Third_Party/FreeRTOS/Source/portable/GCC/ARM_CM4F/portmacro.h" 1
 540 000a 4FF05003 			mov r3, #80												
 541 000e 83F31188 		msr basepri, r3											
 542 0012 BFF36F8F 		isb														
 543 0016 BFF34F8F 		dsb														
 544              	
 545              	@ 0 "" 2
 546              		.thumb
 547              		.syntax unified
 548              	.L80:
 549 001a FEE7     		b	.L80
 550              	.L82:
 551 001c 0020     		movs	r0, #0
 552 001e 7047     		bx	lr
 554              		.section	.text.xQueueCreateCountingSemaphoreStatic,"ax",%progbits
 555              		.align	1
 556              		.global	xQueueCreateCountingSemaphoreStatic
 557              		.syntax unified
 558              		.thumb
 559              		.thumb_func
 561              	xQueueCreateCountingSemaphoreStatic:
 562              		@ args = 0, pretend = 0, frame = 0
 563              		@ frame_needed = 0, uses_anonymous_args = 0
 564 0000 40B9     		cbnz	r0, .L85
 565              		.syntax unified
 566              	@ 195 "Middlewares/Third_Party/FreeRTOS/Source/portable/GCC/ARM_CM4F/portmacro.h" 1
 567 0002 4FF05003 			mov r3, #80												
 568 0006 83F31188 		msr basepri, r3											
 569 000a BFF36F8F 		isb														
 570 000e BFF34F8F 		dsb														
 571              	
 572              	@ 0 "" 2
 573              		.thumb
 574              		.syntax unified
 575              	.L86:
 576 0012 FEE7     		b	.L86
 577              	.L85:
 578 0014 10B5     		push	{r4, lr}
 579 0016 82B0     		sub	sp, sp, #8
 580 0018 0C46     		mov	r4, r1
 581 001a 8842     		cmp	r0, r1
 582 001c 08D2     		bcs	.L87
 583              		.syntax unified
 584              	@ 195 "Middlewares/Third_Party/FreeRTOS/Source/portable/GCC/ARM_CM4F/portmacro.h" 1
 585 001e 4FF05003 			mov r3, #80												
 586 0022 83F31188 		msr basepri, r3											
 587 0026 BFF36F8F 		isb														
 588 002a BFF34F8F 		dsb														
 589              	
 590              	@ 0 "" 2
 591              		.thumb
 592              		.syntax unified
 593              	.L88:
 594 002e FEE7     		b	.L88
 595              	.L87:
ARM GAS  C:\Users\fish\AppData\Local\Temp\ccm1FGe1.s 			page 11


 596 0030 0223     		movs	r3, #2
 597 0032 0093     		str	r3, [sp]
 598 0034 1346     		mov	r3, r2
 599 0036 0022     		movs	r2, #0
 600 0038 1146     		mov	r1, r2
 601 003a FFF7FEFF 		bl	xQueueGenericCreateStatic
 602 003e 00B1     		cbz	r0, .L84
 603 0040 8463     		str	r4, [r0, #56]
 604              	.L84:
 605 0042 02B0     		add	sp, sp, #8
 606              		@ sp needed
 607 0044 10BD     		pop	{r4, pc}
 609              		.section	.text.xQueueCreateCountingSemaphore,"ax",%progbits
 610              		.align	1
 611              		.global	xQueueCreateCountingSemaphore
 612              		.syntax unified
 613              		.thumb
 614              		.thumb_func
 616              	xQueueCreateCountingSemaphore:
 617              		@ args = 0, pretend = 0, frame = 0
 618              		@ frame_needed = 0, uses_anonymous_args = 0
 619 0000 40B9     		cbnz	r0, .L93
 620              		.syntax unified
 621              	@ 195 "Middlewares/Third_Party/FreeRTOS/Source/portable/GCC/ARM_CM4F/portmacro.h" 1
 622 0002 4FF05003 			mov r3, #80												
 623 0006 83F31188 		msr basepri, r3											
 624 000a BFF36F8F 		isb														
 625 000e BFF34F8F 		dsb														
 626              	
 627              	@ 0 "" 2
 628              		.thumb
 629              		.syntax unified
 630              	.L94:
 631 0012 FEE7     		b	.L94
 632              	.L93:
 633 0014 10B5     		push	{r4, lr}
 634 0016 0C46     		mov	r4, r1
 635 0018 8842     		cmp	r0, r1
 636 001a 08D2     		bcs	.L95
 637              		.syntax unified
 638              	@ 195 "Middlewares/Third_Party/FreeRTOS/Source/portable/GCC/ARM_CM4F/portmacro.h" 1
 639 001c 4FF05003 			mov r3, #80												
 640 0020 83F31188 		msr basepri, r3											
 641 0024 BFF36F8F 		isb														
 642 0028 BFF34F8F 		dsb														
 643              	
 644              	@ 0 "" 2
 645              		.thumb
 646              		.syntax unified
 647              	.L96:
 648 002c FEE7     		b	.L96
 649              	.L95:
 650 002e 0222     		movs	r2, #2
 651 0030 0021     		movs	r1, #0
 652 0032 FFF7FEFF 		bl	xQueueGenericCreate
 653 0036 00B1     		cbz	r0, .L92
 654 0038 8463     		str	r4, [r0, #56]
ARM GAS  C:\Users\fish\AppData\Local\Temp\ccm1FGe1.s 			page 12


 655              	.L92:
 656 003a 10BD     		pop	{r4, pc}
 658              		.section	.text.xQueueGenericSend,"ax",%progbits
 659              		.align	1
 660              		.global	xQueueGenericSend
 661              		.syntax unified
 662              		.thumb
 663              		.thumb_func
 665              	xQueueGenericSend:
 666              		@ args = 0, pretend = 0, frame = 16
 667              		@ frame_needed = 0, uses_anonymous_args = 0
 668 0000 F0B5     		push	{r4, r5, r6, r7, lr}
 669 0002 85B0     		sub	sp, sp, #20
 670 0004 0192     		str	r2, [sp, #4]
 671 0006 88B1     		cbz	r0, .L124
 672 0008 0F46     		mov	r7, r1
 673 000a 1D46     		mov	r5, r3
 674 000c 0446     		mov	r4, r0
 675 000e B1B1     		cbz	r1, .L125
 676              	.L103:
 677 0010 022D     		cmp	r5, #2
 678 0012 20D1     		bne	.L105
 679 0014 E36B     		ldr	r3, [r4, #60]
 680 0016 012B     		cmp	r3, #1
 681 0018 1DD0     		beq	.L105
 682              		.syntax unified
 683              	@ 195 "Middlewares/Third_Party/FreeRTOS/Source/portable/GCC/ARM_CM4F/portmacro.h" 1
 684 001a 4FF05003 			mov r3, #80												
 685 001e 83F31188 		msr basepri, r3											
 686 0022 BFF36F8F 		isb														
 687 0026 BFF34F8F 		dsb														
 688              	
 689              	@ 0 "" 2
 690              		.thumb
 691              		.syntax unified
 692              	.L106:
 693 002a FEE7     		b	.L106
 694              	.L124:
 695              		.syntax unified
 696              	@ 195 "Middlewares/Third_Party/FreeRTOS/Source/portable/GCC/ARM_CM4F/portmacro.h" 1
 697 002c 4FF05003 			mov r3, #80												
 698 0030 83F31188 		msr basepri, r3											
 699 0034 BFF36F8F 		isb														
 700 0038 BFF34F8F 		dsb														
 701              	
 702              	@ 0 "" 2
 703              		.thumb
 704              		.syntax unified
 705              	.L102:
 706 003c FEE7     		b	.L102
 707              	.L125:
 708 003e 036C     		ldr	r3, [r0, #64]
 709 0040 002B     		cmp	r3, #0
 710 0042 E5D0     		beq	.L103
 711              		.syntax unified
 712              	@ 195 "Middlewares/Third_Party/FreeRTOS/Source/portable/GCC/ARM_CM4F/portmacro.h" 1
 713 0044 4FF05003 			mov r3, #80												
ARM GAS  C:\Users\fish\AppData\Local\Temp\ccm1FGe1.s 			page 13


 714 0048 83F31188 		msr basepri, r3											
 715 004c BFF36F8F 		isb														
 716 0050 BFF34F8F 		dsb														
 717              	
 718              	@ 0 "" 2
 719              		.thumb
 720              		.syntax unified
 721              	.L104:
 722 0054 FEE7     		b	.L104
 723              	.L105:
 724 0056 FFF7FEFF 		bl	xTaskGetSchedulerState
 725 005a 0646     		mov	r6, r0
 726 005c 58B9     		cbnz	r0, .L122
 727 005e 019B     		ldr	r3, [sp, #4]
 728 0060 002B     		cmp	r3, #0
 729 0062 48D0     		beq	.L109
 730              		.syntax unified
 731              	@ 195 "Middlewares/Third_Party/FreeRTOS/Source/portable/GCC/ARM_CM4F/portmacro.h" 1
 732 0064 4FF05003 			mov r3, #80												
 733 0068 83F31188 		msr basepri, r3											
 734 006c BFF36F8F 		isb														
 735 0070 BFF34F8F 		dsb														
 736              	
 737              	@ 0 "" 2
 738              		.thumb
 739              		.syntax unified
 740              	.L108:
 741 0074 FEE7     		b	.L108
 742              	.L122:
 743 0076 0026     		movs	r6, #0
 744 0078 3DE0     		b	.L109
 745              	.L110:
 746 007a 2A46     		mov	r2, r5
 747 007c 3946     		mov	r1, r7
 748 007e 2046     		mov	r0, r4
 749 0080 FFF7FEFF 		bl	prvCopyDataToQueue
 750 0084 636A     		ldr	r3, [r4, #36]
 751 0086 7BB9     		cbnz	r3, .L126
 752 0088 48B1     		cbz	r0, .L113
 753 008a 4FF0E023 		mov	r3, #-536813568
 754 008e 4FF08052 		mov	r2, #268435456
 755 0092 C3F8042D 		str	r2, [r3, #3332]
 756              		.syntax unified
 757              	@ 858 "Middlewares/Third_Party/FreeRTOS/Source/queue.c" 1
 758 0096 BFF34F8F 		dsb
 759              	@ 0 "" 2
 760              	@ 858 "Middlewares/Third_Party/FreeRTOS/Source/queue.c" 1
 761 009a BFF36F8F 		isb
 762              	@ 0 "" 2
 763              		.thumb
 764              		.syntax unified
 765              	.L113:
 766 009e FFF7FEFF 		bl	vPortExitCritical
 767 00a2 0120     		movs	r0, #1
 768              	.L100:
 769 00a4 05B0     		add	sp, sp, #20
 770              		@ sp needed
ARM GAS  C:\Users\fish\AppData\Local\Temp\ccm1FGe1.s 			page 14


 771 00a6 F0BD     		pop	{r4, r5, r6, r7, pc}
 772              	.L126:
 773 00a8 04F12400 		add	r0, r4, #36
 774 00ac FFF7FEFF 		bl	xTaskRemoveFromEventList
 775 00b0 0028     		cmp	r0, #0
 776 00b2 F4D0     		beq	.L113
 777 00b4 4FF0E023 		mov	r3, #-536813568
 778 00b8 4FF08052 		mov	r2, #268435456
 779 00bc C3F8042D 		str	r2, [r3, #3332]
 780              		.syntax unified
 781              	@ 845 "Middlewares/Third_Party/FreeRTOS/Source/queue.c" 1
 782 00c0 BFF34F8F 		dsb
 783              	@ 0 "" 2
 784              	@ 845 "Middlewares/Third_Party/FreeRTOS/Source/queue.c" 1
 785 00c4 BFF36F8F 		isb
 786              	@ 0 "" 2
 787              		.thumb
 788              		.syntax unified
 789 00c8 E9E7     		b	.L113
 790              	.L127:
 791 00ca FFF7FEFF 		bl	vPortExitCritical
 792 00ce 0020     		movs	r0, #0
 793 00d0 E8E7     		b	.L100
 794              	.L128:
 795 00d2 02A8     		add	r0, sp, #8
 796 00d4 FFF7FEFF 		bl	vTaskInternalSetTimeOutState
 797 00d8 0126     		movs	r6, #1
 798 00da 19E0     		b	.L116
 799              	.L129:
 800 00dc 0023     		movs	r3, #0
 801 00de 84F84430 		strb	r3, [r4, #68]
 802 00e2 21E0     		b	.L117
 803              	.L130:
 804 00e4 0023     		movs	r3, #0
 805 00e6 84F84530 		strb	r3, [r4, #69]
 806 00ea 23E0     		b	.L118
 807              	.L120:
 808 00ec 2046     		mov	r0, r4
 809 00ee FFF7FEFF 		bl	prvUnlockQueue
 810 00f2 FFF7FEFF 		bl	xTaskResumeAll
 811              	.L109:
 812 00f6 FFF7FEFF 		bl	vPortEnterCritical
 813 00fa A26B     		ldr	r2, [r4, #56]
 814 00fc E36B     		ldr	r3, [r4, #60]
 815 00fe 9A42     		cmp	r2, r3
 816 0100 BBD3     		bcc	.L110
 817 0102 022D     		cmp	r5, #2
 818 0104 B9D0     		beq	.L110
 819 0106 019B     		ldr	r3, [sp, #4]
 820 0108 002B     		cmp	r3, #0
 821 010a DED0     		beq	.L127
 822 010c 002E     		cmp	r6, #0
 823 010e E0D0     		beq	.L128
 824              	.L116:
 825 0110 FFF7FEFF 		bl	vPortExitCritical
 826 0114 FFF7FEFF 		bl	vTaskSuspendAll
 827 0118 FFF7FEFF 		bl	vPortEnterCritical
ARM GAS  C:\Users\fish\AppData\Local\Temp\ccm1FGe1.s 			page 15


 828 011c 94F84420 		ldrb	r2, [r4, #68]	@ zero_extendqisi2
 829 0120 52B2     		sxtb	r2, r2
 830 0122 B2F1FF3F 		cmp	r2, #-1
 831 0126 D9D0     		beq	.L129
 832              	.L117:
 833 0128 94F84520 		ldrb	r2, [r4, #69]	@ zero_extendqisi2
 834 012c 52B2     		sxtb	r2, r2
 835 012e B2F1FF3F 		cmp	r2, #-1
 836 0132 D7D0     		beq	.L130
 837              	.L118:
 838 0134 FFF7FEFF 		bl	vPortExitCritical
 839 0138 01A9     		add	r1, sp, #4
 840 013a 02A8     		add	r0, sp, #8
 841 013c FFF7FEFF 		bl	xTaskCheckForTimeOut
 842 0140 D8B9     		cbnz	r0, .L119
 843 0142 2046     		mov	r0, r4
 844 0144 FFF7FEFF 		bl	prvIsQueueFull
 845 0148 0028     		cmp	r0, #0
 846 014a CFD0     		beq	.L120
 847 014c 0199     		ldr	r1, [sp, #4]
 848 014e 04F11000 		add	r0, r4, #16
 849 0152 FFF7FEFF 		bl	vTaskPlaceOnEventList
 850 0156 2046     		mov	r0, r4
 851 0158 FFF7FEFF 		bl	prvUnlockQueue
 852 015c FFF7FEFF 		bl	xTaskResumeAll
 853 0160 0028     		cmp	r0, #0
 854 0162 C8D1     		bne	.L109
 855 0164 4FF0E023 		mov	r3, #-536813568
 856 0168 4FF08052 		mov	r2, #268435456
 857 016c C3F8042D 		str	r2, [r3, #3332]
 858              		.syntax unified
 859              	@ 927 "Middlewares/Third_Party/FreeRTOS/Source/queue.c" 1
 860 0170 BFF34F8F 		dsb
 861              	@ 0 "" 2
 862              	@ 927 "Middlewares/Third_Party/FreeRTOS/Source/queue.c" 1
 863 0174 BFF36F8F 		isb
 864              	@ 0 "" 2
 865              		.thumb
 866              		.syntax unified
 867 0178 BDE7     		b	.L109
 868              	.L119:
 869 017a 2046     		mov	r0, r4
 870 017c FFF7FEFF 		bl	prvUnlockQueue
 871 0180 FFF7FEFF 		bl	xTaskResumeAll
 872 0184 0020     		movs	r0, #0
 873 0186 8DE7     		b	.L100
 875              		.section	.text.prvInitialiseMutex,"ax",%progbits
 876              		.align	1
 877              		.syntax unified
 878              		.thumb
 879              		.thumb_func
 881              	prvInitialiseMutex:
 882              		@ args = 0, pretend = 0, frame = 0
 883              		@ frame_needed = 0, uses_anonymous_args = 0
 884 0000 48B1     		cbz	r0, .L134
 885 0002 08B5     		push	{r3, lr}
 886 0004 0021     		movs	r1, #0
ARM GAS  C:\Users\fish\AppData\Local\Temp\ccm1FGe1.s 			page 16


 887 0006 8160     		str	r1, [r0, #8]
 888 0008 0160     		str	r1, [r0]
 889 000a C160     		str	r1, [r0, #12]
 890 000c 0B46     		mov	r3, r1
 891 000e 0A46     		mov	r2, r1
 892 0010 FFF7FEFF 		bl	xQueueGenericSend
 893 0014 08BD     		pop	{r3, pc}
 894              	.L134:
 895 0016 7047     		bx	lr
 897              		.section	.text.xQueueCreateMutex,"ax",%progbits
 898              		.align	1
 899              		.global	xQueueCreateMutex
 900              		.syntax unified
 901              		.thumb
 902              		.thumb_func
 904              	xQueueCreateMutex:
 905              		@ args = 0, pretend = 0, frame = 0
 906              		@ frame_needed = 0, uses_anonymous_args = 0
 907 0000 10B5     		push	{r4, lr}
 908 0002 0246     		mov	r2, r0
 909 0004 0021     		movs	r1, #0
 910 0006 0120     		movs	r0, #1
 911 0008 FFF7FEFF 		bl	xQueueGenericCreate
 912 000c 0446     		mov	r4, r0
 913 000e FFF7FEFF 		bl	prvInitialiseMutex
 914 0012 2046     		mov	r0, r4
 915 0014 10BD     		pop	{r4, pc}
 917              		.section	.text.xQueueCreateMutexStatic,"ax",%progbits
 918              		.align	1
 919              		.global	xQueueCreateMutexStatic
 920              		.syntax unified
 921              		.thumb
 922              		.thumb_func
 924              	xQueueCreateMutexStatic:
 925              		@ args = 0, pretend = 0, frame = 0
 926              		@ frame_needed = 0, uses_anonymous_args = 0
 927 0000 10B5     		push	{r4, lr}
 928 0002 82B0     		sub	sp, sp, #8
 929 0004 0B46     		mov	r3, r1
 930 0006 0090     		str	r0, [sp]
 931 0008 0022     		movs	r2, #0
 932 000a 1146     		mov	r1, r2
 933 000c 0120     		movs	r0, #1
 934 000e FFF7FEFF 		bl	xQueueGenericCreateStatic
 935 0012 0446     		mov	r4, r0
 936 0014 FFF7FEFF 		bl	prvInitialiseMutex
 937 0018 2046     		mov	r0, r4
 938 001a 02B0     		add	sp, sp, #8
 939              		@ sp needed
 940 001c 10BD     		pop	{r4, pc}
 942              		.section	.text.xQueueGiveMutexRecursive,"ax",%progbits
 943              		.align	1
 944              		.global	xQueueGiveMutexRecursive
 945              		.syntax unified
 946              		.thumb
 947              		.thumb_func
 949              	xQueueGiveMutexRecursive:
ARM GAS  C:\Users\fish\AppData\Local\Temp\ccm1FGe1.s 			page 17


 950              		@ args = 0, pretend = 0, frame = 0
 951              		@ frame_needed = 0, uses_anonymous_args = 0
 952 0000 38B5     		push	{r3, r4, r5, lr}
 953 0002 38B1     		cbz	r0, .L148
 954 0004 0446     		mov	r4, r0
 955 0006 8568     		ldr	r5, [r0, #8]
 956 0008 FFF7FEFF 		bl	xTaskGetCurrentTaskHandle
 957 000c 8542     		cmp	r5, r0
 958 000e 0AD0     		beq	.L149
 959 0010 0020     		movs	r0, #0
 960              	.L141:
 961 0012 38BD     		pop	{r3, r4, r5, pc}
 962              	.L148:
 963              		.syntax unified
 964              	@ 195 "Middlewares/Third_Party/FreeRTOS/Source/portable/GCC/ARM_CM4F/portmacro.h" 1
 965 0014 4FF05003 			mov r3, #80												
 966 0018 83F31188 		msr basepri, r3											
 967 001c BFF36F8F 		isb														
 968 0020 BFF34F8F 		dsb														
 969              	
 970              	@ 0 "" 2
 971              		.thumb
 972              		.syntax unified
 973              	.L143:
 974 0024 FEE7     		b	.L143
 975              	.L149:
 976 0026 E368     		ldr	r3, [r4, #12]
 977 0028 013B     		subs	r3, r3, #1
 978 002a E360     		str	r3, [r4, #12]
 979 002c 0BB1     		cbz	r3, .L150
 980 002e 0120     		movs	r0, #1
 981 0030 EFE7     		b	.L141
 982              	.L150:
 983 0032 1A46     		mov	r2, r3
 984 0034 1946     		mov	r1, r3
 985 0036 2046     		mov	r0, r4
 986 0038 FFF7FEFF 		bl	xQueueGenericSend
 987 003c 0120     		movs	r0, #1
 988 003e E8E7     		b	.L141
 990              		.section	.text.xQueueGenericSendFromISR,"ax",%progbits
 991              		.align	1
 992              		.global	xQueueGenericSendFromISR
 993              		.syntax unified
 994              		.thumb
 995              		.thumb_func
 997              	xQueueGenericSendFromISR:
 998              		@ args = 0, pretend = 0, frame = 0
 999              		@ frame_needed = 0, uses_anonymous_args = 0
 1000 0000 2DE9F843 		push	{r3, r4, r5, r6, r7, r8, r9, lr}
 1001 0004 90B1     		cbz	r0, .L166
 1002 0006 0F46     		mov	r7, r1
 1003 0008 1646     		mov	r6, r2
 1004 000a 1C46     		mov	r4, r3
 1005 000c 0546     		mov	r5, r0
 1006 000e B1B1     		cbz	r1, .L167
 1007              	.L154:
 1008 0010 022C     		cmp	r4, #2
ARM GAS  C:\Users\fish\AppData\Local\Temp\ccm1FGe1.s 			page 18


 1009 0012 20D1     		bne	.L156
 1010 0014 EB6B     		ldr	r3, [r5, #60]
 1011 0016 012B     		cmp	r3, #1
 1012 0018 1DD0     		beq	.L156
 1013              		.syntax unified
 1014              	@ 195 "Middlewares/Third_Party/FreeRTOS/Source/portable/GCC/ARM_CM4F/portmacro.h" 1
 1015 001a 4FF05003 			mov r3, #80												
 1016 001e 83F31188 		msr basepri, r3											
 1017 0022 BFF36F8F 		isb														
 1018 0026 BFF34F8F 		dsb														
 1019              	
 1020              	@ 0 "" 2
 1021              		.thumb
 1022              		.syntax unified
 1023              	.L157:
 1024 002a FEE7     		b	.L157
 1025              	.L166:
 1026              		.syntax unified
 1027              	@ 195 "Middlewares/Third_Party/FreeRTOS/Source/portable/GCC/ARM_CM4F/portmacro.h" 1
 1028 002c 4FF05003 			mov r3, #80												
 1029 0030 83F31188 		msr basepri, r3											
 1030 0034 BFF36F8F 		isb														
 1031 0038 BFF34F8F 		dsb														
 1032              	
 1033              	@ 0 "" 2
 1034              		.thumb
 1035              		.syntax unified
 1036              	.L153:
 1037 003c FEE7     		b	.L153
 1038              	.L167:
 1039 003e 036C     		ldr	r3, [r0, #64]
 1040 0040 002B     		cmp	r3, #0
 1041 0042 E5D0     		beq	.L154
 1042              		.syntax unified
 1043              	@ 195 "Middlewares/Third_Party/FreeRTOS/Source/portable/GCC/ARM_CM4F/portmacro.h" 1
 1044 0044 4FF05003 			mov r3, #80												
 1045 0048 83F31188 		msr basepri, r3											
 1046 004c BFF36F8F 		isb														
 1047 0050 BFF34F8F 		dsb														
 1048              	
 1049              	@ 0 "" 2
 1050              		.thumb
 1051              		.syntax unified
 1052              	.L155:
 1053 0054 FEE7     		b	.L155
 1054              	.L156:
 1055 0056 FFF7FEFF 		bl	vPortValidateInterruptPriority
 1056              		.syntax unified
 1057              	@ 211 "Middlewares/Third_Party/FreeRTOS/Source/portable/GCC/ARM_CM4F/portmacro.h" 1
 1058 005a EFF31188 			mrs r8, basepri											
 1059 005e 4FF05003 		mov r3, #80												
 1060 0062 83F31188 		msr basepri, r3											
 1061 0066 BFF36F8F 		isb														
 1062 006a BFF34F8F 		dsb														
 1063              	
 1064              	@ 0 "" 2
 1065              		.thumb
ARM GAS  C:\Users\fish\AppData\Local\Temp\ccm1FGe1.s 			page 19


 1066              		.syntax unified
 1067 006e AA6B     		ldr	r2, [r5, #56]
 1068 0070 EB6B     		ldr	r3, [r5, #60]
 1069 0072 9A42     		cmp	r2, r3
 1070 0074 06D3     		bcc	.L158
 1071 0076 022C     		cmp	r4, #2
 1072 0078 04D0     		beq	.L158
 1073 007a 0020     		movs	r0, #0
 1074              	.L159:
 1075              		.syntax unified
 1076              	@ 229 "Middlewares/Third_Party/FreeRTOS/Source/portable/GCC/ARM_CM4F/portmacro.h" 1
 1077 007c 88F31188 			msr basepri, r8	
 1078              	@ 0 "" 2
 1079              		.thumb
 1080              		.syntax unified
 1081 0080 BDE8F883 		pop	{r3, r4, r5, r6, r7, r8, r9, pc}
 1082              	.L158:
 1083 0084 95F84590 		ldrb	r9, [r5, #69]	@ zero_extendqisi2
 1084 0088 4FFA89F9 		sxtb	r9, r9
 1085 008c AB6B     		ldr	r3, [r5, #56]
 1086 008e 2246     		mov	r2, r4
 1087 0090 3946     		mov	r1, r7
 1088 0092 2846     		mov	r0, r5
 1089 0094 FFF7FEFF 		bl	prvCopyDataToQueue
 1090 0098 B9F1FF3F 		cmp	r9, #-1
 1091 009c 06D0     		beq	.L168
 1092 009e 09F10103 		add	r3, r9, #1
 1093 00a2 5BB2     		sxtb	r3, r3
 1094 00a4 85F84530 		strb	r3, [r5, #69]
 1095 00a8 0120     		movs	r0, #1
 1096 00aa E7E7     		b	.L159
 1097              	.L168:
 1098 00ac 6B6A     		ldr	r3, [r5, #36]
 1099 00ae 0BB9     		cbnz	r3, .L169
 1100 00b0 0120     		movs	r0, #1
 1101 00b2 E3E7     		b	.L159
 1102              	.L169:
 1103 00b4 05F12400 		add	r0, r5, #36
 1104 00b8 FFF7FEFF 		bl	xTaskRemoveFromEventList
 1105 00bc 18B1     		cbz	r0, .L163
 1106 00be 26B1     		cbz	r6, .L164
 1107 00c0 0120     		movs	r0, #1
 1108 00c2 3060     		str	r0, [r6]
 1109 00c4 DAE7     		b	.L159
 1110              	.L163:
 1111 00c6 0120     		movs	r0, #1
 1112 00c8 D8E7     		b	.L159
 1113              	.L164:
 1114 00ca 0120     		movs	r0, #1
 1115 00cc D6E7     		b	.L159
 1117              		.section	.text.xQueueGiveFromISR,"ax",%progbits
 1118              		.align	1
 1119              		.global	xQueueGiveFromISR
 1120              		.syntax unified
 1121              		.thumb
 1122              		.thumb_func
 1124              	xQueueGiveFromISR:
ARM GAS  C:\Users\fish\AppData\Local\Temp\ccm1FGe1.s 			page 20


 1125              		@ args = 0, pretend = 0, frame = 0
 1126              		@ frame_needed = 0, uses_anonymous_args = 0
 1127 0000 68B1     		cbz	r0, .L185
 1128 0002 70B5     		push	{r4, r5, r6, lr}
 1129 0004 0C46     		mov	r4, r1
 1130 0006 0546     		mov	r5, r0
 1131 0008 036C     		ldr	r3, [r0, #64]
 1132 000a 8BB1     		cbz	r3, .L173
 1133              		.syntax unified
 1134              	@ 195 "Middlewares/Third_Party/FreeRTOS/Source/portable/GCC/ARM_CM4F/portmacro.h" 1
 1135 000c 4FF05003 			mov r3, #80												
 1136 0010 83F31188 		msr basepri, r3											
 1137 0014 BFF36F8F 		isb														
 1138 0018 BFF34F8F 		dsb														
 1139              	
 1140              	@ 0 "" 2
 1141              		.thumb
 1142              		.syntax unified
 1143              	.L174:
 1144 001c FEE7     		b	.L174
 1145              	.L185:
 1146              		.syntax unified
 1147              	@ 195 "Middlewares/Third_Party/FreeRTOS/Source/portable/GCC/ARM_CM4F/portmacro.h" 1
 1148 001e 4FF05003 			mov r3, #80												
 1149 0022 83F31188 		msr basepri, r3											
 1150 0026 BFF36F8F 		isb														
 1151 002a BFF34F8F 		dsb														
 1152              	
 1153              	@ 0 "" 2
 1154              		.thumb
 1155              		.syntax unified
 1156              	.L172:
 1157 002e FEE7     		b	.L172
 1158              	.L173:
 1159 0030 0368     		ldr	r3, [r0]
 1160 0032 EBB1     		cbz	r3, .L186
 1161              	.L175:
 1162 0034 FFF7FEFF 		bl	vPortValidateInterruptPriority
 1163              		.syntax unified
 1164              	@ 211 "Middlewares/Third_Party/FreeRTOS/Source/portable/GCC/ARM_CM4F/portmacro.h" 1
 1165 0038 EFF31186 			mrs r6, basepri											
 1166 003c 4FF05003 		mov r3, #80												
 1167 0040 83F31188 		msr basepri, r3											
 1168 0044 BFF36F8F 		isb														
 1169 0048 BFF34F8F 		dsb														
 1170              	
 1171              	@ 0 "" 2
 1172              		.thumb
 1173              		.syntax unified
 1174 004c AA6B     		ldr	r2, [r5, #56]
 1175 004e EB6B     		ldr	r3, [r5, #60]
 1176 0050 9342     		cmp	r3, r2
 1177 0052 26D9     		bls	.L179
 1178 0054 95F84530 		ldrb	r3, [r5, #69]	@ zero_extendqisi2
 1179 0058 5BB2     		sxtb	r3, r3
 1180 005a 0132     		adds	r2, r2, #1
 1181 005c AA63     		str	r2, [r5, #56]
ARM GAS  C:\Users\fish\AppData\Local\Temp\ccm1FGe1.s 			page 21


 1182 005e B3F1FF3F 		cmp	r3, #-1
 1183 0062 11D0     		beq	.L187
 1184 0064 0133     		adds	r3, r3, #1
 1185 0066 5BB2     		sxtb	r3, r3
 1186 0068 85F84530 		strb	r3, [r5, #69]
 1187 006c 0120     		movs	r0, #1
 1188 006e 19E0     		b	.L177
 1189              	.L186:
 1190 0070 8368     		ldr	r3, [r0, #8]
 1191 0072 002B     		cmp	r3, #0
 1192 0074 DED0     		beq	.L175
 1193              		.syntax unified
 1194              	@ 195 "Middlewares/Third_Party/FreeRTOS/Source/portable/GCC/ARM_CM4F/portmacro.h" 1
 1195 0076 4FF05003 			mov r3, #80												
 1196 007a 83F31188 		msr basepri, r3											
 1197 007e BFF36F8F 		isb														
 1198 0082 BFF34F8F 		dsb														
 1199              	
 1200              	@ 0 "" 2
 1201              		.thumb
 1202              		.syntax unified
 1203              	.L176:
 1204 0086 FEE7     		b	.L176
 1205              	.L187:
 1206 0088 6B6A     		ldr	r3, [r5, #36]
 1207 008a 0BB9     		cbnz	r3, .L188
 1208 008c 0120     		movs	r0, #1
 1209 008e 09E0     		b	.L177
 1210              	.L188:
 1211 0090 05F12400 		add	r0, r5, #36
 1212 0094 FFF7FEFF 		bl	xTaskRemoveFromEventList
 1213 0098 38B1     		cbz	r0, .L181
 1214 009a 44B1     		cbz	r4, .L182
 1215 009c 0120     		movs	r0, #1
 1216 009e 2060     		str	r0, [r4]
 1217 00a0 00E0     		b	.L177
 1218              	.L179:
 1219 00a2 0020     		movs	r0, #0
 1220              	.L177:
 1221              		.syntax unified
 1222              	@ 229 "Middlewares/Third_Party/FreeRTOS/Source/portable/GCC/ARM_CM4F/portmacro.h" 1
 1223 00a4 86F31188 			msr basepri, r6	
 1224              	@ 0 "" 2
 1225              		.thumb
 1226              		.syntax unified
 1227 00a8 70BD     		pop	{r4, r5, r6, pc}
 1228              	.L181:
 1229 00aa 0120     		movs	r0, #1
 1230 00ac FAE7     		b	.L177
 1231              	.L182:
 1232 00ae 0120     		movs	r0, #1
 1233 00b0 F8E7     		b	.L177
 1235              		.section	.text.xQueueReceive,"ax",%progbits
 1236              		.align	1
 1237              		.global	xQueueReceive
 1238              		.syntax unified
 1239              		.thumb
ARM GAS  C:\Users\fish\AppData\Local\Temp\ccm1FGe1.s 			page 22


 1240              		.thumb_func
 1242              	xQueueReceive:
 1243              		@ args = 0, pretend = 0, frame = 16
 1244              		@ frame_needed = 0, uses_anonymous_args = 0
 1245 0000 F0B5     		push	{r4, r5, r6, r7, lr}
 1246 0002 85B0     		sub	sp, sp, #20
 1247 0004 0192     		str	r2, [sp, #4]
 1248 0006 90B1     		cbz	r0, .L209
 1249 0008 0F46     		mov	r7, r1
 1250 000a 0446     		mov	r4, r0
 1251 000c C1B1     		cbz	r1, .L210
 1252              	.L192:
 1253 000e FFF7FEFF 		bl	xTaskGetSchedulerState
 1254 0012 0646     		mov	r6, r0
 1255 0014 00BB     		cbnz	r0, .L207
 1256 0016 019B     		ldr	r3, [sp, #4]
 1257 0018 002B     		cmp	r3, #0
 1258 001a 5ED0     		beq	.L196
 1259              		.syntax unified
 1260              	@ 195 "Middlewares/Third_Party/FreeRTOS/Source/portable/GCC/ARM_CM4F/portmacro.h" 1
 1261 001c 4FF05003 			mov r3, #80												
 1262 0020 83F31188 		msr basepri, r3											
 1263 0024 BFF36F8F 		isb														
 1264 0028 BFF34F8F 		dsb														
 1265              	
 1266              	@ 0 "" 2
 1267              		.thumb
 1268              		.syntax unified
 1269              	.L195:
 1270 002c FEE7     		b	.L195
 1271              	.L209:
 1272              		.syntax unified
 1273              	@ 195 "Middlewares/Third_Party/FreeRTOS/Source/portable/GCC/ARM_CM4F/portmacro.h" 1
 1274 002e 4FF05003 			mov r3, #80												
 1275 0032 83F31188 		msr basepri, r3											
 1276 0036 BFF36F8F 		isb														
 1277 003a BFF34F8F 		dsb														
 1278              	
 1279              	@ 0 "" 2
 1280              		.thumb
 1281              		.syntax unified
 1282              	.L191:
 1283 003e FEE7     		b	.L191
 1284              	.L210:
 1285 0040 036C     		ldr	r3, [r0, #64]
 1286 0042 002B     		cmp	r3, #0
 1287 0044 E3D0     		beq	.L192
 1288              		.syntax unified
 1289              	@ 195 "Middlewares/Third_Party/FreeRTOS/Source/portable/GCC/ARM_CM4F/portmacro.h" 1
 1290 0046 4FF05003 			mov r3, #80												
 1291 004a 83F31188 		msr basepri, r3											
 1292 004e BFF36F8F 		isb														
 1293 0052 BFF34F8F 		dsb														
 1294              	
 1295              	@ 0 "" 2
 1296              		.thumb
 1297              		.syntax unified
ARM GAS  C:\Users\fish\AppData\Local\Temp\ccm1FGe1.s 			page 23


 1298              	.L193:
 1299 0056 FEE7     		b	.L193
 1300              	.L207:
 1301 0058 0026     		movs	r6, #0
 1302 005a 3EE0     		b	.L196
 1303              	.L213:
 1304 005c 3946     		mov	r1, r7
 1305 005e 2046     		mov	r0, r4
 1306 0060 FFF7FEFF 		bl	prvCopyDataFromQueue
 1307 0064 013D     		subs	r5, r5, #1
 1308 0066 A563     		str	r5, [r4, #56]
 1309 0068 2369     		ldr	r3, [r4, #16]
 1310 006a 23B9     		cbnz	r3, .L211
 1311              	.L198:
 1312 006c FFF7FEFF 		bl	vPortExitCritical
 1313 0070 0120     		movs	r0, #1
 1314              	.L189:
 1315 0072 05B0     		add	sp, sp, #20
 1316              		@ sp needed
 1317 0074 F0BD     		pop	{r4, r5, r6, r7, pc}
 1318              	.L211:
 1319 0076 04F11000 		add	r0, r4, #16
 1320 007a FFF7FEFF 		bl	xTaskRemoveFromEventList
 1321 007e 0028     		cmp	r0, #0
 1322 0080 F4D0     		beq	.L198
 1323 0082 4FF0E023 		mov	r3, #-536813568
 1324 0086 4FF08052 		mov	r2, #268435456
 1325 008a C3F8042D 		str	r2, [r3, #3332]
 1326              		.syntax unified
 1327              	@ 1323 "Middlewares/Third_Party/FreeRTOS/Source/queue.c" 1
 1328 008e BFF34F8F 		dsb
 1329              	@ 0 "" 2
 1330              	@ 1323 "Middlewares/Third_Party/FreeRTOS/Source/queue.c" 1
 1331 0092 BFF36F8F 		isb
 1332              	@ 0 "" 2
 1333              		.thumb
 1334              		.syntax unified
 1335 0096 E9E7     		b	.L198
 1336              	.L214:
 1337 0098 FFF7FEFF 		bl	vPortExitCritical
 1338 009c 0020     		movs	r0, #0
 1339 009e E8E7     		b	.L189
 1340              	.L215:
 1341 00a0 02A8     		add	r0, sp, #8
 1342 00a2 FFF7FEFF 		bl	vTaskInternalSetTimeOutState
 1343 00a6 0126     		movs	r6, #1
 1344 00a8 21E0     		b	.L201
 1345              	.L216:
 1346 00aa 0023     		movs	r3, #0
 1347 00ac 84F84430 		strb	r3, [r4, #68]
 1348 00b0 29E0     		b	.L202
 1349              	.L217:
 1350 00b2 0023     		movs	r3, #0
 1351 00b4 84F84530 		strb	r3, [r4, #69]
 1352 00b8 2BE0     		b	.L203
 1353              	.L205:
 1354 00ba 2046     		mov	r0, r4
ARM GAS  C:\Users\fish\AppData\Local\Temp\ccm1FGe1.s 			page 24


 1355 00bc FFF7FEFF 		bl	prvUnlockQueue
 1356 00c0 FFF7FEFF 		bl	xTaskResumeAll
 1357 00c4 09E0     		b	.L196
 1358              	.L204:
 1359 00c6 2046     		mov	r0, r4
 1360 00c8 FFF7FEFF 		bl	prvUnlockQueue
 1361 00cc FFF7FEFF 		bl	xTaskResumeAll
 1362 00d0 2046     		mov	r0, r4
 1363 00d2 FFF7FEFF 		bl	prvIsQueueEmpty
 1364 00d6 0028     		cmp	r0, #0
 1365 00d8 3FD1     		bne	.L212
 1366              	.L196:
 1367 00da FFF7FEFF 		bl	vPortEnterCritical
 1368 00de A56B     		ldr	r5, [r4, #56]
 1369 00e0 002D     		cmp	r5, #0
 1370 00e2 BBD1     		bne	.L213
 1371 00e4 019B     		ldr	r3, [sp, #4]
 1372 00e6 002B     		cmp	r3, #0
 1373 00e8 D6D0     		beq	.L214
 1374 00ea 002E     		cmp	r6, #0
 1375 00ec D8D0     		beq	.L215
 1376              	.L201:
 1377 00ee FFF7FEFF 		bl	vPortExitCritical
 1378 00f2 FFF7FEFF 		bl	vTaskSuspendAll
 1379 00f6 FFF7FEFF 		bl	vPortEnterCritical
 1380 00fa 94F84430 		ldrb	r3, [r4, #68]	@ zero_extendqisi2
 1381 00fe 5BB2     		sxtb	r3, r3
 1382 0100 B3F1FF3F 		cmp	r3, #-1
 1383 0104 D1D0     		beq	.L216
 1384              	.L202:
 1385 0106 94F84530 		ldrb	r3, [r4, #69]	@ zero_extendqisi2
 1386 010a 5BB2     		sxtb	r3, r3
 1387 010c B3F1FF3F 		cmp	r3, #-1
 1388 0110 CFD0     		beq	.L217
 1389              	.L203:
 1390 0112 FFF7FEFF 		bl	vPortExitCritical
 1391 0116 01A9     		add	r1, sp, #4
 1392 0118 02A8     		add	r0, sp, #8
 1393 011a FFF7FEFF 		bl	xTaskCheckForTimeOut
 1394 011e 0028     		cmp	r0, #0
 1395 0120 D1D1     		bne	.L204
 1396 0122 2046     		mov	r0, r4
 1397 0124 FFF7FEFF 		bl	prvIsQueueEmpty
 1398 0128 0028     		cmp	r0, #0
 1399 012a C6D0     		beq	.L205
 1400 012c 0199     		ldr	r1, [sp, #4]
 1401 012e 04F12400 		add	r0, r4, #36
 1402 0132 FFF7FEFF 		bl	vTaskPlaceOnEventList
 1403 0136 2046     		mov	r0, r4
 1404 0138 FFF7FEFF 		bl	prvUnlockQueue
 1405 013c FFF7FEFF 		bl	xTaskResumeAll
 1406 0140 0028     		cmp	r0, #0
 1407 0142 CAD1     		bne	.L196
 1408 0144 4FF0E023 		mov	r3, #-536813568
 1409 0148 4FF08052 		mov	r2, #268435456
 1410 014c C3F8042D 		str	r2, [r3, #3332]
 1411              		.syntax unified
ARM GAS  C:\Users\fish\AppData\Local\Temp\ccm1FGe1.s 			page 25


 1412              	@ 1382 "Middlewares/Third_Party/FreeRTOS/Source/queue.c" 1
 1413 0150 BFF34F8F 		dsb
 1414              	@ 0 "" 2
 1415              	@ 1382 "Middlewares/Third_Party/FreeRTOS/Source/queue.c" 1
 1416 0154 BFF36F8F 		isb
 1417              	@ 0 "" 2
 1418              		.thumb
 1419              		.syntax unified
 1420 0158 BFE7     		b	.L196
 1421              	.L212:
 1422 015a 0020     		movs	r0, #0
 1423 015c 89E7     		b	.L189
 1425              		.section	.text.xQueueSemaphoreTake,"ax",%progbits
 1426              		.align	1
 1427              		.global	xQueueSemaphoreTake
 1428              		.syntax unified
 1429              		.thumb
 1430              		.thumb_func
 1432              	xQueueSemaphoreTake:
 1433              		@ args = 0, pretend = 0, frame = 16
 1434              		@ frame_needed = 0, uses_anonymous_args = 0
 1435 0000 70B5     		push	{r4, r5, r6, lr}
 1436 0002 84B0     		sub	sp, sp, #16
 1437 0004 0191     		str	r1, [sp, #4]
 1438 0006 58B1     		cbz	r0, .L244
 1439 0008 0446     		mov	r4, r0
 1440 000a 036C     		ldr	r3, [r0, #64]
 1441 000c 8BB1     		cbz	r3, .L221
 1442              		.syntax unified
 1443              	@ 195 "Middlewares/Third_Party/FreeRTOS/Source/portable/GCC/ARM_CM4F/portmacro.h" 1
 1444 000e 4FF05003 			mov r3, #80												
 1445 0012 83F31188 		msr basepri, r3											
 1446 0016 BFF36F8F 		isb														
 1447 001a BFF34F8F 		dsb														
 1448              	
 1449              	@ 0 "" 2
 1450              		.thumb
 1451              		.syntax unified
 1452              	.L222:
 1453 001e FEE7     		b	.L222
 1454              	.L244:
 1455              		.syntax unified
 1456              	@ 195 "Middlewares/Third_Party/FreeRTOS/Source/portable/GCC/ARM_CM4F/portmacro.h" 1
 1457 0020 4FF05003 			mov r3, #80												
 1458 0024 83F31188 		msr basepri, r3											
 1459 0028 BFF36F8F 		isb														
 1460 002c BFF34F8F 		dsb														
 1461              	
 1462              	@ 0 "" 2
 1463              		.thumb
 1464              		.syntax unified
 1465              	.L220:
 1466 0030 FEE7     		b	.L220
 1467              	.L221:
 1468 0032 FFF7FEFF 		bl	xTaskGetSchedulerState
 1469 0036 0546     		mov	r5, r0
 1470 0038 50B9     		cbnz	r0, .L241
ARM GAS  C:\Users\fish\AppData\Local\Temp\ccm1FGe1.s 			page 26


 1471 003a 019B     		ldr	r3, [sp, #4]
 1472 003c 5BB1     		cbz	r3, .L242
 1473              		.syntax unified
 1474              	@ 195 "Middlewares/Third_Party/FreeRTOS/Source/portable/GCC/ARM_CM4F/portmacro.h" 1
 1475 003e 4FF05003 			mov r3, #80												
 1476 0042 83F31188 		msr basepri, r3											
 1477 0046 BFF36F8F 		isb														
 1478 004a BFF34F8F 		dsb														
 1479              	
 1480              	@ 0 "" 2
 1481              		.thumb
 1482              		.syntax unified
 1483              	.L224:
 1484 004e FEE7     		b	.L224
 1485              	.L241:
 1486 0050 0026     		movs	r6, #0
 1487 0052 3546     		mov	r5, r6
 1488 0054 55E0     		b	.L225
 1489              	.L242:
 1490 0056 0646     		mov	r6, r0
 1491 0058 53E0     		b	.L225
 1492              	.L248:
 1493 005a 013B     		subs	r3, r3, #1
 1494 005c A363     		str	r3, [r4, #56]
 1495 005e 2368     		ldr	r3, [r4]
 1496 0060 3BB1     		cbz	r3, .L245
 1497              	.L227:
 1498 0062 2369     		ldr	r3, [r4, #16]
 1499 0064 4BB9     		cbnz	r3, .L246
 1500              	.L228:
 1501 0066 FFF7FEFF 		bl	vPortExitCritical
 1502 006a 0126     		movs	r6, #1
 1503              	.L218:
 1504 006c 3046     		mov	r0, r6
 1505 006e 04B0     		add	sp, sp, #16
 1506              		@ sp needed
 1507 0070 70BD     		pop	{r4, r5, r6, pc}
 1508              	.L245:
 1509 0072 FFF7FEFF 		bl	pvTaskIncrementMutexHeldCount
 1510 0076 A060     		str	r0, [r4, #8]
 1511 0078 F3E7     		b	.L227
 1512              	.L246:
 1513 007a 04F11000 		add	r0, r4, #16
 1514 007e FFF7FEFF 		bl	xTaskRemoveFromEventList
 1515 0082 0028     		cmp	r0, #0
 1516 0084 EFD0     		beq	.L228
 1517 0086 4FF0E023 		mov	r3, #-536813568
 1518 008a 4FF08052 		mov	r2, #268435456
 1519 008e C3F8042D 		str	r2, [r3, #3332]
 1520              		.syntax unified
 1521              	@ 1485 "Middlewares/Third_Party/FreeRTOS/Source/queue.c" 1
 1522 0092 BFF34F8F 		dsb
 1523              	@ 0 "" 2
 1524              	@ 1485 "Middlewares/Third_Party/FreeRTOS/Source/queue.c" 1
 1525 0096 BFF36F8F 		isb
 1526              	@ 0 "" 2
 1527              		.thumb
ARM GAS  C:\Users\fish\AppData\Local\Temp\ccm1FGe1.s 			page 27


 1528              		.syntax unified
 1529 009a E4E7     		b	.L228
 1530              	.L249:
 1531 009c 46B1     		cbz	r6, .L231
 1532              		.syntax unified
 1533              	@ 195 "Middlewares/Third_Party/FreeRTOS/Source/portable/GCC/ARM_CM4F/portmacro.h" 1
 1534 009e 4FF05003 			mov r3, #80												
 1535 00a2 83F31188 		msr basepri, r3											
 1536 00a6 BFF36F8F 		isb														
 1537 00aa BFF34F8F 		dsb														
 1538              	
 1539              	@ 0 "" 2
 1540              		.thumb
 1541              		.syntax unified
 1542              	.L232:
 1543 00ae FEE7     		b	.L232
 1544              	.L231:
 1545 00b0 FFF7FEFF 		bl	vPortExitCritical
 1546 00b4 DAE7     		b	.L218
 1547              	.L250:
 1548 00b6 02A8     		add	r0, sp, #8
 1549 00b8 FFF7FEFF 		bl	vTaskInternalSetTimeOutState
 1550 00bc 0125     		movs	r5, #1
 1551 00be 2AE0     		b	.L233
 1552              	.L251:
 1553 00c0 0023     		movs	r3, #0
 1554 00c2 84F84430 		strb	r3, [r4, #68]
 1555 00c6 32E0     		b	.L234
 1556              	.L252:
 1557 00c8 0023     		movs	r3, #0
 1558 00ca 84F84530 		strb	r3, [r4, #69]
 1559 00ce 34E0     		b	.L235
 1560              	.L253:
 1561 00d0 FFF7FEFF 		bl	vPortEnterCritical
 1562 00d4 A068     		ldr	r0, [r4, #8]
 1563 00d6 FFF7FEFF 		bl	xTaskPriorityInherit
 1564 00da 0646     		mov	r6, r0
 1565 00dc FFF7FEFF 		bl	vPortExitCritical
 1566 00e0 3BE0     		b	.L238
 1567              	.L237:
 1568 00e2 2046     		mov	r0, r4
 1569 00e4 FFF7FEFF 		bl	prvUnlockQueue
 1570 00e8 FFF7FEFF 		bl	xTaskResumeAll
 1571 00ec 09E0     		b	.L225
 1572              	.L236:
 1573 00ee 2046     		mov	r0, r4
 1574 00f0 FFF7FEFF 		bl	prvUnlockQueue
 1575 00f4 FFF7FEFF 		bl	xTaskResumeAll
 1576 00f8 2046     		mov	r0, r4
 1577 00fa FFF7FEFF 		bl	prvIsQueueEmpty
 1578 00fe 0028     		cmp	r0, #0
 1579 0100 42D1     		bne	.L247
 1580              	.L225:
 1581 0102 FFF7FEFF 		bl	vPortEnterCritical
 1582 0106 A36B     		ldr	r3, [r4, #56]
 1583 0108 002B     		cmp	r3, #0
 1584 010a A6D1     		bne	.L248
ARM GAS  C:\Users\fish\AppData\Local\Temp\ccm1FGe1.s 			page 28


 1585 010c 019B     		ldr	r3, [sp, #4]
 1586 010e 002B     		cmp	r3, #0
 1587 0110 C4D0     		beq	.L249
 1588 0112 002D     		cmp	r5, #0
 1589 0114 CFD0     		beq	.L250
 1590              	.L233:
 1591 0116 FFF7FEFF 		bl	vPortExitCritical
 1592 011a FFF7FEFF 		bl	vTaskSuspendAll
 1593 011e FFF7FEFF 		bl	vPortEnterCritical
 1594 0122 94F84430 		ldrb	r3, [r4, #68]	@ zero_extendqisi2
 1595 0126 5BB2     		sxtb	r3, r3
 1596 0128 B3F1FF3F 		cmp	r3, #-1
 1597 012c C8D0     		beq	.L251
 1598              	.L234:
 1599 012e 94F84530 		ldrb	r3, [r4, #69]	@ zero_extendqisi2
 1600 0132 5BB2     		sxtb	r3, r3
 1601 0134 B3F1FF3F 		cmp	r3, #-1
 1602 0138 C6D0     		beq	.L252
 1603              	.L235:
 1604 013a FFF7FEFF 		bl	vPortExitCritical
 1605 013e 01A9     		add	r1, sp, #4
 1606 0140 02A8     		add	r0, sp, #8
 1607 0142 FFF7FEFF 		bl	xTaskCheckForTimeOut
 1608 0146 0028     		cmp	r0, #0
 1609 0148 D1D1     		bne	.L236
 1610 014a 2046     		mov	r0, r4
 1611 014c FFF7FEFF 		bl	prvIsQueueEmpty
 1612 0150 0028     		cmp	r0, #0
 1613 0152 C6D0     		beq	.L237
 1614 0154 2368     		ldr	r3, [r4]
 1615 0156 002B     		cmp	r3, #0
 1616 0158 BAD0     		beq	.L253
 1617              	.L238:
 1618 015a 0199     		ldr	r1, [sp, #4]
 1619 015c 04F12400 		add	r0, r4, #36
 1620 0160 FFF7FEFF 		bl	vTaskPlaceOnEventList
 1621 0164 2046     		mov	r0, r4
 1622 0166 FFF7FEFF 		bl	prvUnlockQueue
 1623 016a FFF7FEFF 		bl	xTaskResumeAll
 1624 016e 0028     		cmp	r0, #0
 1625 0170 C7D1     		bne	.L225
 1626 0172 4FF0E023 		mov	r3, #-536813568
 1627 0176 4FF08052 		mov	r2, #268435456
 1628 017a C3F8042D 		str	r2, [r3, #3332]
 1629              		.syntax unified
 1630              	@ 1573 "Middlewares/Third_Party/FreeRTOS/Source/queue.c" 1
 1631 017e BFF34F8F 		dsb
 1632              	@ 0 "" 2
 1633              	@ 1573 "Middlewares/Third_Party/FreeRTOS/Source/queue.c" 1
 1634 0182 BFF36F8F 		isb
 1635              	@ 0 "" 2
 1636              		.thumb
 1637              		.syntax unified
 1638 0186 BCE7     		b	.L225
 1639              	.L247:
 1640 0188 0EB9     		cbnz	r6, .L254
 1641              	.L240:
ARM GAS  C:\Users\fish\AppData\Local\Temp\ccm1FGe1.s 			page 29


 1642 018a 0026     		movs	r6, #0
 1643 018c 6EE7     		b	.L218
 1644              	.L254:
 1645 018e FFF7FEFF 		bl	vPortEnterCritical
 1646 0192 2046     		mov	r0, r4
 1647 0194 FFF7FEFF 		bl	prvGetDisinheritPriorityAfterTimeout
 1648 0198 0146     		mov	r1, r0
 1649 019a A068     		ldr	r0, [r4, #8]
 1650 019c FFF7FEFF 		bl	vTaskPriorityDisinheritAfterTimeout
 1651 01a0 FFF7FEFF 		bl	vPortExitCritical
 1652 01a4 F1E7     		b	.L240
 1654              		.section	.text.xQueueTakeMutexRecursive,"ax",%progbits
 1655              		.align	1
 1656              		.global	xQueueTakeMutexRecursive
 1657              		.syntax unified
 1658              		.thumb
 1659              		.thumb_func
 1661              	xQueueTakeMutexRecursive:
 1662              		@ args = 0, pretend = 0, frame = 0
 1663              		@ frame_needed = 0, uses_anonymous_args = 0
 1664 0000 80B1     		cbz	r0, .L262
 1665 0002 70B5     		push	{r4, r5, r6, lr}
 1666 0004 0C46     		mov	r4, r1
 1667 0006 0546     		mov	r5, r0
 1668 0008 8668     		ldr	r6, [r0, #8]
 1669 000a FFF7FEFF 		bl	xTaskGetCurrentTaskHandle
 1670 000e 8642     		cmp	r6, r0
 1671 0010 11D0     		beq	.L263
 1672 0012 2146     		mov	r1, r4
 1673 0014 2846     		mov	r0, r5
 1674 0016 FFF7FEFF 		bl	xQueueSemaphoreTake
 1675 001a 80B1     		cbz	r0, .L255
 1676 001c EB68     		ldr	r3, [r5, #12]
 1677 001e 0133     		adds	r3, r3, #1
 1678 0020 EB60     		str	r3, [r5, #12]
 1679 0022 0CE0     		b	.L255
 1680              	.L262:
 1681              		.syntax unified
 1682              	@ 195 "Middlewares/Third_Party/FreeRTOS/Source/portable/GCC/ARM_CM4F/portmacro.h" 1
 1683 0024 4FF05003 			mov r3, #80												
 1684 0028 83F31188 		msr basepri, r3											
 1685 002c BFF36F8F 		isb														
 1686 0030 BFF34F8F 		dsb														
 1687              	
 1688              	@ 0 "" 2
 1689              		.thumb
 1690              		.syntax unified
 1691              	.L257:
 1692 0034 FEE7     		b	.L257
 1693              	.L263:
 1694 0036 EB68     		ldr	r3, [r5, #12]
 1695 0038 0133     		adds	r3, r3, #1
 1696 003a EB60     		str	r3, [r5, #12]
 1697 003c 0120     		movs	r0, #1
 1698              	.L255:
 1699 003e 70BD     		pop	{r4, r5, r6, pc}
 1701              		.section	.text.xQueuePeek,"ax",%progbits
ARM GAS  C:\Users\fish\AppData\Local\Temp\ccm1FGe1.s 			page 30


 1702              		.align	1
 1703              		.global	xQueuePeek
 1704              		.syntax unified
 1705              		.thumb
 1706              		.thumb_func
 1708              	xQueuePeek:
 1709              		@ args = 0, pretend = 0, frame = 16
 1710              		@ frame_needed = 0, uses_anonymous_args = 0
 1711 0000 70B5     		push	{r4, r5, r6, lr}
 1712 0002 84B0     		sub	sp, sp, #16
 1713 0004 0192     		str	r2, [sp, #4]
 1714 0006 90B1     		cbz	r0, .L284
 1715 0008 0E46     		mov	r6, r1
 1716 000a 0446     		mov	r4, r0
 1717 000c C1B1     		cbz	r1, .L285
 1718              	.L267:
 1719 000e FFF7FEFF 		bl	xTaskGetSchedulerState
 1720 0012 0546     		mov	r5, r0
 1721 0014 00BB     		cbnz	r0, .L282
 1722 0016 019B     		ldr	r3, [sp, #4]
 1723 0018 002B     		cmp	r3, #0
 1724 001a 5ED0     		beq	.L271
 1725              		.syntax unified
 1726              	@ 195 "Middlewares/Third_Party/FreeRTOS/Source/portable/GCC/ARM_CM4F/portmacro.h" 1
 1727 001c 4FF05003 			mov r3, #80												
 1728 0020 83F31188 		msr basepri, r3											
 1729 0024 BFF36F8F 		isb														
 1730 0028 BFF34F8F 		dsb														
 1731              	
 1732              	@ 0 "" 2
 1733              		.thumb
 1734              		.syntax unified
 1735              	.L270:
 1736 002c FEE7     		b	.L270
 1737              	.L284:
 1738              		.syntax unified
 1739              	@ 195 "Middlewares/Third_Party/FreeRTOS/Source/portable/GCC/ARM_CM4F/portmacro.h" 1
 1740 002e 4FF05003 			mov r3, #80												
 1741 0032 83F31188 		msr basepri, r3											
 1742 0036 BFF36F8F 		isb														
 1743 003a BFF34F8F 		dsb														
 1744              	
 1745              	@ 0 "" 2
 1746              		.thumb
 1747              		.syntax unified
 1748              	.L266:
 1749 003e FEE7     		b	.L266
 1750              	.L285:
 1751 0040 036C     		ldr	r3, [r0, #64]
 1752 0042 002B     		cmp	r3, #0
 1753 0044 E3D0     		beq	.L267
 1754              		.syntax unified
 1755              	@ 195 "Middlewares/Third_Party/FreeRTOS/Source/portable/GCC/ARM_CM4F/portmacro.h" 1
 1756 0046 4FF05003 			mov r3, #80												
 1757 004a 83F31188 		msr basepri, r3											
 1758 004e BFF36F8F 		isb														
 1759 0052 BFF34F8F 		dsb														
ARM GAS  C:\Users\fish\AppData\Local\Temp\ccm1FGe1.s 			page 31


 1760              	
 1761              	@ 0 "" 2
 1762              		.thumb
 1763              		.syntax unified
 1764              	.L268:
 1765 0056 FEE7     		b	.L268
 1766              	.L282:
 1767 0058 0025     		movs	r5, #0
 1768 005a 3EE0     		b	.L271
 1769              	.L288:
 1770 005c E568     		ldr	r5, [r4, #12]
 1771 005e 3146     		mov	r1, r6
 1772 0060 2046     		mov	r0, r4
 1773 0062 FFF7FEFF 		bl	prvCopyDataFromQueue
 1774 0066 E560     		str	r5, [r4, #12]
 1775 0068 636A     		ldr	r3, [r4, #36]
 1776 006a 23B9     		cbnz	r3, .L286
 1777              	.L273:
 1778 006c FFF7FEFF 		bl	vPortExitCritical
 1779 0070 0120     		movs	r0, #1
 1780              	.L264:
 1781 0072 04B0     		add	sp, sp, #16
 1782              		@ sp needed
 1783 0074 70BD     		pop	{r4, r5, r6, pc}
 1784              	.L286:
 1785 0076 04F12400 		add	r0, r4, #36
 1786 007a FFF7FEFF 		bl	xTaskRemoveFromEventList
 1787 007e 0028     		cmp	r0, #0
 1788 0080 F4D0     		beq	.L273
 1789 0082 4FF0E023 		mov	r3, #-536813568
 1790 0086 4FF08052 		mov	r2, #268435456
 1791 008a C3F8042D 		str	r2, [r3, #3332]
 1792              		.syntax unified
 1793              	@ 1689 "Middlewares/Third_Party/FreeRTOS/Source/queue.c" 1
 1794 008e BFF34F8F 		dsb
 1795              	@ 0 "" 2
 1796              	@ 1689 "Middlewares/Third_Party/FreeRTOS/Source/queue.c" 1
 1797 0092 BFF36F8F 		isb
 1798              	@ 0 "" 2
 1799              		.thumb
 1800              		.syntax unified
 1801 0096 E9E7     		b	.L273
 1802              	.L289:
 1803 0098 FFF7FEFF 		bl	vPortExitCritical
 1804 009c 0020     		movs	r0, #0
 1805 009e E8E7     		b	.L264
 1806              	.L290:
 1807 00a0 02A8     		add	r0, sp, #8
 1808 00a2 FFF7FEFF 		bl	vTaskInternalSetTimeOutState
 1809 00a6 0125     		movs	r5, #1
 1810 00a8 21E0     		b	.L276
 1811              	.L291:
 1812 00aa 0023     		movs	r3, #0
 1813 00ac 84F84430 		strb	r3, [r4, #68]
 1814 00b0 29E0     		b	.L277
 1815              	.L292:
 1816 00b2 0023     		movs	r3, #0
ARM GAS  C:\Users\fish\AppData\Local\Temp\ccm1FGe1.s 			page 32


 1817 00b4 84F84530 		strb	r3, [r4, #69]
 1818 00b8 2BE0     		b	.L278
 1819              	.L280:
 1820 00ba 2046     		mov	r0, r4
 1821 00bc FFF7FEFF 		bl	prvUnlockQueue
 1822 00c0 FFF7FEFF 		bl	xTaskResumeAll
 1823 00c4 09E0     		b	.L271
 1824              	.L279:
 1825 00c6 2046     		mov	r0, r4
 1826 00c8 FFF7FEFF 		bl	prvUnlockQueue
 1827 00cc FFF7FEFF 		bl	xTaskResumeAll
 1828 00d0 2046     		mov	r0, r4
 1829 00d2 FFF7FEFF 		bl	prvIsQueueEmpty
 1830 00d6 0028     		cmp	r0, #0
 1831 00d8 3FD1     		bne	.L287
 1832              	.L271:
 1833 00da FFF7FEFF 		bl	vPortEnterCritical
 1834 00de A36B     		ldr	r3, [r4, #56]
 1835 00e0 002B     		cmp	r3, #0
 1836 00e2 BBD1     		bne	.L288
 1837 00e4 019B     		ldr	r3, [sp, #4]
 1838 00e6 002B     		cmp	r3, #0
 1839 00e8 D6D0     		beq	.L289
 1840 00ea 002D     		cmp	r5, #0
 1841 00ec D8D0     		beq	.L290
 1842              	.L276:
 1843 00ee FFF7FEFF 		bl	vPortExitCritical
 1844 00f2 FFF7FEFF 		bl	vTaskSuspendAll
 1845 00f6 FFF7FEFF 		bl	vPortEnterCritical
 1846 00fa 94F84430 		ldrb	r3, [r4, #68]	@ zero_extendqisi2
 1847 00fe 5BB2     		sxtb	r3, r3
 1848 0100 B3F1FF3F 		cmp	r3, #-1
 1849 0104 D1D0     		beq	.L291
 1850              	.L277:
 1851 0106 94F84530 		ldrb	r3, [r4, #69]	@ zero_extendqisi2
 1852 010a 5BB2     		sxtb	r3, r3
 1853 010c B3F1FF3F 		cmp	r3, #-1
 1854 0110 CFD0     		beq	.L292
 1855              	.L278:
 1856 0112 FFF7FEFF 		bl	vPortExitCritical
 1857 0116 01A9     		add	r1, sp, #4
 1858 0118 02A8     		add	r0, sp, #8
 1859 011a FFF7FEFF 		bl	xTaskCheckForTimeOut
 1860 011e 0028     		cmp	r0, #0
 1861 0120 D1D1     		bne	.L279
 1862 0122 2046     		mov	r0, r4
 1863 0124 FFF7FEFF 		bl	prvIsQueueEmpty
 1864 0128 0028     		cmp	r0, #0
 1865 012a C6D0     		beq	.L280
 1866 012c 0199     		ldr	r1, [sp, #4]
 1867 012e 04F12400 		add	r0, r4, #36
 1868 0132 FFF7FEFF 		bl	vTaskPlaceOnEventList
 1869 0136 2046     		mov	r0, r4
 1870 0138 FFF7FEFF 		bl	prvUnlockQueue
 1871 013c FFF7FEFF 		bl	xTaskResumeAll
 1872 0140 0028     		cmp	r0, #0
 1873 0142 CAD1     		bne	.L271
ARM GAS  C:\Users\fish\AppData\Local\Temp\ccm1FGe1.s 			page 33


 1874 0144 4FF0E023 		mov	r3, #-536813568
 1875 0148 4FF08052 		mov	r2, #268435456
 1876 014c C3F8042D 		str	r2, [r3, #3332]
 1877              		.syntax unified
 1878              	@ 1749 "Middlewares/Third_Party/FreeRTOS/Source/queue.c" 1
 1879 0150 BFF34F8F 		dsb
 1880              	@ 0 "" 2
 1881              	@ 1749 "Middlewares/Third_Party/FreeRTOS/Source/queue.c" 1
 1882 0154 BFF36F8F 		isb
 1883              	@ 0 "" 2
 1884              		.thumb
 1885              		.syntax unified
 1886 0158 BFE7     		b	.L271
 1887              	.L287:
 1888 015a 0020     		movs	r0, #0
 1889 015c 89E7     		b	.L264
 1891              		.section	.text.xQueueReceiveFromISR,"ax",%progbits
 1892              		.align	1
 1893              		.global	xQueueReceiveFromISR
 1894              		.syntax unified
 1895              		.thumb
 1896              		.thumb_func
 1898              	xQueueReceiveFromISR:
 1899              		@ args = 0, pretend = 0, frame = 0
 1900              		@ frame_needed = 0, uses_anonymous_args = 0
 1901 0000 2DE9F843 		push	{r3, r4, r5, r6, r7, r8, r9, lr}
 1902 0004 B0B1     		cbz	r0, .L305
 1903 0006 0D46     		mov	r5, r1
 1904 0008 9046     		mov	r8, r2
 1905 000a 0446     		mov	r4, r0
 1906 000c D9B1     		cbz	r1, .L306
 1907              	.L296:
 1908 000e FFF7FEFF 		bl	vPortValidateInterruptPriority
 1909              		.syntax unified
 1910              	@ 211 "Middlewares/Third_Party/FreeRTOS/Source/portable/GCC/ARM_CM4F/portmacro.h" 1
 1911 0012 EFF31187 			mrs r7, basepri											
 1912 0016 4FF05003 		mov r3, #80												
 1913 001a 83F31188 		msr basepri, r3											
 1914 001e BFF36F8F 		isb														
 1915 0022 BFF34F8F 		dsb														
 1916              	
 1917              	@ 0 "" 2
 1918              		.thumb
 1919              		.syntax unified
 1920 0026 A66B     		ldr	r6, [r4, #56]
 1921 0028 CEB9     		cbnz	r6, .L307
 1922 002a 0020     		movs	r0, #0
 1923              	.L298:
 1924              		.syntax unified
 1925              	@ 229 "Middlewares/Third_Party/FreeRTOS/Source/portable/GCC/ARM_CM4F/portmacro.h" 1
 1926 002c 87F31188 			msr basepri, r7	
 1927              	@ 0 "" 2
 1928              		.thumb
 1929              		.syntax unified
 1930 0030 BDE8F883 		pop	{r3, r4, r5, r6, r7, r8, r9, pc}
 1931              	.L305:
 1932              		.syntax unified
ARM GAS  C:\Users\fish\AppData\Local\Temp\ccm1FGe1.s 			page 34


 1933              	@ 195 "Middlewares/Third_Party/FreeRTOS/Source/portable/GCC/ARM_CM4F/portmacro.h" 1
 1934 0034 4FF05003 			mov r3, #80												
 1935 0038 83F31188 		msr basepri, r3											
 1936 003c BFF36F8F 		isb														
 1937 0040 BFF34F8F 		dsb														
 1938              	
 1939              	@ 0 "" 2
 1940              		.thumb
 1941              		.syntax unified
 1942              	.L295:
 1943 0044 FEE7     		b	.L295
 1944              	.L306:
 1945 0046 036C     		ldr	r3, [r0, #64]
 1946 0048 002B     		cmp	r3, #0
 1947 004a E0D0     		beq	.L296
 1948              		.syntax unified
 1949              	@ 195 "Middlewares/Third_Party/FreeRTOS/Source/portable/GCC/ARM_CM4F/portmacro.h" 1
 1950 004c 4FF05003 			mov r3, #80												
 1951 0050 83F31188 		msr basepri, r3											
 1952 0054 BFF36F8F 		isb														
 1953 0058 BFF34F8F 		dsb														
 1954              	
 1955              	@ 0 "" 2
 1956              		.thumb
 1957              		.syntax unified
 1958              	.L297:
 1959 005c FEE7     		b	.L297
 1960              	.L307:
 1961 005e 94F84490 		ldrb	r9, [r4, #68]	@ zero_extendqisi2
 1962 0062 4FFA89F9 		sxtb	r9, r9
 1963 0066 2946     		mov	r1, r5
 1964 0068 2046     		mov	r0, r4
 1965 006a FFF7FEFF 		bl	prvCopyDataFromQueue
 1966 006e 731E     		subs	r3, r6, #1
 1967 0070 A363     		str	r3, [r4, #56]
 1968 0072 B9F1FF3F 		cmp	r9, #-1
 1969 0076 06D0     		beq	.L308
 1970 0078 09F10103 		add	r3, r9, #1
 1971 007c 5BB2     		sxtb	r3, r3
 1972 007e 84F84430 		strb	r3, [r4, #68]
 1973 0082 0120     		movs	r0, #1
 1974 0084 D2E7     		b	.L298
 1975              	.L308:
 1976 0086 2369     		ldr	r3, [r4, #16]
 1977 0088 0BB9     		cbnz	r3, .L309
 1978 008a 0120     		movs	r0, #1
 1979 008c CEE7     		b	.L298
 1980              	.L309:
 1981 008e 04F11000 		add	r0, r4, #16
 1982 0092 FFF7FEFF 		bl	xTaskRemoveFromEventList
 1983 0096 30B1     		cbz	r0, .L302
 1984 0098 B8F1000F 		cmp	r8, #0
 1985 009c 05D0     		beq	.L303
 1986 009e 0120     		movs	r0, #1
 1987 00a0 C8F80000 		str	r0, [r8]
 1988 00a4 C2E7     		b	.L298
 1989              	.L302:
ARM GAS  C:\Users\fish\AppData\Local\Temp\ccm1FGe1.s 			page 35


 1990 00a6 0120     		movs	r0, #1
 1991 00a8 C0E7     		b	.L298
 1992              	.L303:
 1993 00aa 0120     		movs	r0, #1
 1994 00ac BEE7     		b	.L298
 1996              		.section	.text.xQueuePeekFromISR,"ax",%progbits
 1997              		.align	1
 1998              		.global	xQueuePeekFromISR
 1999              		.syntax unified
 2000              		.thumb
 2001              		.thumb_func
 2003              	xQueuePeekFromISR:
 2004              		@ args = 0, pretend = 0, frame = 0
 2005              		@ frame_needed = 0, uses_anonymous_args = 0
 2006 0000 F8B5     		push	{r3, r4, r5, r6, r7, lr}
 2007 0002 68B1     		cbz	r0, .L320
 2008 0004 0D46     		mov	r5, r1
 2009 0006 0446     		mov	r4, r0
 2010 0008 99B1     		cbz	r1, .L321
 2011              	.L313:
 2012 000a 236C     		ldr	r3, [r4, #64]
 2013 000c EBB9     		cbnz	r3, .L315
 2014              		.syntax unified
 2015              	@ 195 "Middlewares/Third_Party/FreeRTOS/Source/portable/GCC/ARM_CM4F/portmacro.h" 1
 2016 000e 4FF05003 			mov r3, #80												
 2017 0012 83F31188 		msr basepri, r3											
 2018 0016 BFF36F8F 		isb														
 2019 001a BFF34F8F 		dsb														
 2020              	
 2021              	@ 0 "" 2
 2022              		.thumb
 2023              		.syntax unified
 2024              	.L316:
 2025 001e FEE7     		b	.L316
 2026              	.L320:
 2027              		.syntax unified
 2028              	@ 195 "Middlewares/Third_Party/FreeRTOS/Source/portable/GCC/ARM_CM4F/portmacro.h" 1
 2029 0020 4FF05003 			mov r3, #80												
 2030 0024 83F31188 		msr basepri, r3											
 2031 0028 BFF36F8F 		isb														
 2032 002c BFF34F8F 		dsb														
 2033              	
 2034              	@ 0 "" 2
 2035              		.thumb
 2036              		.syntax unified
 2037              	.L312:
 2038 0030 FEE7     		b	.L312
 2039              	.L321:
 2040 0032 036C     		ldr	r3, [r0, #64]
 2041 0034 002B     		cmp	r3, #0
 2042 0036 E8D0     		beq	.L313
 2043              		.syntax unified
 2044              	@ 195 "Middlewares/Third_Party/FreeRTOS/Source/portable/GCC/ARM_CM4F/portmacro.h" 1
 2045 0038 4FF05003 			mov r3, #80												
 2046 003c 83F31188 		msr basepri, r3											
 2047 0040 BFF36F8F 		isb														
 2048 0044 BFF34F8F 		dsb														
ARM GAS  C:\Users\fish\AppData\Local\Temp\ccm1FGe1.s 			page 36


 2049              	
 2050              	@ 0 "" 2
 2051              		.thumb
 2052              		.syntax unified
 2053              	.L314:
 2054 0048 FEE7     		b	.L314
 2055              	.L315:
 2056 004a FFF7FEFF 		bl	vPortValidateInterruptPriority
 2057              		.syntax unified
 2058              	@ 211 "Middlewares/Third_Party/FreeRTOS/Source/portable/GCC/ARM_CM4F/portmacro.h" 1
 2059 004e EFF31186 			mrs r6, basepri											
 2060 0052 4FF05003 		mov r3, #80												
 2061 0056 83F31188 		msr basepri, r3											
 2062 005a BFF36F8F 		isb														
 2063 005e BFF34F8F 		dsb														
 2064              	
 2065              	@ 0 "" 2
 2066              		.thumb
 2067              		.syntax unified
 2068 0062 A36B     		ldr	r3, [r4, #56]
 2069 0064 1BB9     		cbnz	r3, .L322
 2070 0066 0020     		movs	r0, #0
 2071              	.L317:
 2072              		.syntax unified
 2073              	@ 229 "Middlewares/Third_Party/FreeRTOS/Source/portable/GCC/ARM_CM4F/portmacro.h" 1
 2074 0068 86F31188 			msr basepri, r6	
 2075              	@ 0 "" 2
 2076              		.thumb
 2077              		.syntax unified
 2078 006c F8BD     		pop	{r3, r4, r5, r6, r7, pc}
 2079              	.L322:
 2080 006e E768     		ldr	r7, [r4, #12]
 2081 0070 2946     		mov	r1, r5
 2082 0072 2046     		mov	r0, r4
 2083 0074 FFF7FEFF 		bl	prvCopyDataFromQueue
 2084 0078 E760     		str	r7, [r4, #12]
 2085 007a 0120     		movs	r0, #1
 2086 007c F4E7     		b	.L317
 2088              		.section	.text.uxQueueMessagesWaiting,"ax",%progbits
 2089              		.align	1
 2090              		.global	uxQueueMessagesWaiting
 2091              		.syntax unified
 2092              		.thumb
 2093              		.thumb_func
 2095              	uxQueueMessagesWaiting:
 2096              		@ args = 0, pretend = 0, frame = 0
 2097              		@ frame_needed = 0, uses_anonymous_args = 0
 2098 0000 40B1     		cbz	r0, .L328
 2099 0002 10B5     		push	{r4, lr}
 2100 0004 0446     		mov	r4, r0
 2101 0006 FFF7FEFF 		bl	vPortEnterCritical
 2102 000a A46B     		ldr	r4, [r4, #56]
 2103 000c FFF7FEFF 		bl	vPortExitCritical
 2104 0010 2046     		mov	r0, r4
 2105 0012 10BD     		pop	{r4, pc}
 2106              	.L328:
 2107              		.syntax unified
ARM GAS  C:\Users\fish\AppData\Local\Temp\ccm1FGe1.s 			page 37


 2108              	@ 195 "Middlewares/Third_Party/FreeRTOS/Source/portable/GCC/ARM_CM4F/portmacro.h" 1
 2109 0014 4FF05003 			mov r3, #80												
 2110 0018 83F31188 		msr basepri, r3											
 2111 001c BFF36F8F 		isb														
 2112 0020 BFF34F8F 		dsb														
 2113              	
 2114              	@ 0 "" 2
 2115              		.thumb
 2116              		.syntax unified
 2117              	.L325:
 2118 0024 FEE7     		b	.L325
 2120              		.section	.text.uxQueueSpacesAvailable,"ax",%progbits
 2121              		.align	1
 2122              		.global	uxQueueSpacesAvailable
 2123              		.syntax unified
 2124              		.thumb
 2125              		.thumb_func
 2127              	uxQueueSpacesAvailable:
 2128              		@ args = 0, pretend = 0, frame = 0
 2129              		@ frame_needed = 0, uses_anonymous_args = 0
 2130 0000 38B5     		push	{r3, r4, r5, lr}
 2131 0002 48B1     		cbz	r0, .L333
 2132 0004 0546     		mov	r5, r0
 2133 0006 FFF7FEFF 		bl	vPortEnterCritical
 2134 000a EC6B     		ldr	r4, [r5, #60]
 2135 000c AB6B     		ldr	r3, [r5, #56]
 2136 000e E41A     		subs	r4, r4, r3
 2137 0010 FFF7FEFF 		bl	vPortExitCritical
 2138 0014 2046     		mov	r0, r4
 2139 0016 38BD     		pop	{r3, r4, r5, pc}
 2140              	.L333:
 2141              		.syntax unified
 2142              	@ 195 "Middlewares/Third_Party/FreeRTOS/Source/portable/GCC/ARM_CM4F/portmacro.h" 1
 2143 0018 4FF05003 			mov r3, #80												
 2144 001c 83F31188 		msr basepri, r3											
 2145 0020 BFF36F8F 		isb														
 2146 0024 BFF34F8F 		dsb														
 2147              	
 2148              	@ 0 "" 2
 2149              		.thumb
 2150              		.syntax unified
 2151              	.L331:
 2152 0028 FEE7     		b	.L331
 2154              		.section	.text.uxQueueMessagesWaitingFromISR,"ax",%progbits
 2155              		.align	1
 2156              		.global	uxQueueMessagesWaitingFromISR
 2157              		.syntax unified
 2158              		.thumb
 2159              		.thumb_func
 2161              	uxQueueMessagesWaitingFromISR:
 2162              		@ args = 0, pretend = 0, frame = 0
 2163              		@ frame_needed = 0, uses_anonymous_args = 0
 2164              		@ link register save eliminated.
 2165 0000 08B1     		cbz	r0, .L337
 2166 0002 806B     		ldr	r0, [r0, #56]
 2167 0004 7047     		bx	lr
 2168              	.L337:
ARM GAS  C:\Users\fish\AppData\Local\Temp\ccm1FGe1.s 			page 38


 2169              		.syntax unified
 2170              	@ 195 "Middlewares/Third_Party/FreeRTOS/Source/portable/GCC/ARM_CM4F/portmacro.h" 1
 2171 0006 4FF05003 			mov r3, #80												
 2172 000a 83F31188 		msr basepri, r3											
 2173 000e BFF36F8F 		isb														
 2174 0012 BFF34F8F 		dsb														
 2175              	
 2176              	@ 0 "" 2
 2177              		.thumb
 2178              		.syntax unified
 2179              	.L336:
 2180 0016 FEE7     		b	.L336
 2182              		.section	.text.uxQueueGetQueueNumber,"ax",%progbits
 2183              		.align	1
 2184              		.global	uxQueueGetQueueNumber
 2185              		.syntax unified
 2186              		.thumb
 2187              		.thumb_func
 2189              	uxQueueGetQueueNumber:
 2190              		@ args = 0, pretend = 0, frame = 0
 2191              		@ frame_needed = 0, uses_anonymous_args = 0
 2192              		@ link register save eliminated.
 2193 0000 806C     		ldr	r0, [r0, #72]
 2194 0002 7047     		bx	lr
 2196              		.section	.text.vQueueSetQueueNumber,"ax",%progbits
 2197              		.align	1
 2198              		.global	vQueueSetQueueNumber
 2199              		.syntax unified
 2200              		.thumb
 2201              		.thumb_func
 2203              	vQueueSetQueueNumber:
 2204              		@ args = 0, pretend = 0, frame = 0
 2205              		@ frame_needed = 0, uses_anonymous_args = 0
 2206              		@ link register save eliminated.
 2207 0000 8164     		str	r1, [r0, #72]
 2208 0002 7047     		bx	lr
 2210              		.section	.text.ucQueueGetQueueType,"ax",%progbits
 2211              		.align	1
 2212              		.global	ucQueueGetQueueType
 2213              		.syntax unified
 2214              		.thumb
 2215              		.thumb_func
 2217              	ucQueueGetQueueType:
 2218              		@ args = 0, pretend = 0, frame = 0
 2219              		@ frame_needed = 0, uses_anonymous_args = 0
 2220              		@ link register save eliminated.
 2221 0000 90F84C00 		ldrb	r0, [r0, #76]	@ zero_extendqisi2
 2222 0004 7047     		bx	lr
 2224              		.section	.text.xQueueIsQueueEmptyFromISR,"ax",%progbits
 2225              		.align	1
 2226              		.global	xQueueIsQueueEmptyFromISR
 2227              		.syntax unified
 2228              		.thumb
 2229              		.thumb_func
 2231              	xQueueIsQueueEmptyFromISR:
 2232              		@ args = 0, pretend = 0, frame = 0
 2233              		@ frame_needed = 0, uses_anonymous_args = 0
ARM GAS  C:\Users\fish\AppData\Local\Temp\ccm1FGe1.s 			page 39


 2234              		@ link register save eliminated.
 2235 0000 18B1     		cbz	r0, .L346
 2236 0002 836B     		ldr	r3, [r0, #56]
 2237 0004 53B9     		cbnz	r3, .L345
 2238 0006 0120     		movs	r0, #1
 2239 0008 7047     		bx	lr
 2240              	.L346:
 2241              		.syntax unified
 2242              	@ 195 "Middlewares/Third_Party/FreeRTOS/Source/portable/GCC/ARM_CM4F/portmacro.h" 1
 2243 000a 4FF05003 			mov r3, #80												
 2244 000e 83F31188 		msr basepri, r3											
 2245 0012 BFF36F8F 		isb														
 2246 0016 BFF34F8F 		dsb														
 2247              	
 2248              	@ 0 "" 2
 2249              		.thumb
 2250              		.syntax unified
 2251              	.L343:
 2252 001a FEE7     		b	.L343
 2253              	.L345:
 2254 001c 0020     		movs	r0, #0
 2255 001e 7047     		bx	lr
 2257              		.section	.text.xQueueIsQueueFullFromISR,"ax",%progbits
 2258              		.align	1
 2259              		.global	xQueueIsQueueFullFromISR
 2260              		.syntax unified
 2261              		.thumb
 2262              		.thumb_func
 2264              	xQueueIsQueueFullFromISR:
 2265              		@ args = 0, pretend = 0, frame = 0
 2266              		@ frame_needed = 0, uses_anonymous_args = 0
 2267              		@ link register save eliminated.
 2268 0000 28B1     		cbz	r0, .L352
 2269 0002 826B     		ldr	r2, [r0, #56]
 2270 0004 C36B     		ldr	r3, [r0, #60]
 2271 0006 9A42     		cmp	r2, r3
 2272 0008 0AD0     		beq	.L353
 2273 000a 0020     		movs	r0, #0
 2274 000c 7047     		bx	lr
 2275              	.L352:
 2276              		.syntax unified
 2277              	@ 195 "Middlewares/Third_Party/FreeRTOS/Source/portable/GCC/ARM_CM4F/portmacro.h" 1
 2278 000e 4FF05003 			mov r3, #80												
 2279 0012 83F31188 		msr basepri, r3											
 2280 0016 BFF36F8F 		isb														
 2281 001a BFF34F8F 		dsb														
 2282              	
 2283              	@ 0 "" 2
 2284              		.thumb
 2285              		.syntax unified
 2286              	.L349:
 2287 001e FEE7     		b	.L349
 2288              	.L353:
 2289 0020 0120     		movs	r0, #1
 2290 0022 7047     		bx	lr
 2292              		.section	.text.vQueueAddToRegistry,"ax",%progbits
 2293              		.align	1
ARM GAS  C:\Users\fish\AppData\Local\Temp\ccm1FGe1.s 			page 40


 2294              		.global	vQueueAddToRegistry
 2295              		.syntax unified
 2296              		.thumb
 2297              		.thumb_func
 2299              	vQueueAddToRegistry:
 2300              		@ args = 0, pretend = 0, frame = 0
 2301              		@ frame_needed = 0, uses_anonymous_args = 0
 2302              		@ link register save eliminated.
 2303 0000 0023     		movs	r3, #0
 2304              	.L355:
 2305 0002 072B     		cmp	r3, #7
 2306 0004 0CD8     		bhi	.L359
 2307 0006 074A     		ldr	r2, .L361
 2308 0008 52F83320 		ldr	r2, [r2, r3, lsl #3]
 2309 000c 0AB1     		cbz	r2, .L360
 2310 000e 0133     		adds	r3, r3, #1
 2311 0010 F7E7     		b	.L355
 2312              	.L360:
 2313 0012 044A     		ldr	r2, .L361
 2314 0014 42F83310 		str	r1, [r2, r3, lsl #3]
 2315 0018 02EBC302 		add	r2, r2, r3, lsl #3
 2316 001c 5060     		str	r0, [r2, #4]
 2317 001e 7047     		bx	lr
 2318              	.L359:
 2319 0020 7047     		bx	lr
 2320              	.L362:
 2321 0022 00BF     		.align	2
 2322              	.L361:
 2323 0024 00000000 		.word	xQueueRegistry
 2325              		.section	.text.pcQueueGetName,"ax",%progbits
 2326              		.align	1
 2327              		.global	pcQueueGetName
 2328              		.syntax unified
 2329              		.thumb
 2330              		.thumb_func
 2332              	pcQueueGetName:
 2333              		@ args = 0, pretend = 0, frame = 0
 2334              		@ frame_needed = 0, uses_anonymous_args = 0
 2335              		@ link register save eliminated.
 2336 0000 0023     		movs	r3, #0
 2337              	.L364:
 2338 0002 072B     		cmp	r3, #7
 2339 0004 0BD8     		bhi	.L368
 2340 0006 074A     		ldr	r2, .L370
 2341 0008 02EBC302 		add	r2, r2, r3, lsl #3
 2342 000c 5268     		ldr	r2, [r2, #4]
 2343 000e 8242     		cmp	r2, r0
 2344 0010 01D0     		beq	.L369
 2345 0012 0133     		adds	r3, r3, #1
 2346 0014 F5E7     		b	.L364
 2347              	.L369:
 2348 0016 034A     		ldr	r2, .L370
 2349 0018 52F83300 		ldr	r0, [r2, r3, lsl #3]
 2350 001c 7047     		bx	lr
 2351              	.L368:
 2352 001e 0020     		movs	r0, #0
 2353 0020 7047     		bx	lr
ARM GAS  C:\Users\fish\AppData\Local\Temp\ccm1FGe1.s 			page 41


 2354              	.L371:
 2355 0022 00BF     		.align	2
 2356              	.L370:
 2357 0024 00000000 		.word	xQueueRegistry
 2359              		.section	.text.vQueueUnregisterQueue,"ax",%progbits
 2360              		.align	1
 2361              		.global	vQueueUnregisterQueue
 2362              		.syntax unified
 2363              		.thumb
 2364              		.thumb_func
 2366              	vQueueUnregisterQueue:
 2367              		@ args = 0, pretend = 0, frame = 0
 2368              		@ frame_needed = 0, uses_anonymous_args = 0
 2369              		@ link register save eliminated.
 2370 0000 0023     		movs	r3, #0
 2371              	.L373:
 2372 0002 072B     		cmp	r3, #7
 2373 0004 0FD8     		bhi	.L377
 2374 0006 084A     		ldr	r2, .L379
 2375 0008 02EBC302 		add	r2, r2, r3, lsl #3
 2376 000c 5268     		ldr	r2, [r2, #4]
 2377 000e 8242     		cmp	r2, r0
 2378 0010 01D0     		beq	.L378
 2379 0012 0133     		adds	r3, r3, #1
 2380 0014 F5E7     		b	.L373
 2381              	.L378:
 2382 0016 044A     		ldr	r2, .L379
 2383 0018 0021     		movs	r1, #0
 2384 001a 42F83310 		str	r1, [r2, r3, lsl #3]
 2385 001e 02EBC302 		add	r2, r2, r3, lsl #3
 2386 0022 5160     		str	r1, [r2, #4]
 2387 0024 7047     		bx	lr
 2388              	.L377:
 2389 0026 7047     		bx	lr
 2390              	.L380:
 2391              		.align	2
 2392              	.L379:
 2393 0028 00000000 		.word	xQueueRegistry
 2395              		.section	.text.vQueueDelete,"ax",%progbits
 2396              		.align	1
 2397              		.global	vQueueDelete
 2398              		.syntax unified
 2399              		.thumb
 2400              		.thumb_func
 2402              	vQueueDelete:
 2403              		@ args = 0, pretend = 0, frame = 0
 2404              		@ frame_needed = 0, uses_anonymous_args = 0
 2405 0000 38B1     		cbz	r0, .L387
 2406 0002 10B5     		push	{r4, lr}
 2407 0004 0446     		mov	r4, r0
 2408 0006 FFF7FEFF 		bl	vQueueUnregisterQueue
 2409 000a 94F84630 		ldrb	r3, [r4, #70]	@ zero_extendqisi2
 2410 000e 4BB1     		cbz	r3, .L388
 2411              	.L381:
 2412 0010 10BD     		pop	{r4, pc}
 2413              	.L387:
 2414              		.syntax unified
ARM GAS  C:\Users\fish\AppData\Local\Temp\ccm1FGe1.s 			page 42


 2415              	@ 195 "Middlewares/Third_Party/FreeRTOS/Source/portable/GCC/ARM_CM4F/portmacro.h" 1
 2416 0012 4FF05003 			mov r3, #80												
 2417 0016 83F31188 		msr basepri, r3											
 2418 001a BFF36F8F 		isb														
 2419 001e BFF34F8F 		dsb														
 2420              	
 2421              	@ 0 "" 2
 2422              		.thumb
 2423              		.syntax unified
 2424              	.L383:
 2425 0022 FEE7     		b	.L383
 2426              	.L388:
 2427 0024 2046     		mov	r0, r4
 2428 0026 FFF7FEFF 		bl	vPortFree
 2429 002a F1E7     		b	.L381
 2431              		.section	.text.vQueueWaitForMessageRestricted,"ax",%progbits
 2432              		.align	1
 2433              		.global	vQueueWaitForMessageRestricted
 2434              		.syntax unified
 2435              		.thumb
 2436              		.thumb_func
 2438              	vQueueWaitForMessageRestricted:
 2439              		@ args = 0, pretend = 0, frame = 0
 2440              		@ frame_needed = 0, uses_anonymous_args = 0
 2441 0000 70B5     		push	{r4, r5, r6, lr}
 2442 0002 0446     		mov	r4, r0
 2443 0004 0D46     		mov	r5, r1
 2444 0006 1646     		mov	r6, r2
 2445 0008 FFF7FEFF 		bl	vPortEnterCritical
 2446 000c 94F84430 		ldrb	r3, [r4, #68]	@ zero_extendqisi2
 2447 0010 5BB2     		sxtb	r3, r3
 2448 0012 B3F1FF3F 		cmp	r3, #-1
 2449 0016 0DD0     		beq	.L394
 2450              	.L390:
 2451 0018 94F84530 		ldrb	r3, [r4, #69]	@ zero_extendqisi2
 2452 001c 5BB2     		sxtb	r3, r3
 2453 001e B3F1FF3F 		cmp	r3, #-1
 2454 0022 0BD0     		beq	.L395
 2455              	.L391:
 2456 0024 FFF7FEFF 		bl	vPortExitCritical
 2457 0028 A36B     		ldr	r3, [r4, #56]
 2458 002a 5BB1     		cbz	r3, .L396
 2459              	.L392:
 2460 002c 2046     		mov	r0, r4
 2461 002e FFF7FEFF 		bl	prvUnlockQueue
 2462 0032 70BD     		pop	{r4, r5, r6, pc}
 2463              	.L394:
 2464 0034 0023     		movs	r3, #0
 2465 0036 84F84430 		strb	r3, [r4, #68]
 2466 003a EDE7     		b	.L390
 2467              	.L395:
 2468 003c 0023     		movs	r3, #0
 2469 003e 84F84530 		strb	r3, [r4, #69]
 2470 0042 EFE7     		b	.L391
 2471              	.L396:
 2472 0044 3246     		mov	r2, r6
 2473 0046 2946     		mov	r1, r5
ARM GAS  C:\Users\fish\AppData\Local\Temp\ccm1FGe1.s 			page 43


 2474 0048 04F12400 		add	r0, r4, #36
 2475 004c FFF7FEFF 		bl	vTaskPlaceOnEventListRestricted
 2476 0050 ECE7     		b	.L392
 2478              		.global	xQueueRegistry
 2479              		.section	.bss.xQueueRegistry,"aw",%nobits
 2480              		.align	2
 2483              	xQueueRegistry:
 2484 0000 00000000 		.space	64
 2484      00000000 
 2484      00000000 
 2484      00000000 
 2484      00000000 
 2485              		.ident	"GCC: (xPack GNU Arm Embedded GCC x86_64) 14.2.1 20241119"
ARM GAS  C:\Users\fish\AppData\Local\Temp\ccm1FGe1.s 			page 44

