ARM GAS  C:\Users\fish\AppData\Local\Temp\cclZ9wKT.s 			page 1


   1              		.cpu cortex-m4
   2              		.arch armv7e-m
   3              		.fpu fpv4-sp-d16
   4              		.eabi_attribute 27, 1
   5              		.eabi_attribute 28, 1
   6              		.eabi_attribute 20, 1
   7              		.eabi_attribute 21, 1
   8              		.eabi_attribute 23, 3
   9              		.eabi_attribute 24, 1
  10              		.eabi_attribute 25, 1
  11              		.eabi_attribute 26, 1
  12              		.eabi_attribute 30, 1
  13              		.eabi_attribute 34, 1
  14              		.eabi_attribute 18, 4
  15              		.file	"timers.c"
  16              		.text
  17              		.section	.text.prvGetNextExpireTime,"ax",%progbits
  18              		.align	1
  19              		.syntax unified
  20              		.thumb
  21              		.thumb_func
  23              	prvGetNextExpireTime:
  24              		@ args = 0, pretend = 0, frame = 0
  25              		@ frame_needed = 0, uses_anonymous_args = 0
  26              		@ link register save eliminated.
  27 0000 064B     		ldr	r3, .L6
  28 0002 1A68     		ldr	r2, [r3]
  29 0004 1368     		ldr	r3, [r2]
  30 0006 2BB9     		cbnz	r3, .L4
  31 0008 0123     		movs	r3, #1
  32              	.L2:
  33 000a 0360     		str	r3, [r0]
  34 000c 23B9     		cbnz	r3, .L5
  35 000e D368     		ldr	r3, [r2, #12]
  36 0010 1868     		ldr	r0, [r3]
  37 0012 7047     		bx	lr
  38              	.L4:
  39 0014 0023     		movs	r3, #0
  40 0016 F8E7     		b	.L2
  41              	.L5:
  42 0018 0020     		movs	r0, #0
  43 001a 7047     		bx	lr
  44              	.L7:
  45              		.align	2
  46              	.L6:
  47 001c 00000000 		.word	pxCurrentTimerList
  49              		.section	.text.prvInsertTimerInActiveList,"ax",%progbits
  50              		.align	1
  51              		.syntax unified
  52              		.thumb
  53              		.thumb_func
  55              	prvInsertTimerInActiveList:
  56              		@ args = 0, pretend = 0, frame = 0
  57              		@ frame_needed = 0, uses_anonymous_args = 0
  58 0000 08B5     		push	{r3, lr}
  59 0002 4160     		str	r1, [r0, #4]
  60 0004 0061     		str	r0, [r0, #16]
ARM GAS  C:\Users\fish\AppData\Local\Temp\cclZ9wKT.s 			page 2


  61 0006 9142     		cmp	r1, r2
  62 0008 0CD8     		bhi	.L9
  63 000a D21A     		subs	r2, r2, r3
  64 000c 8369     		ldr	r3, [r0, #24]
  65 000e 9A42     		cmp	r2, r3
  66 0010 01D3     		bcc	.L15
  67 0012 0120     		movs	r0, #1
  68              	.L8:
  69 0014 08BD     		pop	{r3, pc}
  70              	.L15:
  71 0016 011D     		adds	r1, r0, #4
  72 0018 094B     		ldr	r3, .L16
  73 001a 1868     		ldr	r0, [r3]
  74 001c FFF7FEFF 		bl	vListInsert
  75 0020 0020     		movs	r0, #0
  76 0022 F7E7     		b	.L8
  77              	.L9:
  78 0024 9A42     		cmp	r2, r3
  79 0026 01D2     		bcs	.L11
  80 0028 9942     		cmp	r1, r3
  81 002a 06D2     		bcs	.L13
  82              	.L11:
  83 002c 011D     		adds	r1, r0, #4
  84 002e 054B     		ldr	r3, .L16+4
  85 0030 1868     		ldr	r0, [r3]
  86 0032 FFF7FEFF 		bl	vListInsert
  87 0036 0020     		movs	r0, #0
  88 0038 ECE7     		b	.L8
  89              	.L13:
  90 003a 0120     		movs	r0, #1
  91 003c EAE7     		b	.L8
  92              	.L17:
  93 003e 00BF     		.align	2
  94              	.L16:
  95 0040 00000000 		.word	pxOverflowTimerList
  96 0044 00000000 		.word	pxCurrentTimerList
  98              		.section	.rodata.prvCheckForValidListAndQueue.str1.4,"aMS",%progbits,1
  99              		.align	2
 100              	.LC0:
 101 0000 546D7251 		.ascii	"TmrQ\000"
 101      00
 102              		.section	.text.prvCheckForValidListAndQueue,"ax",%progbits
 103              		.align	1
 104              		.syntax unified
 105              		.thumb
 106              		.thumb_func
 108              	prvCheckForValidListAndQueue:
 109              		@ args = 0, pretend = 0, frame = 0
 110              		@ frame_needed = 0, uses_anonymous_args = 0
 111 0000 30B5     		push	{r4, r5, lr}
 112 0002 83B0     		sub	sp, sp, #12
 113 0004 FFF7FEFF 		bl	vPortEnterCritical
 114 0008 114B     		ldr	r3, .L22
 115 000a 1B68     		ldr	r3, [r3]
 116 000c 1BB1     		cbz	r3, .L21
 117              	.L19:
 118 000e FFF7FEFF 		bl	vPortExitCritical
ARM GAS  C:\Users\fish\AppData\Local\Temp\cclZ9wKT.s 			page 3


 119 0012 03B0     		add	sp, sp, #12
 120              		@ sp needed
 121 0014 30BD     		pop	{r4, r5, pc}
 122              	.L21:
 123 0016 0F4D     		ldr	r5, .L22+4
 124 0018 2846     		mov	r0, r5
 125 001a FFF7FEFF 		bl	vListInitialise
 126 001e 0E4C     		ldr	r4, .L22+8
 127 0020 2046     		mov	r0, r4
 128 0022 FFF7FEFF 		bl	vListInitialise
 129 0026 0D4B     		ldr	r3, .L22+12
 130 0028 1D60     		str	r5, [r3]
 131 002a 0D4B     		ldr	r3, .L22+16
 132 002c 1C60     		str	r4, [r3]
 133 002e 0023     		movs	r3, #0
 134 0030 0093     		str	r3, [sp]
 135 0032 0C4B     		ldr	r3, .L22+20
 136 0034 0C4A     		ldr	r2, .L22+24
 137 0036 1021     		movs	r1, #16
 138 0038 0A20     		movs	r0, #10
 139 003a FFF7FEFF 		bl	xQueueGenericCreateStatic
 140 003e 044B     		ldr	r3, .L22
 141 0040 1860     		str	r0, [r3]
 142 0042 0028     		cmp	r0, #0
 143 0044 E3D0     		beq	.L19
 144 0046 0949     		ldr	r1, .L22+28
 145 0048 FFF7FEFF 		bl	vQueueAddToRegistry
 146 004c DFE7     		b	.L19
 147              	.L23:
 148 004e 00BF     		.align	2
 149              	.L22:
 150 0050 00000000 		.word	xTimerQueue
 151 0054 00000000 		.word	xActiveTimerList1
 152 0058 00000000 		.word	xActiveTimerList2
 153 005c 00000000 		.word	pxCurrentTimerList
 154 0060 00000000 		.word	pxOverflowTimerList
 155 0064 00000000 		.word	xStaticTimerQueue.0
 156 0068 00000000 		.word	ucStaticTimerQueueStorage.1
 157 006c 00000000 		.word	.LC0
 159              		.section	.text.prvInitialiseNewTimer,"ax",%progbits
 160              		.align	1
 161              		.syntax unified
 162              		.thumb
 163              		.thumb_func
 165              	prvInitialiseNewTimer:
 166              		@ args = 8, pretend = 0, frame = 0
 167              		@ frame_needed = 0, uses_anonymous_args = 0
 168 0000 2DE9F041 		push	{r4, r5, r6, r7, r8, lr}
 169 0004 079F     		ldr	r7, [sp, #28]
 170 0006 41B9     		cbnz	r1, .L25
 171              		.syntax unified
 172              	@ 195 "Middlewares/Third_Party/FreeRTOS/Source/portable/GCC/ARM_CM4F/portmacro.h" 1
 173 0008 4FF05003 			mov r3, #80												
 174 000c 83F31188 		msr basepri, r3											
 175 0010 BFF36F8F 		isb														
 176 0014 BFF34F8F 		dsb														
 177              	
ARM GAS  C:\Users\fish\AppData\Local\Temp\cclZ9wKT.s 			page 4


 178              	@ 0 "" 2
 179              		.thumb
 180              		.syntax unified
 181              	.L26:
 182 0018 FEE7     		b	.L26
 183              	.L25:
 184 001a 0646     		mov	r6, r0
 185 001c 1446     		mov	r4, r2
 186 001e 1D46     		mov	r5, r3
 187 0020 8846     		mov	r8, r1
 188 0022 8FB1     		cbz	r7, .L24
 189 0024 FFF7FEFF 		bl	prvCheckForValidListAndQueue
 190 0028 3E60     		str	r6, [r7]
 191 002a C7F81880 		str	r8, [r7, #24]
 192 002e FD61     		str	r5, [r7, #28]
 193 0030 069B     		ldr	r3, [sp, #24]
 194 0032 3B62     		str	r3, [r7, #32]
 195 0034 381D     		adds	r0, r7, #4
 196 0036 FFF7FEFF 		bl	vListInitialiseItem
 197 003a 2CB1     		cbz	r4, .L24
 198 003c 97F82830 		ldrb	r3, [r7, #40]	@ zero_extendqisi2
 199 0040 43F00403 		orr	r3, r3, #4
 200 0044 87F82830 		strb	r3, [r7, #40]
 201              	.L24:
 202 0048 BDE8F081 		pop	{r4, r5, r6, r7, r8, pc}
 204              		.section	.rodata.xTimerCreateTimerTask.str1.4,"aMS",%progbits,1
 205              		.align	2
 206              	.LC1:
 207 0000 546D7220 		.ascii	"Tmr Svc\000"
 207      53766300 
 208              		.section	.text.xTimerCreateTimerTask,"ax",%progbits
 209              		.align	1
 210              		.global	xTimerCreateTimerTask
 211              		.syntax unified
 212              		.thumb
 213              		.thumb_func
 215              	xTimerCreateTimerTask:
 216              		@ args = 0, pretend = 0, frame = 16
 217              		@ frame_needed = 0, uses_anonymous_args = 0
 218 0000 10B5     		push	{r4, lr}
 219 0002 88B0     		sub	sp, sp, #32
 220 0004 FFF7FEFF 		bl	prvCheckForValidListAndQueue
 221 0008 124B     		ldr	r3, .L35
 222 000a 1B68     		ldr	r3, [r3]
 223 000c CBB1     		cbz	r3, .L30
 224 000e 0024     		movs	r4, #0
 225 0010 0594     		str	r4, [sp, #20]
 226 0012 0694     		str	r4, [sp, #24]
 227 0014 07AA     		add	r2, sp, #28
 228 0016 06A9     		add	r1, sp, #24
 229 0018 05A8     		add	r0, sp, #20
 230 001a FFF7FEFF 		bl	vApplicationGetTimerTaskMemory
 231 001e 059B     		ldr	r3, [sp, #20]
 232 0020 0293     		str	r3, [sp, #8]
 233 0022 069B     		ldr	r3, [sp, #24]
 234 0024 0193     		str	r3, [sp, #4]
 235 0026 0223     		movs	r3, #2
ARM GAS  C:\Users\fish\AppData\Local\Temp\cclZ9wKT.s 			page 5


 236 0028 0093     		str	r3, [sp]
 237 002a 2346     		mov	r3, r4
 238 002c 079A     		ldr	r2, [sp, #28]
 239 002e 0A49     		ldr	r1, .L35+4
 240 0030 0A48     		ldr	r0, .L35+8
 241 0032 FFF7FEFF 		bl	xTaskCreateStatic
 242 0036 0A4B     		ldr	r3, .L35+12
 243 0038 1860     		str	r0, [r3]
 244 003a 10B1     		cbz	r0, .L30
 245 003c 0120     		movs	r0, #1
 246 003e 08B0     		add	sp, sp, #32
 247              		@ sp needed
 248 0040 10BD     		pop	{r4, pc}
 249              	.L30:
 250              		.syntax unified
 251              	@ 195 "Middlewares/Third_Party/FreeRTOS/Source/portable/GCC/ARM_CM4F/portmacro.h" 1
 252 0042 4FF05003 			mov r3, #80												
 253 0046 83F31188 		msr basepri, r3											
 254 004a BFF36F8F 		isb														
 255 004e BFF34F8F 		dsb														
 256              	
 257              	@ 0 "" 2
 258              		.thumb
 259              		.syntax unified
 260              	.L32:
 261 0052 FEE7     		b	.L32
 262              	.L36:
 263              		.align	2
 264              	.L35:
 265 0054 00000000 		.word	xTimerQueue
 266 0058 00000000 		.word	.LC1
 267 005c 00000000 		.word	prvTimerTask
 268 0060 00000000 		.word	xTimerTaskHandle
 270              		.section	.text.xTimerCreate,"ax",%progbits
 271              		.align	1
 272              		.global	xTimerCreate
 273              		.syntax unified
 274              		.thumb
 275              		.thumb_func
 277              	xTimerCreate:
 278              		@ args = 4, pretend = 0, frame = 0
 279              		@ frame_needed = 0, uses_anonymous_args = 0
 280 0000 2DE9F041 		push	{r4, r5, r6, r7, r8, lr}
 281 0004 82B0     		sub	sp, sp, #8
 282 0006 0446     		mov	r4, r0
 283 0008 8846     		mov	r8, r1
 284 000a 1746     		mov	r7, r2
 285 000c 1D46     		mov	r5, r3
 286 000e 2C20     		movs	r0, #44
 287 0010 FFF7FEFF 		bl	pvPortMalloc
 288 0014 0646     		mov	r6, r0
 289 0016 58B1     		cbz	r0, .L37
 290 0018 0023     		movs	r3, #0
 291 001a 80F82830 		strb	r3, [r0, #40]
 292 001e 0190     		str	r0, [sp, #4]
 293 0020 089B     		ldr	r3, [sp, #32]
 294 0022 0093     		str	r3, [sp]
ARM GAS  C:\Users\fish\AppData\Local\Temp\cclZ9wKT.s 			page 6


 295 0024 2B46     		mov	r3, r5
 296 0026 3A46     		mov	r2, r7
 297 0028 4146     		mov	r1, r8
 298 002a 2046     		mov	r0, r4
 299 002c FFF7FEFF 		bl	prvInitialiseNewTimer
 300              	.L37:
 301 0030 3046     		mov	r0, r6
 302 0032 02B0     		add	sp, sp, #8
 303              		@ sp needed
 304 0034 BDE8F081 		pop	{r4, r5, r6, r7, r8, pc}
 306              		.section	.text.xTimerCreateStatic,"ax",%progbits
 307              		.align	1
 308              		.global	xTimerCreateStatic
 309              		.syntax unified
 310              		.thumb
 311              		.thumb_func
 313              	xTimerCreateStatic:
 314              		@ args = 8, pretend = 0, frame = 8
 315              		@ frame_needed = 0, uses_anonymous_args = 0
 316 0000 10B5     		push	{r4, lr}
 317 0002 84B0     		sub	sp, sp, #16
 318 0004 8446     		mov	ip, r0
 319 0006 2C20     		movs	r0, #44
 320 0008 0390     		str	r0, [sp, #12]
 321 000a 0398     		ldr	r0, [sp, #12]
 322 000c 2C28     		cmp	r0, #44
 323 000e 08D0     		beq	.L41
 324              		.syntax unified
 325              	@ 195 "Middlewares/Third_Party/FreeRTOS/Source/portable/GCC/ARM_CM4F/portmacro.h" 1
 326 0010 4FF05003 			mov r3, #80												
 327 0014 83F31188 		msr basepri, r3											
 328 0018 BFF36F8F 		isb														
 329 001c BFF34F8F 		dsb														
 330              	
 331              	@ 0 "" 2
 332              		.thumb
 333              		.syntax unified
 334              	.L42:
 335 0020 FEE7     		b	.L42
 336              	.L41:
 337 0022 0398     		ldr	r0, [sp, #12]
 338 0024 0798     		ldr	r0, [sp, #28]
 339 0026 60B1     		cbz	r0, .L46
 340 0028 0220     		movs	r0, #2
 341 002a 079C     		ldr	r4, [sp, #28]
 342 002c 84F82800 		strb	r0, [r4, #40]
 343 0030 0194     		str	r4, [sp, #4]
 344 0032 0698     		ldr	r0, [sp, #24]
 345 0034 0090     		str	r0, [sp]
 346 0036 6046     		mov	r0, ip
 347 0038 FFF7FEFF 		bl	prvInitialiseNewTimer
 348 003c 0798     		ldr	r0, [sp, #28]
 349 003e 04B0     		add	sp, sp, #16
 350              		@ sp needed
 351 0040 10BD     		pop	{r4, pc}
 352              	.L46:
 353              		.syntax unified
ARM GAS  C:\Users\fish\AppData\Local\Temp\cclZ9wKT.s 			page 7


 354              	@ 195 "Middlewares/Third_Party/FreeRTOS/Source/portable/GCC/ARM_CM4F/portmacro.h" 1
 355 0042 4FF05003 			mov r3, #80												
 356 0046 83F31188 		msr basepri, r3											
 357 004a BFF36F8F 		isb														
 358 004e BFF34F8F 		dsb														
 359              	
 360              	@ 0 "" 2
 361              		.thumb
 362              		.syntax unified
 363              	.L44:
 364 0052 FEE7     		b	.L44
 366              		.section	.text.xTimerGenericCommand,"ax",%progbits
 367              		.align	1
 368              		.global	xTimerGenericCommand
 369              		.syntax unified
 370              		.thumb
 371              		.thumb_func
 373              	xTimerGenericCommand:
 374              		@ args = 4, pretend = 0, frame = 16
 375              		@ frame_needed = 0, uses_anonymous_args = 0
 376 0000 B8B1     		cbz	r0, .L58
 377 0002 9C46     		mov	ip, r3
 378 0004 0346     		mov	r3, r0
 379 0006 1848     		ldr	r0, .L60
 380 0008 0068     		ldr	r0, [r0]
 381 000a 58B3     		cbz	r0, .L53
 382 000c 00B5     		push	{lr}
 383 000e 85B0     		sub	sp, sp, #20
 384 0010 0091     		str	r1, [sp]
 385 0012 0192     		str	r2, [sp, #4]
 386 0014 0293     		str	r3, [sp, #8]
 387 0016 0529     		cmp	r1, #5
 388 0018 1CDC     		bgt	.L51
 389 001a FFF7FEFF 		bl	xTaskGetSchedulerState
 390 001e 0228     		cmp	r0, #2
 391 0020 10D0     		beq	.L59
 392 0022 0023     		movs	r3, #0
 393 0024 1A46     		mov	r2, r3
 394 0026 6946     		mov	r1, sp
 395 0028 0F48     		ldr	r0, .L60
 396 002a 0068     		ldr	r0, [r0]
 397 002c FFF7FEFF 		bl	xQueueGenericSend
 398 0030 15E0     		b	.L47
 399              	.L58:
 400              		.syntax unified
 401              	@ 195 "Middlewares/Third_Party/FreeRTOS/Source/portable/GCC/ARM_CM4F/portmacro.h" 1
 402 0032 4FF05003 			mov r3, #80												
 403 0036 83F31188 		msr basepri, r3											
 404 003a BFF36F8F 		isb														
 405 003e BFF34F8F 		dsb														
 406              	
 407              	@ 0 "" 2
 408              		.thumb
 409              		.syntax unified
 410              	.L49:
 411 0042 FEE7     		b	.L49
 412              	.L59:
ARM GAS  C:\Users\fish\AppData\Local\Temp\cclZ9wKT.s 			page 8


 413 0044 0023     		movs	r3, #0
 414 0046 069A     		ldr	r2, [sp, #24]
 415 0048 6946     		mov	r1, sp
 416 004a 0748     		ldr	r0, .L60
 417 004c 0068     		ldr	r0, [r0]
 418 004e FFF7FEFF 		bl	xQueueGenericSend
 419 0052 04E0     		b	.L47
 420              	.L51:
 421 0054 0023     		movs	r3, #0
 422 0056 6246     		mov	r2, ip
 423 0058 6946     		mov	r1, sp
 424 005a FFF7FEFF 		bl	xQueueGenericSendFromISR
 425              	.L47:
 426 005e 05B0     		add	sp, sp, #20
 427              		@ sp needed
 428 0060 5DF804FB 		ldr	pc, [sp], #4
 429              	.L53:
 430 0064 0020     		movs	r0, #0
 431 0066 7047     		bx	lr
 432              	.L61:
 433              		.align	2
 434              	.L60:
 435 0068 00000000 		.word	xTimerQueue
 437              		.section	.text.prvSwitchTimerLists,"ax",%progbits
 438              		.align	1
 439              		.syntax unified
 440              		.thumb
 441              		.thumb_func
 443              	prvSwitchTimerLists:
 444              		@ args = 0, pretend = 0, frame = 0
 445              		@ frame_needed = 0, uses_anonymous_args = 0
 446 0000 70B5     		push	{r4, r5, r6, lr}
 447 0002 82B0     		sub	sp, sp, #8
 448              	.L64:
 449 0004 1B4B     		ldr	r3, .L71
 450 0006 1B68     		ldr	r3, [r3]
 451 0008 1A68     		ldr	r2, [r3]
 452 000a 62B3     		cbz	r2, .L70
 453 000c DB68     		ldr	r3, [r3, #12]
 454 000e 1E68     		ldr	r6, [r3]
 455 0010 DC68     		ldr	r4, [r3, #12]
 456 0012 251D     		adds	r5, r4, #4
 457 0014 2846     		mov	r0, r5
 458 0016 FFF7FEFF 		bl	uxListRemove
 459 001a 236A     		ldr	r3, [r4, #32]
 460 001c 2046     		mov	r0, r4
 461 001e 9847     		blx	r3
 462 0020 94F82830 		ldrb	r3, [r4, #40]	@ zero_extendqisi2
 463 0024 13F0040F 		tst	r3, #4
 464 0028 ECD0     		beq	.L64
 465 002a A369     		ldr	r3, [r4, #24]
 466 002c 3344     		add	r3, r3, r6
 467 002e 9E42     		cmp	r6, r3
 468 0030 07D2     		bcs	.L65
 469 0032 6360     		str	r3, [r4, #4]
 470 0034 2461     		str	r4, [r4, #16]
 471 0036 2946     		mov	r1, r5
ARM GAS  C:\Users\fish\AppData\Local\Temp\cclZ9wKT.s 			page 9


 472 0038 0E4B     		ldr	r3, .L71
 473 003a 1868     		ldr	r0, [r3]
 474 003c FFF7FEFF 		bl	vListInsert
 475 0040 E0E7     		b	.L64
 476              	.L65:
 477 0042 0021     		movs	r1, #0
 478 0044 0091     		str	r1, [sp]
 479 0046 0B46     		mov	r3, r1
 480 0048 3246     		mov	r2, r6
 481 004a 2046     		mov	r0, r4
 482 004c FFF7FEFF 		bl	xTimerGenericCommand
 483 0050 0028     		cmp	r0, #0
 484 0052 D7D1     		bne	.L64
 485              		.syntax unified
 486              	@ 195 "Middlewares/Third_Party/FreeRTOS/Source/portable/GCC/ARM_CM4F/portmacro.h" 1
 487 0054 4FF05003 			mov r3, #80												
 488 0058 83F31188 		msr basepri, r3											
 489 005c BFF36F8F 		isb														
 490 0060 BFF34F8F 		dsb														
 491              	
 492              	@ 0 "" 2
 493              		.thumb
 494              		.syntax unified
 495              	.L67:
 496 0064 FEE7     		b	.L67
 497              	.L70:
 498 0066 044A     		ldr	r2, .L71+4
 499 0068 1068     		ldr	r0, [r2]
 500 006a 0249     		ldr	r1, .L71
 501 006c 0860     		str	r0, [r1]
 502 006e 1360     		str	r3, [r2]
 503 0070 02B0     		add	sp, sp, #8
 504              		@ sp needed
 505 0072 70BD     		pop	{r4, r5, r6, pc}
 506              	.L72:
 507              		.align	2
 508              	.L71:
 509 0074 00000000 		.word	pxCurrentTimerList
 510 0078 00000000 		.word	pxOverflowTimerList
 512              		.section	.text.prvSampleTimeNow,"ax",%progbits
 513              		.align	1
 514              		.syntax unified
 515              		.thumb
 516              		.thumb_func
 518              	prvSampleTimeNow:
 519              		@ args = 0, pretend = 0, frame = 0
 520              		@ frame_needed = 0, uses_anonymous_args = 0
 521 0000 38B5     		push	{r3, r4, r5, lr}
 522 0002 0546     		mov	r5, r0
 523 0004 FFF7FEFF 		bl	xTaskGetTickCount
 524 0008 0446     		mov	r4, r0
 525 000a 074B     		ldr	r3, .L78
 526 000c 1B68     		ldr	r3, [r3]
 527 000e 8342     		cmp	r3, r0
 528 0010 05D8     		bhi	.L77
 529 0012 0023     		movs	r3, #0
 530 0014 2B60     		str	r3, [r5]
ARM GAS  C:\Users\fish\AppData\Local\Temp\cclZ9wKT.s 			page 10


 531              	.L75:
 532 0016 044B     		ldr	r3, .L78
 533 0018 1C60     		str	r4, [r3]
 534 001a 2046     		mov	r0, r4
 535 001c 38BD     		pop	{r3, r4, r5, pc}
 536              	.L77:
 537 001e FFF7FEFF 		bl	prvSwitchTimerLists
 538 0022 0123     		movs	r3, #1
 539 0024 2B60     		str	r3, [r5]
 540 0026 F6E7     		b	.L75
 541              	.L79:
 542              		.align	2
 543              	.L78:
 544 0028 00000000 		.word	xLastTime.2
 546              		.section	.text.prvProcessExpiredTimer,"ax",%progbits
 547              		.align	1
 548              		.syntax unified
 549              		.thumb
 550              		.thumb_func
 552              	prvProcessExpiredTimer:
 553              		@ args = 0, pretend = 0, frame = 0
 554              		@ frame_needed = 0, uses_anonymous_args = 0
 555 0000 70B5     		push	{r4, r5, r6, lr}
 556 0002 82B0     		sub	sp, sp, #8
 557 0004 0646     		mov	r6, r0
 558 0006 0D46     		mov	r5, r1
 559 0008 1749     		ldr	r1, .L86
 560 000a 0968     		ldr	r1, [r1]
 561 000c C968     		ldr	r1, [r1, #12]
 562 000e CC68     		ldr	r4, [r1, #12]
 563 0010 201D     		adds	r0, r4, #4
 564 0012 FFF7FEFF 		bl	uxListRemove
 565 0016 94F828C0 		ldrb	ip, [r4, #40]	@ zero_extendqisi2
 566 001a 1CF0040F 		tst	ip, #4
 567 001e 08D1     		bne	.L85
 568 0020 2CF0010C 		bic	ip, ip, #1
 569 0024 84F828C0 		strb	ip, [r4, #40]
 570              	.L82:
 571 0028 236A     		ldr	r3, [r4, #32]
 572 002a 2046     		mov	r0, r4
 573 002c 9847     		blx	r3
 574 002e 02B0     		add	sp, sp, #8
 575              		@ sp needed
 576 0030 70BD     		pop	{r4, r5, r6, pc}
 577              	.L85:
 578 0032 A169     		ldr	r1, [r4, #24]
 579 0034 3346     		mov	r3, r6
 580 0036 2A46     		mov	r2, r5
 581 0038 3144     		add	r1, r1, r6
 582 003a 2046     		mov	r0, r4
 583 003c FFF7FEFF 		bl	prvInsertTimerInActiveList
 584 0040 0028     		cmp	r0, #0
 585 0042 F1D0     		beq	.L82
 586 0044 0021     		movs	r1, #0
 587 0046 0091     		str	r1, [sp]
 588 0048 0B46     		mov	r3, r1
 589 004a 3246     		mov	r2, r6
ARM GAS  C:\Users\fish\AppData\Local\Temp\cclZ9wKT.s 			page 11


 590 004c 2046     		mov	r0, r4
 591 004e FFF7FEFF 		bl	xTimerGenericCommand
 592 0052 0028     		cmp	r0, #0
 593 0054 E8D1     		bne	.L82
 594              		.syntax unified
 595              	@ 195 "Middlewares/Third_Party/FreeRTOS/Source/portable/GCC/ARM_CM4F/portmacro.h" 1
 596 0056 4FF05003 			mov r3, #80												
 597 005a 83F31188 		msr basepri, r3											
 598 005e BFF36F8F 		isb														
 599 0062 BFF34F8F 		dsb														
 600              	
 601              	@ 0 "" 2
 602              		.thumb
 603              		.syntax unified
 604              	.L83:
 605 0066 FEE7     		b	.L83
 606              	.L87:
 607              		.align	2
 608              	.L86:
 609 0068 00000000 		.word	pxCurrentTimerList
 611              		.section	.text.prvProcessTimerOrBlockTask,"ax",%progbits
 612              		.align	1
 613              		.syntax unified
 614              		.thumb
 615              		.thumb_func
 617              	prvProcessTimerOrBlockTask:
 618              		@ args = 0, pretend = 0, frame = 8
 619              		@ frame_needed = 0, uses_anonymous_args = 0
 620 0000 70B5     		push	{r4, r5, r6, lr}
 621 0002 82B0     		sub	sp, sp, #8
 622 0004 0646     		mov	r6, r0
 623 0006 0C46     		mov	r4, r1
 624 0008 FFF7FEFF 		bl	vTaskSuspendAll
 625 000c 01A8     		add	r0, sp, #4
 626 000e FFF7FEFF 		bl	prvSampleTimeNow
 627 0012 019B     		ldr	r3, [sp, #4]
 628 0014 33BB     		cbnz	r3, .L89
 629 0016 0546     		mov	r5, r0
 630 0018 E4B9     		cbnz	r4, .L90
 631 001a B042     		cmp	r0, r6
 632 001c 13D2     		bcs	.L95
 633              	.L91:
 634 001e 2246     		mov	r2, r4
 635 0020 711B     		subs	r1, r6, r5
 636 0022 124B     		ldr	r3, .L96
 637 0024 1868     		ldr	r0, [r3]
 638 0026 FFF7FEFF 		bl	vQueueWaitForMessageRestricted
 639 002a FFF7FEFF 		bl	xTaskResumeAll
 640 002e D8B9     		cbnz	r0, .L88
 641 0030 4FF0E023 		mov	r3, #-536813568
 642 0034 4FF08052 		mov	r2, #268435456
 643 0038 C3F8042D 		str	r2, [r3, #3332]
 644              		.syntax unified
 645              	@ 628 "Middlewares/Third_Party/FreeRTOS/Source/timers.c" 1
 646 003c BFF34F8F 		dsb
 647              	@ 0 "" 2
 648              	@ 628 "Middlewares/Third_Party/FreeRTOS/Source/timers.c" 1
ARM GAS  C:\Users\fish\AppData\Local\Temp\cclZ9wKT.s 			page 12


 649 0040 BFF36F8F 		isb
 650              	@ 0 "" 2
 651              		.thumb
 652              		.syntax unified
 653 0044 10E0     		b	.L88
 654              	.L95:
 655 0046 FFF7FEFF 		bl	xTaskResumeAll
 656 004a 2946     		mov	r1, r5
 657 004c 3046     		mov	r0, r6
 658 004e FFF7FEFF 		bl	prvProcessExpiredTimer
 659 0052 09E0     		b	.L88
 660              	.L90:
 661 0054 064A     		ldr	r2, .L96+4
 662 0056 1268     		ldr	r2, [r2]
 663 0058 1268     		ldr	r2, [r2]
 664 005a 0AB9     		cbnz	r2, .L93
 665 005c 0124     		movs	r4, #1
 666 005e DEE7     		b	.L91
 667              	.L93:
 668 0060 1C46     		mov	r4, r3
 669 0062 DCE7     		b	.L91
 670              	.L89:
 671 0064 FFF7FEFF 		bl	xTaskResumeAll
 672              	.L88:
 673 0068 02B0     		add	sp, sp, #8
 674              		@ sp needed
 675 006a 70BD     		pop	{r4, r5, r6, pc}
 676              	.L97:
 677              		.align	2
 678              	.L96:
 679 006c 00000000 		.word	xTimerQueue
 680 0070 00000000 		.word	pxOverflowTimerList
 682              		.section	.text.prvProcessReceivedCommands,"ax",%progbits
 683              		.align	1
 684              		.syntax unified
 685              		.thumb
 686              		.thumb_func
 688              	prvProcessReceivedCommands:
 689              		@ args = 0, pretend = 0, frame = 24
 690              		@ frame_needed = 0, uses_anonymous_args = 0
 691 0000 10B5     		push	{r4, lr}
 692 0002 88B0     		sub	sp, sp, #32
 693 0004 02E0     		b	.L101
 694              	.L100:
 695 0006 049B     		ldr	r3, [sp, #16]
 696 0008 002B     		cmp	r3, #0
 697 000a 0FDA     		bge	.L117
 698              	.L101:
 699 000c 0022     		movs	r2, #0
 700 000e 04A9     		add	r1, sp, #16
 701 0010 3D4B     		ldr	r3, .L121
 702 0012 1868     		ldr	r0, [r3]
 703 0014 FFF7FEFF 		bl	xQueueReceive
 704 0018 0028     		cmp	r0, #0
 705 001a 72D0     		beq	.L118
 706 001c 049B     		ldr	r3, [sp, #16]
 707 001e 002B     		cmp	r3, #0
ARM GAS  C:\Users\fish\AppData\Local\Temp\cclZ9wKT.s 			page 13


 708 0020 F1DA     		bge	.L100
 709 0022 0799     		ldr	r1, [sp, #28]
 710 0024 0698     		ldr	r0, [sp, #24]
 711 0026 059B     		ldr	r3, [sp, #20]
 712 0028 9847     		blx	r3
 713 002a ECE7     		b	.L100
 714              	.L117:
 715 002c 069C     		ldr	r4, [sp, #24]
 716 002e 6369     		ldr	r3, [r4, #20]
 717 0030 13B1     		cbz	r3, .L102
 718 0032 201D     		adds	r0, r4, #4
 719 0034 FFF7FEFF 		bl	uxListRemove
 720              	.L102:
 721 0038 03A8     		add	r0, sp, #12
 722 003a FFF7FEFF 		bl	prvSampleTimeNow
 723 003e 0246     		mov	r2, r0
 724 0040 049B     		ldr	r3, [sp, #16]
 725 0042 092B     		cmp	r3, #9
 726 0044 E2D8     		bhi	.L101
 727 0046 DFE803F0 		tbb	[pc, r3]
 728              	.L105:
 729 004a 05       		.byte	(.L107-.L105)/2
 730 004b 05       		.byte	(.L107-.L105)/2
 731 004c 05       		.byte	(.L107-.L105)/2
 732 004d 2F       		.byte	(.L106-.L105)/2
 733 004e 36       		.byte	(.L104-.L105)/2
 734 004f 4E       		.byte	(.L108-.L105)/2
 735 0050 05       		.byte	(.L107-.L105)/2
 736 0051 05       		.byte	(.L107-.L105)/2
 737 0052 2F       		.byte	(.L106-.L105)/2
 738 0053 36       		.byte	(.L104-.L105)/2
 739              		.p2align 1
 740              	.L107:
 741 0054 94F82830 		ldrb	r3, [r4, #40]	@ zero_extendqisi2
 742 0058 43F00103 		orr	r3, r3, #1
 743 005c 84F82830 		strb	r3, [r4, #40]
 744 0060 059B     		ldr	r3, [sp, #20]
 745 0062 A169     		ldr	r1, [r4, #24]
 746 0064 1944     		add	r1, r1, r3
 747 0066 2046     		mov	r0, r4
 748 0068 FFF7FEFF 		bl	prvInsertTimerInActiveList
 749 006c 0028     		cmp	r0, #0
 750 006e CDD0     		beq	.L101
 751 0070 236A     		ldr	r3, [r4, #32]
 752 0072 2046     		mov	r0, r4
 753 0074 9847     		blx	r3
 754 0076 94F82830 		ldrb	r3, [r4, #40]	@ zero_extendqisi2
 755 007a 13F0040F 		tst	r3, #4
 756 007e C5D0     		beq	.L101
 757 0080 A269     		ldr	r2, [r4, #24]
 758 0082 0021     		movs	r1, #0
 759 0084 0091     		str	r1, [sp]
 760 0086 0B46     		mov	r3, r1
 761 0088 0598     		ldr	r0, [sp, #20]
 762 008a 0244     		add	r2, r2, r0
 763 008c 2046     		mov	r0, r4
 764 008e FFF7FEFF 		bl	xTimerGenericCommand
ARM GAS  C:\Users\fish\AppData\Local\Temp\cclZ9wKT.s 			page 14


 765 0092 0028     		cmp	r0, #0
 766 0094 BAD1     		bne	.L101
 767              		.syntax unified
 768              	@ 195 "Middlewares/Third_Party/FreeRTOS/Source/portable/GCC/ARM_CM4F/portmacro.h" 1
 769 0096 4FF05003 			mov r3, #80												
 770 009a 83F31188 		msr basepri, r3											
 771 009e BFF36F8F 		isb														
 772 00a2 BFF34F8F 		dsb														
 773              	
 774              	@ 0 "" 2
 775              		.thumb
 776              		.syntax unified
 777              	.L110:
 778 00a6 FEE7     		b	.L110
 779              	.L106:
 780 00a8 94F82830 		ldrb	r3, [r4, #40]	@ zero_extendqisi2
 781 00ac 23F00103 		bic	r3, r3, #1
 782 00b0 84F82830 		strb	r3, [r4, #40]
 783 00b4 AAE7     		b	.L101
 784              	.L104:
 785 00b6 94F82830 		ldrb	r3, [r4, #40]	@ zero_extendqisi2
 786 00ba 43F00103 		orr	r3, r3, #1
 787 00be 84F82830 		strb	r3, [r4, #40]
 788 00c2 0599     		ldr	r1, [sp, #20]
 789 00c4 A161     		str	r1, [r4, #24]
 790 00c6 29B1     		cbz	r1, .L119
 791 00c8 0346     		mov	r3, r0
 792 00ca 0144     		add	r1, r1, r0
 793 00cc 2046     		mov	r0, r4
 794 00ce FFF7FEFF 		bl	prvInsertTimerInActiveList
 795 00d2 9BE7     		b	.L101
 796              	.L119:
 797              		.syntax unified
 798              	@ 195 "Middlewares/Third_Party/FreeRTOS/Source/portable/GCC/ARM_CM4F/portmacro.h" 1
 799 00d4 4FF05003 			mov r3, #80												
 800 00d8 83F31188 		msr basepri, r3											
 801 00dc BFF36F8F 		isb														
 802 00e0 BFF34F8F 		dsb														
 803              	
 804              	@ 0 "" 2
 805              		.thumb
 806              		.syntax unified
 807              	.L112:
 808 00e4 FEE7     		b	.L112
 809              	.L108:
 810 00e6 94F82830 		ldrb	r3, [r4, #40]	@ zero_extendqisi2
 811 00ea 13F0020F 		tst	r3, #2
 812 00ee 04D0     		beq	.L120
 813 00f0 23F00103 		bic	r3, r3, #1
 814 00f4 84F82830 		strb	r3, [r4, #40]
 815 00f8 88E7     		b	.L101
 816              	.L120:
 817 00fa 2046     		mov	r0, r4
 818 00fc FFF7FEFF 		bl	vPortFree
 819 0100 84E7     		b	.L101
 820              	.L118:
 821 0102 08B0     		add	sp, sp, #32
ARM GAS  C:\Users\fish\AppData\Local\Temp\cclZ9wKT.s 			page 15


 822              		@ sp needed
 823 0104 10BD     		pop	{r4, pc}
 824              	.L122:
 825 0106 00BF     		.align	2
 826              	.L121:
 827 0108 00000000 		.word	xTimerQueue
 829              		.section	.text.prvTimerTask,"ax",%progbits
 830              		.align	1
 831              		.syntax unified
 832              		.thumb
 833              		.thumb_func
 835              	prvTimerTask:
 836              		@ args = 0, pretend = 0, frame = 8
 837              		@ frame_needed = 0, uses_anonymous_args = 0
 838 0000 00B5     		push	{lr}
 839 0002 83B0     		sub	sp, sp, #12
 840              	.L124:
 841 0004 01A8     		add	r0, sp, #4
 842 0006 FFF7FEFF 		bl	prvGetNextExpireTime
 843 000a 0199     		ldr	r1, [sp, #4]
 844 000c FFF7FEFF 		bl	prvProcessTimerOrBlockTask
 845 0010 FFF7FEFF 		bl	prvProcessReceivedCommands
 846 0014 F6E7     		b	.L124
 848              		.section	.text.xTimerGetTimerDaemonTaskHandle,"ax",%progbits
 849              		.align	1
 850              		.global	xTimerGetTimerDaemonTaskHandle
 851              		.syntax unified
 852              		.thumb
 853              		.thumb_func
 855              	xTimerGetTimerDaemonTaskHandle:
 856              		@ args = 0, pretend = 0, frame = 0
 857              		@ frame_needed = 0, uses_anonymous_args = 0
 858              		@ link register save eliminated.
 859 0000 064B     		ldr	r3, .L130
 860 0002 1868     		ldr	r0, [r3]
 861 0004 00B1     		cbz	r0, .L129
 862 0006 7047     		bx	lr
 863              	.L129:
 864              		.syntax unified
 865              	@ 195 "Middlewares/Third_Party/FreeRTOS/Source/portable/GCC/ARM_CM4F/portmacro.h" 1
 866 0008 4FF05003 			mov r3, #80												
 867 000c 83F31188 		msr basepri, r3											
 868 0010 BFF36F8F 		isb														
 869 0014 BFF34F8F 		dsb														
 870              	
 871              	@ 0 "" 2
 872              		.thumb
 873              		.syntax unified
 874              	.L128:
 875 0018 FEE7     		b	.L128
 876              	.L131:
 877 001a 00BF     		.align	2
 878              	.L130:
 879 001c 00000000 		.word	xTimerTaskHandle
 881              		.section	.text.xTimerGetPeriod,"ax",%progbits
 882              		.align	1
 883              		.global	xTimerGetPeriod
ARM GAS  C:\Users\fish\AppData\Local\Temp\cclZ9wKT.s 			page 16


 884              		.syntax unified
 885              		.thumb
 886              		.thumb_func
 888              	xTimerGetPeriod:
 889              		@ args = 0, pretend = 0, frame = 0
 890              		@ frame_needed = 0, uses_anonymous_args = 0
 891              		@ link register save eliminated.
 892 0000 08B1     		cbz	r0, .L135
 893 0002 8069     		ldr	r0, [r0, #24]
 894 0004 7047     		bx	lr
 895              	.L135:
 896              		.syntax unified
 897              	@ 195 "Middlewares/Third_Party/FreeRTOS/Source/portable/GCC/ARM_CM4F/portmacro.h" 1
 898 0006 4FF05003 			mov r3, #80												
 899 000a 83F31188 		msr basepri, r3											
 900 000e BFF36F8F 		isb														
 901 0012 BFF34F8F 		dsb														
 902              	
 903              	@ 0 "" 2
 904              		.thumb
 905              		.syntax unified
 906              	.L134:
 907 0016 FEE7     		b	.L134
 909              		.section	.text.vTimerSetReloadMode,"ax",%progbits
 910              		.align	1
 911              		.global	vTimerSetReloadMode
 912              		.syntax unified
 913              		.thumb
 914              		.thumb_func
 916              	vTimerSetReloadMode:
 917              		@ args = 0, pretend = 0, frame = 0
 918              		@ frame_needed = 0, uses_anonymous_args = 0
 919 0000 38B5     		push	{r3, r4, r5, lr}
 920 0002 68B1     		cbz	r0, .L142
 921 0004 0C46     		mov	r4, r1
 922 0006 0546     		mov	r5, r0
 923 0008 FFF7FEFF 		bl	vPortEnterCritical
 924 000c 8CB1     		cbz	r4, .L139
 925 000e 95F82830 		ldrb	r3, [r5, #40]	@ zero_extendqisi2
 926 0012 43F00403 		orr	r3, r3, #4
 927 0016 85F82830 		strb	r3, [r5, #40]
 928              	.L140:
 929 001a FFF7FEFF 		bl	vPortExitCritical
 930 001e 38BD     		pop	{r3, r4, r5, pc}
 931              	.L142:
 932              		.syntax unified
 933              	@ 195 "Middlewares/Third_Party/FreeRTOS/Source/portable/GCC/ARM_CM4F/portmacro.h" 1
 934 0020 4FF05003 			mov r3, #80												
 935 0024 83F31188 		msr basepri, r3											
 936 0028 BFF36F8F 		isb														
 937 002c BFF34F8F 		dsb														
 938              	
 939              	@ 0 "" 2
 940              		.thumb
 941              		.syntax unified
 942              	.L138:
 943 0030 FEE7     		b	.L138
ARM GAS  C:\Users\fish\AppData\Local\Temp\cclZ9wKT.s 			page 17


 944              	.L139:
 945 0032 95F82830 		ldrb	r3, [r5, #40]	@ zero_extendqisi2
 946 0036 23F00403 		bic	r3, r3, #4
 947 003a 85F82830 		strb	r3, [r5, #40]
 948 003e ECE7     		b	.L140
 950              		.section	.text.uxTimerGetReloadMode,"ax",%progbits
 951              		.align	1
 952              		.global	uxTimerGetReloadMode
 953              		.syntax unified
 954              		.thumb
 955              		.thumb_func
 957              	uxTimerGetReloadMode:
 958              		@ args = 0, pretend = 0, frame = 0
 959              		@ frame_needed = 0, uses_anonymous_args = 0
 960 0000 68B1     		cbz	r0, .L150
 961 0002 10B5     		push	{r4, lr}
 962 0004 0446     		mov	r4, r0
 963 0006 FFF7FEFF 		bl	vPortEnterCritical
 964 000a 94F82830 		ldrb	r3, [r4, #40]	@ zero_extendqisi2
 965 000e 13F0040F 		tst	r3, #4
 966 0012 0DD1     		bne	.L147
 967 0014 0024     		movs	r4, #0
 968              	.L146:
 969 0016 FFF7FEFF 		bl	vPortExitCritical
 970 001a 2046     		mov	r0, r4
 971 001c 10BD     		pop	{r4, pc}
 972              	.L150:
 973              		.syntax unified
 974              	@ 195 "Middlewares/Third_Party/FreeRTOS/Source/portable/GCC/ARM_CM4F/portmacro.h" 1
 975 001e 4FF05003 			mov r3, #80												
 976 0022 83F31188 		msr basepri, r3											
 977 0026 BFF36F8F 		isb														
 978 002a BFF34F8F 		dsb														
 979              	
 980              	@ 0 "" 2
 981              		.thumb
 982              		.syntax unified
 983              	.L145:
 984 002e FEE7     		b	.L145
 985              	.L147:
 986 0030 0124     		movs	r4, #1
 987 0032 F0E7     		b	.L146
 989              		.section	.text.xTimerGetExpiryTime,"ax",%progbits
 990              		.align	1
 991              		.global	xTimerGetExpiryTime
 992              		.syntax unified
 993              		.thumb
 994              		.thumb_func
 996              	xTimerGetExpiryTime:
 997              		@ args = 0, pretend = 0, frame = 0
 998              		@ frame_needed = 0, uses_anonymous_args = 0
 999              		@ link register save eliminated.
 1000 0000 08B1     		cbz	r0, .L154
 1001 0002 4068     		ldr	r0, [r0, #4]
 1002 0004 7047     		bx	lr
 1003              	.L154:
 1004              		.syntax unified
ARM GAS  C:\Users\fish\AppData\Local\Temp\cclZ9wKT.s 			page 18


 1005              	@ 195 "Middlewares/Third_Party/FreeRTOS/Source/portable/GCC/ARM_CM4F/portmacro.h" 1
 1006 0006 4FF05003 			mov r3, #80												
 1007 000a 83F31188 		msr basepri, r3											
 1008 000e BFF36F8F 		isb														
 1009 0012 BFF34F8F 		dsb														
 1010              	
 1011              	@ 0 "" 2
 1012              		.thumb
 1013              		.syntax unified
 1014              	.L153:
 1015 0016 FEE7     		b	.L153
 1017              		.section	.text.pcTimerGetName,"ax",%progbits
 1018              		.align	1
 1019              		.global	pcTimerGetName
 1020              		.syntax unified
 1021              		.thumb
 1022              		.thumb_func
 1024              	pcTimerGetName:
 1025              		@ args = 0, pretend = 0, frame = 0
 1026              		@ frame_needed = 0, uses_anonymous_args = 0
 1027              		@ link register save eliminated.
 1028 0000 08B1     		cbz	r0, .L158
 1029 0002 0068     		ldr	r0, [r0]
 1030 0004 7047     		bx	lr
 1031              	.L158:
 1032              		.syntax unified
 1033              	@ 195 "Middlewares/Third_Party/FreeRTOS/Source/portable/GCC/ARM_CM4F/portmacro.h" 1
 1034 0006 4FF05003 			mov r3, #80												
 1035 000a 83F31188 		msr basepri, r3											
 1036 000e BFF36F8F 		isb														
 1037 0012 BFF34F8F 		dsb														
 1038              	
 1039              	@ 0 "" 2
 1040              		.thumb
 1041              		.syntax unified
 1042              	.L157:
 1043 0016 FEE7     		b	.L157
 1045              		.section	.text.xTimerIsTimerActive,"ax",%progbits
 1046              		.align	1
 1047              		.global	xTimerIsTimerActive
 1048              		.syntax unified
 1049              		.thumb
 1050              		.thumb_func
 1052              	xTimerIsTimerActive:
 1053              		@ args = 0, pretend = 0, frame = 0
 1054              		@ frame_needed = 0, uses_anonymous_args = 0
 1055 0000 68B1     		cbz	r0, .L166
 1056 0002 10B5     		push	{r4, lr}
 1057 0004 0446     		mov	r4, r0
 1058 0006 FFF7FEFF 		bl	vPortEnterCritical
 1059 000a 94F82830 		ldrb	r3, [r4, #40]	@ zero_extendqisi2
 1060 000e 13F0010F 		tst	r3, #1
 1061 0012 0DD1     		bne	.L163
 1062 0014 0024     		movs	r4, #0
 1063              	.L162:
 1064 0016 FFF7FEFF 		bl	vPortExitCritical
 1065 001a 2046     		mov	r0, r4
ARM GAS  C:\Users\fish\AppData\Local\Temp\cclZ9wKT.s 			page 19


 1066 001c 10BD     		pop	{r4, pc}
 1067              	.L166:
 1068              		.syntax unified
 1069              	@ 195 "Middlewares/Third_Party/FreeRTOS/Source/portable/GCC/ARM_CM4F/portmacro.h" 1
 1070 001e 4FF05003 			mov r3, #80												
 1071 0022 83F31188 		msr basepri, r3											
 1072 0026 BFF36F8F 		isb														
 1073 002a BFF34F8F 		dsb														
 1074              	
 1075              	@ 0 "" 2
 1076              		.thumb
 1077              		.syntax unified
 1078              	.L161:
 1079 002e FEE7     		b	.L161
 1080              	.L163:
 1081 0030 0124     		movs	r4, #1
 1082 0032 F0E7     		b	.L162
 1084              		.section	.text.pvTimerGetTimerID,"ax",%progbits
 1085              		.align	1
 1086              		.global	pvTimerGetTimerID
 1087              		.syntax unified
 1088              		.thumb
 1089              		.thumb_func
 1091              	pvTimerGetTimerID:
 1092              		@ args = 0, pretend = 0, frame = 0
 1093              		@ frame_needed = 0, uses_anonymous_args = 0
 1094 0000 40B1     		cbz	r0, .L172
 1095 0002 10B5     		push	{r4, lr}
 1096 0004 0446     		mov	r4, r0
 1097 0006 FFF7FEFF 		bl	vPortEnterCritical
 1098 000a E469     		ldr	r4, [r4, #28]
 1099 000c FFF7FEFF 		bl	vPortExitCritical
 1100 0010 2046     		mov	r0, r4
 1101 0012 10BD     		pop	{r4, pc}
 1102              	.L172:
 1103              		.syntax unified
 1104              	@ 195 "Middlewares/Third_Party/FreeRTOS/Source/portable/GCC/ARM_CM4F/portmacro.h" 1
 1105 0014 4FF05003 			mov r3, #80												
 1106 0018 83F31188 		msr basepri, r3											
 1107 001c BFF36F8F 		isb														
 1108 0020 BFF34F8F 		dsb														
 1109              	
 1110              	@ 0 "" 2
 1111              		.thumb
 1112              		.syntax unified
 1113              	.L169:
 1114 0024 FEE7     		b	.L169
 1116              		.section	.text.vTimerSetTimerID,"ax",%progbits
 1117              		.align	1
 1118              		.global	vTimerSetTimerID
 1119              		.syntax unified
 1120              		.thumb
 1121              		.thumb_func
 1123              	vTimerSetTimerID:
 1124              		@ args = 0, pretend = 0, frame = 0
 1125              		@ frame_needed = 0, uses_anonymous_args = 0
 1126 0000 38B5     		push	{r3, r4, r5, lr}
ARM GAS  C:\Users\fish\AppData\Local\Temp\cclZ9wKT.s 			page 20


 1127 0002 38B1     		cbz	r0, .L177
 1128 0004 0C46     		mov	r4, r1
 1129 0006 0546     		mov	r5, r0
 1130 0008 FFF7FEFF 		bl	vPortEnterCritical
 1131 000c EC61     		str	r4, [r5, #28]
 1132 000e FFF7FEFF 		bl	vPortExitCritical
 1133 0012 38BD     		pop	{r3, r4, r5, pc}
 1134              	.L177:
 1135              		.syntax unified
 1136              	@ 195 "Middlewares/Third_Party/FreeRTOS/Source/portable/GCC/ARM_CM4F/portmacro.h" 1
 1137 0014 4FF05003 			mov r3, #80												
 1138 0018 83F31188 		msr basepri, r3											
 1139 001c BFF36F8F 		isb														
 1140 0020 BFF34F8F 		dsb														
 1141              	
 1142              	@ 0 "" 2
 1143              		.thumb
 1144              		.syntax unified
 1145              	.L175:
 1146 0024 FEE7     		b	.L175
 1148              		.section	.text.xTimerPendFunctionCallFromISR,"ax",%progbits
 1149              		.align	1
 1150              		.global	xTimerPendFunctionCallFromISR
 1151              		.syntax unified
 1152              		.thumb
 1153              		.thumb_func
 1155              	xTimerPendFunctionCallFromISR:
 1156              		@ args = 0, pretend = 0, frame = 16
 1157              		@ frame_needed = 0, uses_anonymous_args = 0
 1158 0000 10B5     		push	{r4, lr}
 1159 0002 84B0     		sub	sp, sp, #16
 1160 0004 1446     		mov	r4, r2
 1161 0006 1A46     		mov	r2, r3
 1162 0008 6FF00103 		mvn	r3, #1
 1163 000c 0093     		str	r3, [sp]
 1164 000e 0190     		str	r0, [sp, #4]
 1165 0010 0291     		str	r1, [sp, #8]
 1166 0012 0394     		str	r4, [sp, #12]
 1167 0014 0023     		movs	r3, #0
 1168 0016 6946     		mov	r1, sp
 1169 0018 0248     		ldr	r0, .L180
 1170 001a 0068     		ldr	r0, [r0]
 1171 001c FFF7FEFF 		bl	xQueueGenericSendFromISR
 1172 0020 04B0     		add	sp, sp, #16
 1173              		@ sp needed
 1174 0022 10BD     		pop	{r4, pc}
 1175              	.L181:
 1176              		.align	2
 1177              	.L180:
 1178 0024 00000000 		.word	xTimerQueue
 1180              		.section	.text.xTimerPendFunctionCall,"ax",%progbits
 1181              		.align	1
 1182              		.global	xTimerPendFunctionCall
 1183              		.syntax unified
 1184              		.thumb
 1185              		.thumb_func
 1187              	xTimerPendFunctionCall:
ARM GAS  C:\Users\fish\AppData\Local\Temp\cclZ9wKT.s 			page 21


 1188              		@ args = 0, pretend = 0, frame = 16
 1189              		@ frame_needed = 0, uses_anonymous_args = 0
 1190 0000 30B5     		push	{r4, r5, lr}
 1191 0002 85B0     		sub	sp, sp, #20
 1192 0004 1446     		mov	r4, r2
 1193 0006 1A46     		mov	r2, r3
 1194 0008 0C4B     		ldr	r3, .L187
 1195 000a 1D68     		ldr	r5, [r3]
 1196 000c 65B1     		cbz	r5, .L186
 1197 000e 4FF0FF33 		mov	r3, #-1
 1198 0012 0093     		str	r3, [sp]
 1199 0014 0190     		str	r0, [sp, #4]
 1200 0016 0291     		str	r1, [sp, #8]
 1201 0018 0394     		str	r4, [sp, #12]
 1202 001a 0023     		movs	r3, #0
 1203 001c 6946     		mov	r1, sp
 1204 001e 2846     		mov	r0, r5
 1205 0020 FFF7FEFF 		bl	xQueueGenericSend
 1206 0024 05B0     		add	sp, sp, #20
 1207              		@ sp needed
 1208 0026 30BD     		pop	{r4, r5, pc}
 1209              	.L186:
 1210              		.syntax unified
 1211              	@ 195 "Middlewares/Third_Party/FreeRTOS/Source/portable/GCC/ARM_CM4F/portmacro.h" 1
 1212 0028 4FF05003 			mov r3, #80												
 1213 002c 83F31188 		msr basepri, r3											
 1214 0030 BFF36F8F 		isb														
 1215 0034 BFF34F8F 		dsb														
 1216              	
 1217              	@ 0 "" 2
 1218              		.thumb
 1219              		.syntax unified
 1220              	.L184:
 1221 0038 FEE7     		b	.L184
 1222              	.L188:
 1223 003a 00BF     		.align	2
 1224              	.L187:
 1225 003c 00000000 		.word	xTimerQueue
 1227              		.section	.text.uxTimerGetTimerNumber,"ax",%progbits
 1228              		.align	1
 1229              		.global	uxTimerGetTimerNumber
 1230              		.syntax unified
 1231              		.thumb
 1232              		.thumb_func
 1234              	uxTimerGetTimerNumber:
 1235              		@ args = 0, pretend = 0, frame = 0
 1236              		@ frame_needed = 0, uses_anonymous_args = 0
 1237              		@ link register save eliminated.
 1238 0000 406A     		ldr	r0, [r0, #36]
 1239 0002 7047     		bx	lr
 1241              		.section	.text.vTimerSetTimerNumber,"ax",%progbits
 1242              		.align	1
 1243              		.global	vTimerSetTimerNumber
 1244              		.syntax unified
 1245              		.thumb
 1246              		.thumb_func
 1248              	vTimerSetTimerNumber:
ARM GAS  C:\Users\fish\AppData\Local\Temp\cclZ9wKT.s 			page 22


 1249              		@ args = 0, pretend = 0, frame = 0
 1250              		@ frame_needed = 0, uses_anonymous_args = 0
 1251              		@ link register save eliminated.
 1252 0000 4162     		str	r1, [r0, #36]
 1253 0002 7047     		bx	lr
 1255              		.section	.bss.xStaticTimerQueue.0,"aw",%nobits
 1256              		.align	2
 1259              	xStaticTimerQueue.0:
 1260 0000 00000000 		.space	80
 1260      00000000 
 1260      00000000 
 1260      00000000 
 1260      00000000 
 1261              		.section	.bss.ucStaticTimerQueueStorage.1,"aw",%nobits
 1262              		.align	2
 1265              	ucStaticTimerQueueStorage.1:
 1266 0000 00000000 		.space	160
 1266      00000000 
 1266      00000000 
 1266      00000000 
 1266      00000000 
 1267              		.section	.bss.xLastTime.2,"aw",%nobits
 1268              		.align	2
 1271              	xLastTime.2:
 1272 0000 00000000 		.space	4
 1273              		.section	.bss.xTimerTaskHandle,"aw",%nobits
 1274              		.align	2
 1277              	xTimerTaskHandle:
 1278 0000 00000000 		.space	4
 1279              		.section	.bss.xTimerQueue,"aw",%nobits
 1280              		.align	2
 1283              	xTimerQueue:
 1284 0000 00000000 		.space	4
 1285              		.section	.bss.pxOverflowTimerList,"aw",%nobits
 1286              		.align	2
 1289              	pxOverflowTimerList:
 1290 0000 00000000 		.space	4
 1291              		.section	.bss.pxCurrentTimerList,"aw",%nobits
 1292              		.align	2
 1295              	pxCurrentTimerList:
 1296 0000 00000000 		.space	4
 1297              		.section	.bss.xActiveTimerList2,"aw",%nobits
 1298              		.align	2
 1301              	xActiveTimerList2:
 1302 0000 00000000 		.space	20
 1302      00000000 
 1302      00000000 
 1302      00000000 
 1302      00000000 
 1303              		.section	.bss.xActiveTimerList1,"aw",%nobits
 1304              		.align	2
 1307              	xActiveTimerList1:
 1308 0000 00000000 		.space	20
 1308      00000000 
 1308      00000000 
 1308      00000000 
 1308      00000000 
ARM GAS  C:\Users\fish\AppData\Local\Temp\cclZ9wKT.s 			page 23


 1309              		.ident	"GCC: (xPack GNU Arm Embedded GCC x86_64) 14.2.1 20241119"
ARM GAS  C:\Users\fish\AppData\Local\Temp\cclZ9wKT.s 			page 24

